(lp1
((S'DT'
p2
S'NN'
p3
tp4
F0.08618882689370877
tp5
a((S'IN'
p6
S'DT'
p7
tp8
F0.037689520596484574
tp9
a((S'NN'
p10
S'IN'
p11
tp12
F0.033936538672682086
tp13
a((S'NN'
p14
S'VBZ'
p15
tp16
F0.024154830467026659
tp17
a((S'TO'
p18
S'VB'
p19
tp20
F0.022318264844740334
tp21
a((S'JJ'
p22
S'NN'
p23
tp24
F0.021809216764650103
tp25
a((S'NN'
p26
S'.'
tp27
F0.018934592312375858
tp28
a((S'PRP'
p29
S'VBZ'
p30
tp31
F0.018395600227574437
tp32
a((S'IN'
p33
S'PRP'
p34
tp35
F0.017487298751335003
tp36
a((S'DT'
p37
S'JJ'
p38
tp39
F0.01617974387894637
tp40
a((S'MD'
p41
S'VB'
p42
tp43
F0.014802319662231627
tp44
a((S'VB'
p45
S'DT'
p46
tp47
F0.013804186171858624
tp48
a((S'PRP'
p49
S'VBD'
p50
tp51
F0.013404932775709423
tp52
a((S'.'
S'DT'
p53
tp54
F0.012646351323025941
tp55
a((S'VBZ'
p56
S'DT'
p57
tp58
F0.012436743290047611
tp59
a((S'NN'
p60
S'CC'
p61
tp62
F0.01200754588918722
tp63
a((S'IN'
p64
S'NN'
p65
tp66
F0.011209039096888819
tp67
a((S'PRP'
p68
S'MD'
p69
tp70
F0.011109225747851517
tp71
a((S'PRP$'
p72
S'NN'
p73
tp74
F0.010809785700739616
tp75
a((S'NN'
p76
S','
tp77
F0.010440476309301606
tp78
a((g30
S'VBG'
p79
tp80
F0.0087835747152824224
tp81
a((S'NN'
p82
S'RB'
p83
tp84
F0.0085939293521115519
tp85
a((S'PRP'
p86
S'VBP'
p87
tp88
F0.0081647319512511609
tp89
a((S'.'
g29
tp90
F0.0079651052531765597
tp91
a((S'CC'
p92
S'DT'
p93
tp94
F0.0076556838711609289
tp95
a((S'NN'
p96
S'TO'
p97
tp98
F0.0074460758381825988
tp99
a((S'IN'
p100
S'NNP'
p101
tp102
F0.0073362811542415684
tp103
a((S'VBZ'
p104
S'IN'
p105
tp106
F0.0071566171259744276
tp107
a((g3
S'VBD'
p108
tp109
F0.0068971024184774476
tp110
a((S'.'
S'IN'
p111
tp112
F0.0066375877109804667
tp113
a((S'RB'
p114
S'IN'
p115
tp116
F0.0066176250411730062
tp117
a((g11
g72
tp118
F0.0065277930270394363
tp119
a((g108
S'DT'
p120
tp121
F0.0063880543383872156
tp122
a((S'WRB'
p123
S'PRP'
p124
tp125
F0.0062283529799275353
tp126
a((S'WRB'
p127
S'DT'
p128
tp129
F0.0061884276403126152
tp130
a((S'DT'
p131
S'NNS'
p132
tp133
F0.0061085769610827751
tp134
a((S'VB'
p135
S'IN'
p136
tp137
F0.006068651621467855
tp138
a((S'NN'
p139
S'PRP'
p140
tp141
F0.006028726281852935
tp142
a((S'RB'
p143
g68
tp144
F0.0049806861169612825
tp145
a((S'JJ'
p146
S'IN'
p147
tp148
F0.0048409474283090618
tp149
a((S'JJ'
p150
S'NNS'
p151
tp152
F0.0048209847585016022
tp153
a((S'PRP'
p154
S'RB'
p155
tp156
F0.0047511154141754918
tp157
a((g147
S'VBG'
p158
tp159
F0.0046912274047531113
tp160
a((S'NNP'
p161
S'VBZ'
p162
tp163
F0.0046513020651381912
tp164
a((S'RB'
p165
S'.'
tp166
F0.0046413207302344614
tp167
a((S'RB'
p168
S'JJ'
p169
tp170
F0.0046313393953307316
tp171
a((S'VBZ'
p172
S'RB'
p173
tp174
F0.0046313393953307316
tp175
a((S'PRP'
p176
S'IN'
p177
tp178
F0.0045415073811971617
tp179
a((S'VBG'
p180
g18
tp181
F0.0045415073811971617
tp182
a((S'VB'
p183
S'PRP'
p184
tp185
F0.0045215447113897012
tp186
a((g105
g150
tp187
F0.00406240330581812
tp188
a((S'NNP'
p189
S'VBD'
p190
tp191
F0.0039426272869733598
tp192
a((S'VBZ'
p193
S'TO'
p194
tp195
F0.00393264595206963
tp196
a((S'VBG'
p197
S'IN'
p198
tp199
F0.0038527952728397894
tp200
a((g132
g33
tp201
F0.0038428139379360596
tp202
a((S'VB'
p203
g165
tp204
F0.0038328326030323294
tp205
a((S'VBN'
p206
S'IN'
p207
tp208
F0.0038128699332248693
tp209
a((S'VBD'
p210
S'IN'
p211
tp212
F0.0038028885983211395
tp213
a((g155
S'VBZ'
p214
tp215
F0.0037829259285136795
tp216
a((S'VBZ'
p217
S'PRP'
p218
tp219
F0.0037829259285136795
tp220
a((S'VBG'
p221
S'DT'
p222
tp223
F0.0037430005888987594
tp224
a((S'RB'
p225
S','
tp226
F0.0037330192539950292
tp227
a((S'VBD'
p228
S'RB'
p229
tp230
F0.0037230379190912994
tp231
a((S'RB'
p232
g203
tp233
F0.0036930939143801091
tp234
a((g214
S'JJ'
p235
tp236
F0.003633205904957729
tp237
a((S'.'
S'RB'
p238
tp239
F0.0035733178955353489
tp240
a((S'JJ'
p241
S'TO'
p242
tp243
F0.0035733178955353489
tp244
a((S'PRP$'
p245
S'JJ'
p246
tp247
F0.0035533552257278889
tp248
a((S','
S'PRP'
p249
tp250
F0.0035333925559204288
tp251
a((S','
S'CC'
p252
tp253
F0.0035134298861129688
tp254
a((S','
S'IN'
p255
tp256
F0.0035034485512092386
tp257
a((S'VBZ'
p258
S'NN'
p259
tp260
F0.0034834858814017785
tp261
a((S'CC'
p262
g154
tp263
F0.0034735045464980487
tp264
a((S'VBZ'
p265
g206
tp266
F0.0033437471927495583
tp267
a((S'.'
S'NNP'
p268
tp269
F0.0032339525088085279
tp270
a((g50
S'PRP'
p271
tp272
F0.0032139898390010678
tp273
a((S'TO'
p274
S'DT'
p275
tp276
F0.0031141764899637677
tp277
a((S'TO'
p278
S'PRP'
p279
tp280
F0.0030842324852525778
tp281
a((S'CC'
p282
S'VB'
p283
tp284
F0.0030542884805413876
tp285
a((S'NN'
p286
S'DT'
p287
tp288
F0.0030443071456376578
tp289
a((S'VB'
p290
S'JJ'
p291
tp292
F0.0030343258107339275
tp293
a((S','
g143
tp294
F0.0030143631409264675
tp295
a((S'VBP'
p296
g131
tp297
F0.0029744378013115474
tp298
a((S'VBG'
p299
g26
tp300
F0.0028247177777555969
tp301
a((S'VB'
p302
S'CC'
p303
tp304
F0.0027947737730444071
tp305
a((S'NN'
p306
S'WRB'
p307
tp308
F0.002754848433429487
tp309
a((S'NN'
p310
g41
tp311
F0.0027249044287182968
tp312
a((S'RB'
p313
S'TO'
p314
tp315
F0.0027249044287182968
tp316
a((S'VB'
p317
S'PRP$'
p318
tp319
F0.0026949604240071069
tp320
a((S','
S'DT'
p321
tp322
F0.0026849790891033767
tp323
a((S'VBD'
p324
S'VBN'
p325
tp326
F0.0025352590655474262
tp327
a((S'DT'
p328
S'IN'
p329
tp330
F0.0025252777306436964
tp331
a((S'JJ'
p332
S'CC'
p333
tp334
F0.0025152963957399662
tp335
a((S'VBD'
p336
S'TO'
p337
tp338
F0.0024953337259325061
tp339
a((g271
S'.'
tp340
F0.0024554083863175861
tp341
a((g19
S'RP'
p342
tp343
F0.0024554083863175861
tp344
a((S'NNS'
p345
S'.'
tp346
F0.0024454270514138563
tp347
a((S'NN'
p348
S'VB'
p349
tp350
F0.0023855390419914757
tp351
a((g87
S'IN'
p352
tp353
F0.0023156696976653658
tp354
a((g61
S'NN'
p355
tp356
F0.0023056883627616356
tp357
a((S'VBZ'
p358
S'WRB'
p359
tp360
F0.0021759310090131456
tp361
a((S'VB'
p362
S'TO'
p363
tp364
F0.0021360056693982255
tp365
a((S'VBG'
p366
S','
tp367
F0.0021260243344944953
tp368
a((S'NNS'
p369
S'VBP'
p370
tp371
F0.0021160429995907655
tp372
a((S'CC'
p373
S'RB'
p374
tp375
F0.0020661363250721152
tp376
a((S'PRP$'
p377
S'NNS'
p378
tp379
F0.0020361923203609249
tp380
a((S'VB'
p381
S'NN'
p382
tp383
F0.0019563416411310847
tp384
a((S','
g127
tp385
F0.0019363789713236247
tp386
a((S'DT'
p387
g358
tp388
F0.0019363789713236247
tp389
a((S'NN'
p390
S'VBG'
p391
tp392
F0.0019363789713236247
tp393
a((S'NN'
p394
S'NNS'
p395
tp396
F0.0019164163015161647
tp397
a((S'JJ'
p398
S'.'
tp399
F0.0018964536317087046
tp400
a((S','
S'NNP'
p401
tp402
F0.0018864722968049746
tp403
a((S'CC'
p404
S'VBZ'
p405
tp406
F0.0018365656222863245
tp407
a((S'IN'
p408
S'RB'
p409
tp410
F0.0018166029524788645
tp411
a((S'VB'
p412
S'.'
tp413
F0.0018066216175751345
tp414
a((S'RB'
p415
g228
tp416
F0.0017766776128639444
tp417
a((S'RB'
p418
S'CC'
p419
tp420
F0.0017367522732490244
tp421
a((S'VBN'
p422
S'TO'
p423
tp424
F0.0017167896034415643
tp425
a((S'NNS'
p426
S'CC'
p427
tp428
F0.0016968269336341043
tp429
a((S'RB'
p430
S'DT'
p431
tp432
F0.0016968269336341043
tp433
a((S'VBP'
p434
S'RB'
p435
tp436
F0.0016968269336341043
tp437
a((S'MD'
p438
S'RB'
p439
tp440
F0.0016868455987303743
tp441
a((S'VBG'
p442
S'RB'
p443
tp444
F0.0016668829289229142
tp445
a((g252
S'IN'
p446
tp447
F0.0016569015940191842
tp448
a((g173
S'VBG'
p449
tp450
F0.0016569015940191842
tp451
a((S'NNS'
p452
S'VB'
p453
tp454
F0.0016469202591154542
tp455
a((S'CC'
p456
S'JJ'
p457
tp458
F0.001636938924211724
tp459
a((S'VBD'
p460
S'JJ'
p461
tp462
F0.0016069949195005339
tp463
a((S'VBG'
p464
S'PRP'
p465
tp466
F0.0015970135845968039
tp467
a((S'VBZ'
p468
S'PRP$'
p469
tp470
F0.0015770509147893439
tp471
a((S'NNP'
p472
S'.'
tp473
F0.0015670695798856138
tp474
a((g136
S'WRB'
p475
tp476
F0.0015570882449818838
tp477
a((S'NNP'
p478
S','
tp479
F0.0015171629053669638
tp480
a((g342
S'IN'
p481
tp482
F0.0014972002355595037
tp483
a((S'PRP'
p484
S','
tp485
F0.0014872189006557737
tp486
a((S'RB'
p487
S'VBN'
p488
tp489
F0.0014872189006557737
tp490
a((S'NNP'
p491
S'NN'
p492
tp493
F0.0014672562308483137
tp494
a((g423
g245
tp495
F0.0014572748959445837
tp496
a((S','
S'VBG'
p497
tp498
F0.0014373122261371236
tp499
a((S'VBD'
p500
S'VBG'
p501
tp502
F0.0014273308912333936
tp503
a((S'IN'
p504
S'NNS'
p505
tp506
F0.0014073682214259336
tp507
a((g158
S'PRP$'
p508
tp509
F0.0013774242167147435
tp510
a((S'NN'
p511
S'WDT'
p512
tp513
F0.0013474802120035535
tp514
a((g378
S'NN'
p515
tp516
F0.0013374988770998232
tp517
a((g512
S'VBZ'
p518
tp519
F0.0013275175421960932
tp520
a((S'NNP'
p521
S'MD'
p522
tp523
F0.0012875922025811731
tp524
a((S'PRP'
p525
S'JJ'
p526
tp527
F0.0012875922025811731
tp528
a((S'NN'
p529
g472
tp530
F0.0012476668629662531
tp531
a((S'.'
S'WRB'
p532
tp533
F0.001227704193158793
tp534
a((g34
S'VB'
p535
tp536
F0.001187778853543873
tp537
a((S'VBP'
p538
S'TO'
p539
tp540
F0.001187778853543873
tp541
a((S'VBP'
p542
S'PRP'
p543
tp544
F0.0011777975186401429
tp545
a((g318
g299
tp546
F0.0011678161837364129
tp547
a((S'RB'
p548
S'WRB'
p549
tp550
F0.0011478535139289529
tp551
a((S'VB'
p552
S'VBN'
p553
tp554
F0.0011478535139289529
tp555
a((g333
S'VBD'
p556
tp557
F0.0011378721790252229
tp558
a((g461
S'PRP'
p559
tp560
F0.0011378721790252229
tp561
a((S'CC'
p562
S'VBG'
p563
tp564
F0.0011278908441214929
tp565
a((g190
S'PRP$'
p566
tp567
F0.0011278908441214929
tp568
a((S'.'
S'CC'
p569
tp570
F0.0011179095092177628
tp571
a((S'CC'
p572
S'WRB'
p573
tp574
F0.0011179095092177628
tp575
a((S'CD'
p576
S'NNP'
p577
tp578
F0.0011179095092177628
tp579
a((S'PRP'
p580
S'TO'
p581
tp582
F0.0011179095092177628
tp583
a((S'NNS'
p584
S'PRP'
p585
tp586
F0.0010979468394103028
tp587
a((g535
g180
tp588
F0.0010879655045065728
tp589
a((S'JJ'
p590
S','
tp591
F0.0010580214997953827
tp592
a((S'NNS'
p593
S'WDT'
p594
tp595
F0.0010580214997953827
tp596
a((g505
S'RB'
p597
tp598
F0.0010380588299879225
tp599
a((S'RP'
p600
S'.'
tp601
F0.0010380588299879225
tp602
a((S'DT'
p603
S'VBG'
p604
tp605
F0.0010280774950841925
tp606
a((S'NN'
p607
S'JJ'
p608
tp609
F0.0010280774950841925
tp610
a((S'DT'
p611
S'NNP'
p612
tp613
F0.0010180961601804624
tp614
a((S'CC'
p615
S'PRP$'
p616
tp617
F0.0010081148252767324
tp618
a((g235
g313
tp619
F0.0010081148252767324
tp620
a((S'PRP'
p621
S'CC'
p622
tp623
F0.0010081148252767324
tp624
a((S'VBZ'
p625
S','
tp626
F0.00098815215546927239
tp627
a((S'NNP'
p628
S'IN'
p629
tp630
F0.00097817082056554237
tp631
a((S'NNS'
p632
S','
tp633
F0.00097817082056554237
tp634
a((S'VB'
p635
S'WRB'
p636
tp637
F0.00097817082056554237
tp638
a((S'VBN'
p639
S'DT'
p640
tp641
F0.00097817082056554237
tp642
a((S'NN'
p643
S'VBP'
p644
tp645
F0.00094822681585435232
tp646
a((S'VBG'
p647
S'.'
tp648
F0.00092826414604689229
tp649
a((S'VBZ'
p650
S'CC'
p651
tp652
F0.00092826414604689229
tp653
a((S'WP'
p654
S'PRP'
p655
tp656
F0.00091828281114316227
tp657
a((g475
g139
tp658
F0.0008783574715282422
tp659
a((S'NNP'
p660
g615
tp661
F0.00086837613662451218
tp662
a((g449
S'JJ'
p663
tp664
F0.00085839480172078216
tp665
a((g111
S'VBZ'
p666
tp667
F0.00084841346681705215
tp668
a((g663
S'VB'
p669
tp670
F0.00080848812720213197
tp671
a((g644
S'VBG'
p672
tp673
F0.00080848812720213197
tp674
a((S'DT'
p675
S'RB'
p676
tp677
F0.00079850679229840195
tp678
a((S'NNS'
p679
S'TO'
p680
tp681
F0.00079850679229840195
tp682
a((S'PRP'
p683
S'DT'
p684
tp685
F0.00079850679229840195
tp686
a((S'VBD'
p687
S'NN'
p688
tp689
F0.00079850679229840195
tp690
a((S'IN'
p691
S'CD'
p692
tp693
F0.00077854412249094191
tp694
a((S'NN'
p695
S'VBN'
p696
tp697
F0.00077854412249094191
tp698
a((S'VBP'
p699
S'JJ'
p700
tp701
F0.00077854412249094191
tp702
a((S'TO'
p703
S'NN'
p704
tp705
F0.0007685627875872119
tp706
a((g532
g189
tp707
F0.0007685627875872119
tp708
a((g481
S'.'
tp709
F0.00074860011777975186
tp710
a((S'PRP'
p711
S'NN'
p712
tp713
F0.00074860011777975186
tp714
a((S'VB'
p715
S','
tp716
F0.00074860011777975186
tp717
a((S'VBD'
p718
S'.'
tp719
F0.00074860011777975186
tp720
a((S'VBN'
p721
S'RB'
p722
tp723
F0.00073861878287602184
tp724
a((S'NN'
p725
S'CD'
p726
tp727
F0.00071865611306856181
tp728
a((S'RP'
p729
g262
tp730
F0.00071865611306856181
tp731
a((S'.'
S'NN'
p732
tp733
F0.00070867477816483179
tp734
a((S'CC'
p735
S'NNS'
p736
tp737
F0.00070867477816483179
tp738
a((S'VBG'
p739
S'CC'
p740
tp741
F0.00069869344326110177
tp742
a((S'VBG'
p743
g584
tp744
F0.00069869344326110177
tp745
a((S'PDT'
p746
S'DT'
p747
tp748
F0.00067873077345364174
tp749
a((S'VBG'
p750
S'WRB'
p751
tp752
F0.00066874943854991161
tp753
a((S'RP'
p754
S'RB'
p755
tp756
F0.0006587681036461816
tp757
a((S'VB'
p758
S'NNS'
p759
tp760
F0.0006587681036461816
tp761
a((S'WDT'
p762
S'PRP'
p763
tp764
F0.0006587681036461816
tp765
a((S','
S'NN'
p766
tp767
F0.00064878676874245158
tp768
a((g676
S'NN'
p769
tp770
F0.00064878676874245158
tp771
a((S'VBN'
p772
S'.'
tp773
F0.00064878676874245158
tp774
a((S'VBZ'
p775
S'.'
tp776
F0.00064878676874245158
tp777
a((S'JJ'
p778
S'NNP'
p779
tp780
F0.00063880543383872156
tp781
a((S'WRB'
p782
S'JJ'
p783
tp784
F0.00063880543383872156
tp785
a((S'VBN'
p786
S'PRP'
p787
tp788
F0.00061884276403126152
tp789
a((g594
S'VBD'
p790
tp791
F0.00060886142912753151
tp792
a((g405
S'NNS'
p793
tp794
F0.00058889875932007147
tp795
a((S'RBR'
p796
S'JJ'
p797
tp798
F0.00057891742441634145
tp799
a((S'VBD'
p800
S'RP'
p801
tp802
F0.00057891742441634145
tp803
a((S'VBG'
p804
S'RP'
p805
tp806
F0.00057891742441634145
tp807
a((S'NNP'
p808
S'RB'
p809
tp810
F0.0005489734197051514
tp811
a((S'NNS'
p812
S'DT'
p813
tp814
F0.0005489734197051514
tp815
a((S'TO'
p816
g232
tp817
F0.0005489734197051514
tp818
a((S'VBG'
p819
g422
tp820
F0.00053899208480142138
tp821
a((S'JJ'
p822
S'DT'
p823
tp824
F0.00052901074989769137
tp825
a((S'VBN'
p826
S'CC'
p827
tp828
F0.00052901074989769137
tp829
a((S'NNS'
p830
S'VBD'
p831
tp832
F0.00051902941499396124
tp833
a((g151
g123
tp834
F0.00051902941499396124
tp835
a((S'WP'
p836
S'VBZ'
p837
tp838
F0.00051902941499396124
tp839
a((S"''"
p840
S'VBZ'
p841
tp842
F0.00050904808009023122
tp843
a((S'VB'
p844
S'JJR'
p845
tp846
F0.00050904808009023122
tp847
a((S'VBN'
p848
S'NN'
p849
tp850
F0.00050904808009023122
tp851
a((S'VBZ'
p852
S'WP'
p853
tp854
F0.00050904808009023122
tp855
a((S','
g762
tp856
F0.00048908541028277119
tp857
a((S'VBP'
p858
S'VBN'
p859
tp860
F0.00048908541028277119
tp861
a((S'TO'
p862
g660
tp863
F0.00047910407537904117
tp864
a((S'VBN'
p865
S'WRB'
p866
tp867
F0.00047910407537904117
tp868
a((S'CC'
p869
S'MD'
p870
tp871
F0.00046912274047531115
tp872
a((g325
S','
tp873
F0.00046912274047531115
tp874
a((S'NNS'
p875
S'MD'
p876
tp877
F0.00045914140557158113
tp878
a((S'.'
S'VBG'
p879
tp880
F0.00044916007066785112
tp881
a((S'IN'
p882
S','
tp883
F0.00044916007066785112
tp884
a((S'IN'
p885
S'WP'
p886
tp887
F0.00044916007066785112
tp888
a((S'RB'
p889
S'MD'
p890
tp891
F0.00044916007066785112
tp892
a((S','
S'VBZ'
p893
tp894
F0.0004391787357641211
tp895
a((S'CD'
p896
S'NN'
p897
tp898
F0.0004391787357641211
tp899
a((S'NNP'
p900
S'DT'
p901
tp902
F0.0004391787357641211
tp903
a((S','
S'JJ'
p904
tp905
F0.00042919740086039108
tp906
a((S'.'
S'PRP$'
p907
tp908
F0.00040923473105293099
tp909
a((S'IN'
p910
S'VBD'
p911
tp912
F0.00040923473105293099
tp913
a((S'VB'
p914
S'RBR'
p915
tp916
F0.00040923473105293099
tp917
a((S'NN'
p918
S':'
tp919
F0.00039925339614920097
tp920
a((S'NNP'
p921
S'PRP'
p922
tp923
F0.00039925339614920097
tp924
a((S'NNS'
p925
S'VBG'
p926
tp927
F0.00039925339614920097
tp928
a((S'PRP'
p929
S'RP'
p930
tp931
F0.00039925339614920097
tp932
a((S'VBZ'
p933
S'RP'
p934
tp935
F0.00039925339614920097
tp936
a((S'NNS'
p937
S'JJ'
p938
tp939
F0.00038927206124547096
tp940
a((S'WP'
p941
S'DT'
p942
tp943
F0.00038927206124547096
tp944
a((S'CC'
p945
S'VBP'
p946
tp947
F0.00037929072634174094
tp948
a((S'JJR'
p949
S'NN'
p950
tp951
F0.00037929072634174094
tp952
a((S'PRP'
p953
S'VBG'
p954
tp955
F0.00037929072634174094
tp956
a((S','
S'VBD'
p957
tp958
F0.00036930939143801092
tp959
a((S'CC'
p960
S'TO'
p961
tp962
F0.00036930939143801092
tp963
a((g7
g296
tp964
F0.00036930939143801092
tp965
a((S'JJR'
p966
S'IN'
p967
tp968
F0.00036930939143801092
tp969
a((S'RB'
p970
S'NNP'
p971
tp972
F0.00036930939143801092
tp973
a((S','
S'PRP$'
p974
tp975
F0.0003593280565342809
tp976
a((S'PRP'
p977
S'NNS'
p978
tp979
F0.0003593280565342809
tp980
a((S'TO'
p981
S'VBG'
p982
tp983
F0.0003593280565342809
tp984
a((S'VBD'
p985
S','
tp986
F0.0003593280565342809
tp987
a((S'VBN'
p988
S'PRP$'
p989
tp990
F0.0003593280565342809
tp991
a((S':'
S'PRP'
p992
tp993
F0.00034934672163055089
tp994
a((S'RB'
p995
S'VBP'
p996
tp997
F0.00034934672163055089
tp998
a((S'RP'
p999
S','
tp1000
F0.00034934672163055089
tp1001
a((S'NNP'
p1002
S'VBG'
p1003
tp1004
F0.00033936538672682087
tp1005
a((S'TO'
p1006
S'IN'
p1007
tp1008
F0.00033936538672682087
tp1009
a((S'TO'
p1010
S'JJ'
p1011
tp1012
F0.00033936538672682087
tp1013
a((S'VB'
p1014
S'NNP'
p1015
tp1016
F0.0003293840518230908
tp1017
a((S'VB'
p1018
S'WP'
p1019
tp1020
F0.0003293840518230908
tp1021
a((S'DT'
p1022
S'TO'
p1023
tp1024
F0.00031940271691936078
tp1025
a((g704
S'PRP$'
p1026
tp1027
F0.00031940271691936078
tp1028
a((S'WDT'
p1029
S'MD'
p1030
tp1031
F0.00031940271691936078
tp1032
a((S'IN'
p1033
S'CC'
p1034
tp1035
F0.00030942138201563076
tp1036
a((S'NNS'
p1037
S'POS'
p1038
tp1039
F0.00030942138201563076
tp1040
a((S'RP'
p1041
S'DT'
p1042
tp1043
F0.00030942138201563076
tp1044
a((S'TO'
p1045
S'NNS'
p1046
tp1047
F0.00030942138201563076
tp1048
a((S','
S'NNS'
p1049
tp1050
F0.00029944004711190074
tp1051
a((S'IN'
p1052
S'TO'
p1053
tp1054
F0.00029944004711190074
tp1055
a((S'NN'
p1056
S'RP'
p1057
tp1058
F0.00029944004711190074
tp1059
a((S'NNP'
p1060
S'VBN'
p1061
tp1062
F0.00029944004711190074
tp1063
a((S'VBP'
p1064
S'NN'
p1065
tp1066
F0.00029944004711190074
tp1067
a((S'.'
S'NNS'
p1068
tp1069
F0.00028945871220817073
tp1070
a((S'DT'
p1071
S'VB'
p1072
tp1073
F0.00028945871220817073
tp1074
a((S'JJR'
p1075
S'.'
tp1076
F0.00028945871220817073
tp1077
a((g859
S'JJ'
p1078
tp1079
F0.00028945871220817073
tp1080
a((S'.'
S'JJ'
p1081
tp1082
F0.00027947737730444071
tp1083
a((S'CC'
p1084
S'NNP'
p1085
tp1086
F0.00027947737730444071
tp1087
a((S'DT'
p1088
S'.'
tp1089
F0.00027947737730444071
tp1090
a((g218
S':'
tp1091
F0.00027947737730444071
tp1092
a((S'VBN'
p1093
S'VBG'
p1094
tp1095
F0.00027947737730444071
tp1096
a((S'WDT'
p1097
S'VBP'
p1098
tp1099
F0.00027947737730444071
tp1100
a((S'DT'
p1101
S'PRP'
p1102
tp1103
F0.00026949604240071069
tp1104
a((S'EX'
p1105
S'VBZ'
p1106
tp1107
F0.00026949604240071069
tp1108
a((S'IN'
p1109
S'WDT'
p1110
tp1111
F0.00026949604240071069
tp1112
a((S'NNP'
p1113
S'VBP'
p1114
tp1115
F0.00026949604240071069
tp1116
a((S'VBG'
p1117
S'VBZ'
p1118
tp1119
F0.00026949604240071069
tp1120
a((S'VBZ'
p1121
S'VB'
p1122
tp1123
F0.00026949604240071069
tp1124
a((S'.'
g896
tp1125
F0.00025951470749698062
tp1126
a((S'.'
S'VB'
p1127
tp1128
F0.00025951470749698062
tp1129
a((g427
g786
tp1130
F0.00025951470749698062
tp1131
a((S'DT'
p1132
g848
tp1133
F0.00025951470749698062
tp1134
a((S'NNP'
p1135
S'VB'
p1136
tp1137
F0.00025951470749698062
tp1138
a((S'NNS'
p1139
S'VBZ'
p1140
tp1141
F0.00025951470749698062
tp1142
a((S'VBP'
p1143
S'.'
tp1144
F0.00025951470749698062
tp1145
a((S'WRB'
p1146
S'PRP$'
p1147
tp1148
F0.00025951470749698062
tp1149
a((S'JJ'
p1150
S'WRB'
p1151
tp1152
F0.0002495333725932506
tp1153
a((S'MD'
p1154
S'PRP'
p1155
tp1156
F0.0002495333725932506
tp1157
a((S'VBD'
p1158
g404
tp1159
F0.0002495333725932506
tp1160
a((g488
g600
tp1161
F0.0002495333725932506
tp1162
a((S'IN'
p1163
S'EX'
p1164
tp1165
F0.00023955203768952058
tp1166
a((S'NNP'
p1167
S'TO'
p1168
tp1169
F0.00023955203768952058
tp1170
a((S'POS'
p1171
S'NN'
p1172
tp1173
F0.00023955203768952058
tp1174
a((S'VBP'
p1175
S','
tp1176
F0.00023955203768952058
tp1177
a((S'VBP'
p1178
S'NNS'
p1179
tp1180
F0.00023955203768952058
tp1181
a((S'WRB'
p1182
S'NNS'
p1183
tp1184
F0.00023955203768952058
tp1185
a((S'IN'
p1186
S'PDT'
p1187
tp1188
F0.00022957070278579057
tp1189
a((S'NN'
p1190
g840
tp1191
F0.00022957070278579057
tp1192
a((S'VBZ'
p1193
g1075
tp1194
F0.00022957070278579057
tp1195
a((S','
S'TO'
p1196
tp1197
F0.00021958936788206055
tp1198
a((S'DT'
p1199
S'VBD'
p1200
tp1201
F0.00021958936788206055
tp1202
a((S'NN'
p1203
S'WP'
p1204
tp1205
F0.00021958936788206055
tp1206
a((S'RP'
p1207
S'TO'
p1208
tp1209
F0.00021958936788206055
tp1210
a((S'VBD'
p1211
S'WRB'
p1212
tp1213
F0.00021958936788206055
tp1214
a((S'CD'
p1215
S'IN'
p1216
tp1217
F0.00020960803297833053
tp1218
a((S'RBR'
p1219
S'IN'
p1220
tp1221
F0.00020960803297833053
tp1222
a((S'WP'
p1223
S'VBD'
p1224
tp1225
F0.00020960803297833053
tp1226
a((S','
g183
tp1227
F0.00019962669807460049
tp1228
a((S'CC'
p1229
S'WP'
p1230
tp1231
F0.00019962669807460049
tp1232
a((S'DT'
p1233
S'MD'
p1234
tp1235
F0.00019962669807460049
tp1236
a((S'MD'
p1237
S'NN'
p1238
tp1239
F0.00019962669807460049
tp1240
a((S'NNP'
p1241
S'NNPS'
p1242
tp1243
F0.00019962669807460049
tp1244
a((S'POS'
p1245
S'VBZ'
p1246
tp1247
F0.00019962669807460049
tp1248
a((S'PRP'
p1249
S'VBN'
p1250
tp1251
F0.00019962669807460049
tp1252
a((S'PRP'
p1253
S'WRB'
p1254
tp1255
F0.00019962669807460049
tp1256
a((S'RB'
p1257
S'PRP$'
p1258
tp1259
F0.00019962669807460049
tp1260
a((S'VBG'
p1261
S'NNP'
p1262
tp1263
F0.00019962669807460049
tp1264
a((g692
S'WRB'
p1265
tp1266
F0.00018964536317087047
tp1267
a((S'PRP$'
p1268
S'RB'
p1269
tp1270
F0.00018964536317087047
tp1271
a((S'DT'
p1272
S','
tp1273
F0.00017966402826714045
tp1274
a((S'NNP'
p1275
g1037
tp1276
F0.00017966402826714045
tp1277
a((S'.'
S'TO'
p1278
tp1279
F0.00016968269336341043
tp1280
a((S'DT'
p1281
S'CD'
p1282
tp1283
F0.00016968269336341043
tp1284
a((S'IN'
p1285
S'VB'
p1286
tp1287
F0.00016968269336341043
tp1288
a((S'JJ'
p1289
S'PRP$'
p1290
tp1291
F0.00016968269336341043
tp1292
a((S'JJS'
p1293
S'IN'
p1294
tp1295
F0.00016968269336341043
tp1296
a((S'NNP'
p1297
g1245
tp1298
F0.00016968269336341043
tp1299
a((S'RB'
p1300
S'NNS'
p1301
tp1302
F0.00016968269336341043
tp1303
a((S'VBD'
p1304
g576
tp1305
F0.00016968269336341043
tp1306
a((S'VBP'
p1307
S'PRP$'
p1308
tp1309
F0.00016968269336341043
tp1310
a((S'VBZ'
p1311
S'NNP'
p1312
tp1313
F0.00016968269336341043
tp1314
a((S'.'
S'VBD'
p1315
tp1316
F0.00015970135845968039
tp1317
a((S'CD'
p1318
g925
tp1319
F0.00015970135845968039
tp1320
a((S'JJ'
p1321
S'VBG'
p1322
tp1323
F0.00015970135845968039
tp1324
a((S'NNS'
p1325
S'VBN'
p1326
tp1327
F0.00015970135845968039
tp1328
a((S'TO'
p1329
S'.'
tp1330
F0.00015970135845968039
tp1331
a((S'VBN'
p1332
S'NNS'
p1333
tp1334
F0.00015970135845968039
tp1335
a((S'WDT'
p1336
S'RB'
p1337
tp1338
F0.00015970135845968039
tp1339
a((S'WRB'
p1340
S'RB'
p1341
tp1342
F0.00015970135845968039
tp1343
a((S':'
S'IN'
p1344
tp1345
F0.00014972002355595037
tp1346
a((S'RB'
p1347
g754
tp1348
F0.00014972002355595037
tp1349
a((S'TO'
p1350
S'WRB'
p1351
tp1352
F0.00014972002355595037
tp1353
a((S'VBN'
p1354
S'NNP'
p1355
tp1356
F0.00014972002355595037
tp1357
a((S'WDT'
p1358
S'NN'
p1359
tp1360
F0.00014972002355595037
tp1361
a((S'DT'
p1362
S'JJS'
p1363
tp1364
F0.00013973868865222035
tp1365
a((g1164
g438
tp1366
F0.00013973868865222035
tp1367
a((S'EX'
p1368
g1178
tp1369
F0.00013973868865222035
tp1370
a((S'JJ'
p1371
g1318
tp1372
F0.00013973868865222035
tp1373
a((S'NN'
p1374
S'RBR'
p1375
tp1376
F0.00013973868865222035
tp1377
a((S'RB'
p1378
S'WDT'
p1379
tp1380
F0.00013973868865222035
tp1381
a((S'VBD'
p1382
S'VB'
p1383
tp1384
F0.00013973868865222035
tp1385
a((S'VBP'
p1386
S'CC'
p1387
tp1388
F0.00013973868865222035
tp1389
a((S'VBP'
p1390
S'WRB'
p1391
tp1392
F0.00013973868865222035
tp1393
a((S'WDT'
p1394
S'NNP'
p1395
tp1396
F0.00013973868865222035
tp1397
a((S'.'
g1368
tp1398
F0.00012975735374849031
tp1399
a((S'.'
S'VBZ'
p1400
tp1401
F0.00012975735374849031
tp1402
a((S'JJR'
p1403
S'CC'
p1404
tp1405
F0.00012975735374849031
tp1406
a((g845
g345
tp1407
F0.00012975735374849031
tp1408
a((S'PRP'
p1409
S'POS'
p1410
tp1411
F0.00012975735374849031
tp1412
a((S'PRP$'
p1413
S'IN'
p1414
tp1415
F0.00012975735374849031
tp1416
a((S'RBR'
p1417
S'VBN'
p1418
tp1419
F0.00012975735374849031
tp1420
a((S'VBD'
p1421
S'NNP'
p1422
tp1423
F0.00012975735374849031
tp1424
a((S'VBP'
p1425
S'VBZ'
p1426
tp1427
F0.00012975735374849031
tp1428
a((S'VBP'
p1429
S'WP'
p1430
tp1431
F0.00012975735374849031
tp1432
a((S'WRB'
p1433
S'VBG'
p1434
tp1435
F0.00012975735374849031
tp1436
a((S','
S'CD'
p1437
tp1438
F0.00011977601884476029
tp1439
a((S'CC'
p1440
S','
tp1441
F0.00011977601884476029
tp1442
a((S'CD'
p1443
S'.'
tp1444
F0.00011977601884476029
tp1445
a((S'JJ'
p1446
S'VBZ'
p1447
tp1448
F0.00011977601884476029
tp1449
a((S'MD'
p1450
S'IN'
p1451
tp1452
F0.00011977601884476029
tp1453
a((g1355
S'WRB'
p1454
tp1455
F0.00011977601884476029
tp1456
a((S'NNS'
p1457
S'WP'
p1458
tp1459
F0.00011977601884476029
tp1460
a((S'PRP'
p1461
S"''"
p1462
tp1463
F0.00011977601884476029
tp1464
a((S'PRP$'
p1465
S'DT'
p1466
tp1467
F0.00011977601884476029
tp1468
a((g915
S'.'
tp1469
F0.00011977601884476029
tp1470
a((S'RP'
p1471
S'NN'
p1472
tp1473
F0.00011977601884476029
tp1474
a((S'VB'
p1475
S'VBZ'
p1476
tp1477
F0.00011977601884476029
tp1478
a((S'VBP'
p1479
S'VB'
p1480
tp1481
F0.00011977601884476029
tp1482
a((S','
S'MD'
p1483
tp1484
F0.00010979468394103027
tp1485
a((S','
S'VBN'
p1486
tp1487
F0.00010979468394103027
tp1488
a((S'.'
S'VBN'
p1489
tp1490
F0.00010979468394103027
tp1491
a((S'CC'
p1492
S'RBR'
p1493
tp1494
F0.00010979468394103027
tp1495
a((S'CC'
p1496
g1029
tp1497
F0.00010979468394103027
tp1498
a((S'CD'
p1499
S'PRP'
p1500
tp1501
F0.00010979468394103027
tp1502
a((S'DT'
p1503
S'JJR'
p1504
tp1505
F0.00010979468394103027
tp1506
a((S'JJ'
p1507
S'VBP'
p1508
tp1509
F0.00010979468394103027
tp1510
a((S'MD'
p1511
S'VBP'
p1512
tp1513
F0.00010979468394103027
tp1514
a((g1242
S'.'
tp1515
F0.00010979468394103027
tp1516
a((S'POS'
p1517
S'NNS'
p1518
tp1519
F0.00010979468394103027
tp1520
a((S'RB'
p1521
S'RBR'
p1522
tp1523
F0.00010979468394103027
tp1524
a((S'RBS'
p1525
S'JJ'
p1526
tp1527
F0.00010979468394103027
tp1528
a((S'RP'
p1529
S'PRP$'
p1530
tp1531
F0.00010979468394103027
tp1532
a((S'VBD'
p1533
S'NNS'
p1534
tp1535
F0.00010979468394103027
tp1536
a((S'VBG'
p1537
S'VBD'
p1538
tp1539
F0.00010979468394103027
tp1540
a((S'WP'
p1541
S'NNP'
p1542
tp1543
F0.00010979468394103027
tp1544
a((S':'
S'JJ'
p1545
tp1546
F9.9813349037300244e-05
tp1547
a((S':'
S'NN'
p1548
tp1549
F9.9813349037300244e-05
tp1550
a((S'CD'
p1551
S'JJ'
p1552
tp1553
F9.9813349037300244e-05
tp1554
a((S'IN'
p1555
S':'
tp1556
F9.9813349037300244e-05
tp1557
a((S'PRP'
p1558
S'WP'
p1559
tp1560
F9.9813349037300244e-05
tp1561
a((S'PRP$'
p1562
S'JJS'
p1563
tp1564
F9.9813349037300244e-05
tp1565
a((S'RBS'
p1566
S'RB'
p1567
tp1568
F9.9813349037300244e-05
tp1569
a((S'VBD'
p1570
S'RBR'
p1571
tp1572
F9.9813349037300244e-05
tp1573
a((S'VBP'
p1574
S'RP'
p1575
tp1576
F9.9813349037300244e-05
tp1577
a((S'VBZ'
p1578
S'RBR'
p1579
tp1580
F9.9813349037300244e-05
tp1581
a((S'DT'
p1582
S'CC'
p1583
tp1584
F8.9832014133570226e-05
tp1585
a((S'DT'
p1586
S'WRB'
p1587
tp1588
F8.9832014133570226e-05
tp1589
a((S'IN'
p1590
S'JJS'
p1591
tp1592
F8.9832014133570226e-05
tp1593
a((S'IN'
p1594
g1093
tp1595
F8.9832014133570226e-05
tp1596
a((S'MD'
p1597
S'NNP'
p1598
tp1599
F8.9832014133570226e-05
tp1600
a((S'NNS'
p1601
S'PRP$'
p1602
tp1603
F8.9832014133570226e-05
tp1604
a((S'POS'
p1605
S'JJ'
p1606
tp1607
F8.9832014133570226e-05
tp1608
a((S'PRP'
p1609
S'NNP'
p1610
tp1611
F8.9832014133570226e-05
tp1612
a((S'PRP'
p1613
S'WDT'
p1614
tp1615
F8.9832014133570226e-05
tp1616
a((S'TO'
p1617
S'VBP'
p1618
tp1619
F8.9832014133570226e-05
tp1620
a((S'VB'
p1621
S':'
tp1622
F8.9832014133570226e-05
tp1623
a((S'VBD'
p1624
S'WP'
p1625
tp1626
F8.9832014133570226e-05
tp1627
a((S','
S'VBP'
p1628
tp1629
F7.9850679229840195e-05
tp1630
a((S'.'
S'WP'
p1631
tp1632
F7.9850679229840195e-05
tp1633
a((S':'
S'RB'
p1634
tp1635
F7.9850679229840195e-05
tp1636
a((S'EX'
p1637
S'VBD'
p1638
tp1639
F7.9850679229840195e-05
tp1640
a((g1363
S'NNS'
p1641
tp1642
F7.9850679229840195e-05
tp1643
a((S'NN'
p1644
g1566
tp1645
F7.9850679229840195e-05
tp1646
a((S'NNP'
p1647
S'JJ'
p1648
tp1649
F7.9850679229840195e-05
tp1650
a((S'NNP'
p1651
S'WDT'
p1652
tp1653
F7.9850679229840195e-05
tp1654
a((S'RB'
p1655
S':'
tp1656
F7.9850679229840195e-05
tp1657
a((S'RBR'
p1658
S'CC'
p1659
tp1660
F7.9850679229840195e-05
tp1661
a((S'VB'
p1662
S'VBD'
p1663
tp1664
F7.9850679229840195e-05
tp1665
a((S'VBG'
p1666
S'CD'
p1667
tp1668
F7.9850679229840195e-05
tp1669
a((S'VBG'
p1670
S'WP'
p1671
tp1672
F7.9850679229840195e-05
tp1673
a((S'VBP'
p1674
S'JJR'
p1675
tp1676
F7.9850679229840195e-05
tp1677
a((S'VBP'
p1678
S'NNP'
p1679
tp1680
F7.9850679229840195e-05
tp1681
a((S'VBZ'
p1682
g1358
tp1683
F7.9850679229840195e-05
tp1684
a((S'WP'
p1685
S'MD'
p1686
tp1687
F7.9850679229840195e-05
tp1688
a((S'WRB'
p1689
S'IN'
p1690
tp1691
F7.9850679229840195e-05
tp1692
a((S'WRB'
p1693
g1154
tp1694
F7.9850679229840195e-05
tp1695
a((S':'
S'DT'
p1696
tp1697
F6.9869344326110177e-05
tp1698
a((S':'
S'VB'
p1699
tp1700
F6.9869344326110177e-05
tp1701
a((S'CC'
p1702
S'PDT'
p1703
tp1704
F6.9869344326110177e-05
tp1705
a((S'JJ'
p1706
S'JJR'
p1707
tp1708
F6.9869344326110177e-05
tp1709
a((S'JJ'
p1710
S'VBN'
p1711
tp1712
F6.9869344326110177e-05
tp1713
a((S'JJR'
p1714
S','
tp1715
F6.9869344326110177e-05
tp1716
a((S'JJR'
p1717
S'TO'
p1718
tp1719
F6.9869344326110177e-05
tp1720
a((S'NNP'
p1721
S':'
tp1722
F6.9869344326110177e-05
tp1723
a((S'NNPS'
p1724
S'IN'
p1725
tp1726
F6.9869344326110177e-05
tp1727
a((S'PRP'
p1728
S'JJR'
p1729
tp1730
F6.9869344326110177e-05
tp1731
a((S'RB'
p1732
S'JJR'
p1733
tp1734
F6.9869344326110177e-05
tp1735
a((S'RB'
p1736
g654
tp1737
F6.9869344326110177e-05
tp1738
a((S'RP'
p1739
S'NNS'
p1740
tp1741
F6.9869344326110177e-05
tp1742
a((S'RP'
p1743
S'VBG'
p1744
tp1745
F6.9869344326110177e-05
tp1746
a((S'VB'
p1747
S'POS'
p1748
tp1749
F6.9869344326110177e-05
tp1750
a((S'VBD'
p1751
S'VBZ'
p1752
tp1753
F6.9869344326110177e-05
tp1754
a((S'VBG'
p1755
S'JJR'
p1756
tp1757
F6.9869344326110177e-05
tp1758
a((S'VBG'
p1759
S'RBR'
p1760
tp1761
F6.9869344326110177e-05
tp1762
a((S'VBG'
p1763
S'WDT'
p1764
tp1765
F6.9869344326110177e-05
tp1766
a((S'VBZ'
p1767
S'PDT'
p1768
tp1769
F6.9869344326110177e-05
tp1770
a((S'WDT'
p1771
g812
tp1772
F6.9869344326110177e-05
tp1773
a((S','
S'EX'
p1774
tp1775
F5.9888009422380146e-05
tp1776
a((S'.'
S'WDT'
p1777
tp1778
F5.9888009422380146e-05
tp1779
a((S':'
S'NNS'
p1780
tp1781
F5.9888009422380146e-05
tp1782
a((S'CC'
p1783
g966
tp1784
F5.9888009422380146e-05
tp1785
a((S'CD'
p1786
S','
tp1787
F5.9888009422380146e-05
tp1788
a((S'DT'
p1789
S'NNPS'
p1790
tp1791
F5.9888009422380146e-05
tp1792
a((S'IN'
p1793
S'MD'
p1794
tp1795
F5.9888009422380146e-05
tp1796
a((S'IN'
p1797
S'VBP'
p1798
tp1799
F5.9888009422380146e-05
tp1800
a((S'JJ'
p1801
S':'
tp1802
F5.9888009422380146e-05
tp1803
a((S'JJ'
p1804
S'VBD'
p1805
tp1806
F5.9888009422380146e-05
tp1807
a((S'JJR'
p1808
S'RB'
p1809
tp1810
F5.9888009422380146e-05
tp1811
a((S'MD'
p1812
S'.'
tp1813
F5.9888009422380146e-05
tp1814
a((S'MD'
p1815
S'TO'
p1816
tp1817
F5.9888009422380146e-05
tp1818
a((S'NN'
p1819
S'EX'
p1820
tp1821
F5.9888009422380146e-05
tp1822
a((S'NNP'
p1823
S'FW'
p1824
tp1825
F5.9888009422380146e-05
tp1826
a((g1790
S'NNP'
p1827
tp1828
F5.9888009422380146e-05
tp1829
a((S'NNS'
p1830
S'NNP'
p1831
tp1832
F5.9888009422380146e-05
tp1833
a((S'RB'
p1834
S'CD'
p1835
tp1836
F5.9888009422380146e-05
tp1837
a((S'VBD'
p1838
S'PDT'
p1839
tp1840
F5.9888009422380146e-05
tp1841
a((S'VBN'
p1842
S'VBD'
p1843
tp1844
F5.9888009422380146e-05
tp1845
a((S'VBN'
p1846
g836
tp1847
F5.9888009422380146e-05
tp1848
a((S'VBZ'
p1849
S'CD'
p1850
tp1851
F5.9888009422380146e-05
tp1852
a((S'VBZ'
p1853
S'VBD'
p1854
tp1855
F5.9888009422380146e-05
tp1856
a((S'VBZ'
p1857
S'VBP'
p1858
tp1859
F5.9888009422380146e-05
tp1860
a((S'WP'
p1861
S'PRP$'
p1862
tp1863
F5.9888009422380146e-05
tp1864
a((S'WP'
p1865
S'VBP'
p1866
tp1867
F5.9888009422380146e-05
tp1868
a((S'WRB'
p1869
S'TO'
p1870
tp1871
F5.9888009422380146e-05
tp1872
a((S':'
g1135
tp1873
F4.9906674518650122e-05
tp1874
a((S'CD'
p1875
S'RB'
p1876
tp1877
F4.9906674518650122e-05
tp1878
a((S'DT'
p1879
S'RBS'
p1880
tp1881
F4.9906674518650122e-05
tp1882
a((S'FW'
p1883
S'NNP'
p1884
tp1885
F4.9906674518650122e-05
tp1886
a((S'IN'
p1887
S"''"
p1888
tp1889
F4.9906674518650122e-05
tp1890
a((S'IN'
p1891
S'JJR'
p1892
tp1893
F4.9906674518650122e-05
tp1894
a((g1563
S'.'
tp1895
F4.9906674518650122e-05
tp1896
a((S'JJS'
p1897
S'NN'
p1898
tp1899
F4.9906674518650122e-05
tp1900
a((S'MD'
p1901
S'CC'
p1902
tp1903
F4.9906674518650122e-05
tp1904
a((S'MD'
p1905
S'VBG'
p1906
tp1907
F4.9906674518650122e-05
tp1908
a((S'NN'
p1909
g1717
tp1910
F4.9906674518650122e-05
tp1911
a((S'PRP'
p1912
S'PRP$'
p1913
tp1914
F4.9906674518650122e-05
tp1915
a((S'PRP$'
p1916
S'VBN'
p1917
tp1918
F4.9906674518650122e-05
tp1919
a((S'PRP$'
p1920
S'VBZ'
p1921
tp1922
F4.9906674518650122e-05
tp1923
a((S'RP'
p1924
S'WRB'
p1925
tp1926
F4.9906674518650122e-05
tp1927
a((S'TO'
p1928
S'CC'
p1929
tp1930
F4.9906674518650122e-05
tp1931
a((S'TO'
p1932
S'VBN'
p1933
tp1934
F4.9906674518650122e-05
tp1935
a((S'TO'
p1936
S'WP'
p1937
tp1938
F4.9906674518650122e-05
tp1939
a((S'VB'
p1940
S'CD'
p1941
tp1942
F4.9906674518650122e-05
tp1943
a((S'VB'
p1944
S'PDT'
p1945
tp1946
F4.9906674518650122e-05
tp1947
a((S'VBG'
p1948
S"''"
p1949
tp1950
F4.9906674518650122e-05
tp1951
a((S'VBG'
p1952
g1143
tp1953
F4.9906674518650122e-05
tp1954
a((S'VBP'
p1955
g796
tp1956
F4.9906674518650122e-05
tp1957
a((g1019
S'NN'
p1958
tp1959
F4.9906674518650122e-05
tp1960
a((S"''"
p1961
S'JJ'
p1962
tp1963
F3.9925339614920097e-05
tp1964
a((S"''"
p1965
S'PRP'
p1966
tp1967
F3.9925339614920097e-05
tp1968
a((S','
S'JJR'
p1969
tp1970
F3.9925339614920097e-05
tp1971
a((S','
S'WP'
p1972
tp1973
F3.9925339614920097e-05
tp1974
a((S'.'
S'PDT'
p1975
tp1976
F3.9925339614920097e-05
tp1977
a((S':'
S'VBG'
p1978
tp1979
F3.9925339614920097e-05
tp1980
a((S'CC'
p1981
S'EX'
p1982
tp1983
F3.9925339614920097e-05
tp1984
a((S'CD'
p1985
S'NNPS'
p1986
tp1987
F3.9925339614920097e-05
tp1988
a((S'CD'
p1989
S'VBZ'
p1990
tp1991
F3.9925339614920097e-05
tp1992
a((S'DT'
p1993
S'RBR'
p1994
tp1995
F3.9925339614920097e-05
tp1996
a((g747
S'RP'
p1997
tp1998
F3.9925339614920097e-05
tp1999
a((S'MD'
p2000
S'JJ'
p2001
tp2002
F3.9925339614920097e-05
tp2003
a((S'MD'
p2004
S'VBN'
p2005
tp2006
F3.9925339614920097e-05
tp2007
a((S'NN'
p2008
S'POS'
p2009
tp2010
F3.9925339614920097e-05
tp2011
a((S'NN'
p2012
S'SYM'
p2013
tp2014
F3.9925339614920097e-05
tp2015
a((S'NNP'
p2016
S"''"
p2017
tp2018
F3.9925339614920097e-05
tp2019
a((S'NNP'
p2020
S'CD'
p2021
tp2022
F3.9925339614920097e-05
tp2023
a((g1839
S'PRP$'
p2024
tp2025
F3.9925339614920097e-05
tp2026
a((S'PRP$'
p2027
S'CC'
p2028
tp2029
F3.9925339614920097e-05
tp2030
a((S'PRP$'
p2031
S'JJR'
p2032
tp2033
F3.9925339614920097e-05
tp2034
a((g1375
S'RB'
p2035
tp2036
F3.9925339614920097e-05
tp2037
a((g2013
S'NN'
p2038
tp2039
F3.9925339614920097e-05
tp2040
a((S'TO'
p2041
S'VBD'
p2042
tp2043
F3.9925339614920097e-05
tp2044
a((S'VBG'
p2045
S'VB'
p2046
tp2047
F3.9925339614920097e-05
tp2048
a((S'VBN'
p2049
S'VBZ'
p2050
tp2051
F3.9925339614920097e-05
tp2052
a((S'VBP'
p2053
S"''"
p2054
tp2055
F3.9925339614920097e-05
tp2056
a((S'VBZ'
p2057
S'MD'
p2058
tp2059
F3.9925339614920097e-05
tp2060
a((S'VBZ'
p2061
S'RBS'
p2062
tp2063
F3.9925339614920097e-05
tp2064
a((S'WDT'
p2065
S'JJ'
p2066
tp2067
F3.9925339614920097e-05
tp2068
a((S'WP'
p2069
S'.'
tp2070
F3.9925339614920097e-05
tp2071
a((S'WRB'
p2072
S'VBD'
p2073
tp2074
F3.9925339614920097e-05
tp2075
a((S'WRB'
p2076
S'VBZ'
p2077
tp2078
F3.9925339614920097e-05
tp2079
a((S'.'
S'RBR'
p2080
tp2081
F2.9944004711190073e-05
tp2082
a((S'.'
S'UH'
p2083
tp2084
F2.9944004711190073e-05
tp2085
a((S':'
S'CC'
p2086
tp2087
F2.9944004711190073e-05
tp2088
a((S':'
S'WDT'
p2089
tp2090
F2.9944004711190073e-05
tp2091
a((S'CC'
p2092
g1786
tp2093
F2.9944004711190073e-05
tp2094
a((S'DT'
p2095
S'PRP$'
p2096
tp2097
F2.9944004711190073e-05
tp2098
a((S'DT'
p2099
S'WDT'
p2100
tp2101
F2.9944004711190073e-05
tp2102
a((S'FW'
p2103
S'MD'
p2104
tp2105
F2.9944004711190073e-05
tp2106
a((S'JJS'
p2107
S'TO'
p2108
tp2109
F2.9944004711190073e-05
tp2110
a((S'MD'
p2111
S'DT'
p2112
tp2113
F2.9944004711190073e-05
tp2114
a((S'MD'
p2115
S'VBD'
p2116
tp2117
F2.9944004711190073e-05
tp2118
a((S'NN'
p2119
S'PDT'
p2120
tp2121
F2.9944004711190073e-05
tp2122
a((S'NNPS'
p2123
S'CC'
p2124
tp2125
F2.9944004711190073e-05
tp2126
a((S'NNS'
p2127
S':'
tp2128
F2.9944004711190073e-05
tp2129
a((S'NNS'
p2130
g746
tp2131
F2.9944004711190073e-05
tp2132
a((S'NNS'
p2133
S'RP'
p2134
tp2135
F2.9944004711190073e-05
tp2136
a((S'POS'
p2137
g1275
tp2138
F2.9944004711190073e-05
tp2139
a((g1748
S'VB'
p2140
tp2141
F2.9944004711190073e-05
tp2142
a((S'PRP'
p2143
S'RBR'
p2144
tp2145
F2.9944004711190073e-05
tp2146
a((S'PRP'
p2147
S'RBS'
p2148
tp2149
F2.9944004711190073e-05
tp2150
a((g1026
S'.'
tp2151
F2.9944004711190073e-05
tp2152
a((S'PRP$'
p2153
S'NNP'
p2154
tp2155
F2.9944004711190073e-05
tp2156
a((S'PRP$'
p2157
S'VB'
p2158
tp2159
F2.9944004711190073e-05
tp2160
a((S'RB'
p2161
g2103
tp2162
F2.9944004711190073e-05
tp2163
a((S'RP'
p2164
S'JJ'
p2165
tp2166
F2.9944004711190073e-05
tp2167
a((S'RP'
p2168
S'PRP'
p2169
tp2170
F2.9944004711190073e-05
tp2171
a((S'RP'
p2172
S'WP'
p2173
tp2174
F2.9944004711190073e-05
tp2175
a((S'TO'
p2176
S','
tp2177
F2.9944004711190073e-05
tp2178
a((S'TO'
p2179
S'VBZ'
p2180
tp2181
F2.9944004711190073e-05
tp2182
a((S'VB'
p2183
g1961
tp2184
F2.9944004711190073e-05
tp2185
a((S'VB'
p2186
S'WDT'
p2187
tp2188
F2.9944004711190073e-05
tp2189
a((S'VBD'
p2190
S'MD'
p2191
tp2192
F2.9944004711190073e-05
tp2193
a((S'VBD'
p2194
S'VBP'
p2195
tp2196
F2.9944004711190073e-05
tp2197
a((S'VBG'
p2198
S'MD'
p2199
tp2200
F2.9944004711190073e-05
tp2201
a((S'VBN'
p2202
S'JJR'
p2203
tp2204
F2.9944004711190073e-05
tp2205
a((S'VBN'
p2206
S'VB'
p2207
tp2208
F2.9944004711190073e-05
tp2209
a((S'VBP'
p2210
S'PDT'
p2211
tp2212
F2.9944004711190073e-05
tp2213
a((S'VBP'
p2214
S'VBD'
p2215
tp2216
F2.9944004711190073e-05
tp2217
a((S'WDT'
p2218
S'IN'
p2219
tp2220
F2.9944004711190073e-05
tp2221
a((S'WDT'
p2222
S'PRP$'
p2223
tp2224
F2.9944004711190073e-05
tp2225
a((S'WDT'
p2226
S'VB'
p2227
tp2228
F2.9944004711190073e-05
tp2229
a((S'WDT'
p2230
S'VBN'
p2231
tp2232
F2.9944004711190073e-05
tp2233
a((S'WP'
p2234
S'IN'
p2235
tp2236
F2.9944004711190073e-05
tp2237
a((S'WP'
p2238
S'VBN'
p2239
tp2240
F2.9944004711190073e-05
tp2241
a((S'WRB'
p2242
S'EX'
p2243
tp2244
F2.9944004711190073e-05
tp2245
a((S'WRB'
p2246
S'PDT'
p2247
tp2248
F2.9944004711190073e-05
tp2249
a((S'WRB'
p2250
S'VBN'
p2251
tp2252
F2.9944004711190073e-05
tp2253
a((S'``'
p2254
S'VBZ'
p2255
tp2256
F2.9944004711190073e-05
tp2257
a((S'.'
S'JJS'
p2258
tp2259
F1.9962669807460049e-05
tp2260
a((S'.'
S'VBP'
p2261
tp2262
F1.9962669807460049e-05
tp2263
a((S':'
S'UH'
p2264
tp2265
F1.9962669807460049e-05
tp2266
a((S':'
S'WRB'
p2267
tp2268
F1.9962669807460049e-05
tp2269
a((S'CC'
p2270
S'.'
tp2271
F1.9962669807460049e-05
tp2272
a((S'CC'
p2273
S':'
tp2274
F1.9962669807460049e-05
tp2275
a((S'CC'
p2276
S'RP'
p2277
tp2278
F1.9962669807460049e-05
tp2279
a((g2021
S'DT'
p2280
tp2281
F1.9962669807460049e-05
tp2282
a((S'CD'
p2283
S'JJR'
p2284
tp2285
F1.9962669807460049e-05
tp2286
a((S'CD'
p2287
S'MD'
p2288
tp2289
F1.9962669807460049e-05
tp2290
a((g1941
S'TO'
p2291
tp2292
F1.9962669807460049e-05
tp2293
a((S'FW'
p2294
S'DT'
p2295
tp2296
F1.9962669807460049e-05
tp2297
a((S'FW'
p2298
S'JJ'
p2299
tp2300
F1.9962669807460049e-05
tp2301
a((S'FW'
p2302
S'VBP'
p2303
tp2304
F1.9962669807460049e-05
tp2305
a((S'IN'
p2306
g1883
tp2307
F1.9962669807460049e-05
tp2308
a((S'IN'
p2309
S'RBR'
p2310
tp2311
F1.9962669807460049e-05
tp2312
a((S'JJ'
p2313
S'MD'
p2314
tp2315
F1.9962669807460049e-05
tp2316
a((S'JJ'
p2317
S'PDT'
p2318
tp2319
F1.9962669807460049e-05
tp2320
a((S'JJ'
p2321
S'RP'
p2322
tp2323
F1.9962669807460049e-05
tp2324
a((S'JJS'
p2325
S','
tp2326
F1.9962669807460049e-05
tp2327
a((S'MD'
p2328
S"''"
p2329
tp2330
F1.9962669807460049e-05
tp2331
a((S'MD'
p2332
S'NNS'
p2333
tp2334
F1.9962669807460049e-05
tp2335
a((S'NN'
p2336
S'FW'
p2337
tp2338
F1.9962669807460049e-05
tp2339
a((S'NNP'
p2340
S'PRP$'
p2341
tp2342
F1.9962669807460049e-05
tp2343
a((g1986
S'JJ'
p2344
tp2345
F1.9962669807460049e-05
tp2346
a((S'NNS'
p2347
S'JJR'
p2348
tp2349
F1.9962669807460049e-05
tp2350
a((g1038
S'IN'
p2351
tp2352
F1.9962669807460049e-05
tp2353
a((S'POS'
p2354
S'PRP'
p2355
tp2356
F1.9962669807460049e-05
tp2357
a((S'PRP'
p2358
g2254
tp2359
F1.9962669807460049e-05
tp2360
a((S'PRP$'
p2361
S','
tp2362
F1.9962669807460049e-05
tp2363
a((S'RB'
p2364
S'EX'
p2365
tp2366
F1.9962669807460049e-05
tp2367
a((S'RBR'
p2368
S','
tp2369
F1.9962669807460049e-05
tp2370
a((S'RBR'
p2371
S'TO'
p2372
tp2373
F1.9962669807460049e-05
tp2374
a((S'RBR'
p2375
S'VBD'
p2376
tp2377
F1.9962669807460049e-05
tp2378
a((S'RBS'
p2379
S'IN'
p2380
tp2381
F1.9962669807460049e-05
tp2382
a((S'TO'
p2383
S'PDT'
p2384
tp2385
F1.9962669807460049e-05
tp2386
a((S'UH'
p2387
S','
tp2388
F1.9962669807460049e-05
tp2389
a((g2264
S':'
tp2390
F1.9962669807460049e-05
tp2391
a((S'VB'
p2392
S'VBP'
p2393
tp2394
F1.9962669807460049e-05
tp2395
a((S'VBD'
p2396
S':'
tp2397
F1.9962669807460049e-05
tp2398
a((S'VBD'
p2399
S'EX'
p2400
tp2401
F1.9962669807460049e-05
tp2402
a((S'VBD'
p2403
g949
tp2404
F1.9962669807460049e-05
tp2405
a((S'VBD'
p2406
S'JJS'
p2407
tp2408
F1.9962669807460049e-05
tp2409
a((S'VBD'
p2410
g1771
tp2411
F1.9962669807460049e-05
tp2412
a((S'VBG'
p2413
S'EX'
p2414
tp2415
F1.9962669807460049e-05
tp2416
a((S'VBN'
p2417
S':'
tp2418
F1.9962669807460049e-05
tp2419
a((S'VBP'
p2420
S'``'
p2421
tp2422
F1.9962669807460049e-05
tp2423
a((S'VBZ'
p2424
S':'
tp2425
F1.9962669807460049e-05
tp2426
a((S'WDT'
p2427
S','
tp2428
F1.9962669807460049e-05
tp2429
a((S'WDT'
p2430
S'DT'
p2431
tp2432
F1.9962669807460049e-05
tp2433
a((S'WP'
p2434
S'JJ'
p2435
tp2436
F1.9962669807460049e-05
tp2437
a((g1559
S'TO'
p2438
tp2439
F1.9962669807460049e-05
tp2440
a((S'WRB'
p2441
S'.'
tp2442
F1.9962669807460049e-05
tp2443
a((S'WRB'
p2444
S'FW'
p2445
tp2446
F1.9962669807460049e-05
tp2447
a((S'WRB'
p2448
S'VBP'
p2449
tp2450
F1.9962669807460049e-05
tp2451
a((S'$'
S'IN'
p2452
tp2453
F9.9813349037300244e-06
tp2454
a((S"''"
p2455
S'NN'
p2456
tp2457
F9.9813349037300244e-06
tp2458
a((S"''"
p2459
S'PRP$'
p2460
tp2461
F9.9813349037300244e-06
tp2462
a((S','
g2298
tp2463
F9.9813349037300244e-06
tp2464
a((S','
S'PDT'
p2465
tp2466
F9.9813349037300244e-06
tp2467
a((S'.'
S"''"
p2468
tp2469
F9.9813349037300244e-06
tp2470
a((S'.'
S'MD'
p2471
tp2472
F9.9813349037300244e-06
tp2473
a((S'.'
S'NNPS'
p2474
tp2475
F9.9813349037300244e-06
tp2476
a((S'.'
S'RBS'
p2477
tp2478
F9.9813349037300244e-06
tp2479
a((S':'
S'CD'
p2480
tp2481
F9.9813349037300244e-06
tp2482
a((S':'
S'FW'
p2483
tp2484
F9.9813349037300244e-06
tp2485
a((S':'
S'LS'
p2486
tp2487
F9.9813349037300244e-06
tp2488
a((S':'
S'PRP$'
p2489
tp2490
F9.9813349037300244e-06
tp2491
a((S':'
S'VBD'
p2492
tp2493
F9.9813349037300244e-06
tp2494
a((S':'
S'VBN'
p2495
tp2496
F9.9813349037300244e-06
tp2497
a((S':'
S'VBZ'
p2498
tp2499
F9.9813349037300244e-06
tp2500
a((S'CC'
p2501
S'NNPS'
p2502
tp2503
F9.9813349037300244e-06
tp2504
a((S'CD'
p2505
S"''"
p2506
tp2507
F9.9813349037300244e-06
tp2508
a((S'CD'
p2509
S'VBP'
p2510
tp2511
F9.9813349037300244e-06
tp2512
a((S'DT'
p2513
S':'
tp2514
F9.9813349037300244e-06
tp2515
a((S'DT'
p2516
S'FW'
p2517
tp2518
F9.9813349037300244e-06
tp2519
a((S'DT'
p2520
S'WP'
p2521
tp2522
F9.9813349037300244e-06
tp2523
a((g2400
S','
tp2524
F9.9813349037300244e-06
tp2525
a((S'EX'
p2526
S'JJ'
p2527
tp2528
F9.9813349037300244e-06
tp2529
a((S'EX'
p2530
S'NN'
p2531
tp2532
F9.9813349037300244e-06
tp2533
a((S'EX'
p2534
S'NNS'
p2535
tp2536
F9.9813349037300244e-06
tp2537
a((S'EX'
p2538
S'PRP'
p2539
tp2540
F9.9813349037300244e-06
tp2541
a((S'EX'
p2542
S'VB'
p2543
tp2544
F9.9813349037300244e-06
tp2545
a((g2483
S'.'
tp2546
F9.9813349037300244e-06
tp2547
a((S'FW'
p2548
S'CC'
p2549
tp2550
F9.9813349037300244e-06
tp2551
a((S'FW'
p2552
S'IN'
p2553
tp2554
F9.9813349037300244e-06
tp2555
a((g2337
S'NN'
p2556
tp2557
F9.9813349037300244e-06
tp2558
a((S'FW'
p2559
S'RB'
p2560
tp2561
F9.9813349037300244e-06
tp2562
a((S'FW'
p2563
S'VBD'
p2564
tp2565
F9.9813349037300244e-06
tp2566
a((S'IN'
p2567
g2137
tp2568
F9.9813349037300244e-06
tp2569
a((S'IN'
p2570
S'RP'
p2571
tp2572
F9.9813349037300244e-06
tp2573
a((S'IN'
p2574
S'WP$'
p2575
tp2576
F9.9813349037300244e-06
tp2577
a((S'JJ'
p2578
S'$'
tp2579
F9.9813349037300244e-06
tp2580
a((S'JJ'
p2581
S'WDT'
p2582
tp2583
F9.9813349037300244e-06
tp2584
a((S'JJ'
p2585
S'WP'
p2586
tp2587
F9.9813349037300244e-06
tp2588
a((S'JJR'
p2589
g2375
tp2590
F9.9813349037300244e-06
tp2591
a((S'JJR'
p2592
S'VBD'
p2593
tp2594
F9.9813349037300244e-06
tp2595
a((S'JJR'
p2596
S'VBN'
p2597
tp2598
F9.9813349037300244e-06
tp2599
a((S'JJR'
p2600
S'WRB'
p2601
tp2602
F9.9813349037300244e-06
tp2603
a((S'JJS'
p2604
S'CC'
p2605
tp2606
F9.9813349037300244e-06
tp2607
a((g1591
S'PRP'
p2608
tp2609
F9.9813349037300244e-06
tp2610
a((g2486
S'VBD'
p2611
tp2612
F9.9813349037300244e-06
tp2613
a((S'MD'
p2614
S'RBR'
p2615
tp2616
F9.9813349037300244e-06
tp2617
a((S'MD'
p2618
S'RBS'
p2619
tp2620
F9.9813349037300244e-06
tp2621
a((S'MD'
p2622
S'VBZ'
p2623
tp2624
F9.9813349037300244e-06
tp2625
a((S'NNP'
p2626
S'EX'
p2627
tp2628
F9.9813349037300244e-06
tp2629
a((S'NNP'
p2630
S'WP'
p2631
tp2632
F9.9813349037300244e-06
tp2633
a((S'NNPS'
p2634
S','
tp2635
F9.9813349037300244e-06
tp2636
a((S'NNPS'
p2637
S'DT'
p2638
tp2639
F9.9813349037300244e-06
tp2640
a((S'NNPS'
p2641
S'VBZ'
p2642
tp2643
F9.9813349037300244e-06
tp2644
a((S'NNS'
p2645
S'EX'
p2646
tp2647
F9.9813349037300244e-06
tp2648
a((S'NNS'
p2649
S'SYM'
p2650
tp2651
F9.9813349037300244e-06
tp2652
a((S'POS'
p2653
g2459
tp2654
F9.9813349037300244e-06
tp2655
a((S'POS'
p2656
S'VBG'
p2657
tp2658
F9.9813349037300244e-06
tp2659
a((S'PRP'
p2660
g2283
tp2661
F9.9813349037300244e-06
tp2662
a((S'PRP'
p2663
S'JJS'
p2664
tp2665
F9.9813349037300244e-06
tp2666
a((S'PRP$'
p2667
S':'
tp2668
F9.9813349037300244e-06
tp2669
a((S'PRP$'
p2670
S'MD'
p2671
tp2672
F9.9813349037300244e-06
tp2673
a((S'PRP$'
p2674
S'PRP'
p2675
tp2676
F9.9813349037300244e-06
tp2677
a((S'PRP$'
p2678
g1525
tp2679
F9.9813349037300244e-06
tp2680
a((S'PRP$'
p2681
S'TO'
p2682
tp2683
F9.9813349037300244e-06
tp2684
a((S'PRP$'
p2685
S'VBD'
p2686
tp2687
F9.9813349037300244e-06
tp2688
a((S'PRP$'
p2689
S'WRB'
p2690
tp2691
F9.9813349037300244e-06
tp2692
a((S'RB'
p2693
S'JJS'
p2694
tp2695
F9.9813349037300244e-06
tp2696
a((S'RB'
p2697
S'PDT'
p2698
tp2699
F9.9813349037300244e-06
tp2700
a((S'RB'
p2701
g2653
tp2702
F9.9813349037300244e-06
tp2703
a((S'RBR'
p2704
S'DT'
p2705
tp2706
F9.9813349037300244e-06
tp2707
a((S'RBR'
p2708
S'VBG'
p2709
tp2710
F9.9813349037300244e-06
tp2711
a((S'RBS'
p2712
S'TO'
p2713
tp2714
F9.9813349037300244e-06
tp2715
a((S'RP'
p2716
S'NNP'
p2717
tp2718
F9.9813349037300244e-06
tp2719
a((S'RP'
p2720
S'PDT'
p2721
tp2722
F9.9813349037300244e-06
tp2723
a((S'RP'
p2724
S'VBD'
p2725
tp2726
F9.9813349037300244e-06
tp2727
a((S'RP'
p2728
S'VBZ'
p2729
tp2730
F9.9813349037300244e-06
tp2731
a((S'SYM'
p2732
S':'
tp2733
F9.9813349037300244e-06
tp2734
a((S'SYM'
p2735
S'CD'
p2736
tp2737
F9.9813349037300244e-06
tp2738
a((g2650
S'VB'
p2739
tp2740
F9.9813349037300244e-06
tp2741
a((S'TO'
p2742
S'CD'
p2743
tp2744
F9.9813349037300244e-06
tp2745
a((S'TO'
p2746
S'WDT'
p2747
tp2748
F9.9813349037300244e-06
tp2749
a((g2083
S'PRP'
p2750
tp2751
F9.9813349037300244e-06
tp2752
a((S'UH'
p2753
S'VB'
p2754
tp2755
F9.9813349037300244e-06
tp2756
a((S'VB'
p2757
S'EX'
p2758
tp2759
F9.9813349037300244e-06
tp2760
a((S'VB'
p2761
S'FW'
p2762
tp2763
F9.9813349037300244e-06
tp2764
a((S'VB'
p2765
S'MD'
p2766
tp2767
F9.9813349037300244e-06
tp2768
a((S'VB'
p2769
S'SYM'
p2770
tp2771
F9.9813349037300244e-06
tp2772
a((S'VBD'
p2773
S'POS'
p2774
tp2775
F9.9813349037300244e-06
tp2776
a((S'VBD'
p2777
S'RBS'
p2778
tp2779
F9.9813349037300244e-06
tp2780
a((S'VBN'
p2781
S'EX'
p2782
tp2783
F9.9813349037300244e-06
tp2784
a((S'VBN'
p2785
S'PDT'
p2786
tp2787
F9.9813349037300244e-06
tp2788
a((S'VBN'
p2789
S'RBR'
p2790
tp2791
F9.9813349037300244e-06
tp2792
a((S'VBP'
p2793
S'CD'
p2794
tp2795
F9.9813349037300244e-06
tp2796
a((S'VBP'
p2797
S'EX'
p2798
tp2799
F9.9813349037300244e-06
tp2800
a((S'VBP'
p2801
g1293
tp2802
F9.9813349037300244e-06
tp2803
a((S'VBZ'
p2804
S'EX'
p2805
tp2806
F9.9813349037300244e-06
tp2807
a((S'VBZ'
p2808
S'JJS'
p2809
tp2810
F9.9813349037300244e-06
tp2811
a((S'VBZ'
p2812
g2656
tp2813
F9.9813349037300244e-06
tp2814
a((S'VBZ'
p2815
S'SYM'
p2816
tp2817
F9.9813349037300244e-06
tp2818
a((S'WDT'
p2819
S'.'
tp2820
F9.9813349037300244e-06
tp2821
a((S'WDT'
p2822
S'EX'
p2823
tp2824
F9.9813349037300244e-06
tp2825
a((S'WP'
p2826
S','
tp2827
F9.9813349037300244e-06
tp2828
a((S'WP'
p2829
S'FW'
p2830
tp2831
F9.9813349037300244e-06
tp2832
a((S'WP'
p2833
S'RB'
p2834
tp2835
F9.9813349037300244e-06
tp2836
a((S'WP'
p2837
S'VB'
p2838
tp2839
F9.9813349037300244e-06
tp2840
a((S'WP'
p2841
S'VBG'
p2842
tp2843
F9.9813349037300244e-06
tp2844
a((g2575
S'PRP'
p2845
tp2846
F9.9813349037300244e-06
tp2847
a((S'WRB'
p2848
S','
tp2849
F9.9813349037300244e-06
tp2850
a((S'WRB'
p2851
S'CD'
p2852
tp2853
F9.9813349037300244e-06
tp2854
a((S'WRB'
p2855
S'JJS'
p2856
tp2857
F9.9813349037300244e-06
tp2858
a((S'WRB'
p2859
S'RP'
p2860
tp2861
F9.9813349037300244e-06
tp2862
a((S'WRB'
p2863
g2753
tp2864
F9.9813349037300244e-06
tp2865
a((S'WRB'
p2866
S'VB'
p2867
tp2868
F9.9813349037300244e-06
tp2869
a((S'WRB'
p2870
S'WDT'
p2871
tp2872
F9.9813349037300244e-06
tp2873
a((S'``'
p2874
S'NNS'
p2875
tp2876
F9.9813349037300244e-06
tp2877
a.