(lp1
((S'DT'
p2
S'NN'
p3
tp4
F0.033981116711050467
tp5
a((S'PRP'
p6
S'VBD'
p7
tp8
F0.033906287827101263
tp9
a((S'NN'
p10
S'IN'
p11
tp12
F0.026837159143429365
tp13
a((S'IN'
p14
S'DT'
p15
tp16
F0.0252569491823844
tp17
a((S'IN'
p18
S'NNP'
p19
tp20
F0.023958447960912913
tp21
a((S'JJ'
p22
S'NN'
p23
tp24
F0.020652771969980412
tp25
a((S'IN'
p26
S'PRP'
p27
tp28
F0.018509144529788499
tp29
a((S'NN'
p30
S'.'
tp31
F0.01759799282523054
tp32
a((S'TO'
p33
S'VB'
p34
tp35
F0.016167440632083984
tp36
a((g15
g22
tp37
F0.016149833835860643
tp38
a((S'.'
S'PRP'
p39
tp40
F0.015397143297312763
tp41
a((S'PRP$'
p42
S'NN'
p43
tp44
F0.014508000088033981
tp45
a((S'IN'
p46
S'NN'
p47
tp48
F0.014045821687171249
tp49
a((S'NN'
p50
S','
tp51
F0.01094702555186302
tp52
a((S'PRP'
p53
S'VBP'
p54
tp55
F0.010436428461386095
tp56
a((g7
S'IN'
p57
tp58
F0.010229548605761824
tp59
a((S'.'
S'IN'
p60
tp61
F0.0099610449633558557
tp62
a((S'IN'
p63
S'PRP$'
p64
tp65
F0.0094812597662697808
tp66
a((S'NN'
p67
S'CC'
p68
tp69
F0.0091027136474679231
tp70
a((S'NN'
p71
S'VBD'
p72
tp73
F0.0080242973787882123
tp74
a((S'VBD'
p75
S'RB'
p76
tp77
F0.0079010498052248176
tp78
a((S'CC'
p79
S'PRP'
p80
tp81
F0.0077117767458238879
tp82
a((S'JJ'
p83
S'NNS'
p84
tp85
F0.0076809648524330393
tp86
a((S'RB'
p87
g26
tp88
F0.0076589563571538618
tp89
a((S'IN'
p90
S'JJ'
p91
tp92
F0.0076501529590421906
tp93
a((S','
S'CC'
p94
tp95
F0.0076149393665955059
tp96
a((S'VBD'
p97
S'DT'
p98
tp99
F0.0074432731034179194
tp100
a((S'MD'
p101
S'VB'
p102
tp103
F0.0072363932477936483
tp104
a((g72
S'PRP'
p105
tp106
F0.0067610097497634086
tp107
a((g3
g6
tp108
F0.0066773774677025329
tp109
a((S'VBD'
p110
S'VBG'
p111
tp112
F0.0065937451856416581
tp113
a((S'PRP'
p114
S'RB'
p115
tp116
F0.0062196007658956356
tp117
a((S'NNS'
p118
S'IN'
p119
tp120
F0.0061887888725047869
tp121
a((S'PRP'
p122
S'MD'
p123
tp124
F0.0060787463961088977
tp125
a((S'RB'
p126
S'JJ'
p127
tp128
F0.0059202852300988184
tp129
a((S','
S'PRP'
p130
tp131
F0.0058762682395404626
tp132
a((S'JJ'
p133
S'IN'
p134
tp135
F0.0057706274622004094
tp136
a((S'NN'
p137
S'RB'
p138
tp139
F0.0056253713933578364
tp140
a((S'VB'
p141
S'IN'
p142
tp143
F0.0055945594999669869
tp144
a((S'VBD'
p145
S'TO'
p146
tp147
F0.0055285340141294536
tp148
a((S'VB'
p149
S'DT'
p150
tp151
F0.0053304575566168544
tp152
a((S'NNP'
p153
S'VBD'
p154
tp155
F0.0052644320707793211
tp156
a((S','
S'IN'
p157
tp158
F0.0052292184783326364
tp159
a((S'VBG'
p160
S'IN'
p161
tp162
F0.0051719963906067742
tp163
a((S'VB'
p164
S'PRP'
p165
tp166
F0.0051543895943834319
tp167
a((g76
g149
tp168
F0.0048902876510332986
tp169
a((g150
S'NNS'
p170
tp171
F0.0047758434755815742
tp172
a((S'PRP'
p173
S'IN'
p174
tp175
F0.0045909721152364814
tp176
a((S'RB'
p177
S'VBD'
p178
tp179
F0.0044985364350639346
tp180
a((g64
S'NNS'
p181
tp182
F0.0044941347360080994
tp183
a((S'.'
S'DT'
p184
tp185
F0.0043972973567797165
tp186
a((S'.'
S'RB'
p187
tp188
F0.0043796905605563751
tp189
a((S'NNS'
p190
S'.'
tp191
F0.0043444769681096904
tp192
a((S'WRB'
p193
S'PRP'
p194
tp195
F0.0043268701718863481
tp196
a((S'NN'
p197
S'TO'
p198
tp199
F0.0042432378898254724
tp200
a((g23
S'VBZ'
p201
tp202
F0.0042124259964346237
tp203
a((S'VBN'
p204
S'IN'
p205
tp206
F0.0041904175011554462
tp207
a((g165
S'.'
tp208
F0.0040407597332570372
tp209
a((S'DT'
p210
g18
tp211
F0.0040187512379778597
tp212
a((S'RB'
p213
S'.'
tp214
F0.0039527257521403264
tp215
a((S'RP'
p216
S'IN'
p217
tp218
F0.0039131104606378066
tp219
a((S'JJ'
p220
S'.'
tp221
F0.0038911019653586286
tp222
a((S'RB'
p223
S'PRP'
p224
tp225
F0.0037502475955718908
tp226
a((S'CC'
p227
S'VBD'
p228
tp229
F0.0036798204106785219
tp230
a((S'POS'
p231
g71
tp232
F0.0036622136144551795
tp233
a((S'CC'
p234
S'RB'
p235
tp236
F0.003657811915399344
tp237
a((S'NNS'
p238
S'POS'
p239
tp240
F0.0036137949248409885
tp241
a((S'IN'
p242
g238
tp243
F0.00346413715694258
tp244
a((g154
g133
tp245
F0.00346413715694258
tp246
a((S'NNS'
p247
S','
tp248
F0.0034245218654400597
tp249
a((S'CC'
p250
S'IN'
p251
tp252
F0.0033761031758258687
tp253
a((S'VBD'
p254
S'VBN'
p255
tp256
F0.0033012742918766642
tp257
a((S'VBD'
p258
S'RP'
p259
tp260
F0.003244052204150802
tp261
a((g19
S'IN'
p262
tp263
F0.0032308471069832957
tp264
a((S'NNS'
p265
S'VBP'
p266
tp267
F0.0031912318154807755
tp268
a((S'NNS'
p269
S'CC'
p270
tp271
F0.0030899927371965579
tp272
a((S'PRP$'
p273
S'JJ'
p274
tp275
F0.0030899927371965579
tp276
a((g105
S'VBZ'
p277
tp278
F0.0029447366683539845
tp279
a((S'VBP'
p280
S'IN'
p281
tp282
F0.0029051213768514646
tp283
a((S'TO'
p284
S'DT'
p285
tp286
F0.002852300988181438
tp287
a((S'VBZ'
p288
S'DT'
p289
tp290
F0.0027994805995114115
tp291
a((g205
S'VBG'
p292
tp293
F0.0027774721042322335
tp294
a((S'RB'
p295
S','
tp296
F0.0027202500165063714
tp297
a((S'JJ'
p298
S'CC'
p299
tp300
F0.0027114466183947002
tp301
a((S'JJ'
p302
S','
tp303
F0.0027070449193388646
tp304
a((S'RB'
p305
S'VBG'
p306
tp307
F0.0026982415212271939
tp308
a((S'CC'
p309
g10
tp310
F0.0026938398221713583
tp311
a((S'CC'
p312
S'VB'
p313
tp314
F0.0026410194335013317
tp315
a((S'NNP'
p316
S','
tp317
F0.0026322160353896605
tp318
a((S'NNP'
p319
S'.'
tp320
F0.0025705922486079628
tp321
a((S'VBG'
p322
S'DT'
p323
tp324
F0.0025705922486079628
tp325
a((g306
S'TO'
p326
tp327
F0.0025221735589937718
tp328
a((S'PRP'
p329
S'NN'
p330
tp331
F0.0024737548693795804
tp332
a((S'NNS'
p333
S'VBD'
p334
tp335
F0.0024517463741004029
tp336
a((S'NN'
p337
S'NNS'
p338
tp339
F0.0024385412769328961
tp340
a((g68
S'DT'
p341
tp342
F0.002407729383542047
tp343
a((S'NN'
p344
S'VBG'
p345
tp346
F0.0023989259854303763
tp347
a((S'JJ'
p348
g33
tp349
F0.0023945242863745407
tp350
a((S'VBD'
p351
S'PRP$'
p352
tp353
F0.0023901225873187051
tp354
a((S'RB'
p355
S'VBN'
p356
tp357
F0.002359310693927856
tp358
a((g34
S'RB'
p359
tp360
F0.002359310693927856
tp361
a((S'.'
S'NNP'
p362
tp363
F0.0023196954024253362
tp364
a((g201
S'RB'
p365
tp366
F0.0023064903052578294
tp367
a((S'VB'
p368
S'RP'
p369
tp370
F0.0023020886062019939
tp371
a((S'PRP'
p372
S'CC'
p373
tp374
F0.002262473314699474
tp375
a((g130
g231
tp376
F0.002262473314699474
tp377
a((S'PRP'
p378
S'DT'
p379
tp380
F0.0022404648194202961
tp381
a((S'VB'
p382
S'JJ'
p383
tp384
F0.0022272597222527898
tp385
a((S'PRP'
p386
S'NNS'
p387
tp388
F0.0022052512269736119
tp389
a((g365
S'DT'
p390
tp391
F0.0021480291392477497
tp392
a((S'PRP'
p393
S'VB'
p394
tp395
F0.0021216189449127362
tp396
a((S'PRP'
p397
S','
tp398
F0.0021040121486893943
tp399
a((S'VBG'
p400
S'RB'
p401
tp402
F0.0020996104496335587
tp403
a((S'VB'
p404
S'NN'
p405
tp406
F0.0020864053524660519
tp407
a((S'VBP'
p408
S'DT'
p409
tp410
F0.0020423883619076965
tp411
a((S'.'
S'PRP$'
p412
tp413
F0.0020335849637960254
tp414
a((S"''"
p415
S'VBZ'
p416
tp417
F0.002015978167572683
tp418
a((S'TO'
p419
S'NN'
p420
tp421
F0.002015978167572683
tp422
a((S'VBP'
p423
S'PRP'
p424
tp425
F0.002015978167572683
tp426
a((g11
S'CD'
p427
tp428
F0.00198956797323767
tp429
a((g178
S'NN'
p430
tp431
F0.0019851662741818344
tp432
a((g123
S'RB'
p433
tp434
F0.0019763628760701632
tp435
a((g111
S'PRP'
p436
tp437
F0.0019719611770143276
tp438
a((S'VBZ'
p439
S'IN'
p440
tp441
F0.0019631577789026564
tp442
a((S'VB'
p443
S'PRP$'
p444
tp445
F0.0019191407883443008
tp446
a((S'NNP'
p447
S'CC'
p448
tp449
F0.0019147390892884654
tp450
a((S','
S'RB'
p451
tp452
F0.0019103373902326299
tp453
a((g362
g288
tp454
F0.0019015339921209587
tp455
a((S'VBP'
p456
S'RB'
p457
tp458
F0.0018927305940092875
tp459
a((S'POS'
p460
S'NNS'
p461
tp462
F0.0018487136034509321
tp463
a((S'IN'
p464
S'RB'
p465
tp466
F0.0018311068072275898
tp467
a((S'CD'
p468
S'NNS'
p469
tp470
F0.0018267051081717544
tp471
a((S'NN'
p472
S'DT'
p473
tp474
F0.0018002949138367409
tp475
a((S'TO'
p476
S'PRP'
p477
tp478
F0.0017738847195017276
tp479
a((S'VB'
p480
S'TO'
p481
tp482
F0.0017650813213900567
tp483
a((S'VB'
p484
S'.'
tp485
F0.0017386711270550431
tp486
a((S'VBP'
p487
S'TO'
p488
tp489
F0.0017386711270550431
tp490
a((S'CD'
p491
S'NN'
p492
tp493
F0.0017342694279992078
tp494
a((S'VBD'
p495
S'.'
tp496
F0.0017078592336641945
tp497
a((g469
S'RB'
p498
tp499
F0.0016946541364966877
tp500
a((S'CC'
p501
S'JJ'
p502
tp503
F0.0016374320487708256
tp504
a((S'RB'
p505
g284
tp506
F0.0016286286506591544
tp507
a((S'NN'
p508
S'VB'
p509
tp510
F0.0015978167572683055
tp511
a((S'CC'
p512
S'VBG'
p513
tp514
F0.0015890133591566346
tp515
a((S'CD'
p516
S'IN'
p517
tp518
F0.001584611660100799
tp519
a((S'JJ'
p520
S'PRP'
p521
tp522
F0.0015758082619891278
tp523
a((S'VBZ'
p524
S'NN'
p525
tp526
F0.0015758082619891278
tp527
a((S'NN'
p528
S'WDT'
p529
tp530
F0.0015537997667099501
tp531
a((g345
S'NN'
p532
tp533
F0.0015493980676541145
tp534
a((S'.'
g193
tp535
F0.0015185861742632656
tp536
a((S'DT'
p537
S'RB'
p538
tp539
F0.0015097827761515945
tp540
a((g498
S'CC'
p541
tp542
F0.0015097827761515945
tp543
a((S'VBG'
p544
S'RP'
p545
tp546
F0.0014921759799282524
tp547
a((S','
S'DT'
p548
tp549
F0.0014877742808724168
tp550
a((S','
S'VBG'
p551
tp552
F0.0014613640865374035
tp553
a((S'DT'
p554
S'JJS'
p555
tp556
F0.0014569623874815679
tp557
a((S'NN'
p558
S'MD'
p559
tp560
F0.0014525606884257323
tp561
a((g181
g53
tp562
F0.0014525606884257323
tp563
a((g235
S'NN'
p564
tp565
F0.0014437572903140611
tp566
a((S'NN'
p567
S'JJ'
p568
tp569
F0.0014129453969232123
tp570
a((S'POS'
p571
S'VBZ'
p572
tp573
F0.0014085436978673769
tp574
a((S'NNP'
p575
S'PRP'
p576
tp577
F0.0013953386006998701
tp578
a((S'VBG'
p579
S'.'
tp580
F0.0013821335035323634
tp581
a((S'FW'
p582
S'VBD'
p583
tp584
F0.0013601250082531857
tp585
a((S'.'
S'NN'
p586
tp587
F0.0013557233091973501
tp588
a((g239
S'JJ'
p589
tp590
F0.0013513216101415147
tp591
a((S'JJS'
p592
S'NN'
p593
tp594
F0.0013337148139181724
tp595
a((S'VBZ'
p596
S'JJ'
p597
tp598
F0.0013249114158065012
tp599
a((S'NNP'
p600
g571
tp601
F0.0013029029205273235
tp602
a((S'PRP'
p603
S'TO'
p604
tp605
F0.0012985012214714879
tp606
a((g529
S'VBD'
p607
tp608
F0.0012720910271364746
tp609
a((S'VBZ'
p610
g372
tp611
F0.0012676893280806391
tp612
a((g369
S'CC'
p613
tp614
F0.0012632876290248035
tp615
a((S'DT'
p616
S'VBD'
p617
tp618
F0.0012588859299689681
tp619
a((S','
S'NN'
p620
tp621
F0.0012456808328014614
tp622
a((S'TO'
p623
S'PRP$'
p624
tp625
F0.0012148689394106125
tp626
a((g373
S'PRP$'
p627
tp628
F0.0012104672403547769
tp629
a((S'VBD'
p630
S','
tp631
F0.0012060655412989413
tp632
a((S'VBP'
p633
S'JJ'
p634
tp635
F0.0011752536479080924
tp636
a((g545
S'DT'
p637
tp638
F0.0011708519488522571
tp639
a((S'VB'
p640
S'VBN'
p641
tp642
F0.0011708519488522571
tp643
a((S'RP'
p644
S'.'
tp645
F0.0011664502497964215
tp646
a((S'.'
g250
tp647
F0.0011532451526289147
tp648
a((S'NN'
p649
S'WRB'
p650
tp651
F0.0011488434535730791
tp652
a((S'NN'
p653
S'VBN'
p654
tp655
F0.0011092281620705593
tp656
a((g394
S'POS'
p657
tp658
F0.0011048264630147237
tp659
a((g54
g204
tp660
F0.0011004247639588881
tp661
a((S'PDT'
p662
S'DT'
p663
tp664
F0.0010960230649030526
tp665
a((S'RB'
p666
S'VBP'
p667
tp668
F0.0010784162686797104
tp669
a((S'WP'
p670
S'PRP'
p671
tp672
F0.0010564077734005325
tp673
a((S'VBN'
p674
S'.'
tp675
F0.0010520060743446971
tp676
a((S'PRP'
p677
S'RP'
p678
tp679
F0.001043202676233026
tp680
a((S'VBD'
p681
g227
tp682
F0.001043202676233026
tp683
a((S'JJ'
p684
S'RB'
p685
tp686
F0.0010388009771771904
tp687
a((S'VB'
p688
g269
tp689
F0.0010388009771771904
tp690
a((S'VBP'
p691
S'VBG'
p692
tp693
F0.0010343992781213548
tp694
a((S'NN'
p695
S':'
tp696
F0.0010255958800096836
tp697
a((S'WP'
p698
S'VBD'
p699
tp700
F0.0010167924818980127
tp701
a((S'RP'
p702
S'TO'
p703
tp704
F0.00099038228756299939
tp705
a((S'TO'
p706
S'IN'
p707
tp708
F0.00099038228756299939
tp709
a((S'NNS'
p710
S'NN'
p711
tp712
F0.00098598058850716381
tp713
a((S'VB'
p714
S','
tp715
F0.00098157888945132822
tp716
a((S'VBN'
p717
S'TO'
p718
tp719
F0.00097717719039549264
tp720
a((S','
S'PRP$'
p721
tp722
F0.00096837379228382158
tp723
a((S'NNS'
p724
S'TO'
p725
tp726
F0.00096837379228382158
tp727
a((S'CC'
p728
S'NNS'
p729
tp730
F0.00095957039417215041
tp731
a((S','
S'JJ'
p732
tp733
F0.00095076699606047935
tp734
a((S'.'
S'VBG'
p735
tp736
F0.00095076699606047935
tp737
a((S'IN'
p738
S'.'
tp739
F0.00094636529700464376
tp740
a((g292
g348
tp741
F0.0009375618988929727
tp742
a((S'RB'
p743
S'VBZ'
p744
tp745
F0.00092875850078130153
tp746
a((S'NNP'
p747
S'NN'
p748
tp749
F0.00091555340361379489
tp750
a((S'VBP'
p751
S'NN'
p752
tp753
F0.00090675000550212383
tp754
a((S'NNP'
p755
S'RB'
p756
tp757
F0.00089794660739045276
tp758
a((S'VBG'
p759
S'CC'
p760
tp761
F0.00089354490833461718
tp762
a((S'VB'
p763
S'CC'
p764
tp765
F0.00086713471399960389
tp766
a((S'VBN'
p767
S'PRP'
p768
tp769
F0.00086713471399960389
tp770
a((S'VBN'
p771
g537
tp772
F0.0008627330149437683
tp773
a((S'NNS'
p774
S'WDT'
p775
tp776
F0.00084952791777626166
tp777
a((S'VBG'
p778
S'PRP$'
p779
tp780
F0.00084952791777626166
tp781
a((S'VBG'
p782
g710
tp783
F0.00083632282060875501
tp784
a((S'NN'
p785
g415
tp786
F0.00083192112155291943
tp787
a((S'VBG'
p788
S','
tp789
F0.00081871602438541278
tp790
a((S'PRP'
p791
S'JJ'
p792
tp793
F0.0008143143253295772
tp794
a((S'VB'
p795
S'VBG'
p796
tp797
F0.0008143143253295772
tp798
a((g641
S'RP'
p799
tp800
F0.00078790413099456391
tp801
a((S'WDT'
p802
S'VBZ'
p803
tp804
F0.00078790413099456391
tp805
a((S'IN'
p806
S','
tp807
F0.00077910073288289285
tp808
a((g341
S'PRP'
p809
tp810
F0.00077469903382705726
tp811
a((S'PRP$'
p812
S'IN'
p813
tp814
F0.00077469903382705726
tp815
a((S'VBZ'
p816
S'VBN'
p817
tp818
F0.00077469903382705726
tp819
a((S'NN'
p820
S'PRP$'
p821
tp822
F0.00076149393665955062
tp823
a((S','
S'VBD'
p824
tp825
F0.00074388714043620839
tp826
a((g356
S'RB'
p827
tp828
F0.00073508374232453733
tp829
a((S'NNP'
p830
S'MD'
p831
tp832
F0.00071307524704535951
tp833
a((S'VBZ'
p834
S'TO'
p835
tp836
F0.00070867354798952393
tp837
a((S'NNS'
p838
S'VBG'
p839
tp840
F0.00069987014987785286
tp841
a((g277
S'VBG'
p842
tp843
F0.00069987014987785286
tp844
a((S'PRP'
p845
S'VBG'
p846
tp847
F0.00069546845082201728
tp848
a((S'JJ'
p849
S'VB'
p850
tp851
F0.00067345995554283957
tp852
a((g541
S'WRB'
p853
tp854
F0.00066905825648700399
tp855
a((S'IN'
p856
S'WRB'
p857
tp858
F0.0006646565574311684
tp859
a((g330
S'POS'
p860
tp861
F0.00064704976120782617
tp862
a((S'RB'
p863
S'WRB'
p864
tp865
F0.00063384466404031953
tp866
a((S'EX'
p867
S'VBD'
p868
tp869
F0.00062063956687281288
tp870
a((S'IN'
p871
S'FW'
p872
tp873
F0.00062063956687281288
tp874
a((S'.'
S'CD'
p875
tp876
F0.00061623786781697741
tp877
a((S'DT'
p878
S'CD'
p879
tp880
F0.00061183616876114182
tp881
a((S'NN'
p882
S'WP'
p883
tp884
F0.00061183616876114182
tp885
a((S'WRB'
p886
S'JJ'
p887
tp888
F0.00061183616876114182
tp889
a((S'NN'
p890
S'RP'
p891
tp892
F0.00060303277064947065
tp893
a((g281
S'WP'
p894
tp895
F0.00059863107159363518
tp896
a((S'JJR'
p897
S'NN'
p898
tp899
F0.00059863107159363518
tp900
a((S'NNP'
p901
S'DT'
p902
tp903
F0.00059422937253779959
tp904
a((S'JJS'
p905
S'NNS'
p906
tp907
F0.00058102427537029295
tp908
a((g228
g516
tp909
F0.00058102427537029295
tp910
a((S','
S'NNS'
p911
tp912
F0.00057222087725862178
tp913
a((S'IN'
p914
S'CC'
p915
tp916
F0.00056341747914695072
tp917
a((S'NNS'
p918
S'JJ'
p919
tp920
F0.00056341747914695072
tp921
a((S'RP'
p922
S'RB'
p923
tp924
F0.00056341747914695072
tp925
a((S'VBN'
p926
S'CC'
p927
tp928
F0.00056341747914695072
tp929
a((S'PRP'
p930
S"''"
p931
tp932
F0.00055901578009111513
tp933
a((S'VBD'
p934
S'NNS'
p935
tp936
F0.00055021238197944407
tp937
a((S'VBP'
p938
S'.'
tp939
F0.00054581068292360849
tp940
a((S'VBN'
p941
S','
tp942
F0.00053700728481193742
tp943
a((S'CC'
p944
S'VBN'
p945
tp946
F0.00053260558575610184
tp947
a((S'JJS'
p948
S'IN'
p949
tp950
F0.00052820388670026626
tp951
a((S'JJR'
p952
S'IN'
p953
tp954
F0.00051940048858859519
tp955
a((S'FW'
p956
S'VBP'
p957
tp958
F0.00051499878953275961
tp959
a((S','
S'VB'
p960
tp961
F0.00051059709047692413
tp962
a((S','
S'WDT'
p963
tp964
F0.00051059709047692413
tp965
a((S'RP'
p966
S','
tp967
F0.00051059709047692413
tp968
a((S'PRP$'
p969
S'JJS'
p970
tp971
F0.00050179369236525296
tp972
a((S'RB'
p973
S'NNS'
p974
tp975
F0.00050179369236525296
tp976
a((S'JJ'
p977
S'DT'
p978
tp979
F0.0004929902942535819
tp980
a((S'NN'
p981
S'FW'
p982
tp983
F0.00048858859519774632
tp984
a((S'VBN'
p985
S'NN'
p986
tp987
F0.00048858859519774632
tp988
a((S'NNP'
p989
S'VB'
p990
tp991
F0.00048418689614191079
tp992
a((S'VB'
p993
S'WRB'
p994
tp995
F0.00048418689614191079
tp996
a((g864
g554
tp997
F0.0004797851970860752
tp998
a((S'WRB'
p999
S'IN'
p1000
tp1001
F0.0004797851970860752
tp1002
a((S'.'
S'EX'
p1003
tp1004
F0.00047538349803023967
tp1005
a((S'CC'
p1006
S'FW'
p1007
tp1008
F0.00047098179897440414
tp1009
a((S'IN'
p1010
S"''"
p1011
tp1012
F0.00047098179897440414
tp1013
a((g906
S'MD'
p1014
tp1015
F0.00047098179897440414
tp1016
a((S'NNS'
p1017
S'VBN'
p1018
tp1019
F0.00047098179897440414
tp1020
a((S'WDT'
p1021
S'PRP'
p1022
tp1023
F0.00047098179897440414
tp1024
a((S'CC'
p1025
S'VBP'
p1026
tp1027
F0.00046658009991856856
tp1028
a((S'VBP'
p1029
S'NNS'
p1030
tp1031
F0.00046658009991856856
tp1032
a((S'VBZ'
p1033
S'WRB'
p1034
tp1035
F0.00046658009991856856
tp1036
a((S'WRB'
p1037
S'PRP$'
p1038
tp1039
F0.00046658009991856856
tp1040
a((S'VB'
p1041
S'WP'
p1042
tp1043
F0.00046217840086273303
tp1044
a((S'WP'
p1045
S'VBZ'
p1046
tp1047
F0.00045777670180689744
tp1048
a((S'DT'
p1049
S'.'
tp1050
F0.00045337500275106191
tp1051
a((S'RBR'
p1052
g520
tp1053
F0.00045337500275106191
tp1054
a((S'CC'
p1055
g610
tp1056
F0.00044897330369522638
tp1057
a((S'TO'
p1058
S'RB'
p1059
tp1060
F0.00044897330369522638
tp1061
a((S'NN'
p1062
S'VBP'
p1063
tp1064
F0.00043576820652771968
tp1065
a((S'RB'
p1066
S'PRP$'
p1067
tp1068
F0.00043576820652771968
tp1069
a((S'.'
S'JJ'
p1070
tp1071
F0.00043136650747188415
tp1072
a((S':'
S'NN'
p1073
tp1074
F0.00043136650747188415
tp1075
a((S'IN'
p1076
S'PDT'
p1077
tp1078
F0.00043136650747188415
tp1079
a((S'RP'
p1080
S'PRP$'
p1081
tp1082
F0.00043136650747188415
tp1083
a((S'VBN'
p1084
S'VBG'
p1085
tp1086
F0.00043136650747188415
tp1087
a((S'NNP'
p1088
S'VBP'
p1089
tp1090
F0.00042696480841604862
tp1091
a((S'VBZ'
p1092
S'RP'
p1093
tp1094
F0.00042696480841604862
tp1095
a((S'VBZ'
p1096
S'NNS'
p1097
tp1098
F0.00042256310936021304
tp1099
a((S'POS'
p1100
S'SYM'
p1101
tp1102
F0.00041816141030437751
tp1103
a((S'VBP'
p1104
S'PRP$'
p1105
tp1106
F0.00041816141030437751
tp1107
a((S','
S'WRB'
p1108
tp1109
F0.00041375971124854192
tp1110
a((g657
S'VB'
p1111
tp1112
F0.00041375971124854192
tp1113
a((S'VBP'
p1114
S','
tp1115
F0.00040495631313687081
tp1116
a((S'VBZ'
p1117
S'PRP$'
p1118
tp1119
F0.00040055461408103528
tp1120
a((S'DT'
p1121
S'VBG'
p1122
tp1123
F0.00039615291502519975
tp1124
a((S'IN'
p1125
S'TO'
p1126
tp1127
F0.00039615291502519975
tp1128
a((S'PRP'
p1129
S'WRB'
p1130
tp1131
F0.00039615291502519975
tp1132
a((S'.'
S'NNS'
p1133
tp1134
F0.00039175121596936416
tp1135
a((S'VBD'
p1136
S'WRB'
p1137
tp1138
F0.00038734951691352863
tp1139
a((S'VBZ'
p1140
S'.'
tp1141
F0.00038734951691352863
tp1142
a((g775
S'MD'
p1143
tp1144
F0.00038734951691352863
tp1145
a((S'NNS'
p1146
S'VB'
p1147
tp1148
F0.00038294781785769305
tp1149
a((S'TO'
p1150
S'JJ'
p1151
tp1152
F0.00038294781785769305
tp1153
a((S'DT'
p1154
S'JJR'
p1155
tp1156
F0.00037854611880185752
tp1157
a((S'DT'
p1158
S'RBS'
p1159
tp1160
F0.00037414441974602199
tp1161
a((S'DT'
p1162
S'VBP'
p1163
tp1164
F0.00037414441974602199
tp1165
a((g538
S'JJR'
p1166
tp1167
F0.00037414441974602199
tp1168
a((S'MD'
p1169
S'NN'
p1170
tp1171
F0.0003697427206901864
tp1172
a((S'CD'
p1173
S'JJ'
p1174
tp1175
F0.00036534102163435087
tp1176
a((S'PRP'
p1177
S'VBN'
p1178
tp1179
F0.00036534102163435087
tp1180
a((S'RB'
p1181
g491
tp1182
F0.00036093932257851529
tp1183
a((g1159
S'JJ'
p1184
tp1185
F0.00035653762352267976
tp1186
a((S'DT'
p1187
S'VBZ'
p1188
tp1189
F0.00035213592446684422
tp1190
a((S'VBZ'
p1191
S'CD'
p1192
tp1193
F0.00035213592446684422
tp1194
a((S'EX'
p1195
S'VBZ'
p1196
tp1197
F0.00034773422541100864
tp1198
a((S'NNP'
p1199
S'TO'
p1200
tp1201
F0.00034773422541100864
tp1202
a((S'JJR'
p1203
S'.'
tp1204
F0.00034333252635517311
tp1205
a((S'NNS'
p1206
S'WRB'
p1207
tp1208
F0.00034333252635517311
tp1209
a((S'IN'
p1210
S'EX'
p1211
tp1212
F0.00033893082729933752
tp1213
a((g57
g110
tp1214
F0.00033893082729933752
tp1215
a((S'VBN'
p1216
S'PRP$'
p1217
tp1218
F0.00033893082729933752
tp1219
a((S'JJ'
p1220
S'CD'
p1221
tp1222
F0.00033012742918766646
tp1223
a((S'NNS'
p1224
S'DT'
p1225
tp1226
F0.00033012742918766646
tp1227
a((S'DT'
p1228
S'VB'
p1229
tp1230
F0.00032572573013183088
tp1231
a((S'IN'
p1232
S'JJS'
p1233
tp1234
F0.00032572573013183088
tp1235
a((S'PRP$'
p1236
S'RB'
p1237
tp1238
F0.00032572573013183088
tp1239
a((S':'
S'IN'
p1240
tp1241
F0.00032132403107599535
tp1242
a((g842
g771
tp1243
F0.00032132403107599535
tp1244
a((S'WRB'
p1245
S'NN'
p1246
tp1247
F0.00032132403107599535
tp1248
a((S'JJ'
p1249
S'VBG'
p1250
tp1251
F0.0003081189339084887
tp1252
a((S'VBZ'
p1253
S','
tp1254
F0.0003081189339084887
tp1255
a((g1018
S'JJ'
p1256
tp1257
F0.00030371723485265312
tp1258
a((S'WDT'
p1259
S'VBP'
p1260
tp1261
F0.00030371723485265312
tp1262
a((S'IN'
p1263
S'WDT'
p1264
tp1265
F0.000294913836740982
tp1266
a((S'VBD'
p1267
S'VB'
p1268
tp1269
F0.000294913836740982
tp1270
a((S'CC'
p1271
S'CD'
p1272
tp1273
F0.00029051213768514647
tp1274
a((S':'
S'PRP'
p1275
tp1276
F0.00028611043862931089
tp1277
a((S'RBR'
p1278
S'.'
tp1279
F0.00028611043862931089
tp1280
a((S'DT'
p1281
S','
tp1282
F0.00028170873957347536
tp1283
a((S'DT'
p1284
S'VBN'
p1285
tp1286
F0.00028170873957347536
tp1287
a((S'FW'
p1288
S'MD'
p1289
tp1290
F0.00028170873957347536
tp1291
a((S'JJ'
p1292
S'VBD'
p1293
tp1294
F0.00027730704051763983
tp1295
a((S'RB'
p1296
S'MD'
p1297
tp1298
F0.00027730704051763983
tp1299
a((S'VBP'
p1300
S'RP'
p1301
tp1302
F0.00027730704051763983
tp1303
a((S'VBZ'
p1304
S'WP'
p1305
tp1306
F0.00027290534146180424
tp1307
a((S'CC'
p1308
S'TO'
p1309
tp1310
F0.00026850364240596871
tp1311
a((S'JJ'
p1312
S'WRB'
p1313
tp1314
F0.00026850364240596871
tp1315
a((S'.'
S'WP'
p1316
tp1317
F0.00026410194335013313
tp1318
a((S'MD'
p1319
S'PRP'
p1320
tp1321
F0.0002597002442942976
tp1322
a((S'NNP'
p1323
S'NNS'
p1324
tp1325
F0.0002597002442942976
tp1326
a((S'NNS'
p1327
g698
tp1328
F0.0002597002442942976
tp1329
a((S'RB'
p1330
S'RBR'
p1331
tp1332
F0.0002597002442942976
tp1333
a((S','
S'VBZ'
p1334
tp1335
F0.00025529854523846207
tp1336
a((S'JJ'
p1337
S':'
tp1338
F0.00025529854523846207
tp1339
a((S'MD'
p1340
S"''"
p1341
tp1342
F0.00025529854523846207
tp1343
a((S'SYM'
p1344
S'NN'
p1345
tp1346
F0.00025529854523846207
tp1347
a((S','
S'WP'
p1348
tp1349
F0.00025089684618262648
tp1350
a((S'VBN'
p1351
S'NNS'
p1352
tp1353
F0.00025089684618262648
tp1354
a((S'VBD'
p1355
S'JJR'
p1356
tp1357
F0.00024649514712679095
tp1358
a((g1166
g1055
tp1359
F0.00024209344807095539
tp1360
a((S'WRB'
p1361
S'TO'
p1362
tp1363
F0.00023769174901511984
tp1364
a((S'JJ'
p1365
S'PRP$'
p1366
tp1367
F0.00023329004995928428
tp1368
a((S'NN'
p1369
g1173
tp1370
F0.00023329004995928428
tp1371
a((S'VBP'
p1372
S'CC'
p1373
tp1374
F0.00023329004995928428
tp1375
a((S'VBP'
p1376
g886
tp1377
F0.00023329004995928428
tp1378
a((S'WDT'
p1379
S'RB'
p1380
tp1381
F0.00023329004995928428
tp1382
a((S'WRB'
p1383
S'RB'
p1384
tp1385
F0.00023329004995928428
tp1386
a((S'RB'
p1387
S'FW'
p1388
tp1389
F0.00022888835090344872
tp1390
a((S'RBR'
p1391
S'IN'
p1392
tp1393
F0.00022888835090344872
tp1394
a((S'VB'
p1395
g1278
tp1396
F0.00022888835090344872
tp1397
a((g427
g1187
tp1398
F0.00022448665184761319
tp1399
a((S'JJR'
p1400
S'NNS'
p1401
tp1402
F0.00022448665184761319
tp1403
a((S'VBP'
p1404
S'VBD'
p1405
tp1406
F0.00022448665184761319
tp1407
a((S'IN'
p1408
S'SYM'
p1409
tp1410
F0.00022008495279177763
tp1411
a((S'NN'
p1412
S'RBR'
p1413
tp1414
F0.00022008495279177763
tp1415
a((g313
g468
tp1416
F0.00022008495279177763
tp1417
a((S'.'
S'TO'
p1418
tp1419
F0.00021568325373594208
tp1420
a((S'.'
S'VB'
p1421
tp1422
F0.00021568325373594208
tp1423
a((S'FW'
p1424
S'VB'
p1425
tp1426
F0.00021568325373594208
tp1427
a((g1077
S'PRP$'
p1428
tp1429
F0.00021568325373594208
tp1430
a((S'WP'
p1431
S'DT'
p1432
tp1433
F0.00021568325373594208
tp1434
a((S'CD'
p1435
S'.'
tp1436
F0.00021128155468010652
tp1437
a((g872
S'NN'
p1438
tp1439
F0.00021128155468010652
tp1440
a((S'FW'
p1441
S'RB'
p1442
tp1443
F0.00021128155468010652
tp1444
a((S'VB'
p1445
S'JJR'
p1446
tp1447
F0.00021128155468010652
tp1448
a((S','
S'VBP'
p1449
tp1450
F0.00020687985562427096
tp1451
a((S'IN'
p1452
S'VBZ'
p1453
tp1454
F0.00020687985562427096
tp1455
a((S'NNP'
p1456
S'JJ'
p1457
tp1458
F0.00020687985562427096
tp1459
a((S':'
S'JJ'
p1460
tp1461
F0.0002024781565684354
tp1462
a((S'NNP'
p1463
S'FW'
p1464
tp1465
F0.0002024781565684354
tp1466
a((S'WRB'
p1467
S'FW'
p1468
tp1469
F0.0002024781565684354
tp1470
a((S'NNP'
p1471
S'VBG'
p1472
tp1473
F0.00019807645751259987
tp1474
a((S'PRP'
p1475
S'PRP$'
p1476
tp1477
F0.00019807645751259987
tp1478
a((S'VB'
p1479
S'VBD'
p1480
tp1481
F0.00019807645751259987
tp1482
a((S'PRP'
p1483
S'WP'
p1484
tp1485
F0.00019367475845676432
tp1486
a((S'VBZ'
p1487
S'CC'
p1488
tp1489
F0.00019367475845676432
tp1490
a((g266
g688
tp1491
F0.00018927305940092876
tp1492
a((S'CC'
p1493
S'EX'
p1494
tp1495
F0.0001848713603450932
tp1496
a((S'NNS'
p1497
S'PRP$'
p1498
tp1499
F0.0001848713603450932
tp1500
a((S'NNS'
p1501
g1092
tp1502
F0.0001848713603450932
tp1503
a((g448
g1169
tp1504
F0.00018046966128925764
tp1505
a((S'NN'
p1506
S'JJR'
p1507
tp1508
F0.00018046966128925764
tp1509
a((S'NNS'
p1510
S':'
tp1511
F0.00018046966128925764
tp1512
a((S'WP'
p1513
S'MD'
p1514
tp1515
F0.00018046966128925764
tp1516
a((S'WP'
p1517
S'VBP'
p1518
tp1519
F0.00018046966128925764
tp1520
a((S','
S'FW'
p1521
tp1522
F0.00017606796223342211
tp1523
a((S'CC'
p1524
S'WP'
p1525
tp1526
F0.00017606796223342211
tp1527
a((S'PRP$'
p1528
S'VBG'
p1529
tp1530
F0.00017606796223342211
tp1531
a((S'VB'
p1532
S"''"
p1533
tp1534
F0.00017606796223342211
tp1535
a((S"''"
p1536
S'PRP'
p1537
tp1538
F0.00017166626317758655
tp1539
a((S','
S'VBN'
p1540
tp1541
F0.00017166626317758655
tp1542
a((S'CC'
p1543
S','
tp1544
F0.00017166626317758655
tp1545
a((S'VBP'
p1546
S'VBZ'
p1547
tp1548
F0.00017166626317758655
tp1549
a((S'VBP'
p1550
S'WP'
p1551
tp1552
F0.00017166626317758655
tp1553
a((S'WDT'
p1554
S'NN'
p1555
tp1556
F0.00017166626317758655
tp1557
a((S'WP'
p1558
S'IN'
p1559
tp1560
F0.00017166626317758655
tp1561
a((S'WRB'
p1562
S'NNS'
p1563
tp1564
F0.00017166626317758655
tp1565
a((S','
S'TO'
p1566
tp1567
F0.000167264564121751
tp1568
a((S'EX'
p1569
S'VBP'
p1570
tp1571
F0.000167264564121751
tp1572
a((S'NNS'
p1573
S'RP'
p1574
tp1575
F0.000167264564121751
tp1576
a((S'.'
S'UH'
p1577
tp1578
F0.00016286286506591544
tp1579
a((S'CC'
p1580
g1203
tp1581
F0.00016286286506591544
tp1582
a((S','
S'EX'
p1583
tp1584
F0.00015846116601007988
tp1585
a((S'NNP'
p1586
S'PRP$'
p1587
tp1588
F0.00015846116601007988
tp1589
a((S'VBG'
p1590
S'VBD'
p1591
tp1592
F0.00015846116601007988
tp1593
a((S'VBZ'
p1594
S'VB'
p1595
tp1596
F0.00015846116601007988
tp1597
a((g1341
S'NN'
p1598
tp1599
F0.00015405946695424435
tp1600
a((S':'
S'DT'
p1601
tp1602
F0.00015405946695424435
tp1603
a((S'RP'
p1604
S'NN'
p1605
tp1606
F0.00015405946695424435
tp1607
a((g1409
S'CD'
p1608
tp1609
F0.00015405946695424435
tp1610
a((S'VBD'
p1611
S'WP'
p1612
tp1613
F0.00015405946695424435
tp1614
a((S'CD'
p1615
S'CC'
p1616
tp1617
F0.00014965776789840879
tp1618
a((S'DT'
p1619
S'CC'
p1620
tp1621
F0.00014965776789840879
tp1622
a((S'DT'
p1623
S'RBR'
p1624
tp1625
F0.00014965776789840879
tp1626
a((S'TO'
p1627
S'.'
tp1628
F0.00014965776789840879
tp1629
a((S'TO'
p1630
S'VBG'
p1631
tp1632
F0.00014965776789840879
tp1633
a((S','
S'CD'
p1634
tp1635
F0.00014525606884257324
tp1636
a((S'IN'
p1637
S'VBN'
p1638
tp1639
F0.00014525606884257324
tp1640
a((S'MD'
p1641
S'IN'
p1642
tp1643
F0.00014525606884257324
tp1644
a((S'SYM'
p1645
S'VB'
p1646
tp1647
F0.00014525606884257324
tp1648
a((S'VB'
p1649
S'VBZ'
p1650
tp1651
F0.00014525606884257324
tp1652
a((S':'
S'NNS'
p1653
tp1654
F0.00014085436978673768
tp1655
a((S':'
S'RB'
p1656
tp1657
F0.00014085436978673768
tp1658
a((g919
S'FW'
p1659
tp1660
F0.00014085436978673768
tp1661
a((S'JJR'
p1662
S','
tp1663
F0.00014085436978673768
tp1664
a((S'NNP'
p1665
S"''"
p1666
tp1667
F0.00014085436978673768
tp1668
a((S'RB'
p1669
S':'
tp1670
F0.00014085436978673768
tp1671
a((S'RBR'
p1672
S'RB'
p1673
tp1674
F0.00014085436978673768
tp1675
a((S'.'
S'VBP'
p1676
tp1677
F0.00013645267073090212
tp1678
a((S'CD'
p1679
S','
tp1680
F0.00013645267073090212
tp1681
a((S'VBD'
p1682
S'PDT'
p1683
tp1684
F0.00013645267073090212
tp1685
a((S"''"
p1686
S'JJ'
p1687
tp1688
F0.00013205097167506656
tp1689
a((S'IN'
p1690
S'VB'
p1691
tp1692
F0.00013205097167506656
tp1693
a((S'NNP'
p1694
S'WRB'
p1695
tp1696
F0.00013205097167506656
tp1697
a((S'TO'
p1698
S'NNS'
p1699
tp1700
F0.00013205097167506656
tp1701
a((S'VBG'
p1702
S'WRB'
p1703
tp1704
F0.00013205097167506656
tp1705
a((S'WP'
p1706
S'TO'
p1707
tp1708
F0.00013205097167506656
tp1709
a((S'WRB'
p1710
g1319
tp1711
F0.00013205097167506656
tp1712
a((S'.'
S'VBN'
p1713
tp1714
F0.00012764927261923103
tp1715
a((S'UH'
p1716
S','
tp1717
F0.00012764927261923103
tp1718
a((S'VBD'
p1719
g1391
tp1720
F0.00012324757356339548
tp1721
a((S'VBZ'
p1722
S'JJR'
p1723
tp1724
F0.00012324757356339548
tp1725
a((g1533
S'NNS'
p1726
tp1727
F0.00011884587450755992
tp1728
a((S'JJ'
p1729
S'VBN'
p1730
tp1731
F0.00011884587450755992
tp1732
a((S'JJ'
p1733
S'VBZ'
p1734
tp1735
F0.00011884587450755992
tp1736
a((S'RB'
p1737
g670
tp1738
F0.00011884587450755992
tp1739
a((g1316
S'RB'
p1740
tp1741
F0.00011884587450755992
tp1742
a((S'FW'
p1743
S'NNS'
p1744
tp1745
F0.00011444417545172436
tp1746
a((S'PRP$'
p1747
g1400
tp1748
F0.00011444417545172436
tp1749
a((S':'
S'CC'
p1750
tp1751
F0.00011004247639588882
tp1752
a((S'IN'
p1753
S'VBP'
p1754
tp1755
F0.00011004247639588882
tp1756
a((S'NNP'
p1757
S'WDT'
p1758
tp1759
F0.00011004247639588882
tp1760
a((S'RP'
p1761
S'NNS'
p1762
tp1763
F0.00011004247639588882
tp1764
a((S'VBG'
p1765
S'VBZ'
p1766
tp1767
F0.00011004247639588882
tp1768
a((S'VBG'
p1769
S'WP'
p1770
tp1771
F0.00011004247639588882
tp1772
a((S'VBN'
p1773
S'CD'
p1774
tp1775
F0.00011004247639588882
tp1776
a((S'WP'
p1777
S'FW'
p1778
tp1779
F0.00011004247639588882
tp1780
a((S'.'
S'JJS'
p1781
tp1782
F0.00010564077734005326
tp1783
a((S'NN'
p1784
S'EX'
p1785
tp1786
F0.00010564077734005326
tp1787
a((S'PRP'
p1788
S':'
tp1789
F0.00010564077734005326
tp1790
a((S'PRP'
p1791
S'CD'
p1792
tp1793
F0.00010564077734005326
tp1794
a((S'PRP'
p1795
g1662
tp1796
F0.00010564077734005326
tp1797
a((g1118
S'DT'
p1798
tp1799
F0.00010564077734005326
tp1800
a((S'RP'
p1801
S'VBG'
p1802
tp1803
F0.00010564077734005326
tp1804
a((S'SYM'
p1805
S'RB'
p1806
tp1807
F0.00010564077734005326
tp1808
a((S'VB'
p1809
S':'
tp1810
F0.00010564077734005326
tp1811
a((g1063
S'JJR'
p1812
tp1813
F0.00010564077734005326
tp1814
a((S','
S'MD'
p1815
tp1816
F0.0001012390782842177
tp1817
a((S':'
S'VBG'
p1818
tp1819
F0.0001012390782842177
tp1820
a((S'NNP'
p1821
S':'
tp1822
F0.0001012390782842177
tp1823
a((S'NNP'
p1824
S'CD'
p1825
tp1826
F0.0001012390782842177
tp1827
a((S'VB'
p1828
S'PDT'
p1829
tp1830
F0.0001012390782842177
tp1831
a((g1111
g1550
tp1832
F0.0001012390782842177
tp1833
a((S'WP'
p1834
S'NN'
p1835
tp1836
F0.0001012390782842177
tp1837
a((S'WP'
p1838
S'NNS'
p1839
tp1840
F0.0001012390782842177
tp1841
a((S'.'
S'PDT'
p1842
tp1843
F9.6837379228382158e-05
tp1844
a((S'CD'
p1845
S'VBD'
p1846
tp1847
F9.6837379228382158e-05
tp1848
a((S'DT'
p1849
S'MD'
p1850
tp1851
F9.6837379228382158e-05
tp1852
a((S'EX'
p1853
S'POS'
p1854
tp1855
F9.6837379228382158e-05
tp1856
a((g1155
S'PRP'
p1857
tp1858
F9.6837379228382158e-05
tp1859
a((S'JJR'
p1860
S'RB'
p1861
tp1862
F9.6837379228382158e-05
tp1863
a((S'MD'
p1864
S'.'
tp1865
F9.6837379228382158e-05
tp1866
a((S'NNP'
p1867
S'WP'
p1868
tp1869
F9.6837379228382158e-05
tp1870
a((S'.'
g802
tp1871
F9.24356801725466e-05
tp1872
a((S'JJ'
p1873
S'VBP'
p1874
tp1875
F9.24356801725466e-05
tp1876
a((S'JJS'
p1877
S'.'
tp1878
F9.24356801725466e-05
tp1879
a((g1413
S'CC'
p1880
tp1881
F9.24356801725466e-05
tp1882
a((S'TO'
p1883
S'CD'
p1884
tp1885
F9.24356801725466e-05
tp1886
a((S'VBD'
p1887
S'VBP'
p1888
tp1889
F9.24356801725466e-05
tp1890
a((S'WRB'
p1891
S'VBG'
p1892
tp1893
F9.24356801725466e-05
tp1894
a((S':'
S'CD'
p1895
tp1896
F8.8033981116711056e-05
tp1897
a((S'FW'
p1898
S'VBN'
p1899
tp1900
F8.8033981116711056e-05
tp1901
a((S'IN'
p1902
S'JJR'
p1903
tp1904
F8.8033981116711056e-05
tp1905
a((S'JJ'
p1906
S'NNP'
p1907
tp1908
F8.8033981116711056e-05
tp1909
a((S'NNP'
p1910
S'VBN'
p1911
tp1912
F8.8033981116711056e-05
tp1913
a((S'PRP$'
p1914
S'CD'
p1915
tp1916
F8.8033981116711056e-05
tp1917
a((S'VBP'
p1918
S'CD'
p1919
tp1920
F8.8033981116711056e-05
tp1921
a((S'CC'
p1922
S'WDT'
p1923
tp1924
F8.3632282060875499e-05
tp1925
a((S'DT'
p1926
g1288
tp1927
F8.3632282060875499e-05
tp1928
a((g1583
S'MD'
p1929
tp1930
F8.3632282060875499e-05
tp1931
a((S'JJ'
p1932
S'RP'
p1933
tp1934
F8.3632282060875499e-05
tp1935
a((g1446
S'TO'
p1936
tp1937
F8.3632282060875499e-05
tp1938
a((S'NNP'
p1939
S'RP'
p1940
tp1941
F8.3632282060875499e-05
tp1942
a((S'NNS'
p1943
S'FW'
p1944
tp1945
F8.3632282060875499e-05
tp1946
a((S'TO'
p1947
S'WP'
p1948
tp1949
F8.3632282060875499e-05
tp1950
a((S'VBD'
p1951
S'JJS'
p1952
tp1953
F8.3632282060875499e-05
tp1954
a((S'WDT'
p1955
S'IN'
p1956
tp1957
F8.3632282060875499e-05
tp1958
a((S'WRB'
p1959
S'CD'
p1960
tp1961
F8.3632282060875499e-05
tp1962
a((S'CC'
p1963
S'JJS'
p1964
tp1965
F7.9230583005039941e-05
tp1966
a((S'DT'
p1967
S'RP'
p1968
tp1969
F7.9230583005039941e-05
tp1970
a((S'DT'
p1971
g1517
tp1972
F7.9230583005039941e-05
tp1973
a((S'IN'
p1974
S':'
tp1975
F7.9230583005039941e-05
tp1976
a((S'NNS'
p1977
S'RBR'
p1978
tp1979
F7.9230583005039941e-05
tp1980
a((S'PRP'
p1981
S'WDT'
p1982
tp1983
F7.9230583005039941e-05
tp1984
a((S'RB'
p1985
S'EX'
p1986
tp1987
F7.9230583005039941e-05
tp1988
a((S'RBS'
p1989
S'RB'
p1990
tp1991
F7.9230583005039941e-05
tp1992
a((S'RP'
p1993
S'PRP'
p1994
tp1995
F7.9230583005039941e-05
tp1996
a((S'TO'
p1997
S'WRB'
p1998
tp1999
F7.9230583005039941e-05
tp2000
a((S'UH'
p2001
S'.'
tp2002
F7.9230583005039941e-05
tp2003
a((S'VBG'
p2004
S'JJR'
p2005
tp2006
F7.9230583005039941e-05
tp2007
a((S'WP'
p2008
S'PRP$'
p2009
tp2010
F7.9230583005039941e-05
tp2011
a((S'.'
S'FW'
p2012
tp2013
F7.4828883949204397e-05
tp2014
a((S'CC'
p2015
S'PDT'
p2016
tp2017
F7.4828883949204397e-05
tp2018
a((S'JJ'
p2019
S'WDT'
p2020
tp2021
F7.4828883949204397e-05
tp2022
a((S'MD'
p2023
S'VBP'
p2024
tp2025
F7.4828883949204397e-05
tp2026
a((S'NNS'
p2027
S'JJR'
p2028
tp2029
F7.4828883949204397e-05
tp2030
a((S'RB'
p2031
S'WDT'
p2032
tp2033
F7.4828883949204397e-05
tp2034
a((S'JJ'
p2035
g592
tp2036
F7.042718489336884e-05
tp2037
a((S'RBR'
p2038
S','
tp2039
F7.042718489336884e-05
tp2040
a((S'RP'
p2041
S'WP'
p2042
tp2043
F7.042718489336884e-05
tp2044
a((g198
g312
tp2045
F7.042718489336884e-05
tp2046
a((S'.'
S'NNPS'
p2047
tp2048
F6.6025485837533282e-05
tp2049
a((S'CC'
p2050
g1052
tp2051
F6.6025485837533282e-05
tp2052
a((S'CD'
p2053
S':'
tp2054
F6.6025485837533282e-05
tp2055
a((S'CD'
p2056
S'PRP'
p2057
tp2058
F6.6025485837533282e-05
tp2059
a((S'DT'
p2060
S"''"
p2061
tp2062
F6.6025485837533282e-05
tp2063
a((S'EX'
p2064
S'PRP'
p2065
tp2066
F6.6025485837533282e-05
tp2067
a((S'JJS'
p2068
S'PRP'
p2069
tp2070
F6.6025485837533282e-05
tp2071
a((S'MD'
p2072
S'CC'
p2073
tp2074
F6.6025485837533282e-05
tp2075
a((S'NN'
p2076
S'PDT'
p2077
tp2078
F6.6025485837533282e-05
tp2079
a((S'PRP'
p2080
S'RBR'
p2081
tp2082
F6.6025485837533282e-05
tp2083
a((S'PRP$'
p2084
S'VBN'
p2085
tp2086
F6.6025485837533282e-05
tp2087
a((S'VBG'
p2088
S'CD'
p2089
tp2090
F6.6025485837533282e-05
tp2091
a((S'VBN'
p2092
S'WRB'
p2093
tp2094
F6.6025485837533282e-05
tp2095
a((S'VBP'
p2096
S'RBR'
p2097
tp2098
F6.6025485837533282e-05
tp2099
a((S'VBZ'
p2100
S'PDT'
p2101
tp2102
F6.6025485837533282e-05
tp2103
a((S'WDT'
p2104
S'NNS'
p2105
tp2106
F6.6025485837533282e-05
tp2107
a((S'EX'
p2108
S'NNS'
p2109
tp2110
F6.1623786781697738e-05
tp2111
a((S'RBR'
p2112
S'PRP'
p2113
tp2114
F6.1623786781697738e-05
tp2115
a((S'VBD'
p2116
S'UH'
p2117
tp2118
F6.1623786781697738e-05
tp2119
a((S'VBP'
p2120
g582
tp2121
F6.1623786781697738e-05
tp2122
a((g853
g75
tp2123
F6.1623786781697738e-05
tp2124
a((S'.'
S'VBZ'
p2125
tp2126
F5.722208772586218e-05
tp2127
a((S':'
S'VB'
p2128
tp2129
F5.722208772586218e-05
tp2130
a((S'CC'
p2131
S'RP'
p2132
tp2133
F5.722208772586218e-05
tp2134
a((S'JJS'
p2135
S','
tp2136
F5.722208772586218e-05
tp2137
a((S'JJS'
p2138
S'CD'
p2139
tp2140
F5.722208772586218e-05
tp2141
a((S'NN'
p2142
S'JJS'
p2143
tp2144
F5.722208772586218e-05
tp2145
a((S'RB'
p2146
g1877
tp2147
F5.722208772586218e-05
tp2148
a((S'RBR'
p2149
S'TO'
p2150
tp2151
F5.722208772586218e-05
tp2152
a((S'TO'
p2153
S','
tp2154
F5.722208772586218e-05
tp2155
a((S'TO'
p2156
S'VBP'
p2157
tp2158
F5.722208772586218e-05
tp2159
a((S'VBD'
p2160
S':'
tp2161
F5.722208772586218e-05
tp2162
a((S'VBD'
p2163
S'EX'
p2164
tp2165
F5.722208772586218e-05
tp2166
a((g1638
S'RBR'
p2167
tp2168
F5.722208772586218e-05
tp2169
a((S'VBP'
p2170
S'PDT'
p2171
tp2172
F5.722208772586218e-05
tp2173
a((S'.'
S'VBD'
p2174
tp2175
F5.282038867002663e-05
tp2176
a((S'CD'
p2177
S'TO'
p2178
tp2179
F5.282038867002663e-05
tp2180
a((g1601
g476
tp2181
F5.282038867002663e-05
tp2182
a((S'JJ'
p2183
S'JJR'
p2184
tp2185
F5.282038867002663e-05
tp2186
a((S'JJ'
p2187
S'WP'
p2188
tp2189
F5.282038867002663e-05
tp2190
a((S'NNP'
p2191
S'JJR'
p2192
tp2193
F5.282038867002663e-05
tp2194
a((S'PRP$'
p2195
S'CC'
p2196
tp2197
F5.282038867002663e-05
tp2198
a((S'RB'
p2199
S'PDT'
p2200
tp2201
F5.282038867002663e-05
tp2202
a((S'RP'
p2203
S'JJ'
p2204
tp2205
F5.282038867002663e-05
tp2206
a((S'VBD'
p2207
S'FW'
p2208
tp2209
F5.282038867002663e-05
tp2210
a((S'VBG'
p2211
S'RBR'
p2212
tp2213
F5.282038867002663e-05
tp2214
a((S'VBZ'
p2215
S'VBD'
p2216
tp2217
F5.282038867002663e-05
tp2218
a((S'VBZ'
p2219
S'WDT'
p2220
tp2221
F5.282038867002663e-05
tp2222
a((S':'
S'UH'
p2223
tp2224
F4.8418689614191079e-05
tp2225
a((S'DT'
p2226
S'PRP$'
p2227
tp2228
F4.8418689614191079e-05
tp2229
a((S'JJS'
p2230
g1963
tp2231
F4.8418689614191079e-05
tp2232
a((S'MD'
p2233
S','
tp2234
F4.8418689614191079e-05
tp2235
a((g1297
S'DT'
p2236
tp2237
F4.8418689614191079e-05
tp2238
a((g2047
S'VBD'
p2239
tp2240
F4.8418689614191079e-05
tp2241
a((S'PRP'
p2242
S'FW'
p2243
tp2244
F4.8418689614191079e-05
tp2245
a((S'RP'
p2246
S'WRB'
p2247
tp2248
F4.8418689614191079e-05
tp2249
a((S'SYM'
p2250
S'VBN'
p2251
tp2252
F4.8418689614191079e-05
tp2253
a((S'VBD'
p2254
S'POS'
p2255
tp2256
F4.8418689614191079e-05
tp2257
a((S'VBG'
p2258
S'PDT'
p2259
tp2260
F4.8418689614191079e-05
tp2261
a((S'VBZ'
p2262
S'RBR'
p2263
tp2264
F4.8418689614191079e-05
tp2265
a((S'WP'
p2266
S'VBN'
p2267
tp2268
F4.8418689614191079e-05
tp2269
a((S'WRB'
p2270
S'VBP'
p2271
tp2272
F4.8418689614191079e-05
tp2273
a((S'CD'
p2274
S'RB'
p2275
tp2276
F4.4016990558355528e-05
tp2277
a((S'DT'
p2278
S'WRB'
p2279
tp2280
F4.4016990558355528e-05
tp2281
a((S'FW'
p2282
S'JJ'
p2283
tp2284
F4.4016990558355528e-05
tp2285
a((S'IN'
p2286
S'MD'
p2287
tp2288
F4.4016990558355528e-05
tp2289
a((S'JJ'
p2290
S'MD'
p2291
tp2292
F4.4016990558355528e-05
tp2293
a((S'JJR'
p2294
S'DT'
p2295
tp2296
F4.4016990558355528e-05
tp2297
a((S'PRP$'
p2298
S'VB'
p2299
tp2300
F4.4016990558355528e-05
tp2301
a((S'SYM'
p2302
S'VBD'
p2303
tp2304
F4.4016990558355528e-05
tp2305
a((S'VB'
p2306
g1554
tp2307
F4.4016990558355528e-05
tp2308
a((S'VBD'
p2309
S'VBZ'
p2310
tp2311
F4.4016990558355528e-05
tp2312
a((g963
S'PRP$'
p2313
tp2314
F4.4016990558355528e-05
tp2315
a((S'WRB'
p2316
S'CC'
p2317
tp2318
F4.4016990558355528e-05
tp2319
a((S','
S'PDT'
p2320
tp2321
F3.9615291502519971e-05
tp2322
a((S'.'
S'MD'
p2323
tp2324
F3.9615291502519971e-05
tp2325
a((S':'
S'PRP$'
p2326
tp2327
F3.9615291502519971e-05
tp2328
a((S'EX'
p2329
S','
tp2330
F3.9615291502519971e-05
tp2331
a((S'JJS'
p2332
S'JJ'
p2333
tp2334
F3.9615291502519971e-05
tp2335
a((S'RB'
p2336
S'RP'
p2337
tp2338
F3.9615291502519971e-05
tp2339
a((S'TO'
p2340
S'VBD'
p2341
tp2342
F3.9615291502519971e-05
tp2343
a((S'VBG'
p2344
S':'
tp2345
F3.9615291502519971e-05
tp2346
a((S'VBG'
p2347
S'VB'
p2348
tp2349
F3.9615291502519971e-05
tp2350
a((S'VBZ'
p2351
S'JJS'
p2352
tp2353
F3.9615291502519971e-05
tp2354
a((S'WP'
p2355
S"''"
p2356
tp2357
F3.9615291502519971e-05
tp2358
a((S'WP'
p2359
S','
tp2360
F3.9615291502519971e-05
tp2361
a((S','
S'JJS'
p2362
tp2363
F3.521359244668442e-05
tp2364
a((S':'
S'VBN'
p2365
tp2366
F3.521359244668442e-05
tp2367
a((S'DT'
p2368
S'WDT'
p2369
tp2370
F3.521359244668442e-05
tp2371
a((S'EX'
p2372
S'RB'
p2373
tp2374
F3.521359244668442e-05
tp2375
a((S'JJ'
p2376
S'PDT'
p2377
tp2378
F3.521359244668442e-05
tp2379
a((S'JJS'
p2380
S'TO'
p2381
tp2382
F3.521359244668442e-05
tp2383
a((S'NNP'
p2384
S'SYM'
p2385
tp2386
F3.521359244668442e-05
tp2387
a((S'POS'
p2388
S'PRP'
p2389
tp2390
F3.521359244668442e-05
tp2391
a((S'PRP$'
p2392
g1344
tp2393
F3.521359244668442e-05
tp2394
a((S'RBR'
p2395
S'DT'
p2396
tp2397
F3.521359244668442e-05
tp2398
a((g2385
S'NNP'
p2399
tp2400
F3.521359244668442e-05
tp2401
a((S'UH'
p2402
S'NN'
p2403
tp2404
F3.521359244668442e-05
tp2405
a((S'UH'
p2406
S'PRP'
p2407
tp2408
F3.521359244668442e-05
tp2409
a((S'VB'
p2410
S'JJS'
p2411
tp2412
F3.521359244668442e-05
tp2413
a((S'VBG'
p2414
S'MD'
p2415
tp2416
F3.521359244668442e-05
tp2417
a((S'VBG'
p2418
S'NNP'
p2419
tp2420
F3.521359244668442e-05
tp2421
a((S'VBN'
p2422
S'JJS'
p2423
tp2424
F3.521359244668442e-05
tp2425
a((S'WRB'
p2426
S','
tp2427
F3.521359244668442e-05
tp2428
a((S'WRB'
p2429
S'.'
tp2430
F3.521359244668442e-05
tp2431
a((S'WRB'
p2432
S'VBZ'
p2433
tp2434
F3.521359244668442e-05
tp2435
a((S','
S'JJR'
p2436
tp2437
F3.0811893390848869e-05
tp2438
a((S','
S'RBR'
p2439
tp2440
F3.0811893390848869e-05
tp2441
a((S','
S'UH'
p2442
tp2443
F3.0811893390848869e-05
tp2444
a((S':'
S'VBD'
p2445
tp2446
F3.0811893390848869e-05
tp2447
a((S'CC'
p2448
S'NNP'
p2449
tp2450
F3.0811893390848869e-05
tp2451
a((g1792
g897
tp2452
F3.0811893390848869e-05
tp2453
a((g1915
S'JJS'
p2454
tp2455
F3.0811893390848869e-05
tp2456
a((S'CD'
p2457
S'WDT'
p2458
tp2459
F3.0811893390848869e-05
tp2460
a((S'CD'
p2461
S'WP'
p2462
tp2463
F3.0811893390848869e-05
tp2464
a((S'DT'
p2465
S'SYM'
p2466
tp2467
F3.0811893390848869e-05
tp2468
a((S'EX'
p2469
S'NN'
p2470
tp2471
F3.0811893390848869e-05
tp2472
a((S'FW'
p2473
S"''"
p2474
tp2475
F3.0811893390848869e-05
tp2476
a((S'FW'
p2477
S'.'
tp2478
F3.0811893390848869e-05
tp2479
a((S'FW'
p2480
S'IN'
p2481
tp2482
F3.0811893390848869e-05
tp2483
a((S'JJ'
p2484
S"''"
p2485
tp2486
F3.0811893390848869e-05
tp2487
a((S'JJ'
p2488
S'RBR'
p2489
tp2490
F3.0811893390848869e-05
tp2491
a((S'JJS'
p2492
S'DT'
p2493
tp2494
F3.0811893390848869e-05
tp2495
a((S'PRP$'
p2496
S'VBZ'
p2497
tp2498
F3.0811893390848869e-05
tp2499
a((S'RBR'
p2500
S'VBN'
p2501
tp2502
F3.0811893390848869e-05
tp2503
a((g2117
S'IN'
p2504
tp2505
F3.0811893390848869e-05
tp2506
a((S'VBG'
p2507
S'UH'
p2508
tp2509
F3.0811893390848869e-05
tp2510
a((S'VBN'
p2511
S'VBZ'
p2512
tp2513
F3.0811893390848869e-05
tp2514
a((S'VBN'
p2515
S'WP'
p2516
tp2517
F3.0811893390848869e-05
tp2518
a((S'WDT'
p2519
S"''"
p2520
tp2521
F3.0811893390848869e-05
tp2522
a((S'WRB'
p2523
S'EX'
p2524
tp2525
F3.0811893390848869e-05
tp2526
a((S'WRB'
p2527
S'VBN'
p2528
tp2529
F3.0811893390848869e-05
tp2530
a((S'.'
S'SYM'
p2531
tp2532
F2.6410194335013315e-05
tp2533
a((S':'
S'VBZ'
p2534
tp2535
F2.6410194335013315e-05
tp2536
a((S':'
S'WRB'
p2537
tp2538
F2.6410194335013315e-05
tp2539
a((S'DT'
p2540
S':'
tp2541
F2.6410194335013315e-05
tp2542
a((S'JJR'
p2543
S'JJ'
p2544
tp2545
F2.6410194335013315e-05
tp2546
a((S'MD'
p2547
S'TO'
p2548
tp2549
F2.6410194335013315e-05
tp2550
a((S'NNP'
p2551
S'EX'
p2552
tp2553
F2.6410194335013315e-05
tp2554
a((S'NNS'
p2555
S'EX'
p2556
tp2557
F2.6410194335013315e-05
tp2558
a((S'PRP'
p2559
S'RBS'
p2560
tp2561
F2.6410194335013315e-05
tp2562
a((S'PRP$'
p2563
S'.'
tp2564
F2.6410194335013315e-05
tp2565
a((S'PRP$'
p2566
S'VBD'
p2567
tp2568
F2.6410194335013315e-05
tp2569
a((S'PRP$'
p2570
S'VBP'
p2571
tp2572
F2.6410194335013315e-05
tp2573
a((S'TO'
p2574
S'JJS'
p2575
tp2576
F2.6410194335013315e-05
tp2577
a((S'TO'
p2578
S'SYM'
p2579
tp2580
F2.6410194335013315e-05
tp2581
a((S'VB'
p2582
S'EX'
p2583
tp2584
F2.6410194335013315e-05
tp2585
a((S'VB'
p2586
S'UH'
p2587
tp2588
F2.6410194335013315e-05
tp2589
a((S'VBN'
p2590
S':'
tp2591
F2.6410194335013315e-05
tp2592
a((S'VBN'
p2593
S'VBD'
p2594
tp2595
F2.6410194335013315e-05
tp2596
a((S'VBP'
p2597
S'POS'
p2598
tp2599
F2.6410194335013315e-05
tp2600
a((g2125
S'NNP'
p2601
tp2602
F2.6410194335013315e-05
tp2603
a((S':'
S'TO'
p2604
tp2605
F2.2008495279177764e-05
tp2606
a((S'CC'
p2607
S'UH'
p2608
tp2609
F2.2008495279177764e-05
tp2610
a((S'CD'
p2611
S'VBZ'
p2612
tp2613
F2.2008495279177764e-05
tp2614
a((S'DT'
p2615
S'NNP'
p2616
tp2617
F2.2008495279177764e-05
tp2618
a((S'IN'
p2619
S'POS'
p2620
tp2621
F2.2008495279177764e-05
tp2622
a((S'JJS'
p2623
S'RB'
p2624
tp2625
F2.2008495279177764e-05
tp2626
a((S'JJS'
p2627
S'VB'
p2628
tp2629
F2.2008495279177764e-05
tp2630
a((S'NN'
p2631
S'NNP'
p2632
tp2633
F2.2008495279177764e-05
tp2634
a((S'NNP'
p2635
S'UH'
p2636
tp2637
F2.2008495279177764e-05
tp2638
a((S'NNS'
p2639
S'CD'
p2640
tp2641
F2.2008495279177764e-05
tp2642
a((S'NNS'
p2643
S'JJS'
p2644
tp2645
F2.2008495279177764e-05
tp2646
a((S'NNS'
p2647
S'PDT'
p2648
tp2649
F2.2008495279177764e-05
tp2650
a((S'PRP'
p2651
g867
tp2652
F2.2008495279177764e-05
tp2653
a((S'RBR'
p2654
S'WRB'
p2655
tp2656
F2.2008495279177764e-05
tp2657
a((S'SYM'
p2658
S'IN'
p2659
tp2660
F2.2008495279177764e-05
tp2661
a((g1101
S'VBP'
p2662
tp2663
F2.2008495279177764e-05
tp2664
a((S'TO'
p2665
S'PDT'
p2666
tp2667
F2.2008495279177764e-05
tp2668
a((S'VBG'
p2669
S'JJS'
p2670
tp2671
F2.2008495279177764e-05
tp2672
a((S'VBN'
p2673
S'JJR'
p2674
tp2675
F2.2008495279177764e-05
tp2676
a((S'VBP'
p2677
S':'
tp2678
F2.2008495279177764e-05
tp2679
a((S'VBZ'
p2680
S'VBP'
p2681
tp2682
F2.2008495279177764e-05
tp2683
a((S'WDT'
p2684
S','
tp2685
F2.2008495279177764e-05
tp2686
a((S'WDT'
p2687
S'DT'
p2688
tp2689
F2.2008495279177764e-05
tp2690
a((S'WP'
p2691
S'JJ'
p2692
tp2693
F2.2008495279177764e-05
tp2694
a((g1137
S'PDT'
p2695
tp2696
F2.2008495279177764e-05
tp2697
a((S"''"
p2698
S'IN'
p2699
tp2700
F1.760679622334221e-05
tp2701
a((S','
S'NNP'
p2702
tp2703
F1.760679622334221e-05
tp2704
a((S'.'
S'RP'
p2705
tp2706
F1.760679622334221e-05
tp2707
a((S':'
S'WDT'
p2708
tp2709
F1.760679622334221e-05
tp2710
a((S':'
S'WP'
p2711
tp2712
F1.760679622334221e-05
tp2713
a((S'CD'
p2714
S'MD'
p2715
tp2716
F1.760679622334221e-05
tp2717
a((S'CD'
p2718
S'VB'
p2719
tp2720
F1.760679622334221e-05
tp2721
a((S'CD'
p2722
S'VBN'
p2723
tp2724
F1.760679622334221e-05
tp2725
a((S'JJ'
p2726
g2108
tp2727
F1.760679622334221e-05
tp2728
a((S'JJR'
p2729
S'VBZ'
p2730
tp2731
F1.760679622334221e-05
tp2732
a((S'JJS'
p2733
S'VBD'
p2734
tp2735
F1.760679622334221e-05
tp2736
a((S'MD'
p2737
S'FW'
p2738
tp2739
F1.760679622334221e-05
tp2740
a((S'MD'
p2741
S'SYM'
p2742
tp2743
F1.760679622334221e-05
tp2744
a((S'POS'
p2745
S'IN'
p2746
tp2747
F1.760679622334221e-05
tp2748
a((S'PRP$'
p2749
S'RBS'
p2750
tp2751
F1.760679622334221e-05
tp2752
a((S'RBS'
p2753
S'.'
tp2754
F1.760679622334221e-05
tp2755
a((S'RP'
p2756
S':'
tp2757
F1.760679622334221e-05
tp2758
a((S'RP'
p2759
S'RBR'
p2760
tp2761
F1.760679622334221e-05
tp2762
a((g2604
S':'
tp2763
F1.760679622334221e-05
tp2764
a((S'TO'
p2765
S'VBN'
p2766
tp2767
F1.760679622334221e-05
tp2768
a((S'UH'
p2769
S'PRP$'
p2770
tp2771
F1.760679622334221e-05
tp2772
a((S'UH'
p2773
S'TO'
p2774
tp2775
F1.760679622334221e-05
tp2776
a((g1577
g1558
tp2777
F1.760679622334221e-05
tp2778
a((S'VB'
p2779
S'FW'
p2780
tp2781
F1.760679622334221e-05
tp2782
a((S'VBD'
p2783
S'MD'
p2784
tp2785
F1.760679622334221e-05
tp2786
a((S'VBD'
p2787
S'RBS'
p2788
tp2789
F1.760679622334221e-05
tp2790
a((S'VBG'
p2791
S'FW'
p2792
tp2793
F1.760679622334221e-05
tp2794
a((S'VBG'
p2795
S'VBP'
p2796
tp2797
F1.760679622334221e-05
tp2798
a((S'VBG'
p2799
S'WDT'
p2800
tp2801
F1.760679622334221e-05
tp2802
a((S'VBN'
p2803
S'NNP'
p2804
tp2805
F1.760679622334221e-05
tp2806
a((S'VBP'
p2807
S'EX'
p2808
tp2809
F1.760679622334221e-05
tp2810
a((S'VBP'
p2811
S'MD'
p2812
tp2813
F1.760679622334221e-05
tp2814
a((S'VBZ'
p2815
S'MD'
p2816
tp2817
F1.760679622334221e-05
tp2818
a((S'WDT'
p2819
S'FW'
p2820
tp2821
F1.760679622334221e-05
tp2822
a((S'WDT'
p2823
S'VB'
p2824
tp2825
F1.760679622334221e-05
tp2826
a((S'WP'
p2827
S'JJR'
p2828
tp2829
F1.760679622334221e-05
tp2830
a((S'WP'
p2831
S'POS'
p2832
tp2833
F1.760679622334221e-05
tp2834
a((S'WRB'
p2835
S'VB'
p2836
tp2837
F1.760679622334221e-05
tp2838
a((S"''"
p2839
S'SYM'
p2840
tp2841
F1.3205097167506657e-05
tp2842
a((S'.'
S'JJR'
p2843
tp2844
F1.3205097167506657e-05
tp2845
a((S'.'
S'RBR'
p2846
tp2847
F1.3205097167506657e-05
tp2848
a((S':'
S'MD'
p2849
tp2850
F1.3205097167506657e-05
tp2851
a((S'CC'
p2852
S'RBS'
p2853
tp2854
F1.3205097167506657e-05
tp2855
a((S'CD'
p2856
S'WRB'
p2857
tp2858
F1.3205097167506657e-05
tp2859
a((S'EX'
p2860
S'WP'
p2861
tp2862
F1.3205097167506657e-05
tp2863
a((S'FW'
p2864
S'DT'
p2865
tp2866
F1.3205097167506657e-05
tp2867
a((S'JJS'
p2868
S'VBP'
p2869
tp2870
F1.3205097167506657e-05
tp2871
a((g1850
S':'
tp2872
F1.3205097167506657e-05
tp2873
a((S'MD'
p2874
S'RBS'
p2875
tp2876
F1.3205097167506657e-05
tp2877
a((S'MD'
p2878
S'VBG'
p2879
tp2880
F1.3205097167506657e-05
tp2881
a((S'NNPS'
p2882
S'VBP'
p2883
tp2884
F1.3205097167506657e-05
tp2885
a((S'PRP$'
p2886
S','
tp2887
F1.3205097167506657e-05
tp2888
a((S'RB'
p2889
S"''"
p2890
tp2891
F1.3205097167506657e-05
tp2892
a((S'RBR'
p2893
S'VBG'
p2894
tp2895
F1.3205097167506657e-05
tp2896
a((S'RBS'
p2897
S'IN'
p2898
tp2899
F1.3205097167506657e-05
tp2900
a((g799
S'VBD'
p2901
tp2902
F1.3205097167506657e-05
tp2903
a((S'TO'
p2904
S'JJR'
p2905
tp2906
F1.3205097167506657e-05
tp2907
a((S'UH'
p2908
S'VB'
p2909
tp2910
F1.3205097167506657e-05
tp2911
a((S'VB'
p2912
S'MD'
p2913
tp2914
F1.3205097167506657e-05
tp2915
a((S'VBD'
p2916
S'WDT'
p2917
tp2918
F1.3205097167506657e-05
tp2919
a((S'VBN'
p2920
S'FW'
p2921
tp2922
F1.3205097167506657e-05
tp2923
a((S'VBP'
p2924
S'JJS'
p2925
tp2926
F1.3205097167506657e-05
tp2927
a((S'VBP'
p2928
S'UH'
p2929
tp2930
F1.3205097167506657e-05
tp2931
a((S'WP'
p2932
S'.'
tp2933
F1.3205097167506657e-05
tp2934
a((S"''"
p2935
S'TO'
p2936
tp2937
F8.8033981116711049e-06
tp2938
a((S"''"
p2939
S'VB'
p2940
tp2941
F8.8033981116711049e-06
tp2942
a((S','
S'RBS'
p2943
tp2944
F8.8033981116711049e-06
tp2945
a((S'.'
S':'
tp2946
F8.8033981116711049e-06
tp2947
a((S':'
S'NNP'
p2948
tp2949
F8.8033981116711049e-06
tp2950
a((S':'
S'SYM'
p2951
tp2952
F8.8033981116711049e-06
tp2953
a((S'CC'
p2954
S':'
tp2955
F8.8033981116711049e-06
tp2956
a((S'CD'
p2957
S'FW'
p2958
tp2959
F8.8033981116711049e-06
tp2960
a((S'CD'
p2961
S'PRP$'
p2962
tp2963
F8.8033981116711049e-06
tp2964
a((S'CD'
p2965
S'VBG'
p2966
tp2967
F8.8033981116711049e-06
tp2968
a((S'CD'
p2969
S'VBP'
p2970
tp2971
F8.8033981116711049e-06
tp2972
a((S'EX'
p2973
S'DT'
p2974
tp2975
F8.8033981116711049e-06
tp2976
a((S'EX'
p2977
S'IN'
p2978
tp2979
F8.8033981116711049e-06
tp2980
a((S'FW'
p2981
S'CC'
p2982
tp2983
F8.8033981116711049e-06
tp2984
a((S'FW'
p2985
S'PRP'
p2986
tp2987
F8.8033981116711049e-06
tp2988
a((S'FW'
p2989
S'TO'
p2990
tp2991
F8.8033981116711049e-06
tp2992
a((S'IN'
p2993
S'RP'
p2994
tp2995
F8.8033981116711049e-06
tp2996
a((S'JJR'
p2997
S'MD'
p2998
tp2999
F8.8033981116711049e-06
tp3000
a((S'JJR'
p3001
S'PRP$'
p3002
tp3003
F8.8033981116711049e-06
tp3004
a((S'JJR'
p3005
S'VBD'
p3006
tp3007
F8.8033981116711049e-06
tp3008
a((S'JJR'
p3009
S'VBN'
p3010
tp3011
F8.8033981116711049e-06
tp3012
a((S'JJR'
p3013
S'VBP'
p3014
tp3015
F8.8033981116711049e-06
tp3016
a((S'JJS'
p3017
S'VBG'
p3018
tp3019
F8.8033981116711049e-06
tp3020
a((S'JJS'
p3021
S'VBN'
p3022
tp3023
F8.8033981116711049e-06
tp3024
a((S'JJS'
p3025
S'VBZ'
p3026
tp3027
F8.8033981116711049e-06
tp3028
a((S'LS'
p3029
S'.'
tp3030
F8.8033981116711049e-06
tp3031
a((S'MD'
p3032
S'JJ'
p3033
tp3034
F8.8033981116711049e-06
tp3035
a((S'MD'
p3036
S'PRP$'
p3037
tp3038
F8.8033981116711049e-06
tp3039
a((S'MD'
p3040
S'VBD'
p3041
tp3042
F8.8033981116711049e-06
tp3043
a((S'NN'
p3044
S'UH'
p3045
tp3046
F8.8033981116711049e-06
tp3047
a((S'NNP'
p3048
S'RBR'
p3049
tp3050
F8.8033981116711049e-06
tp3051
a((S'POS'
p3052
S'CD'
p3053
tp3054
F8.8033981116711049e-06
tp3055
a((S'PRP'
p3056
S'PDT'
p3057
tp3058
F8.8033981116711049e-06
tp3059
a((S'PRP$'
p3060
S'NNP'
p3061
tp3062
F8.8033981116711049e-06
tp3063
a((S'PRP$'
p3064
S'PRP'
p3065
tp3066
F8.8033981116711049e-06
tp3067
a((S'PRP$'
p3068
S'TO'
p3069
tp3070
F8.8033981116711049e-06
tp3071
a((S'PRP$'
p3072
S'WP'
p3073
tp3074
F8.8033981116711049e-06
tp3075
a((S'PRP$'
p3076
S'WRB'
p3077
tp3078
F8.8033981116711049e-06
tp3079
a((S'RB'
p3080
S'POS'
p3081
tp3082
F8.8033981116711049e-06
tp3083
a((S'RBR'
p3084
S':'
tp3085
F8.8033981116711049e-06
tp3086
a((g2167
S'NN'
p3087
tp3088
F8.8033981116711049e-06
tp3089
a((S'RBS'
p3090
S'VBG'
p3091
tp3092
F8.8033981116711049e-06
tp3093
a((S'RBS'
p3094
S'VBN'
p3095
tp3096
F8.8033981116711049e-06
tp3097
a((S'RP'
p3098
S'CD'
p3099
tp3100
F8.8033981116711049e-06
tp3101
a((S'RP'
p3102
S'FW'
p3103
tp3104
F8.8033981116711049e-06
tp3105
a((S'RP'
p3106
S'PDT'
p3107
tp3108
F8.8033981116711049e-06
tp3109
a((S'SYM'
p3110
S':'
tp3111
F8.8033981116711049e-06
tp3112
a((S'TO'
p3113
S'VBZ'
p3114
tp3115
F8.8033981116711049e-06
tp3116
a((S'TO'
p3117
S'WDT'
p3118
tp3119
F8.8033981116711049e-06
tp3120
a((S'UH'
p3121
S'CC'
p3122
tp3123
F8.8033981116711049e-06
tp3124
a((g2442
S'FW'
p3125
tp3126
F8.8033981116711049e-06
tp3127
a((S'UH'
p3128
S'NNS'
p3129
tp3130
F8.8033981116711049e-06
tp3131
a((S'VBN'
p3132
S'PDT'
p3133
tp3134
F8.8033981116711049e-06
tp3135
a((S'VBN'
p3136
S'VB'
p3137
tp3138
F8.8033981116711049e-06
tp3139
a((S'VBP'
p3140
S'WDT'
p3141
tp3142
F8.8033981116711049e-06
tp3143
a((S'VBZ'
p3144
S':'
tp3145
F8.8033981116711049e-06
tp3146
a((S'VBZ'
p3147
S'FW'
p3148
tp3149
F8.8033981116711049e-06
tp3150
a((S'WDT'
p3151
S'EX'
p3152
tp3153
F8.8033981116711049e-06
tp3154
a((S'WP'
p3155
S'WRB'
p3156
tp3157
F8.8033981116711049e-06
tp3158
a((S'WP$'
p3159
S'NN'
p3160
tp3161
F8.8033981116711049e-06
tp3162
a((S'WRB'
p3163
S'RP'
p3164
tp3165
F8.8033981116711049e-06
tp3166
a((S"''"
p3167
S':'
tp3168
F4.4016990558355525e-06
tp3169
a((S"''"
p3170
S'CC'
p3171
tp3172
F4.4016990558355525e-06
tp3173
a((S"''"
p3174
S'DT'
p3175
tp3176
F4.4016990558355525e-06
tp3177
a((S"''"
p3178
S'NNP'
p3179
tp3180
F4.4016990558355525e-06
tp3181
a((S"''"
p3182
S'RB'
p3183
tp3184
F4.4016990558355525e-06
tp3185
a((S"''"
p3186
S'VBP'
p3187
tp3188
F4.4016990558355525e-06
tp3189
a((S','
S'.'
tp3190
F4.4016990558355525e-06
tp3191
a((S','
S'WP$'
p3192
tp3193
F4.4016990558355525e-06
tp3194
a((S'.'
g3029
tp3195
F4.4016990558355525e-06
tp3196
a((S':'
S'FW'
p3197
tp3198
F4.4016990558355525e-06
tp3199
a((S':'
S'PDT'
p3200
tp3201
F4.4016990558355525e-06
tp3202
a((S':'
S'VBP'
p3203
tp3204
F4.4016990558355525e-06
tp3205
a((S'CC'
p3206
S"''"
p3207
tp3208
F4.4016990558355525e-06
tp3209
a((S'CC'
p3210
S'POS'
p3211
tp3212
F4.4016990558355525e-06
tp3213
a((S'CD'
p3214
S'NNP'
p3215
tp3216
F4.4016990558355525e-06
tp3217
a((S'DT'
p3218
S'POS'
p3219
tp3220
F4.4016990558355525e-06
tp3221
a((S'EX'
p3222
S"''"
p3223
tp3224
F4.4016990558355525e-06
tp3225
a((S'EX'
p3226
S'JJ'
p3227
tp3228
F4.4016990558355525e-06
tp3229
a((S'FW'
p3230
S','
tp3231
F4.4016990558355525e-06
tp3232
a((S'FW'
p3233
S'PRP$'
p3234
tp3235
F4.4016990558355525e-06
tp3236
a((S'FW'
p3237
S'VBG'
p3238
tp3239
F4.4016990558355525e-06
tp3240
a((S'FW'
p3241
S'WRB'
p3242
tp3243
F4.4016990558355525e-06
tp3244
a((S'IN'
p3245
S'RBR'
p3246
tp3247
F4.4016990558355525e-06
tp3248
a((S'IN'
p3249
S'RBS'
p3250
tp3251
F4.4016990558355525e-06
tp3252
a((S'JJ'
p3253
S'POS'
p3254
tp3255
F4.4016990558355525e-06
tp3256
a((S'JJ'
p3257
S'RBS'
p3258
tp3259
F4.4016990558355525e-06
tp3260
a((S'JJR'
p3261
S'CD'
p3262
tp3263
F4.4016990558355525e-06
tp3264
a((S'JJR'
p3265
S'VBG'
p3266
tp3267
F4.4016990558355525e-06
tp3268
a((S'JJR'
p3269
S'WRB'
p3270
tp3271
F4.4016990558355525e-06
tp3272
a((S'JJS'
p3273
S':'
tp3274
F4.4016990558355525e-06
tp3275
a((S'JJS'
p3276
S'FW'
p3277
tp3278
F4.4016990558355525e-06
tp3279
a((S'JJS'
p3280
S'PDT'
p3281
tp3282
F4.4016990558355525e-06
tp3283
a((S'JJS'
p3284
S'PRP$'
p3285
tp3286
F4.4016990558355525e-06
tp3287
a((S'JJS'
p3288
S'RBS'
p3289
tp3290
F4.4016990558355525e-06
tp3291
a((g2670
S'WRB'
p3292
tp3293
F4.4016990558355525e-06
tp3294
a((S'MD'
p3295
S'NNS'
p3296
tp3297
F4.4016990558355525e-06
tp3298
a((S'MD'
p3299
S'VBN'
p3300
tp3301
F4.4016990558355525e-06
tp3302
a((S'MD'
p3303
S'WRB'
p3304
tp3305
F4.4016990558355525e-06
tp3306
a((S'NN'
p3307
S'RBS'
p3308
tp3309
F4.4016990558355525e-06
tp3310
a((S'NN'
p3311
S'SYM'
p3312
tp3313
F4.4016990558355525e-06
tp3314
a((S'NN'
p3315
g3159
tp3316
F4.4016990558355525e-06
tp3317
a((S'NNPS'
p3318
S'VB'
p3319
tp3320
F4.4016990558355525e-06
tp3321
a((S'NNS'
p3322
g3167
tp3323
F4.4016990558355525e-06
tp3324
a((S'POS'
p3325
S'FW'
p3326
tp3327
F4.4016990558355525e-06
tp3328
a((S'POS'
p3329
S'LS'
p3330
tp3331
F4.4016990558355525e-06
tp3332
a((g3081
S'RB'
p3333
tp3334
F4.4016990558355525e-06
tp3335
a((S'PRP'
p3336
S'SYM'
p3337
tp3338
F4.4016990558355525e-06
tp3339
a((S'PRP'
p3340
S'UH'
p3341
tp3342
F4.4016990558355525e-06
tp3343
a((S'PRP$'
p3344
S'FW'
p3345
tp3346
F4.4016990558355525e-06
tp3347
a((S'PRP$'
p3348
g3325
tp3349
F4.4016990558355525e-06
tp3350
a((S'PRP$'
p3351
S'RBR'
p3352
tp3353
F4.4016990558355525e-06
tp3354
a((S'RB'
p3355
S'NNP'
p3356
tp3357
F4.4016990558355525e-06
tp3358
a((S'RBR'
p3359
S'JJR'
p3360
tp3361
F4.4016990558355525e-06
tp3362
a((S'RBR'
p3363
S'NNS'
p3364
tp3365
F4.4016990558355525e-06
tp3366
a((g1624
S'VB'
p3367
tp3368
F4.4016990558355525e-06
tp3369
a((S'RBR'
p3370
S'VBP'
p3371
tp3372
F4.4016990558355525e-06
tp3373
a((S'RBR'
p3374
S'VBZ'
p3375
tp3376
F4.4016990558355525e-06
tp3377
a((S'RBS'
p3378
S','
tp3379
F4.4016990558355525e-06
tp3380
a((S'RBS'
p3381
g2540
tp3382
F4.4016990558355525e-06
tp3383
a((S'RBS'
p3384
S'NNS'
p3385
tp3386
F4.4016990558355525e-06
tp3387
a((S'RBS'
p3388
S'TO'
p3389
tp3390
F4.4016990558355525e-06
tp3391
a((S'RBS'
p3392
S'VBP'
p3393
tp3394
F4.4016990558355525e-06
tp3395
a((S'RP'
p3396
S'JJR'
p3397
tp3398
F4.4016990558355525e-06
tp3399
a((S'RP'
p3400
S'VBN'
p3401
tp3402
F4.4016990558355525e-06
tp3403
a((S'RP'
p3404
S'VBP'
p3405
tp3406
F4.4016990558355525e-06
tp3407
a((S'RP'
p3408
S'VBZ'
p3409
tp3410
F4.4016990558355525e-06
tp3411
a((S'SYM'
p3412
g2989
tp3413
F4.4016990558355525e-06
tp3414
a((S'SYM'
p3415
S'MD'
p3416
tp3417
F4.4016990558355525e-06
tp3418
a((S'TO'
p3419
S'FW'
p3420
tp3421
F4.4016990558355525e-06
tp3422
a((S'TO'
p3423
S'MD'
p3424
tp3425
F4.4016990558355525e-06
tp3426
a((S'TO'
p3427
S'RBR'
p3428
tp3429
F4.4016990558355525e-06
tp3430
a((g3341
S':'
tp3431
F4.4016990558355525e-06
tp3432
a((S'UH'
p3433
S'DT'
p3434
tp3435
F4.4016990558355525e-06
tp3436
a((S'UH'
p3437
S'JJ'
p3438
tp3439
F4.4016990558355525e-06
tp3440
a((S'UH'
p3441
S'RB'
p3442
tp3443
F4.4016990558355525e-06
tp3444
a((S'UH'
p3445
S'VBD'
p3446
tp3447
F4.4016990558355525e-06
tp3448
a((g2223
S'WDT'
p3449
tp3450
F4.4016990558355525e-06
tp3451
a((S'UH'
p3452
S'WRB'
p3453
tp3454
F4.4016990558355525e-06
tp3455
a((S'VB'
p3456
S'RBS'
p3457
tp3458
F4.4016990558355525e-06
tp3459
a((S'VBD'
p3460
S"''"
p3461
tp3462
F4.4016990558355525e-06
tp3463
a((S'VBD'
p3464
S'NNP'
p3465
tp3466
F4.4016990558355525e-06
tp3467
a((S'VBG'
p3468
S'EX'
p3469
tp3470
F4.4016990558355525e-06
tp3471
a((S'VBG'
p3472
S'SYM'
p3473
tp3474
F4.4016990558355525e-06
tp3475
a((S'VBN'
p3476
S'EX'
p3477
tp3478
F4.4016990558355525e-06
tp3479
a((S'VBN'
p3480
S'MD'
p3481
tp3482
F4.4016990558355525e-06
tp3483
a((S'VBN'
p3484
S'RBS'
p3485
tp3486
F4.4016990558355525e-06
tp3487
a((S'VBN'
p3488
S'VBP'
p3489
tp3490
F4.4016990558355525e-06
tp3491
a((S'VBN'
p3492
S'WDT'
p3493
tp3494
F4.4016990558355525e-06
tp3495
a((S'VBP'
p3496
S"''"
p3497
tp3498
F4.4016990558355525e-06
tp3499
a((S'VBP'
p3500
S'RBS'
p3501
tp3502
F4.4016990558355525e-06
tp3503
a((S'VBZ'
p3504
S'EX'
p3505
tp3506
F4.4016990558355525e-06
tp3507
a((S'VBZ'
p3508
g1989
tp3509
F4.4016990558355525e-06
tp3510
a((S'VBZ'
p3511
g3110
tp3512
F4.4016990558355525e-06
tp3513
a((S'WDT'
p3514
S'.'
tp3515
F4.4016990558355525e-06
tp3516
a((S'WDT'
p3517
S'CC'
p3518
tp3519
F4.4016990558355525e-06
tp3520
a((S'WDT'
p3521
S'JJ'
p3522
tp3523
F4.4016990558355525e-06
tp3524
a((S'WDT'
p3525
S'POS'
p3526
tp3527
F4.4016990558355525e-06
tp3528
a((S'WDT'
p3529
S'TO'
p3530
tp3531
F4.4016990558355525e-06
tp3532
a((S'WDT'
p3533
S'VBN'
p3534
tp3535
F4.4016990558355525e-06
tp3536
a((S'WDT'
p3537
S'WRB'
p3538
tp3539
F4.4016990558355525e-06
tp3540
a((S'WP'
p3541
S'NNP'
p3542
tp3543
F4.4016990558355525e-06
tp3544
a((S'WP'
p3545
S'PDT'
p3546
tp3547
F4.4016990558355525e-06
tp3548
a((S'WP'
p3549
S'VB'
p3550
tp3551
F4.4016990558355525e-06
tp3552
a((S'WP'
p3553
S'VBG'
p3554
tp3555
F4.4016990558355525e-06
tp3556
a((S'WP'
p3557
S'WDT'
p3558
tp3559
F4.4016990558355525e-06
tp3560
a((S'WRB'
p3561
S':'
tp3562
F4.4016990558355525e-06
tp3563
a((S'WRB'
p3564
S'JJR'
p3565
tp3566
F4.4016990558355525e-06
tp3567
a((S'WRB'
p3568
S'NNP'
p3569
tp3570
F4.4016990558355525e-06
tp3571
a((S'WRB'
p3572
g3329
tp3573
F4.4016990558355525e-06
tp3574
a((S'WRB'
p3575
S'WDT'
p3576
tp3577
F4.4016990558355525e-06
tp3578
a((S'WRB'
p3579
S'WP'
p3580
tp3581
F4.4016990558355525e-06
tp3582
a.