(lp1
((S'POS'
p2
S'SYM'
p3
tp4
F7.3557085402209648
tp5
a((S'SYM'
p6
S'CD'
p7
tp8
F6.4964258261194967
tp9
a((S'NNP'
p10
S'NNPS'
p11
tp12
F4.8034786983891991
tp13
a((S'MD'
p14
S'VB'
p15
tp16
F4.4273575317993057
tp17
a((S'TO'
p18
S'VB'
p19
tp20
F4.3838042300025215
tp21
a((S'NNS'
p22
S'WP$'
p23
tp24
F4.3230353052570472
tp25
a((S'CD'
p26
S':'
tp27
F4.2500487642393132
tp28
a((S"''"
p29
S'VBZ'
p30
tp31
F4.2425093164495209
tp32
a((S'VBG'
p33
S'RP'
p34
tp35
F3.836113854352007
tp36
a((S'NNP'
p37
S'FW'
p38
tp39
F3.7628367138918541
tp40
a((S'EX'
p41
S'VBP'
p42
tp43
F3.7501223673739545
tp44
a((S'RB'
p45
S'RBR'
p46
tp47
F3.7081357219192057
tp48
a((S'PRP'
p49
S'MD'
p50
tp51
F3.612820070354374
tp52
a((S'FW'
p53
S'NNP'
p54
tp55
F3.5563858364244254
tp56
a((S'MD'
p57
S'RB'
p58
tp59
F3.48127630450076
tp60
a((S'RBS'
p61
S'JJ'
p62
tp63
F3.3932515755052393
tp64
a((S'FW'
p65
S'MD'
p66
tp67
F3.3495844377902291
tp68
a((S'FW'
p69
S"''"
p70
tp71
F3.324420514236138
tp72
a((S'NNP'
p73
S':'
tp74
F3.2940672306752212
tp75
a((S'PRP'
p76
S'VBP'
p77
tp78
F3.240170323199731
tp79
a((S'FW'
p80
S'VBP'
p81
tp82
F3.2124655814311573
tp83
a((S'NNP'
p84
g29
tp85
F3.2017891112625954
tp86
a((S'SYM'
p87
S'VB'
p88
tp89
F3.1701325386707353
tp90
a((S'PDT'
p91
S'DT'
p92
tp93
F3.1664980394640878
tp94
a((S'WDT'
p95
S'FW'
p96
tp97
F3.1229674305920536
tp98
a((S'PRP$'
p99
S'NNS'
p100
tp101
F3.116748967398383
tp102
a((S'CD'
p103
S'RBS'
p104
tp105
F3.0749620576812209
tp106
a((g46
S'JJ'
p107
tp108
F3.0106355539187675
tp109
a((S'VB'
p110
S'RP'
p111
tp112
F2.9763607952740578
tp113
a((g11
S'.'
tp114
F2.9418369744418627
tp115
a((S'EX'
p116
S'VBD'
p117
tp118
F2.790157029176207
tp119
a((S':'
S'VBN'
p120
tp121
F2.7854443492735115
tp122
a((S'WDT'
p123
S'VBD'
p124
tp125
F2.7630714855056695
tp126
a((S'DT'
p127
S'JJR'
p128
tp129
F2.7513452714671871
tp130
a((S'WP'
p131
S'PRP'
p132
tp133
F2.7425004588906141
tp134
a((S'EX'
p135
S'VBZ'
p136
tp137
F2.7320540746126412
tp138
a((g23
S'NN'
p139
tp140
F2.7191218768458683
tp141
a((S'VBD'
p142
S'RP'
p143
tp144
F2.689070904061893
tp145
a((S'PRP'
p146
S'VBD'
p147
tp148
F2.6647176172673639
tp149
a((S'JJS'
p150
S'CD'
p151
tp152
F2.6599245584023787
tp153
a((S'PRP'
p154
S'POS'
p155
tp156
F2.6461844463225752
tp157
a((S'POS'
p158
S'VBZ'
p159
tp160
F2.6194367162248433
tp161
a((S':'
S'CD'
p162
tp163
F2.6126188436240234
tp164
a((g3
S'VBP'
p165
tp166
F2.5750356608158658
tp167
a((S','
g135
tp168
F2.5571567261504065
tp169
a((S'NNS'
p170
S'POS'
p171
tp172
F2.5529613992789031
tp173
a((S'WDT'
p174
S'VBZ'
p175
tp176
F2.5286062318686433
tp177
a((S'NNP'
p178
g158
tp179
F2.514531482147671
tp180
a((S'WRB'
p181
S'PRP'
p182
tp183
F2.5102815401478509
tp184
a((S'NNPS'
p185
S','
tp186
F2.5016516353449916
tp187
a((S'MD'
p188
S"''"
p189
tp190
F2.4957550859331228
tp191
a((S'VBN'
p192
S'RP'
p193
tp194
F2.4821742409463141
tp195
a((S'NNS'
p196
S'WDT'
p197
tp198
F2.4706929284261356
tp199
a((S','
S'VBG'
p200
tp201
F2.4516677172230814
tp202
a((S','
S'FW'
p203
tp204
F2.434537439486455
tp205
a((S'EX'
p206
S'POS'
p207
tp208
F2.4015122298340899
tp209
a((S'VBZ'
p210
S'RBS'
p211
tp212
F2.3968901525685844
tp213
a((S','
S'CC'
p214
tp215
F2.3764052680229568
tp216
a((g58
S'VB'
p217
tp218
F2.3655190806986575
tp219
a((g128
S'NN'
p220
tp221
F2.2115182588309565
tp222
a((S'WRB'
p223
S'PRP$'
p224
tp225
F2.2021231692775949
tp226
a((S'NNS'
p227
S'VBP'
p228
tp229
F2.1859164488979772
tp230
a((S'IN'
p231
g91
tp232
F2.1789714588891975
tp233
a((S'VBN'
p234
S'IN'
p235
tp236
F2.1233964910410563
tp237
a((S'.'
S'EX'
p238
tp239
F2.1024241113048419
tp240
a((S'VBZ'
p241
g223
tp242
F2.1023919307517183
tp243
a((S'WDT'
p244
S'VBP'
p245
tp246
F2.0996976512692029
tp247
a((S'WP'
p248
S'VBD'
p249
tp250
F2.0983947521463442
tp251
a((g197
S'PRP'
p252
tp253
F2.0926665689250576
tp254
a((S'PRP'
p255
S'VBZ'
p256
tp257
F2.0886816085862598
tp258
a((S'JJS'
p259
S'NNS'
p260
tp261
F2.0885700516200245
tp262
a((S'VBP'
p263
S'VBN'
p264
tp265
F2.0618371379623248
tp266
a((S'RBR'
p267
S'RB'
p268
tp269
F2.0510234354422145
tp270
a((S'WRB'
p271
S'FW'
p272
tp273
F2.0472503765592549
tp274
a((S'IN'
p275
S'NNP'
p276
tp277
F2.0429222116648731
tp278
a((S'MD'
p279
S'RBS'
p280
tp281
F2.0276563429028656
tp282
a((S'DT'
p283
S'NN'
p284
tp285
F2.0122694478141767
tp286
a((S'RP'
p287
S'IN'
p288
tp289
F1.9671790065149217
tp290
a((g276
S'VBZ'
p291
tp292
F1.9663701079769922
tp293
a((S'VB'
p294
S'WRB'
p295
tp296
F1.9619651886142861
tp297
a((S'DT'
p298
g259
tp299
F1.9397271776170655
tp300
a((S'VBN'
p301
S'NNPS'
p302
tp303
F1.9210584821795287
tp304
a((S'DT'
p305
g61
tp306
F1.907305699924688
tp307
a((S'NNS'
p308
g248
tp309
F1.8946305822403744
tp310
a((S'RP'
p311
S'RBR'
p312
tp313
F1.8731170137488586
tp314
a((S'TO'
p315
S'SYM'
p316
tp317
F1.8444319312180735
tp318
a((S'IN'
p319
S'PRP$'
p320
tp321
F1.8372434828123474
tp322
a((S'NNP'
p323
S','
tp324
F1.8057206491758677
tp325
a((S'.'
g146
tp326
F1.8008598816187522
tp327
a((S'VBD'
p328
g234
tp329
F1.7377512688164636
tp330
a((S'WRB'
p331
S'EX'
p332
tp333
F1.7224106862519903
tp334
a((S'.'
S'CD'
p335
tp336
F1.711993278545215
tp337
a((S'VBD'
p338
S'RB'
p339
tp340
F1.7115337010176681
tp341
a((S'CC'
p342
S'WRB'
p343
tp344
F1.7084663857869131
tp345
a((S'POS'
p346
S'NNS'
p347
tp348
F1.6998027876081743
tp349
a((S'PDT'
p350
S'PRP$'
p351
tp352
F1.6972337050320938
tp353
a((S'VBZ'
p354
S'VBN'
p355
tp356
F1.6807953840043908
tp357
a((S'RP'
p358
S'TO'
p359
tp360
F1.6685820958186532
tp361
a((S'VBG'
p362
S'TO'
p363
tp364
F1.6648243763784265
tp365
a((S'WP'
p366
S'VBP'
p367
tp368
F1.6473245216227461
tp369
a((S'NN'
p370
S'.'
tp371
F1.646442512016236
tp372
a((S'VBP'
p373
S'RBR'
p374
tp375
F1.6454249887072621
tp376
a((S'WP'
p377
S'JJS'
p378
tp379
F1.6282156986750405
tp380
a((S':'
S'DT'
p381
tp382
F1.6229607878454786
tp383
a((S'JJ'
p384
g18
tp385
F1.6037541568538707
tp386
a((S'RBR'
p387
S'.'
tp388
F1.597188803054415
tp389
a((S'TO'
p390
S'PRP$'
p391
tp392
F1.5915683285035662
tp393
a((S'VBD'
p394
S'TO'
p395
tp396
F1.5857627179456806
tp397
a((S'.'
S'DT'
p398
tp399
F1.5657105715812527
tp400
a((S'NNS'
p401
S'VBD'
p402
tp403
F1.5463196555498087
tp404
a((S'IN'
p405
S'DT'
p406
tp407
F1.5378011537967531
tp408
a((S'VB'
p409
S'PRP$'
p410
tp411
F1.5363763466342668
tp412
a((S'PRP'
p413
S"''"
p414
tp415
F1.5196793529842729
tp416
a((S'JJ'
p417
S'NNS'
p418
tp419
F1.518320869026244
tp420
a((S'VBZ'
p421
S'VBG'
p422
tp423
F1.5149177793143522
tp424
a((S'VBP'
p425
S'TO'
p426
tp427
F1.5104310040301385
tp428
a((g320
S'NN'
p429
tp430
F1.5057669553175685
tp431
a((S'NNS'
p432
S'CC'
p433
tp434
F1.4932649619725673
tp435
a((S'JJS'
p436
S'IN'
p437
tp438
F1.4800191906597249
tp439
a((S'WP'
p440
S'PRP$'
p441
tp442
F1.4731874805216094
tp443
a((S'CC'
p444
S'EX'
p445
tp446
F1.4702320656551855
tp447
a((S'.'
g84
tp448
F1.4313895409244957
tp449
a((S'VB'
p450
S'PDT'
p451
tp452
F1.4228986090507014
tp453
a((S'RB'
p454
S'VBN'
p455
tp456
F1.4190725631358774
tp457
a((S'NN'
p458
g174
tp459
F1.4142672953174475
tp460
a((S'VBN'
p461
S'TO'
p462
tp463
F1.3851722154753361
tp464
a((S'WDT'
p465
S'MD'
p466
tp467
F1.3817648435393757
tp468
a((S'VBZ'
p469
S'RB'
p470
tp471
F1.3625047428944654
tp472
a((g295
S'JJ'
p473
tp474
F1.3583682389810114
tp475
a((S'NN'
p476
S"''"
p477
tp478
F1.3571456213184412
tp479
a((S'CD'
p480
S','
tp481
F1.3536174441028876
tp482
a((g143
S'.'
tp483
F1.3509496397635985
tp484
a((g280
S'RB'
p485
tp486
F1.3505837173011237
tp487
a((S'VBG'
p488
S'PRP$'
p489
tp490
F1.3479556955759371
tp491
a((S'NNS'
p492
S','
tp493
F1.3371758392902855
tp494
a((g470
S'JJ'
p495
tp496
F1.32995442380507
tp497
a((g171
S'NN'
p498
tp499
F1.3216021388250532
tp500
a((S'WRB'
p501
S'TO'
p502
tp503
F1.3108642943674589
tp504
a((S'NN'
p505
S','
tp506
F1.3053303358799724
tp507
a((S'EX'
p508
S'MD'
p509
tp510
F1.3022787230118702
tp511
a((S'DT'
p512
S'JJ'
p513
tp514
F1.2957608626531005
tp515
a((S'VBZ'
p516
S'WP'
p517
tp518
F1.2683197535886599
tp519
a((S'VB'
p520
S'WP'
p521
tp522
F1.2675123804404436
tp523
a((S'NNPS'
p524
S'TO'
p525
tp526
F1.2594694304969174
tp527
a((S'IN'
p528
S'CD'
p529
tp530
F1.2556464051950371
tp531
a((S'NN'
p532
S'CC'
p533
tp534
F1.2548070039896686
tp535
a((g228
S'RB'
p536
tp537
F1.2510480437502096
tp538
a((S'IN'
p539
g6
tp540
F1.2397048613260147
tp541
a((g111
S'WP'
p542
tp543
F1.2120515339419136
tp544
a((S'CD'
p545
S'NNS'
p546
tp547
F1.2046406044548164
tp548
a((S'IN'
p549
g440
tp550
F1.1933492256342753
tp551
a((g513
S'NN'
p552
tp553
F1.1875055297935511
tp554
a((S'RB'
p555
S','
tp556
F1.1809391503121915
tp557
a((S'VBD'
p558
S'RBS'
p559
tp560
F1.1744977312321367
tp561
a((g529
S'.'
tp562
F1.1694660441444569
tp563
a((S'VBG'
p564
S'WRB'
p565
tp566
F1.1400150921327352
tp567
a((S'CC'
p568
S'FW'
p569
tp570
F1.1390261571798099
tp571
a((S'VB'
p572
S'POS'
p573
tp574
F1.1370242268587951
tp575
a((S'CC'
p576
S'WP'
p577
tp578
F1.1333125059854154
tp579
a((S'NN'
p580
g469
tp581
F1.1200382678800587
tp582
a((S'CD'
p583
S'JJR'
p584
tp585
F1.0992096039278998
tp586
a((S'CC'
p587
S'JJ'
p588
tp589
F1.0991673922037037
tp590
a((S'NNPS'
p591
S'IN'
p592
tp593
F1.0697798598837025
tp594
a((S':'
S'VBG'
p595
tp596
F1.0630616790340603
tp597
a((S'VBP'
p598
S'DT'
p599
tp600
F1.0566833239629112
tp601
a((S'WDT'
p602
S'POS'
p603
tp604
F1.0373916988859797
tp605
a((S'VBP'
p606
S'VBG'
p607
tp608
F1.0234593285892544
tp609
a((S'VBD'
p610
S'VBG'
p611
tp612
F1.0196580815414258
tp613
a((S'NNP'
p614
g338
tp615
F1.0154243322905359
tp616
a((S'NNS'
p617
S'.'
tp618
F1.0038950277413043
tp619
a((g284
g405
tp620
F0.99700838338504738
tp621
a((S'RP'
p622
S'RB'
p623
tp624
F0.9788136719264493
tp625
a((S'CD'
p626
S'WRB'
p627
tp628
F0.96633038117568759
tp629
a((S','
g123
tp630
F0.96421750470641854
tp631
a((S'NN'
p632
S':'
tp633
F0.96132277926249898
tp634
a((S'IN'
p635
S'EX'
p636
tp637
F0.95084446812431622
tp638
a((S'CC'
p639
S'VBG'
p640
tp641
F0.95001990433790695
tp642
a((S'VB'
p643
S'DT'
p644
tp645
F0.93827358047555975
tp646
a((S'RB'
p647
S'JJS'
p648
tp649
F0.93554621802228155
tp650
a((S'JJ'
p651
g587
tp652
F0.93534259029781452
tp653
a((S'PRP$'
p654
S'SYM'
p655
tp656
F0.92090567859511552
tp657
a((S'NN'
p658
S'VBN'
p659
tp660
F0.92033710616868802
tp661
a((S'VBZ'
p662
S'JJ'
p663
tp664
F0.90981056425883722
tp665
a((S'VBG'
p666
S'DT'
p667
tp668
F0.90083690867594512
tp669
a((S'JJR'
p670
S'NNS'
p671
tp672
F0.89982387453250468
tp673
a((S'POS'
p674
S'JJ'
p675
tp676
F0.87799156855591676
tp677
a((S'SYM'
p678
S'RB'
p679
tp680
F0.86515689013087993
tp681
a((S'.'
S'JJS'
p682
tp683
F0.86022320888821113
tp684
a((g147
S'DT'
p685
tp686
F0.85321818436238672
tp687
a((S'.'
S'PDT'
p688
tp689
F0.84995487343438469
tp690
a((S'VB'
p691
S'JJR'
p692
tp693
F0.83181000553270579
tp694
a((S'RB'
p695
S'VBG'
p696
tp697
F0.83097977481279273
tp698
a((S'PRP$'
p699
S'RBS'
p700
tp701
F0.82137000504419788
tp702
a((g15
g384
tp703
F0.81973439707013895
tp704
a((S'IN'
p705
S'PRP'
p706
tp707
F0.80269987874143567
tp708
a((g291
S'DT'
p709
tp710
F0.80069618412053956
tp711
a((S'RP'
p712
S'PRP$'
p713
tp714
F0.79752326308983612
tp715
a((g433
S'PRP$'
p716
tp717
F0.79057491820134729
tp718
a((S'.'
S'SYM'
p719
tp720
F0.78983388099680951
tp721
a((S'CC'
p722
S'VB'
p723
tp724
F0.76833875037259247
tp725
a((S'CC'
p726
S'PDT'
p727
tp728
F0.75436230694448625
tp729
a((S'.'
S'IN'
p730
tp731
F0.72931139699454661
tp732
a((S'FW'
p733
S'VBN'
p734
tp735
F0.72841340423713064
tp736
a((S'IN'
p737
S'WRB'
p738
tp739
F0.72770257431033514
tp740
a((S'CC'
p741
S'JJS'
p742
tp743
F0.72398865790096423
tp744
a((S'NNS'
p745
S'IN'
p746
tp747
F0.71772849051455623
tp748
a((S','
g614
tp749
F0.71214653386367388
tp750
a((S'CD'
p751
S'NN'
p752
tp753
F0.69857449944178285
tp754
a((S'VBD'
p755
S'PRP'
p756
tp757
F0.69449419845445703
tp758
a((g495
S'.'
tp759
F0.69211406047465829
tp760
a((S'SYM'
p761
S'VBD'
p762
tp763
F0.68907090406189297
tp764
a((S'PRP$'
p765
S'JJ'
p766
tp767
F0.68840183567661839
tp768
a((S','
S'PRP'
p769
tp770
F0.68767719431509278
tp771
a((g696
S'IN'
p772
tp773
F0.68458817139416084
tp774
a((S'NNP'
p775
S'.'
tp776
F0.6842759913822114
tp777
a((S'RB'
p778
S'VBD'
p779
tp780
F0.67874376590000196
tp781
a((S'VBP'
p782
S','
tp783
F0.67820652045331897
tp784
a((S'IN'
p785
S'VBG'
p786
tp787
F0.67391466987971071
tp788
a((S'VBG'
p789
S'PDT'
p790
tp791
F0.66912001521072639
tp792
a((S'.'
S'RB'
p793
tp794
F0.66299273410849224
tp795
a((S'JJ'
p796
S':'
tp797
F0.65910374598650989
tp798
a((S'JJS'
p799
S'NN'
p800
tp801
F0.64512129540208818
tp802
a((S'JJ'
p803
S','
tp804
F0.6344322565082372
tp805
a((S'VBD'
p806
S'EX'
p807
tp808
F0.62969235698296089
tp809
a((g636
S'NNS'
p810
tp811
F0.61676650831375923
tp812
a((S'VBP'
p813
S'CD'
p814
tp815
F0.60103086934881134
tp816
a((S'TO'
p817
S'DT'
p818
tp819
F0.58911400019891147
tp820
a((S'NNS'
p821
S'MD'
p822
tp823
F0.57237238895530496
tp824
a((S'VBP'
p825
S'WP'
p826
tp827
F0.56932200962147661
tp828
a((S'CC'
p829
g401
tp830
F0.53595136107411534
tp831
a((S'VB'
p832
S'TO'
p833
tp834
F0.52056538116385198
tp835
a((g533
S'NN'
p836
tp837
F0.51840178856070196
tp838
a((S'JJR'
p839
g480
tp840
F0.51424710320674194
tp841
a((S'VBZ'
p842
S'RP'
p843
tp844
F0.51322106866247807
tp845
a((S'RP'
p846
S'CC'
p847
tp848
F0.50945835433748599
tp849
a((S'FW'
p850
S'TO'
p851
tp852
F0.48186185183336505
tp853
a((S'NNPS'
p854
S'PRP'
p855
tp856
F0.4702293627852363
tp857
a((g779
S'PRP$'
p858
tp859
F0.44636716756761174
tp860
a((S':'
S'EX'
p861
tp862
F0.43978224676180488
tp863
a((S':'
S'TO'
p864
tp865
F0.43455613705500795
tp866
a((g569
S'.'
tp867
F0.42726380161210287
tp868
a((S'VB'
p869
S'RB'
p870
tp871
F0.42652015283058375
tp872
a((S'RB'
p873
S'VBZ'
p874
tp875
F0.42067561295955613
tp876
a((S'PRP'
p877
S'RB'
p878
tp879
F0.41185009521720417
tp880
a((S'NNS'
p881
S'VBN'
p882
tp883
F0.40717741540328944
tp884
a((S'VBG'
p885
S'PRP'
p886
tp887
F0.40710755042643854
tp888
a((S'VBD'
p889
S'PDT'
p890
tp891
F0.40126859307915907
tp892
a((S"''"
p893
S'PRP'
p894
tp895
F0.38722905696062426
tp896
a((S'VBZ'
p897
S'IN'
p898
tp899
F0.38678127369113824
tp900
a((S'NN'
p901
S'VBD'
p902
tp903
F0.38438600565788761
tp904
a((S'RB'
p905
g528
tp906
F0.38075883124024301
tp907
a((g738
S'DT'
p908
tp909
F0.38026967304191217
tp910
a((S'VBG'
p911
S'WP'
p912
tp913
F0.37821881594399187
tp914
a((S'CC'
p915
S'RB'
p916
tp917
F0.37025369744125669
tp918
a((S','
S'VBN'
p919
tp920
F0.35974040897726667
tp921
a((S'NNP'
p922
S'CC'
p923
tp924
F0.35588122047793291
tp925
a((S':'
g444
tp926
F0.35475484823524539
tp927
a((S'NN'
p928
S'TO'
p929
tp930
F0.34766444563487298
tp931
a((S'JJS'
p932
S'TO'
p933
tp934
F0.32985875838831191
tp935
a((S'NNS'
p936
S'RBR'
p937
tp938
F0.32303530525704716
tp939
a((g517
S'VBZ'
p940
tp941
F0.3207871734827954
tp942
a((S'VB'
p943
S'VBN'
p944
tp945
F0.31192230781678987
tp946
a((g381
g745
tp947
F0.31071665206734167
tp948
a((S'IN'
p949
g436
tp950
F0.31009418921741272
tp951
a((S'TO'
p952
S'PRP'
p953
tp954
F0.29544178824908585
tp955
a((S'WP'
p956
S'MD'
p957
tp958
F0.27348145870443474
tp959
a((S'VBP'
p960
S"''"
p961
tp962
F0.26552682518256887
tp963
a((S'IN'
p964
S'WDT'
p965
tp966
F0.26479584228884434
tp967
a((S','
S'DT'
p968
tp969
F0.25490844006383995
tp970
a((S'VBP'
p971
S'JJ'
p972
tp973
F0.24416007748008894
tp974
a((S'VBG'
p975
g905
tp976
F0.24106805811990384
tp977
a((S'PRP'
p978
S'.'
tp979
F0.24084373802782366
tp980
a((S'VBP'
p981
S'IN'
p982
tp983
F0.23777998440152359
tp984
a((g19
S'PRP'
p985
tp986
F0.2360204743271872
tp987
a((S'VBD'
p988
S'JJ'
p989
tp990
F0.23372174542530288
tp991
a((S'VB'
p992
S'FW'
p993
tp994
F0.2225999585648708
tp995
a((S':'
S'RB'
p996
tp997
F0.22081584233078999
tp998
a((S'NNP'
p999
S'MD'
p1000
tp1001
F0.19720569142263145
tp1002
a((S':'
S'NNP'
p1003
tp1004
F0.18715202675870657
tp1005
a((S'VBZ'
p1006
S'RBR'
p1007
tp1008
F0.17449773123213319
tp1009
a((S'CC'
p1010
S'PRP'
p1011
tp1012
F0.13560100150420595
tp1013
a((S'VB'
p1014
S'RBR'
p1015
tp1016
F0.070596865119817664
tp1017
a((S'JJS'
p1018
S'VBP'
p1019
tp1020
F0.060462487986104207
tp1021
a((g944
S'.'
tp1022
F0.054242936806822684
tp1023
a((S'RB'
p1024
S':'
tp1025
F0.040243596688970484
tp1026
a((S':'
S'NN'
p1027
tp1028
F0.037944060865410023
tp1029
a((S'JJ'
p1030
S'CD'
p1031
tp1032
F0.018708854454452251
tp1033
a((S'RB'
p1034
S'JJR'
p1035
tp1036
F0.012261184163090633
tp1037
a((g175
S'PRP$'
p1038
tp1039
F0.0057945761816284858
tp1040
a((S'VBZ'
p1041
S'CD'
p1042
tp1043
F0.0045727297898281449
tp1044
a((S'TO'
p1045
S'JJR'
p1046
tp1047
F-0.0084637747497176008
tp1048
a((S'PRP$'
p1049
S'JJS'
p1050
tp1051
F-0.0087049935134864143
tp1052
a((S'CC'
p1053
g267
tp1054
F-0.012976936265239658
tp1055
a((S'VBD'
p1056
S'IN'
p1057
tp1058
F-0.014612327406670289
tp1059
a((S'NNS'
p1060
S'TO'
p1061
tp1062
F-0.027577872161103301
tp1063
a((S','
S'TO'
p1064
tp1065
F-0.033031884277541224
tp1066
a((S'VBP'
p1067
S'RP'
p1068
tp1069
F-0.033773581859659174
tp1070
a((S'VBD'
p1071
S':'
tp1072
F-0.042732984988532507
tp1073
a((S','
S'JJ'
p1074
tp1075
F-0.045020879002759528
tp1076
a((S'VB'
p1077
S'.'
tp1078
F-0.048605841887169987
tp1079
a((S'VB'
p1080
S'IN'
p1081
tp1082
F-0.050609129017182397
tp1083
a((S'JJ'
p1084
S'IN'
p1085
tp1086
F-0.06951906438985489
tp1087
a((S'VBZ'
p1088
S'TO'
p1089
tp1090
F-0.070679171195411783
tp1091
a((g7
S'PRP'
p1092
tp1093
F-0.070816021405708085
tp1094
a((S'VBP'
p1095
S'.'
tp1096
F-0.070914932966985589
tp1097
a((S'VBN'
p1098
S'PDT'
p1099
tp1100
F-0.071287945277035192
tp1101
a((S'CD'
p1102
S'WDT'
p1103
tp1104
F-0.073429782211448469
tp1105
a((S','
S'RB'
p1106
tp1107
F-0.081254279082230596
tp1108
a((S'VBP'
p1109
S'JJR'
p1110
tp1111
F-0.085214967209527259
tp1112
a((S'VBP'
p1113
S'WRB'
p1114
tp1115
F-0.085643893938090798
tp1116
a((g655
S'NN'
p1117
tp1118
F-0.088233045211737249
tp1119
a((S'VBD'
p1120
S'WRB'
p1121
tp1122
F-0.090253147190679783
tp1123
a((S'VBP'
p1124
S'PRP'
p1125
tp1126
F-0.103237499098082
tp1127
a((S'RBR'
p1128
S'IN'
p1129
tp1130
F-0.10494331006142943
tp1131
a((S','
g964
tp1132
F-0.11503358557638776
tp1133
a((g919
S'DT'
p1134
tp1135
F-0.11779186146028664
tp1136
a((S'NNS'
p1137
S':'
tp1138
F-0.12866066460064474
tp1139
a((S'DT'
p1140
S'CD'
p1141
tp1142
F-0.13708841943376626
tp1143
a((S'RB'
p1144
S'.'
tp1145
F-0.13987479695679639
tp1146
a((S'NN'
p1147
S'RBR'
p1148
tp1149
F-0.14337459940419706
tp1150
a((S'WDT'
p1151
S"''"
p1152
tp1153
F-0.14589942054389482
tp1154
a((S'VBN'
p1155
S'RB'
p1156
tp1157
F-0.15283378475983156
tp1158
a((S'RB'
p1159
S'WRB'
p1160
tp1161
F-0.16080712870481761
tp1162
a((g982
S'JJ'
p1163
tp1164
F-0.17192291988125774
tp1165
a((S'NNS'
p1166
g778
tp1167
F-0.17603901836670133
tp1168
a((S'CC'
p1169
S'DT'
p1170
tp1171
F-0.17842700051809146
tp1172
a((g256
S','
tp1173
F-0.1788068626045245
tp1174
a((S'CC'
p1175
S'RBS'
p1176
tp1177
F-0.18290193770755536
tp1178
a((S'JJS'
p1179
S'PRP'
p1180
tp1181
F-0.19634690348956951
tp1182
a((S'VBN'
p1183
S'PRP$'
p1184
tp1185
F-0.19801390514637873
tp1186
a((S'WRB'
p1187
S'NNP'
p1188
tp1189
F-0.19823777419982491
tp1190
a((S'WDT'
p1191
S'RB'
p1192
tp1193
F-0.21284562187038958
tp1194
a((S'NNP'
p1195
g26
tp1196
F-0.22497387710023276
tp1197
a((g418
g975
tp1198
F-0.23258786003225751
tp1199
a((S'RB'
p1200
S'RBS'
p1201
tp1202
F-0.23437878342003415
tp1203
a((S'VB'
p1204
S"''"
p1205
tp1206
F-0.2389119705134739
tp1207
a((S'VBD'
p1208
S'JJS'
p1209
tp1210
F-0.24053976804670896
tp1211
a((S':'
S'WDT'
p1212
tp1213
F-0.24626637907366344
tp1214
a((S'VBZ'
p1215
S'PDT'
p1216
tp1217
F-0.2508081035005354
tp1218
a((S'NNPS'
p1219
S'CC'
p1220
tp1221
F-0.25329126559895343
tp1222
a((g1141
S'IN'
p1223
tp1224
F-0.26036874180862668
tp1225
a((g559
g737
tp1226
F-0.27486831150374158
tp1227
a((S'JJR'
p1228
S'.'
tp1229
F-0.28545424630742744
tp1230
a((S'JJR'
p1231
S'IN'
p1232
tp1233
F-0.29126274975441291
tp1234
a((g648
S'NNP'
p1235
tp1236
F-0.29605697516171503
tp1237
a((S'NN'
p1238
S'CD'
p1239
tp1240
F-0.30142550055821715
tp1241
a((S','
S'WRB'
p1242
tp1243
F-0.30414462726877645
tp1244
a((S':'
S'NNS'
p1245
tp1246
F-0.30923291024246424
tp1247
a((S'RBS'
p1248
S'.'
tp1249
F-0.30970179255410457
tp1250
a((g1239
S'DT'
p1251
tp1252
F-0.31111781920881754
tp1253
a((S'.'
g1187
tp1254
F-0.31141826514312498
tp1255
a((S'TO'
p1256
S'PDT'
p1257
tp1258
F-0.31783949768080433
tp1259
a((S'RB'
p1260
g981
tp1261
F-0.3236461215171218
tp1262
a((S'WRB'
p1263
S'PDT'
p1264
tp1265
F-0.33741347367606878
tp1266
a((g34
S'DT'
p1267
tp1268
F-0.33893346336612851
tp1269
a((S'RP'
p1270
S':'
tp1271
F-0.34411370247180884
tp1272
a((S'WRB'
p1273
S'VBG'
p1274
tp1275
F-0.35474959961684149
tp1276
a((S'CD'
p1277
S'JJ'
p1278
tp1279
F-0.35568666032704499
tp1280
a((S'IN'
p1281
g370
tp1282
F-0.36201803597531779
tp1283
a((S'POS'
p1284
S'VB'
p1285
tp1286
F-0.37754894597096111
tp1287
a((S'WP'
p1288
S','
tp1289
F-0.37853113376554148
tp1290
a((S'VBN'
p1291
S'PRP'
p1292
tp1293
F-0.38565581512246183
tp1294
a((S'VB'
p1295
S'CD'
p1296
tp1297
F-0.38883475351747521
tp1298
a((S'NNS'
p1299
S'PRP'
p1300
tp1301
F-0.39176373068201897
tp1302
a((S'RP'
p1303
S','
tp1304
F-0.39666422452551942
tp1305
a((S'RBS'
p1306
S'VBZ'
p1307
tp1308
F-0.41046476948902111
tp1309
a((S'JJS'
p1310
S'VBG'
p1311
tp1312
F-0.4201473228863577
tp1313
a((S'NN'
p1314
S'MD'
p1315
tp1316
F-0.42148755777188995
tp1317
a((S'VBN'
p1318
S'JJS'
p1319
tp1320
F-0.42358968920791895
tp1321
a((S'VB'
p1322
S'VBG'
p1323
tp1324
F-0.42937827061957989
tp1325
a((S'VBN'
p1326
S'VBG'
p1327
tp1328
F-0.43257847243517134
tp1329
a((S'FW'
p1330
S'CC'
p1331
tp1332
F-0.44593634354134792
tp1333
a((S'.'
g99
tp1334
F-0.44781662777118569
tp1335
a((S'CC'
p1336
S'VBD'
p1337
tp1338
F-0.45533504154359861
tp1339
a((S'CD'
p1340
S"''"
p1341
tp1342
F-0.45693919928852011
tp1343
a((S'VBG'
p1344
S'JJ'
p1345
tp1346
F-0.46272558921605622
tp1347
a((S'VBG'
p1348
S'EX'
p1349
tp1350
F-0.4674530376647148
tp1351
a((S'RB'
p1352
S'EX'
p1353
tp1354
F-0.47432957614078575
tp1355
a((S'NNPS'
p1356
S'VBZ'
p1357
tp1358
F-0.48085409738041918
tp1359
a((S'VBD'
p1360
S'WP'
p1361
tp1362
F-0.48656774857481011
tp1363
a((S'WP'
p1364
S"''"
p1365
tp1366
F-0.48864805901585839
tp1367
a((S':'
S'PRP$'
p1368
tp1369
F-0.48897011556795178
tp1370
a((S'RB'
p1371
g80
tp1372
F-0.49741318925382672
tp1373
a((S'NNS'
p1374
S'RP'
p1375
tp1376
F-0.50816635875492366
tp1377
a((S'VBG'
p1378
S','
tp1379
F-0.52000355971842893
tp1380
a((g359
S'WP'
p1381
tp1382
F-0.52385179936102944
tp1383
a((S':'
S'JJ'
p1384
tp1385
F-0.52852325718925997
tp1386
a((S'VBZ'
p1387
S'PRP'
p1388
tp1389
F-0.52977063721476014
tp1390
a((S'VBG'
p1391
S'NNP'
p1392
tp1393
F-0.54605385789276184
tp1394
a((S'VBD'
p1395
S'CD'
p1396
tp1397
F-0.54796829323895224
tp1398
a((S'NN'
p1399
S'WRB'
p1400
tp1401
F-0.56221188577254821
tp1402
a((S','
S'NNS'
p1403
tp1404
F-0.56823430976360356
tp1405
a((S'NNP'
p1406
g873
tp1407
F-0.57654295359078134
tp1408
a((S'NNS'
p1409
S'RBS'
p1410
tp1411
F-0.58385529035146888
tp1412
a((S':'
S'WP'
p1413
tp1414
F-0.58901501754563057
tp1415
a((S'JJS'
p1416
S'CC'
p1417
tp1418
F-0.59793943698639751
tp1419
a((S','
S'CD'
p1420
tp1421
F-0.60985667987199932
tp1422
a((S'PRP'
p1423
S'JJS'
p1424
tp1425
F-0.61138440276841166
tp1426
a((S'NNP'
p1427
S'VBN'
p1428
tp1429
F-0.61661042007286326
tp1430
a((S'VBG'
p1431
S'CC'
p1432
tp1433
F-0.63494259638324735
tp1434
a((S','
S'WP'
p1435
tp1436
F-0.6415655395993376
tp1437
a((S'DT'
p1438
g1128
tp1439
F-0.64523532310409237
tp1440
a((S'VBD'
p1441
S'JJR'
p1442
tp1443
F-0.64925162907613654
tp1444
a((S'RBR'
p1445
S'TO'
p1446
tp1447
F-0.67014124161168809
tp1448
a((S'NNP'
p1449
S'IN'
p1450
tp1451
F-0.67038190626742633
tp1452
a((g272
S'VBD'
p1453
tp1454
F-0.67349917532281367
tp1455
a((S'VBZ'
p1456
g850
tp1457
F-0.67349917532281367
tp1458
a((S'NN'
p1459
g196
tp1460
F-0.67423432795849081
tp1461
a((S'VBG'
p1462
S'NNS'
p1463
tp1464
F-0.68595347797020167
tp1465
a((S'VB'
p1466
S'CC'
p1467
tp1468
F-0.68734073340359814
tp1469
a((S'.'
S'CC'
p1470
tp1471
F-0.69309667002673692
tp1472
a((S'VBP'
p1473
S'PRP$'
p1474
tp1475
F-0.6932031677855548
tp1476
a((S'CC'
p1477
S'VBP'
p1478
tp1479
F-0.69747511053731159
tp1480
a((S'NNP'
p1481
S'TO'
p1482
tp1483
F-0.70089054357775282
tp1484
a((S'NNP'
p1485
S'PRP'
p1486
tp1487
F-0.70486946008243834
tp1488
a((S'WP'
p1489
S'DT'
p1490
tp1491
F-0.72133830218988493
tp1492
a((S'WP'
p1493
S'RB'
p1494
tp1495
F-0.72551926178466886
tp1496
a((S'VBG'
p1497
S'VBN'
p1498
tp1499
F-0.74070076779750593
tp1500
a((g752
S'VBG'
p1501
tp1502
F-0.74237911107889332
tp1503
a((g870
S'TO'
p1504
tp1505
F-0.75085770766498072
tp1506
a((S'JJ'
p1507
S'PRP'
p1508
tp1509
F-0.75252650358169859
tp1510
a((S'SYM'
p1511
S'IN'
p1512
tp1513
F-0.76029513867398535
tp1514
a((S'NN'
p1515
S'RB'
p1516
tp1517
F-0.76671661962118876
tp1518
a((S'EX'
p1519
S'NN'
p1520
tp1521
F-0.77564281490370846
tp1522
a((S'PRP'
p1523
S'RBS'
p1524
tp1525
F-0.78130940421072737
tp1526
a((S'NN'
p1527
g255
tp1528
F-0.80766352988244705
tp1529
a((g38
S'DT'
p1530
tp1531
F-0.81516032454640452
tp1532
a((S'JJS'
p1533
S'VBD'
p1534
tp1535
F-0.82550226876786681
tp1536
a((S'VBD'
p1537
S'RBR'
p1538
tp1539
F-0.82550226876786681
tp1540
a((S'VBZ'
p1541
S'JJS'
p1542
tp1543
F-0.82550226876786681
tp1544
a((S'VBD'
p1545
S'.'
tp1546
F-0.83952273908279906
tp1547
a((S'FW'
p1548
S'NNS'
p1549
tp1550
F-0.846889696185265
tp1551
a((S'NNS'
p1552
g733
tp1553
F-0.846889696185265
tp1554
a((S'VBN'
p1555
S'CC'
p1556
tp1557
F-0.85137868603900557
tp1558
a((S'FW'
p1559
S'NN'
p1560
tp1561
F-0.86584062387528604
tp1562
a((S'NNS'
p1563
S'WRB'
p1564
tp1565
F-0.90107358866842446
tp1566
a((S'NN'
p1567
S'WP'
p1568
tp1569
F-0.90631969323035833
tp1570
a((S'VBN'
p1571
S'WRB'
p1572
tp1573
F-0.91073298896717958
tp1574
a((S'NN'
p1575
g116
tp1576
F-0.91314633865364669
tp1577
a((S'CC'
p1578
S'VBN'
p1579
tp1580
F-0.91849288189754574
tp1581
a((S'VBG'
p1582
S'WDT'
p1583
tp1584
F-0.93110924216373547
tp1585
a((S'NNP'
p1586
S'WRB'
p1587
tp1588
F-0.9352033683660288
tp1589
a((S'RB'
p1590
S'CC'
p1591
tp1592
F-0.93672405598013597
tp1593
a((S':'
S'PRP'
p1594
tp1595
F-0.95414600107293879
tp1596
a((S'RB'
p1597
S'CD'
p1598
tp1599
F-0.95684480789112669
tp1600
a((S'NNP'
p1601
S'WP'
p1602
tp1603
F-0.95712245496866188
tp1604
a((S','
S'NNPS'
p1605
tp1606
F-0.9577799832923084
tp1607
a((S'PRP'
p1608
g294
tp1609
F-0.97208772100301033
tp1610
a((S'CC'
p1611
S'IN'
p1612
tp1613
F-0.97226436809210881
tp1614
a((S','
S'PRP$'
p1615
tp1616
F-0.97592346176743305
tp1617
a((S'VBN'
p1618
S'JJR'
p1619
tp1620
F-0.98430464368239612
tp1621
a((S'NNS'
p1622
S'JJS'
p1623
tp1624
F-0.99889278963031458
tp1625
a((S'CD'
p1626
S'WP'
p1627
tp1628
F-1.0011409214045699
tp1629
a((S'WP'
p1630
S'CD'
p1631
tp1632
F-1.0011409214045699
tp1633
a((S'VBG'
p1634
S'.'
tp1635
F-1.0079030384991974
tp1636
a((S'VBP'
p1637
S'CC'
p1638
tp1639
F-1.0194032054246733
tp1640
a((S'PRP'
p1641
S'RP'
p1642
tp1643
F-1.0275485675015403
tp1644
a((S'WRB'
p1645
S'RB'
p1646
tp1647
F-1.0434501780666601
tp1648
a((S'VBZ'
p1649
S'NN'
p1650
tp1651
F-1.0451643233198489
tp1652
a((S'VBG'
p1653
S'CD'
p1654
tp1655
F-1.0495039429659698
tp1656
a((S'VBN'
p1657
S':'
tp1658
F-1.0558579047074304
tp1659
a((S'VB'
p1660
S','
tp1661
F-1.0616808494046239
tp1662
a((S'DT'
p1663
S'VBZ'
p1664
tp1665
F-1.0651385775547482
tp1666
a((S'JJ'
p1667
S'RBS'
p1668
tp1669
F-1.0661800431320607
tp1670
a((S'NNS'
p1671
g127
tp1672
F-1.0704620431954694
tp1673
a((S','
g558
tp1674
F-1.0773615990449805
tp1675
a((S'FW'
p1676
S'IN'
p1677
tp1678
F-1.1228652180586955
tp1679
a((g30
g227
tp1680
F-1.1249915501080032
tp1681
a((S'PRP'
p1682
S'TO'
p1683
tp1684
F-1.133401510554787
tp1685
a((S':'
S'VB'
p1686
tp1687
F-1.146633851100848
tp1688
a((S'NNP'
p1689
S'WDT'
p1690
tp1691
F-1.1549421978593983
tp1692
a((S'VBP'
p1693
S':'
tp1694
F-1.1567682282345615
tp1695
a((S'VBN'
p1696
S','
tp1697
F-1.1573180272420878
tp1698
a((S'.'
S'VB'
p1699
tp1700
F-1.1620638916704564
tp1701
a((g136
g1231
tp1702
F-1.1638248019058928
tp1703
a((S'VBP'
p1704
S'PDT'
p1705
tp1706
F-1.1721982688041699
tp1707
a((S'VBD'
p1708
S'NN'
p1709
tp1710
F-1.1784308541833148
tp1711
a((g953
S'CC'
p1712
tp1713
F-1.1887497556500115
tp1714
a((S'DT'
p1715
S'RB'
p1716
tp1717
F-1.2123739216729916
tp1718
a((S'NN'
p1719
S'POS'
p1720
tp1721
F-1.2144507614151543
tp1722
a((S'CC'
p1723
S'CD'
p1724
tp1725
F-1.2272960570660061
tp1726
a((S'CD'
p1727
S'CC'
p1728
tp1729
F-1.2272960570660061
tp1730
a((S','
S'VBZ'
p1731
tp1732
F-1.2273870430495855
tp1733
a((g793
g76
tp1734
F-1.2281537690619153
tp1735
a((S'JJR'
p1736
S'TO'
p1737
tp1738
F-1.2308561960861653
tp1739
a((S'NNS'
p1740
S'PDT'
p1741
tp1742
F-1.2315535464205887
tp1743
a((S'PRP'
p1744
S'WRB'
p1745
tp1746
F-1.2328287942392677
tp1747
a((S'VBZ'
p1748
S':'
tp1749
F-1.235378062930927
tp1750
a((S'IN'
p1751
S'JJR'
p1752
tp1753
F-1.250620765257068
tp1754
a((S'.'
S'VBG'
p1755
tp1756
F-1.2642427917589849
tp1757
a((g214
g1387
tp1758
F-1.2697793883875192
tp1759
a((S'PRP'
p1760
S'WP'
p1761
tp1762
F-1.2724498825753585
tp1763
a((g332
S'RB'
p1764
tp1765
F-1.2816844981983913
tp1766
a((S'MD'
p1767
S'VBP'
p1768
tp1769
F-1.2942717519844962
tp1770
a((S'NNP'
p1771
S'JJS'
p1772
tp1773
F-1.296056975161715
tp1774
a((S'RB'
p1775
S'PDT'
p1776
tp1777
F-1.2971145387679925
tp1778
a((S','
S'JJS'
p1779
tp1780
F-1.302428154679756
tp1781
a((S','
S'RBR'
p1782
tp1783
F-1.302428154679756
tp1784
a((S'JJS'
p1785
S','
tp1786
F-1.302428154679756
tp1787
a((S'RB'
p1788
S'NNPS'
p1789
tp1790
F-1.3047681113114322
tp1791
a((S"''"
p1792
S'NNS'
p1793
tp1794
F-1.3084016252636061
tp1795
a((S'FW'
p1796
S'JJ'
p1797
tp1798
F-1.3292144489658533
tp1799
a((S'JJ'
p1800
g65
tp1801
F-1.3292144489658533
tp1802
a((S'VB'
p1803
S'NNS'
p1804
tp1805
F-1.33493405363064
tp1806
a((g1388
g1281
tp1807
F-1.3596169571931149
tp1808
a((S'DT'
p1809
S'VBP'
p1810
tp1811
F-1.3630920943225959
tp1812
a((S'VBG'
p1813
S'NN'
p1814
tp1815
F-1.369720214070604
tp1816
a((S'.'
S'NNPS'
p1817
tp1818
F-1.3800911204454991
tp1819
a((S'.'
g1489
tp1820
F-1.3858047716398971
tp1821
a((S'VBD'
p1822
S'CC'
p1823
tp1824
F-1.3907947893488846
tp1825
a((S'CC'
p1826
g1736
tp1827
F-1.4216887972946708
tp1828
a((S'JJR'
p1829
g1477
tp1830
F-1.4216887972946708
tp1831
a((S'NN'
p1832
S'NNP'
p1833
tp1834
F-1.4399515220957362
tp1835
a((S'JJR'
p1836
S','
tp1837
F-1.4481056098753875
tp1838
a((S'NN'
p1839
g1559
tp1840
F-1.4508031245964439
tp1841
a((S'JJ'
p1842
S'NNP'
p1843
tp1844
F-1.451845851939396
tp1845
a((S'VBN'
p1846
S'CD'
p1847
tp1848
F-1.4679838085663697
tp1849
a((S'NNPS'
p1850
S'VBD'
p1851
tp1852
F-1.4808540973804192
tp1853
a((S'VBZ'
p1854
S'.'
tp1855
F-1.4819707344647171
tp1856
a((g929
S'NN'
p1857
tp1858
F-1.5069462026339799
tp1859
a((S'RB'
p1860
S'MD'
p1861
tp1862
F-1.51872369549924
tp1863
a((S'TO'
p1864
S'IN'
p1865
tp1866
F-1.5200452139312937
tp1867
a((S'VBP'
p1868
S'NNS'
p1869
tp1870
F-1.5272717619851015
tp1871
a((S'NNS'
p1872
S'JJR'
p1873
tp1874
F-1.5596077441047917
tp1875
a((S','
S'NN'
p1876
tp1877
F-1.5651589311236229
tp1878
a((S'VBG'
p1879
S'JJR'
p1880
tp1881
F-1.5658247780819963
tp1882
a((S'DT'
p1883
S'IN'
p1884
tp1885
F-1.5684169026399211
tp1886
a((S'VBP'
p1887
S'EX'
p1888
tp1889
F-1.5718057275134072
tp1890
a((S'CC'
p1891
S'MD'
p1892
tp1893
F-1.5741620537032759
tp1894
a((S'PRP'
p1895
S','
tp1896
F-1.5786028710223547
tp1897
a((S'VBP'
p1898
S'NN'
p1899
tp1900
F-1.5836973950937896
tp1901
a((S'VBD'
p1902
S','
tp1903
F-1.5843215877648618
tp1904
a((S'PRP$'
p1905
S'RBR'
p1906
tp1907
F-1.5936674942346443
tp1908
a((S'IN'
p1909
g1060
tp1910
F-1.6088459692291721
tp1911
a((S'NNP'
p1912
g1868
tp1913
F-1.6179850700490768
tp1914
a((S'VB'
p1915
S'NN'
p1916
tp1917
F-1.621818186567296
tp1918
a((S'NNS'
p1919
S'EX'
p1920
tp1921
F-1.631161005129826
tp1922
a((S'TO'
p1923
S'NNS'
p1924
tp1925
F-1.6363871148366265
tp1926
a((S'VB'
p1927
S'WDT'
p1928
tp1929
F-1.6627574754940078
tp1930
a((S'NNPS'
p1931
S'NN'
p1932
tp1933
F-1.6731955459328915
tp1934
a((S'.'
S'VBN'
p1935
tp1936
F-1.6827226573593812
tp1937
a((S'WP'
p1938
S'WDT'
p1939
tp1940
F-1.6901011426599446
tp1941
a((S'IN'
p1942
S"''"
p1943
tp1944
F-1.6912923510535514
tp1945
a((S'CC'
p1946
g922
tp1947
F-1.6914244943004277
tp1948
a((S'CC'
p1949
S'RP'
p1950
tp1951
F-1.6921755068321644
tp1952
a((S'NNS'
p1953
g110
tp1954
F-1.6940151469354667
tp1955
a((S'NNP'
p1956
g1303
tp1957
F-1.7122211398948437
tp1958
a((S'DT'
p1959
g10
tp1960
F-1.7196115574704152
tp1961
a((S':'
S'VBD'
p1962
tp1963
F-1.7208048901011708
tp1964
a((S'VBN'
p1965
S'VBZ'
p1966
tp1967
F-1.7310182144001658
tp1968
a((g268
S'DT'
p1969
tp1970
F-1.7459895423939287
tp1971
a((S'CC'
p1972
S'WDT'
p1973
tp1974
F-1.7463312768790651
tp1975
a((S'CC'
p1976
S'TO'
p1977
tp1978
F-1.7500069350224692
tp1979
a((S'TO'
p1980
S'RB'
p1981
tp1982
F-1.7508577076649807
tp1983
a((S'RB'
p1984
S'PRP$'
p1985
tp1986
F-1.7510052418908515
tp1987
a((S'PRP'
p1988
g670
tp1989
F-1.7570618579640467
tp1990
a((S'POS'
p1991
S'VBD'
p1992
tp1993
F-1.7590749070288894
tp1994
a((S'PRP'
p1995
S'DT'
p1996
tp1997
F-1.7803661579915193
tp1998
a((S'.'
S'JJ'
p1999
tp2000
F-1.8087374855426219
tp2001
a((g1782
S'VBZ'
p2002
tp2003
F-1.8255022687678668
tp2004
a((S'RP'
p2005
S'VBG'
p2006
tp2007
F-1.8363114876194899
tp2008
a((S'NNP'
p2009
S'DT'
p2010
tp2011
F-1.8520618534940638
tp2012
a((S'VBN'
p2013
S'NNS'
p2014
tp2015
F-1.8537826621926463
tp2016
a((g546
S'PRP$'
p2017
tp2018
F-1.8594736493184882
tp2019
a((S'.'
S'WDT'
p2020
tp2021
F-1.8731311317256143
tp2022
a((S'NNP'
p2023
S'NNS'
p2024
tp2025
F-1.8837912251329243
tp2026
a((S'DT'
p2027
S','
tp2028
F-1.8864474091817023
tp2029
a((S'TO'
p2030
S':'
tp2031
F-1.8873719578323538
tp2032
a((S'CD'
p2033
S'NNP'
p2034
tp2035
F-1.9254135952413236
tp2036
a((S'NNP'
p2037
S'EX'
p2038
tp2039
F-1.92832519066123
tp2040
a((S','
S'VB'
p2041
tp2042
F-1.9361499673207661
tp2043
a((S'NN'
p2044
g1829
tp2045
F-1.941128751179523
tp2046
a((S'WP'
p2047
S'NNP'
p2048
tp2049
F-1.9571224549686619
tp2050
a((S'POS'
p2051
S'NNP'
p2052
tp2053
F-1.966595207588945
tp2054
a((S'WDT'
p2055
S'NN'
p2056
tp2057
F-1.9669267489896001
tp2058
a((g1478
S'VB'
p2059
tp2060
F-1.9882968239337444
tp2061
a((S'VBN'
p2062
S'NN'
p2063
tp2064
F-1.9937489908440327
tp2065
a((g898
S'RB'
p2066
tp2067
F-1.9943972522224414
tp2068
a((S'NNP'
p2069
S'VBG'
p2070
tp2071
F-2.0054854765300618
tp2072
a((S'WP'
p2073
S'VB'
p2074
tp2075
F-2.0055061139659713
tp2076
a((S'TO'
p2077
S'NNP'
p2078
tp2079
F-2.0075518818118034
tp2080
a((S'NN'
p2081
S'JJS'
p2082
tp2083
F-2.0178437173203392
tp2084
a((S'MD'
p2085
S'TO'
p2086
tp2087
F-2.024875481582292
tp2088
a((g462
S'JJ'
p2089
tp2090
F-2.0483225397258202
tp2091
a((g1568
S'.'
tp2092
F-2.0638766767525354
tp2093
a((S'WRB'
p2094
S'NNS'
p2095
tp2096
F-2.0709985901107366
tp2097
a((S'WP'
p2098
S'NNS'
p2099
tp2100
F-2.0749957687161071
tp2101
a((S'NN'
p2102
g971
tp2103
F-2.0767374063739048
tp2104
a((S'WP'
p2105
S'VBG'
p2106
tp2107
F-2.0812128026933081
tp2108
a((S'VBN'
p2109
S'WP'
p2110
tp2111
F-2.0846551690148658
tp2112
a((S'JJR'
p2113
S'VBP'
p2114
tp2115
F-2.0852149672095273
tp2116
a((S'PRP'
p2117
S':'
tp2118
F-2.091649524822877
tp2119
a((S'IN'
p2120
S'TO'
p2121
tp2122
F-2.1050077146524515
tp2123
a((S'IN'
p2124
S'FW'
p2125
tp2126
F-2.1228652180586955
tp2127
a((S'PRP'
p2128
S'NNS'
p2129
tp2130
F-2.1269688669837876
tp2131
a((S'CD'
p2132
S'VBZ'
p2133
tp2134
F-2.1329307939601101
tp2135
a((S'VB'
p2136
S':'
tp2137
F-2.146633851100848
tp2138
a((S'VBP'
p2139
S'VBZ'
p2140
tp2141
F-2.147430363655225
tp2142
a((S'NNS'
p2143
S'JJ'
p2144
tp2145
F-2.1546816664079955
tp2146
a((S'DT'
p2147
S'VBN'
p2148
tp2149
F-2.1564723296243464
tp2150
a((S'.'
S'TO'
p2151
tp2152
F-2.1605997558696082
tp2153
a((S'NNP'
p2154
S'NN'
p2155
tp2156
F-2.165776558656745
tp2157
a((S':'
S'IN'
p2158
tp2159
F-2.1701709328370526
tp2160
a((S'PRP'
p2161
S'WDT'
p2162
tp2163
F-2.1927356499371911
tp2164
a((S'JJ'
p2165
S'PRP$'
p2166
tp2167
F-2.1942412136852241
tp2168
a((S'PRP'
p2169
S'RBR'
p2170
tp2171
F-2.1963469034895695
tp2172
a((S'TO'
p2173
S'VBG'
p2174
tp2175
F-2.2096447415377156
tp2176
a((S'JJR'
p2177
S'RB'
p2178
tp2179
F-2.210131237173357
tp2180
a((S'PRP'
p2181
S'EX'
p2182
tp2183
F-2.2436526182679266
tp2184
a((S'WDT'
p2185
S'VB'
p2186
tp2187
F-2.2477199762151656
tp2188
a((S'NN'
p2189
S'DT'
p2190
tp2191
F-2.2556244695287475
tp2192
a((S'TO'
p2193
S'WRB'
p2194
tp2195
F-2.2568202149218628
tp2196
a((S'VBP'
p2197
S'WDT'
p2198
tp2199
F-2.2578543533488791
tp2200
a((S"''"
p2201
S'NN'
p2202
tp2203
F-2.2602383570950941
tp2204
a((S'NN'
p2205
S'JJ'
p2206
tp2207
F-2.2858420976840463
tp2208
a((S'CD'
p2209
S'TO'
p2210
tp2211
F-2.2994978616912967
tp2212
a((S'TO'
p2213
g1626
tp2214
F-2.2994978616912967
tp2215
a((S'JJ'
p2216
S'JJR'
p2217
tp2218
F-2.3049669027191797
tp2219
a((S'RB'
p2220
S'WP'
p2221
tp2222
F-2.3104817625058267
tp2223
a((S'WP'
p2224
S'JJ'
p2225
tp2226
F-2.3349281001602478
tp2227
a((S'PRP'
p2228
S'VBG'
p2229
tp2230
F-2.3822134488009041
tp2231
a((S'CC'
p2232
S','
tp2233
F-2.3822938480905336
tp2234
a((S'RB'
p2235
S'WDT'
p2236
tp2237
F-2.3827706233127017
tp2238
a((S','
S"''"
p2239
tp2240
F-2.4192919123706531
tp2241
a((S'NN'
p2242
S'VB'
p2243
tp2244
F-2.429173108624898
tp2245
a((S'VBN'
p2246
S'JJ'
p2247
tp2248
F-2.4392009079373445
tp2249
a((S'DT'
p2250
g2224
tp2251
F-2.4583038963560888
tp2252
a((S'WRB'
p2253
S'IN'
p2254
tp2255
F-2.4594488412425761
tp2256
a((S'IN'
p2257
S'.'
tp2258
F-2.4687098194034931
tp2259
a((S'JJ'
p2260
S'JJS'
p2261
tp2262
F-2.4812175424109064
tp2263
a((S'PRP$'
p2264
S'VBG'
p2265
tp2266
F-2.4957410735453855
tp2267
a((g1583
S'NNS'
p2268
tp2269
F-2.5098547089076924
tp2270
a((S'VB'
p2271
S'NNP'
p2272
tp2273
F-2.5147412885238829
tp2274
a((S'RP'
p2275
S'WRB'
p2276
tp2277
F-2.5209168816189234
tp2278
a((S'JJ'
p2279
S'EX'
p2280
tp2281
F-2.52852325718926
tp2282
a((S'NNS'
p2283
S'VBZ'
p2284
tp2285
F-2.5287137361590126
tp2286
a((S','
S'PDT'
p2287
tp2288
F-2.5350889114700301
tp2289
a((S'JJ'
p2290
S'WRB'
p2291
tp2292
F-2.5533233428913285
tp2293
a((g902
g492
tp2294
F-2.5590873852025346
tp2295
a((S'VB'
p2296
S'EX'
p2297
tp2298
F-2.5616713503796937
tp2299
a((S'WRB'
p2300
S'NN'
p2301
tp2302
F-2.570575358707174
tp2303
a((S"''"
p2304
S'JJ'
p2305
tp2306
F-2.5980813001018035
tp2307
a((S'JJ'
p2308
S"''"
p2309
tp2310
F-2.5980813001018035
tp2311
a((S'JJ'
p2312
S'VBG'
p2313
tp2314
F-2.6056835430580954
tp2315
a((S'DT'
p2316
S'NNPS'
p2317
tp2318
F-2.6225152466040065
tp2319
a((S'PRP$'
p2320
S'CD'
p2321
tp2322
F-2.638061613593095
tp2323
a((S'RB'
p2324
S'NNS'
p2325
tp2326
F-2.6521880319489313
tp2327
a((S'PRP'
p2328
S'PRP$'
p2329
tp2330
F-2.6530308215041032
tp2331
a((S'RP'
p2332
S'VBD'
p2333
tp2334
F-2.6567039327798341
tp2335
a((S'VBG'
p2336
S'POS'
p2337
tp2338
F-2.6756480560347455
tp2339
a((S'NNS'
p2340
S'NNP'
p2341
tp2342
F-2.6773403476654991
tp2343
a((S'WP'
p2344
S'NN'
p2345
tp2346
F-2.6789091971272825
tp2347
a((S'VBN'
p2348
S'NNP'
p2349
tp2350
F-2.6869997479642613
tp2351
a((g2247
S'RB'
p2352
tp2353
F-2.6919945490285713
tp2354
a((S'VBZ'
p2355
S'CC'
p2356
tp2357
F-2.7127228842362499
tp2358
a((S'JJ'
p2359
S'PDT'
p2360
tp2361
F-2.7138782992011805
tp2362
a((S'IN'
p2363
S'POS'
p2364
tp2365
F-2.7230141225945239
tp2366
a((S'DT'
p2367
g394
tp2368
F-2.7243948606232209
tp2369
a((S'WRB'
p2370
S'CD'
p2371
tp2372
F-2.7341093369654033
tp2373
a((S'VBN'
p2374
S'WDT'
p2375
tp2376
F-2.7419065305429022
tp2377
a((S'WP'
p2378
S'WRB'
p2379
tp2380
F-2.7658181966927415
tp2381
a((g1435
S'IN'
p2382
tp2383
F-2.7660087898683763
tp2384
a((S"''"
p2385
S'RB'
p2386
tp2387
F-2.7662800403897769
tp2388
a((S'RB'
p2389
S"''"
p2390
tp2391
F-2.7662800403897769
tp2392
a((S'PRP$'
p2393
S':'
tp2394
F-2.8108982104553135
tp2395
a((S'WRB'
p2396
S'VBN'
p2397
tp2398
F-2.8176235845756992
tp2399
a((S'VBD'
p2400
S'WDT'
p2401
tp2402
F-2.8218910152154884
tp2403
a((S'VBZ'
p2404
S'WDT'
p2405
tp2406
F-2.8218910152154884
tp2407
a((S'VBD'
p2408
S'NNP'
p2409
tp2410
F-2.825877921690406
tp2411
a((S'PRP$'
p2412
S'PDT'
p2413
tp2414
F-2.8263282510249184
tp2415
a((S'.'
S"''"
p2416
tp2417
F-2.8416030495238438
tp2418
a((S'RB'
p2419
g632
tp2420
F-2.8832921964705633
tp2421
a((S'EX'
p2422
S'NNP'
p2423
tp2424
F-2.92832519066123
tp2425
a((S'IN'
p2426
S'NNPS'
p2427
tp2428
F-2.9302201401162975
tp2429
a((g1920
S','
tp2430
F-2.9346963701792674
tp2431
a((S'NNS'
p2432
S'NN'
p2433
tp2434
F-2.9484656808145573
tp2435
a((S'VBZ'
p2436
S'NNP'
p2437
tp2438
F-2.9514088037742638
tp2439
a((S'VBD'
p2440
S'VB'
p2441
tp2442
F-2.956723740879692
tp2443
a((g1906
S'DT'
p2444
tp2445
F-2.9671634179914541
tp2446
a((S'JJ'
p2447
g465
tp2448
F-2.9921794616882842
tp2449
a((S'PRP'
p2450
S'VBN'
p2451
tp2452
F-3.0023271755709544
tp2453
a((S'NNP'
p2454
S'PRP$'
p2455
tp2456
F-3.0090806464360327
tp2457
a((S'RP'
p2458
S'NN'
p2459
tp2460
F-3.0189703827746222
tp2461
a((g965
S'NNP'
p2462
tp2463
F-3.0294113157755405
tp2464
a((S'WDT'
p2465
S','
tp2466
F-3.0357824952935815
tp2467
a((g2217
S'JJ'
p2468
tp2469
F-3.0419324968853836
tp2470
a((S':'
S'VBZ'
p2471
tp2472
F-3.0427329849885325
tp2473
a((g189
S'VB'
p2474
tp2475
F-3.0462668925710794
tp2476
a((S'CD'
p2477
S'VBG'
p2478
tp2479
F-3.0495039429659698
tp2480
a((S'CD'
p2481
S'VBN'
p2482
tp2483
F-3.0529463092875275
tp2484
a((g1081
S','
tp2485
F-3.0852179311408285
tp2486
a((S'DT'
p2487
S'VBG'
p2488
tp2489
F-3.091629418638643
tp2490
a((S'VBG'
p2491
S'MD'
p2492
tp2493
F-3.0968096577443269
tp2494
a((S'PRP'
p2495
S'NN'
p2496
tp2497
F-3.1111543765131309
tp2498
a((S'VBZ'
p2499
S'VB'
p2500
tp2501
F-3.1372959865215115
tp2502
a((g1285
g825
tp2503
F-3.1582218253760601
tp2504
a((S'NN'
p2505
g358
tp2506
F-3.2116154607170166
tp2507
a((S'VBN'
p2508
S'VBD'
p2509
tp2510
F-3.2164450415704096
tp2511
a((S'PRP'
p2512
g583
tp2513
F-3.2407410228480202
tp2514
a((S'NN'
p2515
S'PDT'
p2516
tp2517
F-3.2505044741106133
tp2518
a((g1602
S'CC'
p2519
tp2520
F-3.2590049167933444
tp2521
a((S'PRP'
p2522
S'JJ'
p2523
tp2524
F-3.2664059062413706
tp2525
a((S'NN'
p2526
S'PRP$'
p2527
tp2528
F-3.2763015251291741
tp2529
a((S'.'
S'NN'
p2530
tp2531
F-3.276976685471805
tp2532
a((S'CD'
p2533
S'RB'
p2534
tp2535
F-3.2787729027784884
tp2536
a((S'WDT'
p2537
S'DT'
p2538
tp2539
F-3.2854802593264409
tp2540
a((S'IN'
p2541
S'VBZ'
p2542
tp2543
F-3.3021889175032548
tp2544
a((S'JJ'
p2545
S'VBZ'
p2546
tp2547
F-3.3105987707985065
tp2548
a((S'.'
S'NNS'
p2549
tp2550
F-3.312473541804156
tp2551
a((S'WP'
p2552
S'TO'
p2553
tp2554
F-3.3312067214186349
tp2555
a((S'TO'
p2556
S'.'
tp2557
F-3.3622336170392586
tp2558
a((S'DT'
p2559
S'RP'
p2560
tp2561
F-3.3833275827245828
tp2562
a((S','
S'MD'
p2563
tp2564
F-3.3941279888165603
tp2565
a((S'WRB'
p2566
S'VBD'
p2567
tp2568
F-3.4121812420780415
tp2569
a((S'RP'
p2570
S'NNS'
p2571
tp2572
F-3.4150569543634433
tp2573
a((S'NNP'
p2574
S'JJ'
p2575
tp2576
F-3.42269950627988
tp2577
a((S'PRP'
p2578
S'PDT'
p2579
tp2580
F-3.4290076602798436
tp2581
a((S'JJ'
p2582
S'DT'
p2583
tp2584
F-3.4338813907072456
tp2585
a((S'JJR'
p2586
S'NNP'
p2587
tp2588
F-3.44173443035735
tp2589
a((S','
S'JJR'
p2590
tp2591
F-3.4481056098753875
tp2592
a((S'CD'
p2593
S'VBD'
p2594
tp2595
F-3.4548588888474718
tp2596
a((S'VBZ'
p2597
S'EX'
p2598
tp2599
F-3.4577704842673782
tp2600
a((S'VBP'
p2601
S'VBD'
p2602
tp2603
F-3.4693584585425867
tp2604
a((S'DT'
p2605
S'MD'
p2606
tp2607
F-3.4739007514071076
tp2608
a((S'IN'
p2609
g1010
tp2610
F-3.4896635850006312
tp2611
a((S'IN'
p2612
S':'
tp2613
F-3.4920990277244144
tp2614
a((S'VBP'
p2615
S'NNP'
p2616
tp2617
F-3.5248756656575964
tp2618
a((S'VBG'
p2619
S'VBZ'
p2620
tp2621
F-3.53493077013621
tp2622
a((g1163
g131
tp2623
F-3.5573205214966954
tp2624
a((S'VB'
p2625
S'VBD'
p2626
tp2627
F-3.5847549634927312
tp2628
a((S'DT'
p2629
S':'
tp2630
F-3.5994316334909691
tp2631
a((g675
S'VB'
p2632
tp2633
F-3.6124390145227352
tp2634
a((S'VBP'
p2635
S'MD'
p2636
tp2637
F-3.6161998468718579
tp2638
a((S'PRP$'
p2639
S'RB'
p2640
tp2641
F-3.6254743598069901
tp2642
a((S'MD'
p2643
S'CC'
p2644
tp2645
F-3.6896392711232089
tp2646
a((S'WRB'
p2647
S','
tp2648
F-3.6964620500475363
tp2649
a((S"''"
p2650
S'CC'
p2651
tp2652
F-3.7148031946772946
tp2653
a((S'PRP$'
p2654
S'NNP'
p2655
tp2656
F-3.7195740292410449
tp2657
a((S'VBD'
p2658
S'VBP'
p2659
tp2660
F-3.7323928643763828
tp2661
a((S'JJR'
p2662
S'PRP$'
p2663
tp2664
F-3.7393449494302793
tp2665
a((S'PRP$'
p2666
S'JJR'
p2667
tp2668
F-3.7393449494302793
tp2669
a((S'.'
S'VBD'
p2670
tp2671
F-3.7520598978324635
tp2672
a((S'WDT'
p2673
S'IN'
p2674
tp2675
F-3.7858302307811229
tp2676
a((S'TO'
p2677
S'VBN'
p2678
tp2679
F-3.7980496085804347
tp2680
a((g2416
S'IN'
p2681
tp2682
F-3.8067695684734844
tp2683
a((S'CC'
p2684
S':'
tp2685
F-3.8151701532070668
tp2686
a((S'EX'
p2687
S'PRP'
p2688
tp2689
F-3.8286151189890845
tp2690
a((S'PRP$'
p2691
S'POS'
p2692
tp2693
F-3.8491682273830286
tp2694
a((S'JJ'
p2695
S'RP'
p2696
tp2697
F-3.8973817071440351
tp2698
a((S'RP'
p2699
S'JJ'
p2700
tp2701
F-3.8973817071440351
tp2702
a((S'WDT'
p2703
S'PRP$'
p2704
tp2705
F-3.9119843355696275
tp2706
a((S'RB'
p2707
S'NNP'
p2708
tp2709
F-3.9128263414552187
tp2710
a((S'NNP'
p2711
S'VB'
p2712
tp2713
F-3.929778787802725
tp2714
a((S'.'
S':'
tp2715
F-3.941970008053616
tp2716
a((S','
S'VBP'
p2717
tp2718
F-3.946284344454476
tp2719
a((S'DT'
p2720
S'WDT'
p2721
tp2722
F-3.9635521644390792
tp2723
a((S'MD'
p2724
S','
tp2725
F-3.9790904895377182
tp2726
a((S'DT'
p2727
S'.'
tp2728
F-3.9811838883063864
tp2729
a((g2455
S'VBN'
p2730
tp2731
F-3.984610267037187
tp2732
a((S'IN'
p2733
S'VBN'
p2734
tp2735
F-3.9877391791936496
tp2736
a((S'DT'
p2737
S'PRP'
p2738
tp2739
F-3.9933598813257127
tp2740
a((S'.'
S'VBZ'
p2741
tp2742
F-4.0321678170251971
tp2743
a((S'VB'
p2744
S'VBZ'
p2745
tp2746
F-4.0441865821300311
tp2747
a((S'VBN'
p2748
S'VB'
p2749
tp2750
F-4.057311501848929
tp2751
a((S'RB'
p2752
S'RP'
p2753
tp2754
F-4.065580447432005
tp2755
a((S'VBD'
p2756
S'POS'
p2757
tp2758
F-4.0810030019162511
tp2759
a((S'MD'
p2760
S'NNS'
p2761
tp2762
F-4.0905926237671224
tp2763
a((S'JJ'
p2764
S'VBP'
p2765
tp2766
F-4.1250737321856299
tp2767
a((S'RP'
p2768
S'VBZ'
p2769
tp2770
F-4.2416664335009919
tp2771
a((S'JJR'
p2772
S'PRP'
p2773
tp2774
F-4.3420243586852045
tp2775
a((S'MD'
p2776
S'IN'
p2777
tp2778
F-4.366568145640553
tp2779
a((S'WRB'
p2780
S'CC'
p2781
tp2782
F-4.4070108316330199
tp2783
a((S'WRB'
p2784
S'.'
tp2785
F-4.5338106864795726
tp2786
a((S'DT'
p2787
S'EX'
p2788
tp2789
F-4.5994316334909691
tp2790
a((S'EX'
p2791
S'DT'
p2792
tp2793
F-4.5994316334909691
tp2794
a((S'JJ'
p2795
S'VBN'
p2796
tp2797
F-4.6091259093796566
tp2798
a((S'RP'
p2799
S'PRP'
p2800
tp2801
F-4.6125110682226982
tp2802
a((g2626
S'VBZ'
p2803
tp2804
F-4.6183576211303539
tp2805
a((S'NNS'
p2806
S'CD'
p2807
tp2808
F-4.6282494097099267
tp2809
a((S'WRB'
p2810
S'VBZ'
p2811
tp2812
F-4.6345736634144892
tp2813
a((S'VBG'
p2814
S'VB'
p2815
tp2816
F-4.6388316362485291
tp2817
a((S'VBG'
p2818
S'VBP'
p2819
tp2820
F-4.6489660133822426
tp2821
a((S'VBN'
p2822
S'VBP'
p2823
tp2824
F-4.6524083797038003
tp2825
a((S'JJ'
p2826
S'VBD'
p2827
tp2828
F-4.6891103940522356
tp2829
a((S'JJ'
p2830
S'POS'
p2831
tp2832
F-4.7367182755592943
tp2833
a((S'VBZ'
p2834
g755
tp2835
F-4.7703607145753999
tp2836
a((S'DT'
p2837
S'WRB'
p2838
tp2839
F-4.77623481263808
tp2840
a((S'IN'
p2841
S'VBD'
p2842
tp2843
F-4.8660898026965818
tp2844
a((S'TO'
p2845
S'VBP'
p2846
tp2847
F-4.8989599321075659
tp2848
a((S'EX'
p2849
S'IN'
p2850
tp2851
F-4.9071365270032565
tp2852
a((S'PRP$'
p2853
S'IN'
p2854
tp2855
F-4.9098894707767897
tp2856
a((S'VBG'
p2857
S'VBD'
p2858
tp2859
F-4.9499682694150522
tp2860
a((S'PRP'
p2861
S'NNP'
p2862
tp2863
F-4.9743301350756681
tp2864
a((S'DT'
p2865
S'VB'
p2866
tp2867
F-5.0159227299113098
tp2868
a((S"''"
p2869
S'DT'
p2870
tp2871
F-5.0840271756823512
tp2872
a((S'DT'
p2873
S"''"
p2874
tp2875
F-5.0840271756823512
tp2876
a((S'JJR'
p2877
S'DT'
p2878
tp2879
F-5.1128408731870927
tp2880
a((S'PRP$'
p2881
S'VBZ'
p2882
tp2883
F-5.1234884407633352
tp2884
a((S'TO'
p2885
S'VBD'
p2886
tp2887
F-5.199962188140379
tp2888
a((S'DT'
p2889
S'POS'
p2890
tp2891
F-5.2226641511398419
tp2892
a((S'TO'
p2893
S','
tp2894
F-5.2618505747734261
tp2895
a((S'PRP$'
p2896
S'DT'
p2897
tp2898
F-5.2651495899869296
tp2899
a((S'MD'
p2900
S'NN'
p2901
tp2902
F-5.2794685528994627
tp2903
a((S'IN'
p2904
g188
tp2905
F-5.366568145640553
tp2906
a((S'DT'
p2907
g1336
tp2908
F-5.3949524148225407
tp2909
a((S'MD'
p2910
S'.'
tp2911
F-5.4014016266909159
tp2912
a((S'IN'
p2913
S'VB'
p2914
tp2915
F-5.493552624865913
tp2916
a((S'MD'
p2917
S'VBD'
p2918
tp2919
F-5.5021646036258289
tp2920
a((S'DT'
p2921
S'TO'
p2922
tp2923
F-5.6046577431977695
tp2924
a((S'MD'
p2925
S'DT'
p2926
tp2927
F-5.6438257528494233
tp2928
a((S'IN'
p2929
S'RP'
p2930
tp2931
F-5.6910324762368738
tp2932
a((S'PRP$'
p2933
S'VBP'
p2934
tp2935
F-5.822486184730522
tp2936
a((S'PRP$'
p2937
S'CC'
p2938
tp2939
F-5.8959256089818695
tp2940
a((S'VBZ'
p2941
S'VBP'
p2942
tp2943
F-6.0543209592637446
tp2944
a((S'JJ'
p2945
S'MD'
p2946
tp2947
F-6.1578798772688721
tp2948
a((S'DT'
p2949
S'PRP$'
p2950
tp2951
F-6.5281839958207257
tp2952
a((S'PRP$'
p2953
S'TO'
p2954
tp2955
F-6.5530899143283179
tp2956
a((S'TO'
p2957
S'CC'
p2958
tp2959
F-6.5573618570800747
tp2960
a((S'PRP$'
p2961
S'VBD'
p2962
tp2963
F-6.7084509414844931
tp2964
a((S'TO'
p2965
S'VBZ'
p2966
tp2967
F-6.7849246888615369
tp2968
a((S'IN'
p2969
S'VBP'
p2970
tp2971
F-7.5036870019996265
tp2972
a((S'CC'
p2973
S'.'
tp2974
F-7.6119599073013298
tp2975
a.