(lp1
((S'DT'
p2
S'NN'
p3
tp4
F0.038040024140527783
tp5
a((S'NN'
p6
S'IN'
p7
tp8
F0.027897797977963757
tp9
a((S'IN'
p10
S'DT'
p11
tp12
F0.024607849944188381
tp13
a((S'NN'
p14
S'.'
tp15
F0.022642426443491404
tp16
a((S'JJ'
p17
S'NN'
p18
tp19
F0.021093587271746504
tp20
a((S'PRP'
p21
S'VBP'
p22
tp23
F0.019510032739255594
tp24
a((S'IN'
p25
S'NN'
p26
tp27
F0.018393800370653236
tp28
a((S'TO'
p29
S'VB'
p30
tp31
F0.018054658000288406
tp32
a((S'MD'
p33
S'VB'
p34
tp35
F0.015771455428147216
tp36
a((S'NNS'
p37
S'VBP'
p38
tp39
F0.014596473987513152
tp40
a((S'IN'
p41
S'NNP'
p42
tp43
F0.013469559969450482
tp44
a((S'IN'
p45
S'NNS'
p46
tp47
F0.013266608629704598
tp48
a((S'IN'
p49
S'PRP'
p50
tp51
F0.012780593579260509
tp52
a((S'JJ'
p53
S'NNS'
p54
tp55
F0.012404065435784593
tp56
a((S'PRP'
p57
S'MD'
p58
tp59
F0.012219806982594252
tp60
a((S'DT'
p61
S'JJ'
p62
tp63
F0.012086286364340381
tp64
a((g18
S','
tp65
F0.011779188942356479
tp66
a((S'NNS'
p67
g10
tp68
F0.01133323007738855
tp69
a((g3
S'CC'
p70
tp71
F0.010876589562960313
tp72
a((g54
S'.'
tp73
F0.010088817915262475
tp74
a((S'VB'
p75
S'IN'
p76
tp77
F0.0099205819362625982
tp78
a((g7
g53
tp79
F0.0098751849260562824
tp80
a((S'PRP$'
p81
g14
tp82
F0.0097710388438182628
tp83
a((S'.'
S'PRP'
p84
tp85
F0.0094105331745328105
tp86
a((S'.'
S'IN'
p87
tp88
F0.0090767316288981343
tp89
a((S'.'
S'RB'
p90
tp91
F0.0082248700844384393
tp92
a((S'NN'
p93
S'VBZ'
p94
tp95
F0.0078670348275180647
tp96
a((S'VB'
p97
S'DT'
p98
tp99
F0.007041877406709144
tp100
a((S'RB'
p101
S'VB'
p102
tp103
F0.0070044916335980601
tp104
a((S'IN'
p105
g81
tp106
F0.0067134166858046221
tp107
a((g22
S'IN'
p108
tp109
F0.0066706900879633831
tp110
a((S'DT'
p111
S'NNS'
p112
tp113
F0.0065665440057253643
tp114
a((S'RB'
p115
g41
tp116
F0.0065558623562650548
tp117
a((S'.'
S'DT'
p118
tp119
F0.0064543866863921127
tp120
a((S','
S'CC'
p121
tp122
F0.0064116600885508737
tp123
a((S'RB'
p124
S'JJ'
p125
tp126
F0.0060404727698051136
tp127
a((S'VBP'
p128
S'DT'
p129
tp130
F0.0059817236977734098
tp131
a((S'NN'
p132
S'TO'
p133
tp134
F0.0059790532854083331
tp135
a((S'NNS'
p136
S'CC'
p137
tp138
F0.0059630308112178683
tp139
a((g125
S'IN'
p140
tp141
F0.0059176338010115525
tp142
a((S'NN'
p143
S'PRP'
p144
tp145
F0.0058695663784401591
tp146
a((S'VB'
p147
S'PRP'
p148
tp149
F0.0057333753478212108
tp150
a((S'VB'
p151
S'NN'
p152
tp153
F0.0052393490602818888
tp154
a((S','
S'PRP'
p155
tp156
F0.0051886112253454178
tp157
a((S'NNS'
p158
S','
tp159
F0.0051859408129803402
tp160
a((S'NN'
p161
S'NNS'
p162
tp163
F0.0051832704006152634
tp164
a((g121
g151
tp165
F0.0051405438027740244
tp166
a((S'IN'
p167
S'VBG'
p168
tp169
F0.0046865737007108638
tp170
a((S'PRP'
p171
S'VBD'
p172
tp173
F0.0044756111238697478
tp174
a((S'CC'
p175
S'NN'
p176
tp177
F0.0044408957631237415
tp178
a((S','
S'IN'
p179
tp180
F0.0042673189593937094
tp181
a((S'NN'
p182
S'RB'
p183
tp184
F0.0042646485470286318
tp185
a((S'CC'
p186
S'PRP'
p187
tp188
F0.0042085698873620065
tp189
a((S'.'
S'NNS'
p190
tp191
F0.0041872065884413874
tp192
a((S'VBP'
p193
S'RB'
p194
tp195
F0.0040830605062033678
tp196
a((S'VBG'
p197
S'IN'
p198
tp199
F0.0040670380320129039
tp200
a((S'VB'
p201
S'JJ'
p202
tp203
F0.0040456747330922839
tp204
a((S'VBP'
p205
S'JJ'
p206
tp207
F0.0039842552486955033
tp208
a((S'VBP'
p209
S'TO'
p210
tp211
F0.0039495398879494971
tp212
a((S'VBP'
p213
S'PRP'
p214
tp215
F0.0038720979293622522
tp216
a((S'DT'
p217
S'IN'
p218
tp219
F0.0038427233933464007
tp220
a((S'.'
S'NNP'
p221
tp222
F0.0037919855584099297
tp223
a((S'PRP'
p224
g25
tp225
F0.0037599406100290006
tp226
a((g206
S'.'
tp227
F0.0037572701976639235
tp228
a((S'VBZ'
p229
S'IN'
p230
tp231
F0.0037492589605686911
tp232
a((S'PRP$'
p233
S'NNS'
p234
tp235
F0.0037385773111083816
tp236
a((S'VB'
p237
S'NNS'
p238
tp239
F0.0037359068987433039
tp240
a((g42
S','
tp241
F0.0036344312288703624
tp242
a((S'VBZ'
p243
S'DT'
p244
tp245
F0.0036290904041402072
tp246
a((S'VB'
p247
S'TO'
p248
tp249
F0.0036077271052195881
tp250
a((S'PRP'
p251
g124
tp252
F0.0035516484455529623
tp253
a((S'PRP'
p254
S'VB'
p255
tp256
F0.0035489780331878847
tp257
a((S'RB'
p258
S','
tp259
F0.0035436372084577299
tp260
a((S'VBP'
p261
S'NNS'
p262
tp263
F0.0035035810229815689
tp264
a((g144
S'VBZ'
p265
tp266
F0.0035009106106164913
tp267
a((S'CC'
p268
S'RB'
p269
tp270
F0.0034475023633149431
tp271
a((g70
S'NNS'
p272
tp273
F0.003415457414934014
tp274
a((S'VBZ'
p275
S'RB'
p276
tp277
F0.0031938131886325885
tp278
a((S'NNS'
p279
S'MD'
p280
tp281
F0.0031697794773468918
tp282
a((S'WRB'
p283
S'PRP'
p284
tp285
F0.0031377345289659627
tp286
a((S'MD'
p287
S'RB'
p288
tp289
F0.0030576221580136407
tp290
a((S','
g37
tp291
F0.0030469405085533307
tp292
a((S'VBN'
p293
S'IN'
p294
tp295
F0.003004213910712092
tp296
a((S'RB'
p297
S'PRP'
p298
tp299
F0.0029962026736168601
tp300
a((S'RB'
p301
S'.'
tp302
F0.0029107494779343828
tp303
a((S'VBG'
p304
S'DT'
p305
tp306
F0.0029107494779343828
tp307
a((S'JJ'
p308
S'TO'
p309
tp310
F0.0028680228800931438
tp311
a((S'PRP'
p312
S'.'
tp313
F0.0028493299935376023
tp314
a((g38
S'VBG'
p315
tp316
F0.0027932513338709765
tp317
a((S'VB'
p318
S'RB'
p319
tp320
F0.0027264910247440412
tp321
a((S'CC'
p322
S'IN'
p323
tp324
F0.0027077981381884992
tp325
a((S'NNP'
p326
g49
tp327
F0.0026677419527123378
tp328
a((S'NNS'
p329
S'RB'
p330
tp331
F0.002622344942506022
tp332
a((g162
S'TO'
p333
tp334
F0.0025742775199346282
tp335
a((S'VB'
p336
S'PRP$'
p337
tp338
F0.0025635958704743186
tp339
a((S'VB'
p340
S'RP'
p341
tp342
F0.0025315509220933895
tp343
a((S'PRP$'
p344
S'JJ'
p345
tp346
F0.0025128580355378476
tp347
a((S'NN'
p348
S'MD'
p349
tp350
F0.0024861539118870737
tp351
a((S'VBG'
p352
S'NN'
p353
tp354
F0.002470131437696609
tp355
a((g137
S'JJ'
p356
tp357
F0.0024380864893156803
tp358
a((S'POS'
p359
S'NN'
p360
tp361
F0.0024327456645855251
tp362
a((S'VBP'
p363
S'NN'
p364
tp365
F0.0024007007162045965
tp366
a((S'JJ'
p367
S'CC'
p368
tp369
F0.0023953598914744417
tp370
a((S'NN'
p371
g111
tp372
F0.0023232587576173512
tp373
a((S'NN'
p374
S'VB'
p375
tp376
F0.0022431463866650287
tp377
a((S'TO'
p378
S'DT'
p379
tp380
F0.0022244535001094867
tp381
a((S','
g132
tp382
F0.0022111014382841
tp383
a((g30
S'.'
tp384
F0.0021924085517285581
tp385
a((S'VBZ'
p386
g308
tp387
F0.0021924085517285581
tp388
a((S'VBP'
p389
S'VBN'
p390
tp391
F0.002069569582934997
tp392
a((g194
S'VBG'
p393
tp394
F0.0020615583458397646
tp395
a((S'RB'
p396
S'DT'
p397
tp398
F0.0020401950469191451
tp399
a((g234
S'NN'
p400
tp401
F0.0020161613356334484
tp402
a((S'RP'
p403
S'IN'
p404
tp405
F0.0019947980367128293
tp406
a((S'NNS'
p407
g359
tp408
F0.0019841163872525197
tp409
a((S'NN'
p410
S'VBG'
p411
tp412
F0.0019627530883319002
tp413
a((g168
g378
tp414
F0.0019387193770462035
tp415
a((S'VB'
p416
S'POS'
p417
tp418
F0.0019173560781255842
tp419
a((S'VBZ'
p420
S'PRP'
p421
tp422
F0.0019120152533954294
tp423
a((S'CC'
p424
S'DT'
p425
tp426
F0.0018933223668398875
tp427
a((S'NNP'
p428
S'.'
tp429
F0.0018906519544748101
tp430
a((S'NNS'
p431
g57
tp432
F0.0018746294802843455
tp433
a((g333
S'NN'
p434
tp435
F0.0018666182431891132
tp436
a((S'NNS'
p437
S'VB'
p438
tp439
F0.0018559365937288036
tp440
a((S'IN'
p441
S'RB'
p442
tp443
F0.0018345732948081843
tp444
a((S'RB'
p445
S'VBP'
p446
tp447
F0.0018051987587923326
tp448
a((g315
S'NNS'
p449
tp450
F0.0017811650475066359
tp451
a((S','
S'DT'
p452
tp453
F0.001717075150744778
tp454
a((S'CC'
p455
S'VBG'
p456
tp457
F0.0016609964910781522
tp458
a((S'VB'
p459
S'VBN'
p460
tp461
F0.0016449740168876879
tp462
a((S'VBZ'
p463
S'NN'
p464
tp465
F0.0016423036045226105
tp466
a((S'PRP'
p467
S'NN'
p468
tp469
F0.0016369627797924555
tp470
a((S'.'
S'CC'
p471
tp472
F0.0016342923674273781
tp473
a((S'NN'
p474
S'VBP'
p475
tp476
F0.001607588243776604
tp477
a((S'DT'
p478
S'VBZ'
p479
tp480
F0.0015728728830305975
tp481
a((S'JJ'
p482
S','
tp483
F0.0015702024706655202
tp484
a((S'PRP'
p485
S'POS'
p486
tp487
F0.001562191233570288
tp488
a((S'VBD'
p489
S'IN'
p490
tp491
F0.0015595208212052106
tp492
a((S','
S'RB'
p493
tp494
F0.0015461687593798235
tp495
a((S'JJR'
p496
S'NN'
p497
tp498
F0.0015408279346496687
tp499
a((S'NN'
p500
S'VBD'
p501
tp502
F0.0015408279346496687
tp503
a((S"''"
p504
S'VBZ'
p505
tp506
F0.0015328166975544363
tp507
a((S':'
S'NN'
p508
tp509
F0.0015141238109988944
tp510
a((S'PRP'
p511
S'TO'
p512
tp513
F0.0015141238109988944
tp514
a((g442
S'NN'
p515
tp516
F0.001466056388427501
tp517
a((S'NN'
p518
S'JJ'
p519
tp520
F0.001447363501871959
tp521
a((S'RB'
p522
S'VBZ'
p523
tp524
F0.0014073073163957978
tp525
a((S'.'
g344
tp526
F0.0014046369040307204
tp527
a((S'NN'
p528
S'WRB'
p529
tp530
F0.0013939552545704109
tp531
a((S'NNS'
p532
S'WDT'
p533
tp534
F0.0013725919556497913
tp535
a((S'VB'
p536
S'CC'
p537
tp538
F0.0013645807185545592
tp539
a((g133
g67
tp540
F0.001351228656729172
tp541
a((S'POS'
p542
S'NNS'
p543
tp544
F0.0013432174196339399
tp545
a((S'VBD'
p546
S'DT'
p547
tp548
F0.0013378765949037851
tp549
a((S'NN'
p550
S':'
tp551
F0.0013352061825387077
tp552
a((S'NNP'
p553
g275
tp554
F0.0012978204094276238
tp555
a((S'NN'
p556
S'WDT'
p557
tp558
F0.0012871387599673141
tp559
a((g46
S'DT'
p560
tp561
F0.0012684458734117721
tp562
a((S','
S'VB'
p563
tp564
F0.0012390713373959207
tp565
a((S'VBZ'
p566
S'VBG'
p567
tp568
F0.0011856630900943723
tp569
a((S'JJ'
p570
S'PRP'
p571
tp572
F0.0011669702035388306
tp573
a((S','
S'VBG'
p574
tp575
F0.001145606904618211
tp576
a((S'VBZ'
p577
S'VBN'
p578
tp579
F0.0011375956675229789
tp580
a((S'NNS'
p581
S'JJ'
p582
tp583
F0.0011242436056975917
tp584
a((S'NNS'
p585
S'VBZ'
p586
tp587
F0.0011242436056975917
tp588
a((S'VBN'
p589
S'TO'
p590
tp591
F0.0011242436056975917
tp592
a((S'RB'
p593
S'NNS'
p594
tp595
F0.0011135619562372822
tp596
a((g298
S'NNS'
p597
tp598
F0.0011028803067769724
tp599
a((S'.'
S'WRB'
p600
tp601
F0.0010948690696817402
tp602
a((S'POS'
p603
S'JJ'
p604
tp605
F0.0010948690696817402
tp606
a((g276
S'VBN'
p607
tp608
F0.0010948690696817402
tp609
a((S'VBD'
p610
S'PRP'
p611
tp612
F0.0010868578325865081
tp613
a((S'CD'
p614
S'NN'
p615
tp616
F0.0010708353583960435
tp617
a((S'VB'
p618
S'VBG'
p619
tp620
F0.0010681649460309662
tp621
a((S'.'
S'JJ'
p622
tp623
F0.0010654945336658888
tp624
a((S'IN'
p625
S'CD'
p626
tp627
F0.0010628241213008112
tp628
a((g501
S'TO'
p629
tp630
F0.001054812884205579
tp631
a((S'NNP'
p632
g186
tp633
F0.0010494720594754242
tp634
a((S'PRP'
p635
S'DT'
p636
tp637
F0.0010441312347452695
tp638
a((S'TO'
p639
S'PRP$'
p640
tp641
F0.0010441312347452695
tp642
a((S'WDT'
p643
g463
tp644
F0.0010387904100151145
tp645
a((S'VBZ'
p646
S'NNS'
p647
tp648
F0.0010361199976500371
tp649
a((S'.'
g93
tp650
F0.0010334495852849597
tp651
a((g393
S'JJ'
p652
tp653
F0.0010334495852849597
tp654
a((S'VB'
p655
S','
tp656
F0.0010254383481897275
tp657
a((S'TO'
p658
S'JJ'
p659
tp660
F0.0010200975234595725
tp661
a((S'IN'
p662
S'.'
tp663
F0.001009415873999263
tp664
a((S'CC'
p665
S'VBP'
p666
tp667
F0.00099873422453895322
tp668
a((g210
g224
tp669
F0.00099072298744372106
tp670
a((S'PDT'
p671
g2
tp672
F0.0009800413379834113
tp673
a((S'VBG'
p674
g251
tp675
F0.00096668927615802436
tp676
a((S','
S'JJ'
p677
tp678
F0.00096134845142786948
tp679
a((S'VBP'
p680
S'.'
tp681
F0.00095867803906279209
tp682
a((S'VBG'
p683
S'RB'
p684
tp685
F0.0009560076266977147
tp686
a((S'WRB'
p687
S'NNS'
p688
tp689
F0.00094799638960248243
tp690
a((S'CD'
p691
S'NNS'
p692
tp693
F0.00093731474014217277
tp694
a((S'WDT'
p695
S'VBP'
p696
tp697
F0.00092663309068186312
tp698
a((S'DT'
p699
S'RB'
p700
tp701
F0.00092396267831678573
tp702
a((S'EX'
p703
S'VBP'
p704
tp705
F0.00092129226595170823
tp706
a((g94
S'TO'
p707
tp708
F0.00091595144122155346
tp709
a((S'.'
S'VBG'
p710
tp711
F0.00089458814230093415
tp712
a((S'JJR'
p713
S'IN'
p714
tp715
F0.00089458814230093415
tp716
a((S'RB'
p717
S'VBD'
p718
tp719
F0.00089458814230093415
tp720
a((S'NN'
p721
g293
tp722
F0.00088390649284062449
tp723
a((S'PRP'
p724
S'JJ'
p725
tp726
F0.00088390649284062449
tp727
a((S'NNS'
p728
S'VBG'
p729
tp730
F0.00088123608047554699
tp731
a((S'.'
S'VB'
p732
tp733
F0.00087322484338031483
tp734
a((S'NNS'
p735
S'WP'
p736
tp737
F0.00087055443101523734
tp738
a((S'PRP'
p739
S'CC'
p740
tp741
F0.00087055443101523734
tp742
a((S'WP'
p743
S'PRP'
p744
tp745
F0.00086788401865015995
tp746
a((g736
S'VBP'
p747
tp748
F0.00086788401865015995
tp749
a((g578
S'.'
tp750
F0.00084117989499938575
tp751
a((S'.'
g703
tp752
F0.00081981659607876644
tp753
a((S'VBP'
p754
S'PRP$'
p755
tp756
F0.00081981659607876644
tp757
a((S'VBG'
p758
g233
tp759
F0.00081714618371368905
tp760
a((S'RB'
p761
S'CC'
p762
tp763
F0.00081447577134861166
tp764
a((S'VBG'
p765
S'.'
tp766
F0.00081180535898353428
tp767
a((S'POS'
p768
S'VBZ'
p769
tp770
F0.00080646453425337939
tp771
a((S'POS'
p772
S'VB'
p773
tp774
F0.00080112370952322462
tp775
a((g248
S'IN'
p776
tp777
F0.00079845329715814712
tp778
a((S'VBD'
p779
S'RB'
p780
tp781
F0.00079578288479306974
tp782
a((S'CD'
p783
S'IN'
p784
tp785
F0.00079311247242799235
tp786
a((g475
S'VB'
p787
tp788
F0.00079044206006291496
tp789
a((S'JJR'
p790
g329
tp791
F0.00078510123533276008
tp792
a((S'PRP'
p793
S','
tp794
F0.00076640834877721815
tp795
a((S'RBR'
p796
S'JJ'
p797
tp798
F0.00076373793641214076
tp799
a((S'NNP'
p800
g261
tp801
F0.00075305628695183111
tp802
a((S'NNP'
p803
S'NN'
p804
tp805
F0.00073169298803121179
tp806
a((g183
S'TO'
p807
tp808
F0.0007290225756661344
tp809
a((S'IN'
p810
S'WRB'
p811
tp812
F0.00071567051384074725
tp813
a((S'VB'
p814
S'WRB'
p815
tp816
F0.00070765927674551509
tp817
a((S'DT'
p818
S'PRP'
p819
tp820
F0.00070498886438043759
tp821
a((S'CC'
p822
S'PRP$'
p823
tp824
F0.00070231845201536021
tp825
a((S'VBG'
p826
S'RP'
p827
tp828
F0.00069964803965028282
tp829
a((S'EX'
p830
S'VBZ'
p831
tp832
F0.00069697762728520543
tp833
a((S'JJ'
p834
S'RB'
p835
tp836
F0.00069430721492012794
tp837
a((S'VB'
p838
S'JJR'
p839
tp840
F0.00069430721492012794
tp841
a((S'NNS'
p842
S'VBD'
p843
tp844
F0.00069163680255505055
tp845
a((S'CC'
p846
S'JJR'
p847
tp848
F0.00068629597782489567
tp849
a((S'RP'
p850
S'DT'
p851
tp852
F0.00067561432836458601
tp853
a((S'DT'
p854
S'VBP'
p855
tp856
F0.00065692144180904419
tp857
a((S'VBN'
p858
S'RB'
p859
tp860
F0.00065692144180904419
tp861
a((S'JJ'
p862
g97
tp863
F0.00064891020471381192
tp864
a((S'DT'
p865
S'JJS'
p866
tp867
F0.00064623979234873453
tp868
a((S'NN'
p869
S"''"
p870
tp871
F0.00064356937998365704
tp872
a((S'VBZ'
p873
S'WRB'
p874
tp875
F0.00064356937998365704
tp876
a((S'NNP'
p877
S'DT'
p878
tp879
F0.00062487649342811522
tp880
a((S'JJS'
p881
S'NNS'
p882
tp883
F0.00061152443160272807
tp884
a((S'NNS'
p885
S'WRB'
p886
tp887
F0.00060618360687257329
tp888
a((S'CC'
p889
S'VBZ'
p890
tp891
F0.00059817236977734102
tp892
a((S'VBG'
p893
S'CC'
p894
tp895
F0.00059817236977734102
tp896
a((S'NNP'
p897
S'RB'
p898
tp899
F0.00059550195741226363
tp900
a((S'PRP'
p901
g504
tp902
F0.00059016113268210875
tp903
a((S'RP'
p904
S'CC'
p905
tp906
F0.00058749072031703136
tp907
a((S'DT'
p908
S'.'
tp909
F0.00057947948322179909
tp910
a((S'MD'
p911
S"''"
p912
tp913
F0.00056879783376148944
tp914
a((S'NN'
p915
S'PRP$'
p916
tp917
F0.00056879783376148944
tp918
a((S'NNP'
p919
S'VB'
p920
tp921
F0.00056879783376148944
tp922
a((S'VB'
p923
S'WP'
p924
tp925
F0.00056612742139641205
tp926
a((S'VBN'
p927
S'DT'
p928
tp929
F0.00055010494720594751
tp930
a((S','
S'VBP'
p931
tp932
F0.00054476412247579274
tp933
a((S'RB'
p934
S'JJR'
p935
tp936
F0.00054476412247579274
tp937
a((S'VBD'
p938
S'VBN'
p939
tp940
F0.00053408247301548308
tp941
a((S'WDT'
p942
S'MD'
p943
tp944
F0.00053408247301548308
tp945
a((S'VBG'
p946
S','
tp947
F0.0005287416482853282
tp948
a((S'IN'
p949
S','
tp950
F0.00052607123592025081
tp951
a((g529
S'TO'
p952
tp953
F0.00052340082355517342
tp954
a((S'.'
S'NNPS'
p955
tp956
F0.00052073041119009593
tp957
a((S'JJR'
p958
S'.'
tp959
F0.00051805999882501854
tp960
a((S'NNP'
p961
S'PRP'
p962
tp963
F0.00051271917409486376
tp964
a((S'JJ'
p965
S'DT'
p966
tp967
F0.00050203752463455411
tp968
a((g600
S'DT'
p969
tp970
F0.00050203752463455411
tp971
a((S'JJS'
p972
S'NN'
p973
tp974
F0.00049669669990439922
tp975
a((g640
S'IN'
p976
tp977
F0.00049669669990439922
tp978
a((S'NNP'
p979
g489
tp980
F0.00049402628753932184
tp981
a((S'.'
S'VBP'
p982
tp983
F0.00049135587517424445
tp984
a((S'CC'
p985
S'WRB'
p986
tp987
F0.00049135587517424445
tp988
a((S'TO'
p989
S'RB'
p990
tp991
F0.00049135587517424445
tp992
a((S'VBP'
p993
S','
tp994
F0.00049135587517424445
tp995
a((S'IN'
p996
S'CC'
p997
tp998
F0.00048868546280916695
tp999
a((S'JJR'
p1000
S'CC'
p1001
tp1002
F0.00048868546280916695
tp1003
a((S','
S'PRP$'
p1004
tp1005
F0.00048601505044408957
tp1006
a((S'WP'
p1007
S'VBZ'
p1008
tp1009
F0.00048601505044408957
tp1010
a((S'.'
S'CD'
p1011
tp1012
F0.00048334463807901218
tp1013
a((S'WRB'
p1014
S'JJ'
p1015
tp1016
F0.00048334463807901218
tp1017
a((S'NNP'
p1018
S'POS'
p1019
tp1020
F0.00048067422571393474
tp1021
a((S'VBD'
p1022
g765
tp1023
F0.00047800381334885735
tp1024
a((S'RP'
p1025
S'.'
tp1026
F0.00047533340098377991
tp1027
a((S'PRP$'
p1028
S'RB'
p1029
tp1030
F0.00047266298861870252
tp1031
a((g586
S'.'
tp1032
F0.00047266298861870252
tp1033
a((S'VBZ'
p1034
S'PRP$'
p1035
tp1036
F0.00046999257625362508
tp1037
a((S'MD'
p1038
S'PRP'
p1039
tp1040
F0.00046465175152347025
tp1041
a((S'VBD'
p1042
S'JJ'
p1043
tp1044
F0.00045664051442823798
tp1045
a((S'IN'
p1046
S'VBZ'
p1047
tp1048
F0.0004539701020631606
tp1049
a((S','
S'VBZ'
p1050
tp1051
F0.00044595886496792833
tp1052
a((S'VBP'
p1053
g790
tp1054
F0.00044595886496792833
tp1055
a((S'DT'
p1056
S'JJR'
p1057
tp1058
F0.0004406180402377735
tp1059
a((S'RB'
p1060
S'MD'
p1061
tp1062
F0.0004406180402377735
tp1063
a((S'NNS'
p1064
S'VBN'
p1065
tp1066
F0.00043794762787269611
tp1067
a((S'MD'
p1068
S'NN'
p1069
tp1070
F0.00043527721550761867
tp1071
a((S'VBN'
p1072
S'NN'
p1073
tp1074
F0.00043260680314254128
tp1075
a((g537
S'MD'
p1076
tp1077
F0.00042459556604730901
tp1078
a((S'IN'
p1079
S'EX'
p1080
tp1081
F0.00042192515368223162
tp1082
a((g221
S'NNS'
p1083
tp1084
F0.00041391391658699935
tp1085
a((S'PRP'
p1086
g1025
tp1087
F0.00041391391658699935
tp1088
a((S'NN'
p1089
S'WP'
p1090
tp1091
F0.00040590267949176714
tp1092
a((S'VBP'
p1093
S'CC'
p1094
tp1095
F0.0004032322671266897
tp1096
a((S'VBD'
p1097
g410
tp1098
F0.00039789144239653487
tp1099
a((S'NNP'
p1100
S'MD'
p1101
tp1102
F0.00039522103003145748
tp1103
a((g955
S'VBP'
p1104
tp1105
F0.00038988020530130265
tp1106
a((S'SYM'
p1107
S':'
tp1108
F0.00038988020530130265
tp1109
a((S'RB'
p1110
S'PRP$'
p1111
tp1112
F0.00038720979293622521
tp1113
a((S'DT'
p1114
S','
tp1115
F0.00038453938057114782
tp1116
a((S'IN'
p1117
S'TO'
p1118
tp1119
F0.00038453938057114782
tp1120
a((S'VBD'
p1121
g850
tp1122
F0.00038453938057114782
tp1123
a((S'VBD'
p1124
S'PRP$'
p1125
tp1126
F0.00038186896820607038
tp1127
a((g460
S'CC'
p1128
tp1129
F0.00037919855584099294
tp1130
a((S'VBP'
p1131
g283
tp1132
F0.00037919855584099294
tp1133
a((S'VBZ'
p1134
S'VB'
p1135
tp1136
F0.00037919855584099294
tp1137
a((S'DT'
p1138
S'MD'
p1139
tp1140
F0.00037652814347591555
tp1141
a((g533
g431
tp1142
F0.00037652814347591555
tp1143
a((S','
S'WRB'
p1144
tp1145
F0.00037385773111083811
tp1146
a((S'VBZ'
p1147
S','
tp1148
F0.00037118731874576072
tp1149
a((S'JJS'
p1150
S'IN'
p1151
tp1152
F0.00036851690638068328
tp1153
a((S'RB'
p1154
S'RBR'
p1155
tp1156
F0.0003658464940156059
tp1157
a((S'RB'
p1158
S'WRB'
p1159
tp1160
F0.0003658464940156059
tp1161
a((S'VBD'
p1162
S'.'
tp1163
F0.00036317608165052845
tp1164
a((S"''"
p1165
S'NN'
p1166
tp1167
F0.00036050566928545107
tp1168
a((S'.'
S'TO'
p1169
tp1170
F0.00035783525692037363
tp1171
a((S'WRB'
p1172
S'PRP$'
p1173
tp1174
F0.00035783525692037363
tp1175
a((S'NN'
p1176
S'POS'
p1177
tp1178
F0.0003524944321902188
tp1179
a((S'VB'
p1180
S"''"
p1181
tp1182
F0.0003524944321902188
tp1183
a((S'VBN'
p1184
S'NNS'
p1185
tp1186
F0.0003524944321902188
tp1187
a((S'.'
S'UH'
p1188
tp1189
F0.00034982401982514141
tp1190
a((S'IN'
p1191
S'JJS'
p1192
tp1193
F0.00034448319509498658
tp1194
a((S'IN'
p1195
S'WP'
p1196
tp1197
F0.00034181278272990914
tp1198
a((g434
S'RP'
p1199
tp1200
F0.00034181278272990914
tp1201
a((S'RBS'
p1202
S'JJ'
p1203
tp1204
F0.00034181278272990914
tp1205
a((S'CC'
p1206
S'VBD'
p1207
tp1208
F0.00033914237036483175
tp1209
a((S'JJ'
p1210
S'VBZ'
p1211
tp1212
F0.00033914237036483175
tp1213
a((S','
S'WDT'
p1214
tp1215
F0.00033647195799975431
tp1216
a((S'RBR'
p1217
S'.'
tp1218
F0.00033380154563467692
tp1219
a((S'NN'
p1220
S'JJR'
p1221
tp1222
F0.0003284607209045221
tp1223
a((S'DT'
p1224
S'VB'
p1225
tp1226
F0.00032579030853944465
tp1227
a((S'VB'
p1228
S'RBR'
p1229
tp1230
F0.00032044948380928983
tp1231
a((S'RBR'
p1232
S'IN'
p1233
tp1234
F0.00031777907144421244
tp1235
a((S'VBP'
p1236
S'RP'
p1237
tp1238
F0.00031777907144421244
tp1239
a((S'IN'
p1240
S'JJR'
p1241
tp1242
F0.000315108659079135
tp1243
a((S'IN'
p1244
S'VB'
p1245
tp1246
F0.000315108659079135
tp1247
a((g1199
S'NN'
p1248
tp1249
F0.000315108659079135
tp1250
a((S'DT'
p1251
S'RBS'
p1252
tp1253
F0.00030976783434898017
tp1254
a((S'VBN'
p1255
S','
tp1256
F0.00030976783434898017
tp1257
a((S'.'
S'WP'
p1258
tp1259
F0.00030442700961882534
tp1260
a((S'VBN'
p1261
S'PRP'
p1262
tp1263
F0.00030442700961882534
tp1264
a((S'VBN'
p1265
S'RP'
p1266
tp1267
F0.00029641577252359307
tp1268
a((S'VB'
p1269
S'VBZ'
p1270
tp1271
F0.00029374536015851568
tp1272
a((S'VBG'
p1273
g496
tp1274
F0.00029107494779343824
tp1275
a((g607
S'JJ'
p1276
tp1277
F0.00028840453542836085
tp1278
a((S'PRP'
p1279
g683
tp1280
F0.00028573412306328341
tp1281
a((S'PRP$'
p1282
g197
tp1283
F0.00028573412306328341
tp1284
a((S"''"
p1285
S'NNS'
p1286
tp1287
F0.0002777228859680512
tp1288
a((g1237
S'TO'
p1289
tp1290
F0.0002777228859680512
tp1291
a((S'TO'
p1292
S'.'
tp1293
F0.00027505247360297376
tp1294
a((S'WDT'
p1295
g1022
tp1296
F0.00027505247360297376
tp1297
a((S'RB'
p1298
S'NNP'
p1299
tp1300
F0.00027238206123789637
tp1301
a((S'CC'
p1302
S'TO'
p1303
tp1304
F0.00026971164887281893
tp1305
a((S'RP'
p1306
S'PRP$'
p1307
tp1308
F0.00026971164887281893
tp1309
a((S'RP'
p1310
g1158
tp1311
F0.00026971164887281893
tp1312
a((g1159
S'RB'
p1313
tp1314
F0.00026971164887281893
tp1315
a((S'RP'
p1316
S'NNS'
p1317
tp1318
F0.00026704123650774154
tp1319
a((S','
g830
tp1320
F0.00026170041177758671
tp1321
a((S'IN'
p1322
S'PDT'
p1323
tp1324
F0.00026170041177758671
tp1325
a((S'VBG'
p1326
g858
tp1327
F0.00026170041177758671
tp1328
a((S'NNP'
p1329
S'RP'
p1330
tp1331
F0.00025902999941250927
tp1332
a((S'TO'
p1333
S'VBG'
p1334
tp1335
F0.00025368917468235444
tp1336
a((S'VBP'
p1337
S'CD'
p1338
tp1339
F0.00025368917468235444
tp1340
a((S'IN'
p1341
S'SYM'
p1342
tp1343
F0.00025101876231727705
tp1344
a((S'RP'
p1345
S','
tp1346
F0.00025101876231727705
tp1347
a((S'VBP'
p1348
g743
tp1349
F0.00025101876231727705
tp1350
a((S'WDT'
p1351
S'PRP'
p1352
tp1353
F0.00024567793758712222
tp1354
a((S'.'
S'JJS'
p1355
tp1356
F0.00024300752522204478
tp1357
a((S'WRB'
p1358
S'NN'
p1359
tp1360
F0.00024300752522204478
tp1361
a((S'DT'
p1362
S'VBG'
p1363
tp1364
F0.00024033711285696737
tp1365
a((S'UH'
p1366
S','
tp1367
F0.00023766670049188995
tp1368
a((S'VBZ'
p1369
g783
tp1370
F0.00023766670049188995
tp1371
a((g1181
S'JJ'
p1372
tp1373
F0.00023232587576173513
tp1374
a((S'WP'
p1375
g625
tp1376
F0.00022965546339665771
tp1377
a((S'IN'
p1378
S"''"
p1379
tp1380
F0.0002269850510315803
tp1381
a((S'JJR'
p1382
S'TO'
p1383
tp1384
F0.0002269850510315803
tp1385
a((S'NNP'
p1386
S'TO'
p1387
tp1388
F0.0002269850510315803
tp1389
a((S'VBN'
p1390
S'VBG'
p1391
tp1392
F0.0002269850510315803
tp1393
a((S'FW'
p1394
S'VBP'
p1395
tp1396
F0.00022431463866650288
tp1397
a((S'JJ'
p1398
S':'
tp1399
F0.00022431463866650288
tp1400
a((S'NN'
p1401
S'RBR'
p1402
tp1403
F0.00022164422630142547
tp1404
a((S'VB'
p1405
S'CD'
p1406
tp1407
F0.00022164422630142547
tp1408
a((S'VBD'
p1409
S'NNS'
p1410
tp1411
F0.00022164422630142547
tp1412
a((S'VBP'
p1413
S'VBZ'
p1414
tp1415
F0.00022164422630142547
tp1416
a((S'JJ'
p1417
S'VBG'
p1418
tp1419
F0.00021897381393634805
tp1420
a((g471
S','
tp1421
F0.00021630340157127064
tp1422
a((S'PRP'
p1423
S'WRB'
p1424
tp1425
F0.00021630340157127064
tp1426
a((g831
S'JJR'
p1427
tp1428
F0.00021630340157127064
tp1429
a((S"''"
p1430
S'PRP'
p1431
tp1432
F0.00021363298920619323
tp1433
a((S'PDT'
p1434
S'PRP$'
p1435
tp1436
F0.00021363298920619323
tp1437
a((S'VBZ'
p1438
S'RP'
p1439
tp1440
F0.00021363298920619323
tp1441
a((S'JJ'
p1442
g1053
tp1443
F0.0002082921644760384
tp1444
a((S'CC'
p1445
S'VBN'
p1446
tp1447
F0.00020562175211096098
tp1448
a((g179
g643
tp1449
F0.00020295133974588357
tp1450
a((g1144
S'MD'
p1451
tp1452
F0.00020295133974588357
tp1453
a((S'CC'
p1454
S'RBR'
p1455
tp1456
F0.00020028092738080615
tp1457
a((S'CC'
p1458
S'WP'
p1459
tp1460
F0.00020028092738080615
tp1461
a((S','
g1394
tp1462
F0.00019761051501572874
tp1463
a((S'DT'
p1464
g822
tp1465
F0.00019761051501572874
tp1466
a((S':'
S'IN'
p1467
tp1468
F0.00019494010265065133
tp1469
a((S'JJ'
p1470
S'JJR'
p1471
tp1472
F0.00019494010265065133
tp1473
a((S'VBP'
p1474
S'RBR'
p1475
tp1476
F0.00019494010265065133
tp1477
a((S'WRB'
p1478
S'IN'
p1479
tp1480
F0.00019494010265065133
tp1481
a((S'NNP'
p1482
S':'
tp1483
F0.00018959927792049647
tp1484
a((S'RBR'
p1485
g1454
tp1486
F0.00018692886555541906
tp1487
a((g379
S'CD'
p1488
tp1489
F0.00018425845319034164
tp1490
a((S'JJ'
p1491
g1358
tp1492
F0.00018425845319034164
tp1493
a((S'MD'
p1494
S'IN'
p1495
tp1496
F0.00018158804082526423
tp1497
a((S','
S'VBD'
p1498
tp1499
F0.00017891762846018681
tp1500
a((S'PRP'
p1501
g713
tp1502
F0.00017891762846018681
tp1503
a((S'RB'
p1504
g614
tp1505
F0.00017891762846018681
tp1506
a((S'VBZ'
p1507
S'CC'
p1508
tp1509
F0.00017891762846018681
tp1510
a((S'WP'
p1511
S'VBD'
p1512
tp1513
F0.00017891762846018681
tp1514
a((S'RBR'
p1515
S'RB'
p1516
tp1517
F0.0001762472160951094
tp1518
a((S'PRP$'
p1519
S'DT'
p1520
tp1521
F0.00017357680373003198
tp1522
a((S'VB'
p1523
S'PDT'
p1524
tp1525
F0.00017357680373003198
tp1526
a((S'NNS'
p1527
S'PRP$'
p1528
tp1529
F0.00017090639136495457
tp1530
a((S':'
S'NNS'
p1531
tp1532
F0.00016556556663479974
tp1533
a((S'CD'
p1534
S'.'
tp1535
F0.00016556556663479974
tp1536
a((S'DT'
p1537
S'RBR'
p1538
tp1539
F0.00016556556663479974
tp1540
a((S'VBD'
p1541
S','
tp1542
F0.00016556556663479974
tp1543
a((S'.'
S'MD'
p1544
tp1545
F0.00016289515426972233
tp1546
a((S'VBD'
p1547
S'POS'
p1548
tp1549
F0.00016289515426972233
tp1550
a((S'NNP'
p1551
S'JJ'
p1552
tp1553
F0.0001575543295395675
tp1554
a((g1342
S'CD'
p1555
tp1556
F0.0001575543295395675
tp1557
a((S'WP'
p1558
S'MD'
p1559
tp1560
F0.0001575543295395675
tp1561
a((S','
S'TO'
p1562
tp1563
F0.00015221350480941267
tp1564
a((S'CC'
p1565
S'EX'
p1566
tp1567
F0.00015221350480941267
tp1568
a((S'NNP'
p1569
S'PRP$'
p1570
tp1571
F0.00015221350480941267
tp1572
a((S'PRP'
p1573
S'VBN'
p1574
tp1575
F0.00015221350480941267
tp1576
a((g886
S'VBG'
p1577
tp1578
F0.00014954309244433526
tp1579
a((g1488
g862
tp1580
F0.00014687268007925784
tp1581
a((S'IN'
p1582
S'VBP'
p1583
tp1584
F0.00014687268007925784
tp1585
a((S'RBS'
p1586
S'RB'
p1587
tp1588
F0.00014687268007925784
tp1589
a((S'VBG'
p1590
S'VBZ'
p1591
tp1592
F0.00014687268007925784
tp1593
a((g479
g1007
tp1594
F0.00014687268007925784
tp1595
a((S'JJR'
p1596
S','
tp1597
F0.00014420226771418043
tp1598
a((S'NNS'
p1599
S':'
tp1600
F0.00014420226771418043
tp1601
a((S'NNS'
p1602
S'RBR'
p1603
tp1604
F0.00014420226771418043
tp1605
a((S'WP'
p1606
S'DT'
p1607
tp1608
F0.00014420226771418043
tp1609
a((S'WP'
p1610
S'NN'
p1611
tp1612
F0.00014420226771418043
tp1613
a((S','
g1375
tp1614
F0.00014153185534910301
tp1615
a((S'.'
S'VBD'
p1616
tp1617
F0.00014153185534910301
tp1618
a((S'WP'
p1619
S'NNS'
p1620
tp1621
F0.0001388614429840256
tp1622
a((S','
S'JJR'
p1623
tp1624
F0.00013619103061894818
tp1625
a((S'NN'
p1626
S'CD'
p1627
tp1628
F0.00013619103061894818
tp1629
a((S'VB'
p1630
S'VBP'
p1631
tp1632
F0.00013619103061894818
tp1633
a((S'WP'
p1634
S'RB'
p1635
tp1636
F0.00013619103061894818
tp1637
a((S'WRB'
p1638
S'VBP'
p1639
tp1640
F0.00013619103061894818
tp1641
a((S'VBN'
p1642
S'PRP$'
p1643
tp1644
F0.00013352061825387077
tp1645
a((S':'
S'JJ'
p1646
tp1647
F0.00013085020588879336
tp1648
a((S'NN'
p1649
S'PDT'
p1650
tp1651
F0.00013085020588879336
tp1652
a((g718
S'CC'
p1653
tp1654
F0.00013085020588879336
tp1655
a((S'VBP'
p1656
S'VBD'
p1657
tp1658
F0.00012817979352371594
tp1659
a((S'FW'
p1660
S'.'
tp1661
F0.00012550938115863853
tp1662
a((S'IN'
p1663
S':'
tp1664
F0.00012550938115863853
tp1665
a((S'.'
S'VBZ'
p1666
tp1667
F0.00012283896879356111
tp1668
a((S'DT'
p1669
S'VBN'
p1670
tp1671
F0.00012283896879356111
tp1672
a((S'JJ'
p1673
S'VBN'
p1674
tp1675
F0.00012283896879356111
tp1676
a((S'NNS'
p1677
S'RP'
p1678
tp1679
F0.00012283896879356111
tp1680
a((S':'
S'PRP'
p1681
tp1682
F0.00012016855642848368
tp1683
a((S'DT'
p1684
S'TO'
p1685
tp1686
F0.00011749814406340627
tp1687
a((g330
S'WP'
p1688
tp1689
F0.00011749814406340627
tp1690
a((S'VBG'
p1691
S'RBR'
p1692
tp1693
F0.00011749814406340627
tp1694
a((S'NNP'
p1695
S'VBG'
p1696
tp1697
F0.00011482773169832886
tp1698
a((S'WDT'
p1699
S'NN'
p1700
tp1701
F0.00011482773169832886
tp1702
a((S','
S'MD'
p1703
tp1704
F0.00011215731933325144
tp1705
a((S'JJ'
p1706
S'CD'
p1707
tp1708
F0.00011215731933325144
tp1709
a((S'JJ'
p1710
S'PRP$'
p1711
tp1712
F0.00011215731933325144
tp1713
a((g1555
S','
tp1714
F0.00010948690696817403
tp1715
a((S'NN'
p1716
S'EX'
p1717
tp1718
F0.00010948690696817403
tp1719
a((g1410
S'JJR'
p1720
tp1721
F0.00010948690696817403
tp1722
a((g1402
S','
tp1723
F0.00010948690696817403
tp1724
a((g341
S'JJ'
p1725
tp1726
F0.00010948690696817403
tp1727
a((S','
S'CD'
p1728
tp1729
F0.00010681649460309661
tp1730
a((S'.'
S'JJR'
p1731
tp1732
F0.00010681649460309661
tp1733
a((S'CC'
p1734
S'CD'
p1735
tp1736
F0.00010681649460309661
tp1737
a((S'CC'
p1738
S'WDT'
p1739
tp1740
F0.00010681649460309661
tp1741
a((S'DT'
p1742
g938
tp1743
F0.00010681649460309661
tp1744
a((S'TO'
p1745
S'CC'
p1746
tp1747
F0.00010681649460309661
tp1748
a((S'VBD'
p1749
S'JJR'
p1750
tp1751
F0.00010681649460309661
tp1752
a((S'RB'
p1753
S':'
tp1754
F0.0001041460822380192
tp1755
a((g924
g1282
tp1756
F0.0001041460822380192
tp1757
a((S'CD'
p1758
S'DT'
p1759
tp1760
F0.00010147566987294178
tp1761
a((S'JJR'
p1762
S'PRP'
p1763
tp1764
F0.00010147566987294178
tp1765
a((S'PRP'
p1766
S'PRP$'
p1767
tp1768
F0.00010147566987294178
tp1769
a((S'PRP$'
p1770
S'VBN'
p1771
tp1772
F0.00010147566987294178
tp1773
a((S'VBZ'
p1774
S'RBR'
p1775
tp1776
F0.00010147566987294178
tp1777
a((S'WDT'
p1778
S'RB'
p1779
tp1780
F0.00010147566987294178
tp1781
a((S':'
S'VBG'
p1782
tp1783
F9.880525750786437e-05
tp1784
a((S'IN'
p1785
S'FW'
p1786
tp1787
F9.880525750786437e-05
tp1788
a((S'VBG'
p1789
S'WRB'
p1790
tp1791
F9.880525750786437e-05
tp1792
a((S'EX'
p1793
S'NN'
p1794
tp1795
F9.6134845142786956e-05
tp1796
a((S'IN'
p1797
S'VBN'
p1798
tp1799
F9.6134845142786956e-05
tp1800
a((S'JJR'
p1801
S'RB'
p1802
tp1803
F9.6134845142786956e-05
tp1804
a((S'VBD'
p1805
S'VB'
p1806
tp1807
F9.6134845142786956e-05
tp1808
a((S'VBP'
p1809
S'PDT'
p1810
tp1811
F9.6134845142786956e-05
tp1812
a((S'WRB'
p1813
S'VBZ'
p1814
tp1815
F9.6134845142786956e-05
tp1816
a((S'FW'
p1817
S'VBD'
p1818
tp1819
F9.3464432777709528e-05
tp1820
a((S'EX'
p1821
S'POS'
p1822
tp1823
F9.0794020412632114e-05
tp1824
a((S'VB'
p1825
S'WDT'
p1826
tp1827
F9.0794020412632114e-05
tp1828
a((S'VBD'
p1829
S'CD'
p1830
tp1831
F9.0794020412632114e-05
tp1832
a((g1688
g247
tp1833
F9.0794020412632114e-05
tp1834
a((S'DT'
p1835
S'WP'
p1836
tp1837
F8.8123608047554699e-05
tp1838
a((S'IN'
p1839
S'MD'
p1840
tp1841
F8.8123608047554699e-05
tp1842
a((S'MD'
p1843
S'DT'
p1844
tp1845
F8.8123608047554699e-05
tp1846
a((S'VB'
p1847
S'VBD'
p1848
tp1849
F8.8123608047554699e-05
tp1850
a((S','
S'JJS'
p1851
tp1852
F8.5453195682477285e-05
tp1853
a((S','
S'VBN'
p1854
tp1855
F8.5453195682477285e-05
tp1856
a((S'CD'
p1857
S'CC'
p1858
tp1859
F8.5453195682477285e-05
tp1860
a((S'MD'
p1861
S'JJ'
p1862
tp1863
F8.5453195682477285e-05
tp1864
a((S'MD'
p1865
S'VBP'
p1866
tp1867
F8.5453195682477285e-05
tp1868
a((S'PRP$'
p1869
S'JJS'
p1870
tp1871
F8.5453195682477285e-05
tp1872
a((S'VBD'
p1873
S'WRB'
p1874
tp1875
F8.5453195682477285e-05
tp1876
a((S'.'
S'PDT'
p1877
tp1878
F8.2782783317399871e-05
tp1879
a((S':'
S'RB'
p1880
tp1881
F8.0112370952322456e-05
tp1882
a((S'NNP'
p1883
S"''"
p1884
tp1885
F8.0112370952322456e-05
tp1886
a((S'POS'
p1887
S'SYM'
p1888
tp1889
F8.0112370952322456e-05
tp1890
a((S'RB'
p1891
S'JJS'
p1892
tp1893
F8.0112370952322456e-05
tp1894
a((g1888
S'NN'
p1895
tp1896
F8.0112370952322456e-05
tp1897
a((S'WRB'
p1898
S'VB'
p1899
tp1900
F8.0112370952322456e-05
tp1901
a((g1080
S'NNS'
p1902
tp1903
F7.7441958587245042e-05
tp1904
a((S'.'
S'FW'
p1905
tp1906
F7.4771546222167628e-05
tp1907
a((S'.'
S'WDT'
p1908
tp1909
F7.4771546222167628e-05
tp1910
a((S'CD'
p1911
S'PRP'
p1912
tp1913
F7.4771546222167628e-05
tp1914
a((S'NNP'
p1915
S'WDT'
p1916
tp1917
F7.4771546222167628e-05
tp1918
a((S'PRP$'
p1919
S'CD'
p1920
tp1921
F7.4771546222167628e-05
tp1922
a((S'WRB'
p1923
S'.'
tp1924
F7.4771546222167628e-05
tp1925
a((g1905
S'VB'
p1926
tp1927
F7.2101133857090213e-05
tp1928
a((S'IN'
p1929
S'VBD'
p1930
tp1931
F7.2101133857090213e-05
tp1932
a((S'RB'
p1933
S'EX'
p1934
tp1935
F7.2101133857090213e-05
tp1936
a((S'WDT'
p1937
S'IN'
p1938
tp1939
F7.2101133857090213e-05
tp1940
a((S'CC'
p1941
S'JJS'
p1942
tp1943
F6.9430721492012799e-05
tp1944
a((S'MD'
p1945
S'NNS'
p1946
tp1947
F6.9430721492012799e-05
tp1948
a((S'TO'
p1949
S'CD'
p1950
tp1951
F6.9430721492012799e-05
tp1952
a((S'VBG'
p1953
S'PDT'
p1954
tp1955
F6.9430721492012799e-05
tp1956
a((S'.'
S'VBN'
p1957
tp1958
F6.6760309126935385e-05
tp1959
a((S'EX'
p1960
S'MD'
p1961
tp1962
F6.6760309126935385e-05
tp1963
a((S'MD'
p1964
S'.'
tp1965
F6.6760309126935385e-05
tp1966
a((S'NNP'
p1967
S'WP'
p1968
tp1969
F6.6760309126935385e-05
tp1970
a((S'VB'
p1971
S':'
tp1972
F6.6760309126935385e-05
tp1973
a((g390
g1232
tp1974
F6.6760309126935385e-05
tp1975
a((S'WRB'
p1976
S'FW'
p1977
tp1978
F6.6760309126935385e-05
tp1979
a((S':'
S'DT'
p1980
tp1981
F6.4089896761857971e-05
tp1982
a((S':'
S'VBN'
p1983
tp1984
F6.4089896761857971e-05
tp1985
a((S'CC'
p1986
S'FW'
p1987
tp1988
F6.4089896761857971e-05
tp1989
a((S'NNP'
p1990
S'WRB'
p1991
tp1992
F6.4089896761857971e-05
tp1993
a((S'RB'
p1994
S'WDT'
p1995
tp1996
F6.4089896761857971e-05
tp1997
a((S'WRB'
p1998
S'EX'
p1999
tp2000
F6.4089896761857971e-05
tp2001
a((S'EX'
p2002
S'VBD'
p2003
tp2004
F6.1419484396780556e-05
tp2005
a((S'PRP$'
p2006
S'VBZ'
p2007
tp2008
F6.1419484396780556e-05
tp2009
a((S'TO'
p2010
S'WP'
p2011
tp2012
F6.1419484396780556e-05
tp2013
a((S'VBZ'
p2014
S'PDT'
p2015
tp2016
F6.1419484396780556e-05
tp2017
a((S'VBZ'
p2018
S'VBD'
p2019
tp2020
F6.1419484396780556e-05
tp2021
a((S'CC'
p2022
S'RBS'
p2023
tp2024
F5.8749072031703135e-05
tp2025
a((S'NN'
p2026
S'FW'
p2027
tp2028
F5.8749072031703135e-05
tp2029
a((S'TO'
p2030
S','
tp2031
F5.8749072031703135e-05
tp2032
a((S'TO'
p2033
S'WRB'
p2034
tp2035
F5.8749072031703135e-05
tp2036
a((S'VBN'
p2037
S'WRB'
p2038
tp2039
F5.8749072031703135e-05
tp2040
a((S'VBP'
p2041
S'EX'
p2042
tp2043
F5.8749072031703135e-05
tp2044
a((S'VBZ'
p2045
S'VBP'
p2046
tp2047
F5.8749072031703135e-05
tp2048
a((S','
S'NNP'
p2049
tp2050
F5.6078659666625721e-05
tp2051
a((S':'
S'CC'
p2052
tp2053
F5.6078659666625721e-05
tp2054
a((S'MD'
p2055
S'CC'
p2056
tp2057
F5.6078659666625721e-05
tp2058
a((S'PRP$'
p2059
S'.'
tp2060
F5.6078659666625721e-05
tp2061
a((S'RP'
p2062
S'VBG'
p2063
tp2064
F5.6078659666625721e-05
tp2065
a((S'VBN'
p2066
S'VBZ'
p2067
tp2068
F5.6078659666625721e-05
tp2069
a((S'WP'
p2070
S'TO'
p2071
tp2072
F5.6078659666625721e-05
tp2073
a((S'JJ'
p2074
S'VBD'
p2075
tp2076
F5.3408247301548307e-05
tp2077
a((S'PRP'
p2078
S'WP'
p2079
tp2080
F5.3408247301548307e-05
tp2081
a((S'PRP$'
p2082
S'VBP'
p2083
tp2084
F5.3408247301548307e-05
tp2085
a((S'RP'
p2086
S'WRB'
p2087
tp2088
F5.3408247301548307e-05
tp2089
a((g1188
S'VB'
p2090
tp2091
F5.3408247301548307e-05
tp2092
a((S'WP'
p2093
S'JJ'
p2094
tp2095
F5.3408247301548307e-05
tp2096
a((S':'
S'VB'
p2097
tp2098
F5.0737834936470892e-05
tp2099
a((S'DT'
p2100
S'PRP$'
p2101
tp2102
F5.0737834936470892e-05
tp2103
a((S'JJ'
p2104
S'MD'
p2105
tp2106
F5.0737834936470892e-05
tp2107
a((g1192
S'CD'
p2108
tp2109
F5.0737834936470892e-05
tp2110
a((S'POS'
p2111
S'PRP'
p2112
tp2113
F5.0737834936470892e-05
tp2114
a((S'PRP'
p2115
S'RBR'
p2116
tp2117
F5.0737834936470892e-05
tp2118
a((S'RP'
p2119
g1619
tp2120
F5.0737834936470892e-05
tp2121
a((S'VBP'
p2122
S'JJS'
p2123
tp2124
F5.0737834936470892e-05
tp2125
a((S'VBP'
p2126
S'WDT'
p2127
tp2128
F5.0737834936470892e-05
tp2129
a((S':'
S'VBP'
p2130
tp2131
F4.8067422571393478e-05
tp2132
a((S'CC'
p2133
S'.'
tp2134
F4.8067422571393478e-05
tp2135
a((S'CD'
p2136
S'RB'
p2137
tp2138
F4.8067422571393478e-05
tp2139
a((S'FW'
p2140
S'NN'
p2141
tp2142
F4.8067422571393478e-05
tp2143
a((S'JJR'
p2144
S'JJ'
p2145
tp2146
F4.8067422571393478e-05
tp2147
a((S'JJS'
p2148
S'.'
tp2149
F4.8067422571393478e-05
tp2150
a((S'VBN'
p2151
S'JJR'
p2152
tp2153
F4.8067422571393478e-05
tp2154
a((g1916
S'VB'
p2155
tp2156
F4.8067422571393478e-05
tp2157
a((S'.'
S'RBS'
p2158
tp2159
F4.5397010206316057e-05
tp2160
a((S'CC'
p2161
S'SYM'
p2162
tp2163
F4.5397010206316057e-05
tp2164
a((S'DT'
p2165
S'WRB'
p2166
tp2167
F4.5397010206316057e-05
tp2168
a((S'FW'
p2169
S'MD'
p2170
tp2171
F4.5397010206316057e-05
tp2172
a((S'JJ'
p2173
S'PDT'
p2174
tp2175
F4.5397010206316057e-05
tp2176
a((S'TO'
p2177
S':'
tp2178
F4.5397010206316057e-05
tp2179
a((S'VBG'
p2180
S'VB'
p2181
tp2182
F4.5397010206316057e-05
tp2183
a((S'WRB'
p2184
S'VBD'
p2185
tp2186
F4.5397010206316057e-05
tp2187
a((S'EX'
p2188
S'RB'
p2189
tp2190
F4.2726597841238642e-05
tp2191
a((S'NNP'
p2192
S'FW'
p2193
tp2194
F4.2726597841238642e-05
tp2195
a((S'RB'
p2196
S'FW'
p2197
tp2198
F4.2726597841238642e-05
tp2199
a((S'RB'
p2200
S'PDT'
p2201
tp2202
F4.2726597841238642e-05
tp2203
a((S'RBR'
p2204
S'NN'
p2205
tp2206
F4.2726597841238642e-05
tp2207
a((S'TO'
p2208
S'JJR'
p2209
tp2210
F4.2726597841238642e-05
tp2211
a((S'VB'
p2212
S'MD'
p2213
tp2214
F4.2726597841238642e-05
tp2215
a((S'VBG'
p2216
S'WP'
p2217
tp2218
F4.2726597841238642e-05
tp2219
a((S':'
S'SYM'
p2220
tp2221
F4.0056185476161228e-05
tp2222
a((S'CC'
p2223
S'RP'
p2224
tp2225
F4.0056185476161228e-05
tp2226
a((S'JJ'
p2227
S"''"
p2228
tp2229
F4.0056185476161228e-05
tp2230
a((S'NNP'
p2231
S'JJR'
p2232
tp2233
F4.0056185476161228e-05
tp2234
a((S'NNPS'
p2235
S'MD'
p2236
tp2237
F4.0056185476161228e-05
tp2238
a((S'WP'
p2239
S'POS'
p2240
tp2241
F4.0056185476161228e-05
tp2242
a((S':'
S'CD'
p2243
tp2244
F3.7385773111083814e-05
tp2245
a((S':'
g2177
tp2246
F3.7385773111083814e-05
tp2247
a((S'CD'
p2248
S'TO'
p2249
tp2250
F3.7385773111083814e-05
tp2251
a((S'JJ'
p2252
S'WDT'
p2253
tp2254
F3.7385773111083814e-05
tp2255
a((S'JJS'
p2256
S'DT'
p2257
tp2258
F3.7385773111083814e-05
tp2259
a((S'MD'
p2260
S','
tp2261
F3.7385773111083814e-05
tp2262
a((g449
g671
tp2263
F3.7385773111083814e-05
tp2264
a((S'VB'
p2265
S'JJS'
p2266
tp2267
F3.7385773111083814e-05
tp2268
a((S'VBG'
p2269
g1124
tp2270
F3.7385773111083814e-05
tp2271
a((S'VBN'
p2272
S'CD'
p2273
tp2274
F3.7385773111083814e-05
tp2275
a((S'DT'
p2276
S'NNP'
p2277
tp2278
F3.47153607460064e-05
tp2279
a((S'DT'
p2280
g1107
tp2281
F3.47153607460064e-05
tp2282
a((S'NNP'
p2283
S'CD'
p2284
tp2285
F3.47153607460064e-05
tp2286
a((S'PRP$'
p2287
S'SYM'
p2288
tp2289
F3.47153607460064e-05
tp2290
a((S'RBR'
p2291
S'VBN'
p2292
tp2293
F3.47153607460064e-05
tp2294
a((g1930
g796
tp2295
F3.47153607460064e-05
tp2296
a((S'VBG'
p2297
S'CD'
p2298
tp2299
F3.47153607460064e-05
tp2300
a((S','
S'PDT'
p2301
tp2302
F3.2044948380928985e-05
tp2303
a((S','
S'RBR'
p2304
tp2305
F3.2044948380928985e-05
tp2306
a((S'DT'
p2307
S':'
tp2308
F3.2044948380928985e-05
tp2309
a((S'FW'
p2310
S'RB'
p2311
tp2312
F3.2044948380928985e-05
tp2313
a((S'JJ'
p2314
S'RBR'
p2315
tp2316
F3.2044948380928985e-05
tp2317
a((S'JJ'
p2318
S'WP'
p2319
tp2320
F3.2044948380928985e-05
tp2321
a((S'NN'
p2322
S'JJS'
p2323
tp2324
F3.2044948380928985e-05
tp2325
a((S'PRP$'
p2326
S'VB'
p2327
tp2328
F3.2044948380928985e-05
tp2329
a((S'RBR'
p2330
S'VBG'
p2331
tp2332
F3.2044948380928985e-05
tp2333
a((S'TO'
p2334
S'VBN'
p2335
tp2336
F3.2044948380928985e-05
tp2337
a((S'VB'
p2338
S'EX'
p2339
tp2340
F3.2044948380928985e-05
tp2341
a((S'CC'
p2342
g1434
tp2343
F2.9374536015851568e-05
tp2344
a((S'FW'
p2345
S"''"
p2346
tp2347
F2.9374536015851568e-05
tp2348
a((S'JJS'
p2349
S','
tp2350
F2.9374536015851568e-05
tp2351
a((S'JJS'
p2352
S'PRP'
p2353
tp2354
F2.9374536015851568e-05
tp2355
a((S'MD'
p2356
S'SYM'
p2357
tp2358
F2.9374536015851568e-05
tp2359
a((S'NNP'
p2360
S'VBN'
p2361
tp2362
F2.9374536015851568e-05
tp2363
a((g214
S'PDT'
p2364
tp2365
F2.9374536015851568e-05
tp2366
a((S'PRP'
p2367
S'WDT'
p2368
tp2369
F2.9374536015851568e-05
tp2370
a((S'PRP$'
p2371
S'PRP'
p2372
tp2373
F2.9374536015851568e-05
tp2374
a((S'RBR'
p2375
S'PRP'
p2376
tp2377
F2.9374536015851568e-05
tp2378
a((S'TO'
p2379
S'PDT'
p2380
tp2381
F2.9374536015851568e-05
tp2382
a((S'UH'
p2383
S'.'
tp2384
F2.9374536015851568e-05
tp2385
a((S'VBD'
p2386
S'WP'
p2387
tp2388
F2.9374536015851568e-05
tp2389
a((S'VBG'
p2390
S'VBP'
p2391
tp2392
F2.9374536015851568e-05
tp2393
a((S'VBP'
p2394
S'SYM'
p2395
tp2396
F2.9374536015851568e-05
tp2397
a((S'WRB'
p2398
S'VBN'
p2399
tp2400
F2.9374536015851568e-05
tp2401
a((S'DT'
p2402
S'RP'
p2403
tp2404
F2.6704123650774153e-05
tp2405
a((S'DT'
p2406
S'WDT'
p2407
tp2408
F2.6704123650774153e-05
tp2409
a((S'JJ'
p2410
S'JJS'
p2411
tp2412
F2.6704123650774153e-05
tp2413
a((g866
S'JJ'
p2414
tp2415
F2.6704123650774153e-05
tp2416
a((S'JJS'
p2417
S'RB'
p2418
tp2419
F2.6704123650774153e-05
tp2420
a((S'MD'
p2421
S'RBS'
p2422
tp2423
F2.6704123650774153e-05
tp2424
a((S'MD'
p2425
S'VBD'
p2426
tp2427
F2.6704123650774153e-05
tp2428
a((S'NN'
p2429
S'SYM'
p2430
tp2431
F2.6704123650774153e-05
tp2432
a((S'NNP'
p2433
S'EX'
p2434
tp2435
F2.6704123650774153e-05
tp2436
a((S'PRP'
p2437
S'CD'
p2438
tp2439
F2.6704123650774153e-05
tp2440
a((S'PRP$'
p2441
S'CC'
p2442
tp2443
F2.6704123650774153e-05
tp2444
a((g1692
S'TO'
p2445
tp2446
F2.6704123650774153e-05
tp2447
a((S'TO'
p2448
S'VBD'
p2449
tp2450
F2.6704123650774153e-05
tp2451
a((S'UH'
p2452
S'PRP'
p2453
tp2454
F2.6704123650774153e-05
tp2455
a((S'WP'
p2456
S"''"
p2457
tp2458
F2.6704123650774153e-05
tp2459
a((S'WRB'
p2460
S','
tp2461
F2.6704123650774153e-05
tp2462
a((S'WRB'
p2463
S'CC'
p2464
tp2465
F2.6704123650774153e-05
tp2466
a((S'CD'
p2467
S':'
tp2468
F2.4033711285696739e-05
tp2469
a((S'FW'
p2470
S'VBN'
p2471
tp2472
F2.4033711285696739e-05
tp2473
a((S'JJ'
p2474
S'RP'
p2475
tp2476
F2.4033711285696739e-05
tp2477
a((S'JJR'
p2478
S'RP'
p2479
tp2480
F2.4033711285696739e-05
tp2481
a((g1451
S'PRP$'
p2482
tp2483
F2.4033711285696739e-05
tp2484
a((S'NNPS'
p2485
S'VBD'
p2486
tp2487
F2.4033711285696739e-05
tp2488
a((S'NNS'
p2489
S'JJS'
p2490
tp2491
F2.4033711285696739e-05
tp2492
a((S'RP'
p2493
S':'
tp2494
F2.4033711285696739e-05
tp2495
a((S'SYM'
p2496
S'RB'
p2497
tp2498
F2.4033711285696739e-05
tp2499
a((S'TO'
p2500
S'VBP'
p2501
tp2502
F2.4033711285696739e-05
tp2503
a((S'TO'
p2504
g229
tp2505
F2.4033711285696739e-05
tp2506
a((S'UH'
p2507
S'NNS'
p2508
tp2509
F2.4033711285696739e-05
tp2510
a((S'VBD'
p2511
S'VBZ'
p2512
tp2513
F2.4033711285696739e-05
tp2514
a((S'VBG'
p2515
S'WDT'
p2516
tp2517
F2.4033711285696739e-05
tp2518
a((S'VBP'
p2519
S'MD'
p2520
tp2521
F2.4033711285696739e-05
tp2522
a((S'VBP'
p2523
S'RBS'
p2524
tp2525
F2.4033711285696739e-05
tp2526
a((S'VBZ'
p2527
S'JJS'
p2528
tp2529
F2.4033711285696739e-05
tp2530
a((S"''"
p2531
S'VB'
p2532
tp2533
F2.1363298920619321e-05
tp2534
a((S','
S'UH'
p2535
tp2536
F2.1363298920619321e-05
tp2537
a((S'.'
S'RBR'
p2538
tp2539
F2.1363298920619321e-05
tp2540
a((S'CD'
p2541
S'JJR'
p2542
tp2543
F2.1363298920619321e-05
tp2544
a((S'IN'
p2545
S'RBR'
p2546
tp2547
F2.1363298920619321e-05
tp2548
a((S'JJR'
p2549
S'DT'
p2550
tp2551
F2.1363298920619321e-05
tp2552
a((g1870
S'CC'
p2553
tp2554
F2.1363298920619321e-05
tp2555
a((S'JJS'
p2556
S'VBP'
p2557
tp2558
F2.1363298920619321e-05
tp2559
a((S'MD'
p2560
S'TO'
p2561
tp2562
F2.1363298920619321e-05
tp2563
a((S'MD'
p2564
S'VBZ'
p2565
tp2566
F2.1363298920619321e-05
tp2567
a((S'NNPS'
p2568
S'NNS'
p2569
tp2570
F2.1363298920619321e-05
tp2571
a((S'NNPS'
p2572
S'VBZ'
p2573
tp2574
F2.1363298920619321e-05
tp2575
a((S'NNS'
p2576
S'CD'
p2577
tp2578
F2.1363298920619321e-05
tp2579
a((S'PRP$'
p2580
S'JJR'
p2581
tp2582
F2.1363298920619321e-05
tp2583
a((S'PRP$'
p2584
S'TO'
p2585
tp2586
F2.1363298920619321e-05
tp2587
a((g1603
S'DT'
p2588
tp2589
F2.1363298920619321e-05
tp2590
a((S'SYM'
p2591
S'IN'
p2592
tp2593
F2.1363298920619321e-05
tp2594
a((S'SYM'
p2595
S'VB'
p2596
tp2597
F2.1363298920619321e-05
tp2598
a((S'TO'
p2599
S'SYM'
p2600
tp2601
F2.1363298920619321e-05
tp2602
a((S'VB'
p2603
S'SYM'
p2604
tp2605
F2.1363298920619321e-05
tp2606
a((S'VBD'
p2607
S'PDT'
p2608
tp2609
F2.1363298920619321e-05
tp2610
a((S'VBZ'
p2611
S'WDT'
p2612
tp2613
F2.1363298920619321e-05
tp2614
a((S'WP'
p2615
S'.'
tp2616
F2.1363298920619321e-05
tp2617
a((S'CD'
p2618
S'VBZ'
p2619
tp2620
F1.8692886555541907e-05
tp2621
a((S'EX'
p2622
S'IN'
p2623
tp2624
F1.8692886555541907e-05
tp2625
a((S'JJ'
p2626
S'RBS'
p2627
tp2628
F1.8692886555541907e-05
tp2629
a((S'JJR'
p2630
S'PRP$'
p2631
tp2632
F1.8692886555541907e-05
tp2633
a((S'NNS'
p2634
S'EX'
p2635
tp2636
F1.8692886555541907e-05
tp2637
a((S'RB'
p2638
S"''"
p2639
tp2640
F1.8692886555541907e-05
tp2641
a((S'RB'
p2642
S'SYM'
p2643
tp2644
F1.8692886555541907e-05
tp2645
a((S'VB'
p2646
S'UH'
p2647
tp2648
F1.8692886555541907e-05
tp2649
a((S'VBG'
p2650
S'MD'
p2651
tp2652
F1.8692886555541907e-05
tp2653
a((S'VBN'
p2654
S'VB'
p2655
tp2656
F1.8692886555541907e-05
tp2657
a((S'VBZ'
p2658
g1038
tp2659
F1.8692886555541907e-05
tp2660
a((S'WDT'
p2661
S'EX'
p2662
tp2663
F1.8692886555541907e-05
tp2664
a((S'WP'
p2665
S'FW'
p2666
tp2667
F1.8692886555541907e-05
tp2668
a((S'WP'
p2669
S'VBN'
p2670
tp2671
F1.8692886555541907e-05
tp2672
a((S','
S'SYM'
p2673
tp2674
F1.6022474190464493e-05
tp2675
a((S':'
S'PRP$'
p2676
tp2677
F1.6022474190464493e-05
tp2678
a((S':'
S'VBZ'
p2679
tp2680
F1.6022474190464493e-05
tp2681
a((S'CC'
p2682
S'NNP'
p2683
tp2684
F1.6022474190464493e-05
tp2685
a((S'CD'
p2686
S'VBP'
p2687
tp2688
F1.6022474190464493e-05
tp2689
a((S'DT'
p2690
S"''"
p2691
tp2692
F1.6022474190464493e-05
tp2693
a((S'EX'
p2694
S'VBG'
p2695
tp2696
F1.6022474190464493e-05
tp2697
a((S'FW'
p2698
S','
tp2699
F1.6022474190464493e-05
tp2700
a((S'IN'
p2701
S'POS'
p2702
tp2703
F1.6022474190464493e-05
tp2704
a((S'IN'
p2705
S'RP'
p2706
tp2707
F1.6022474190464493e-05
tp2708
a((S'JJ'
p2709
S'EX'
p2710
tp2711
F1.6022474190464493e-05
tp2712
a((S'JJ'
p2713
S'NNP'
p2714
tp2715
F1.6022474190464493e-05
tp2716
a((g1221
g1068
tp2717
F1.6022474190464493e-05
tp2718
a((S'JJR'
p2719
S'VBZ'
p2720
tp2721
F1.6022474190464493e-05
tp2722
a((S'NNP'
p2723
S'NNPS'
p2724
tp2725
F1.6022474190464493e-05
tp2726
a((S'NNS'
p2727
S'FW'
p2728
tp2729
F1.6022474190464493e-05
tp2730
a((S'PRP'
p2731
S'JJS'
p2732
tp2733
F1.6022474190464493e-05
tp2734
a((S'RB'
p2735
S'RP'
p2736
tp2737
F1.6022474190464493e-05
tp2738
a((S'UH'
p2739
S'IN'
p2740
tp2741
F1.6022474190464493e-05
tp2742
a((S'UH'
p2743
S'NN'
p2744
tp2745
F1.6022474190464493e-05
tp2746
a((S'VBD'
p2747
g2383
tp2748
F1.6022474190464493e-05
tp2749
a((S'VBD'
p2750
S'VBP'
p2751
tp2752
F1.6022474190464493e-05
tp2753
a((S'VBG'
p2754
S'SYM'
p2755
tp2756
F1.6022474190464493e-05
tp2757
a((S'VBN'
p2758
S'PDT'
p2759
tp2760
F1.6022474190464493e-05
tp2761
a((S'VBZ'
p2762
S'SYM'
p2763
tp2764
F1.6022474190464493e-05
tp2765
a((S'WDT'
p2766
S"''"
p2767
tp2768
F1.6022474190464493e-05
tp2769
a((S'WDT'
p2770
S'PRP$'
p2771
tp2772
F1.6022474190464493e-05
tp2773
a((S'WRB'
p2774
S'JJR'
p2775
tp2776
F1.6022474190464493e-05
tp2777
a((S'CD'
p2778
S'VB'
p2779
tp2780
F1.3352061825387077e-05
tp2781
a((S'DT'
p2782
S'FW'
p2783
tp2784
F1.3352061825387077e-05
tp2785
a((S'FW'
p2786
S'NNS'
p2787
tp2788
F1.3352061825387077e-05
tp2789
a((S'JJR'
p2790
S'CD'
p2791
tp2792
F1.3352061825387077e-05
tp2793
a((S'JJR'
p2794
S'WRB'
p2795
tp2796
F1.3352061825387077e-05
tp2797
a((S'NNPS'
p2798
S'CC'
p2799
tp2800
F1.3352061825387077e-05
tp2801
a((S'NNPS'
p2802
S'IN'
p2803
tp2804
F1.3352061825387077e-05
tp2805
a((S'NNPS'
p2806
S'RB'
p2807
tp2808
F1.3352061825387077e-05
tp2809
a((S'PRP'
p2810
S':'
tp2811
F1.3352061825387077e-05
tp2812
a((S'PRP$'
p2813
S'RBR'
p2814
tp2815
F1.3352061825387077e-05
tp2816
a((S'PRP$'
p2817
S'VBD'
p2818
tp2819
F1.3352061825387077e-05
tp2820
a((S'RB'
p2821
g1586
tp2822
F1.3352061825387077e-05
tp2823
a((g1155
S'MD'
p2824
tp2825
F1.3352061825387077e-05
tp2826
a((g2116
S'VB'
p2827
tp2828
F1.3352061825387077e-05
tp2829
a((g2315
S'WRB'
p2830
tp2831
F1.3352061825387077e-05
tp2832
a((S'RBS'
p2833
S'.'
tp2834
F1.3352061825387077e-05
tp2835
a((S'RBS'
p2836
S'IN'
p2837
tp2838
F1.3352061825387077e-05
tp2839
a((S'RP'
p2840
S'PDT'
p2841
tp2842
F1.3352061825387077e-05
tp2843
a((S'RP'
p2844
S'VBZ'
p2845
tp2846
F1.3352061825387077e-05
tp2847
a((S'SYM'
p2848
g2723
tp2849
F1.3352061825387077e-05
tp2850
a((S'SYM'
p2851
S'VBP'
p2852
tp2853
F1.3352061825387077e-05
tp2854
a((S'TO'
p2855
S'MD'
p2856
tp2857
F1.3352061825387077e-05
tp2858
a((S'TO'
p2859
S'RBR'
p2860
tp2861
F1.3352061825387077e-05
tp2862
a((S'VBD'
p2863
S'EX'
p2864
tp2865
F1.3352061825387077e-05
tp2866
a((S'VBD'
p2867
S'JJS'
p2868
tp2869
F1.3352061825387077e-05
tp2870
a((S'VBN'
p2871
S':'
tp2872
F1.3352061825387077e-05
tp2873
a((S'VBN'
p2874
S'VBD'
p2875
tp2876
F1.3352061825387077e-05
tp2877
a((S'VBP'
p2878
S':'
tp2879
F1.3352061825387077e-05
tp2880
a((S'VBP'
p2881
S'FW'
p2882
tp2883
F1.3352061825387077e-05
tp2884
a((S'VBZ'
p2885
S'RBS'
p2886
tp2887
F1.3352061825387077e-05
tp2888
a((S'WDT'
p2889
S'POS'
p2890
tp2891
F1.3352061825387077e-05
tp2892
a((g2228
S'RB'
p2893
tp2894
F1.0681649460309661e-05
tp2895
a((S'CD'
p2896
S"''"
p2897
tp2898
F1.0681649460309661e-05
tp2899
a((S'CD'
p2900
S'VBD'
p2901
tp2902
F1.0681649460309661e-05
tp2903
a((S'CD'
p2904
S'VBG'
p2905
tp2906
F1.0681649460309661e-05
tp2907
a((S'DT'
p2908
S'POS'
p2909
tp2910
F1.0681649460309661e-05
tp2911
a((S'FW'
p2912
S'JJ'
p2913
tp2914
F1.0681649460309661e-05
tp2915
a((S'JJ'
p2916
S'FW'
p2917
tp2918
F1.0681649460309661e-05
tp2919
a((S'JJ'
p2920
S'UH'
p2921
tp2922
F1.0681649460309661e-05
tp2923
a((S'JJR'
p2924
S'VBG'
p2925
tp2926
F1.0681649460309661e-05
tp2927
a((S'JJR'
p2928
S'VBP'
p2929
tp2930
F1.0681649460309661e-05
tp2931
a((S'JJS'
p2932
S'VB'
p2933
tp2934
F1.0681649460309661e-05
tp2935
a((S'MD'
p2936
S'VBG'
p2937
tp2938
F1.0681649460309661e-05
tp2939
a((S'MD'
p2940
S'VBN'
p2941
tp2942
F1.0681649460309661e-05
tp2943
a((S'NNP'
p2944
S'RBR'
p2945
tp2946
F1.0681649460309661e-05
tp2947
a((S'PRP'
p2948
S'SYM'
p2949
tp2950
F1.0681649460309661e-05
tp2951
a((S'PRP$'
p2952
S','
tp2953
F1.0681649460309661e-05
tp2954
a((S'RBR'
p2955
S'VBP'
p2956
tp2957
F1.0681649460309661e-05
tp2958
a((S'RBS'
p2959
S'VBN'
p2960
tp2961
F1.0681649460309661e-05
tp2962
a((S'UH'
p2963
S'PRP$'
p2964
tp2965
F1.0681649460309661e-05
tp2966
a((S'UH'
p2967
S'TO'
p2968
tp2969
F1.0681649460309661e-05
tp2970
a((S'VBN'
p2971
S'VBP'
p2972
tp2973
F1.0681649460309661e-05
tp2974
a((S'VBN'
p2975
S'WDT'
p2976
tp2977
F1.0681649460309661e-05
tp2978
a((S'VBZ'
p2979
S':'
tp2980
F1.0681649460309661e-05
tp2981
a((S'WDT'
p2982
S','
tp2983
F1.0681649460309661e-05
tp2984
a((S'WDT'
p2985
S'DT'
p2986
tp2987
F1.0681649460309661e-05
tp2988
a((S'WRB'
p2989
S'PDT'
p2990
tp2991
F1.0681649460309661e-05
tp2992
a((S'$'
S'CC'
p2993
tp2994
F8.0112370952322463e-06
tp2995
a((S"''"
p2996
S'SYM'
p2997
tp2998
F8.0112370952322463e-06
tp2999
a((S'.'
S'SYM'
p3000
tp3001
F8.0112370952322463e-06
tp3002
a((S':'
S'MD'
p3003
tp3004
F8.0112370952322463e-06
tp3005
a((S':'
S'WDT'
p3006
tp3007
F8.0112370952322463e-06
tp3008
a((S'CC'
p3009
g2967
tp3010
F8.0112370952322463e-06
tp3011
a((S'CD'
p3012
S'MD'
p3013
tp3014
F8.0112370952322463e-06
tp3015
a((S'CD'
p3016
S'PRP$'
p3017
tp3018
F8.0112370952322463e-06
tp3019
a((S'CD'
p3020
S'WDT'
p3021
tp3022
F8.0112370952322463e-06
tp3023
a((S'CD'
p3024
S'WRB'
p3025
tp3026
F8.0112370952322463e-06
tp3027
a((g1566
S'PRP'
p3028
tp3029
F8.0112370952322463e-06
tp3030
a((S'FW'
p3031
S'PRP$'
p3032
tp3033
F8.0112370952322463e-06
tp3034
a((S'JJS'
p3035
S':'
tp3036
F8.0112370952322463e-06
tp3037
a((S'JJS'
p3038
S'TO'
p3039
tp3040
F8.0112370952322463e-06
tp3041
a((S'JJS'
p3042
S'VBG'
p3043
tp3044
F8.0112370952322463e-06
tp3045
a((S'NNP'
p3046
S'$'
tp3047
F8.0112370952322463e-06
tp3048
a((S'NNP'
p3049
g2848
tp3050
F8.0112370952322463e-06
tp3051
a((S'NNPS'
p3052
S','
tp3053
F8.0112370952322463e-06
tp3054
a((S'NNPS'
p3055
S'WP'
p3056
tp3057
F8.0112370952322463e-06
tp3058
a((S'NNS'
p3059
S'NNP'
p3060
tp3061
F8.0112370952322463e-06
tp3062
a((S'NNS'
p3063
S'RBS'
p3064
tp3065
F8.0112370952322463e-06
tp3066
a((S'POS'
p3067
S'CC'
p3068
tp3069
F8.0112370952322463e-06
tp3070
a((S'POS'
p3071
S'VBP'
p3072
tp3073
F8.0112370952322463e-06
tp3074
a((S'PRP'
p3075
S'EX'
p3076
tp3077
F8.0112370952322463e-06
tp3078
a((S'PRP'
p3079
S'RBS'
p3080
tp3081
F8.0112370952322463e-06
tp3082
a((S'PRP$'
p3083
S"''"
p3084
tp3085
F8.0112370952322463e-06
tp3086
a((S'PRP$'
p3087
g803
tp3088
F8.0112370952322463e-06
tp3089
a((S'PRP$'
p3090
S'RP'
p3091
tp3092
F8.0112370952322463e-06
tp3093
a((S'PRP$'
p3094
S'WRB'
p3095
tp3096
F8.0112370952322463e-06
tp3097
a((S'RP'
p3098
S'JJR'
p3099
tp3100
F8.0112370952322463e-06
tp3101
a((S'RP'
p3102
S'RBR'
p3103
tp3104
F8.0112370952322463e-06
tp3105
a((S'TO'
p3106
S"''"
p3107
tp3108
F8.0112370952322463e-06
tp3109
a((S'UH'
p3110
S'RB'
p3111
tp3112
F8.0112370952322463e-06
tp3113
a((S'VB'
p3114
S'FW'
p3115
tp3116
F8.0112370952322463e-06
tp3117
a((S'VBD'
p3118
S"''"
p3119
tp3120
F8.0112370952322463e-06
tp3121
a((S'VBD'
p3122
S'MD'
p3123
tp3124
F8.0112370952322463e-06
tp3125
a((S'VBG'
p3126
S'EX'
p3127
tp3128
F8.0112370952322463e-06
tp3129
a((S'VBN'
p3130
S'EX'
p3131
tp3132
F8.0112370952322463e-06
tp3133
a((S'VBN'
p3134
S'POS'
p3135
tp3136
F8.0112370952322463e-06
tp3137
a((S'VBN'
p3138
S'WP'
p3139
tp3140
F8.0112370952322463e-06
tp3141
a((S'VBP'
p3142
S"''"
p3143
tp3144
F8.0112370952322463e-06
tp3145
a((S'VBZ'
p3146
S'NNP'
p3147
tp3148
F8.0112370952322463e-06
tp3149
a((S'WDT'
p3150
S'.'
tp3151
F8.0112370952322463e-06
tp3152
a((S'WP'
p3153
S'CC'
p3154
tp3155
F8.0112370952322463e-06
tp3156
a((S'WRB'
p3157
S'JJS'
p3158
tp3159
F8.0112370952322463e-06
tp3160
a((S"''"
p3161
S'CC'
p3162
tp3163
F5.3408247301548303e-06
tp3164
a((S"''"
p3165
S'IN'
p3166
tp3167
F5.3408247301548303e-06
tp3168
a((S','
g3161
tp3169
F5.3408247301548303e-06
tp3170
a((S','
g3052
tp3171
F5.3408247301548303e-06
tp3172
a((S','
S'RBS'
p3173
tp3174
F5.3408247301548303e-06
tp3175
a((S':'
S'PDT'
p3176
tp3177
F5.3408247301548303e-06
tp3178
a((S':'
S'VBD'
p3179
tp3180
F5.3408247301548303e-06
tp3181
a((S':'
S'WP'
p3182
tp3183
F5.3408247301548303e-06
tp3184
a((S':'
S'WRB'
p3185
tp3186
F5.3408247301548303e-06
tp3187
a((S'CC'
p3188
S'NNPS'
p3189
tp3190
F5.3408247301548303e-06
tp3191
a((S'CD'
p3192
S'WP'
p3193
tp3194
F5.3408247301548303e-06
tp3195
a((S'DT'
p3196
S'NNPS'
p3197
tp3198
F5.3408247301548303e-06
tp3199
a((S'EX'
p3200
S','
tp3201
F5.3408247301548303e-06
tp3202
a((S'EX'
p3203
S'WP'
p3204
tp3205
F5.3408247301548303e-06
tp3206
a((S'FW'
p3207
S'IN'
p3208
tp3209
F5.3408247301548303e-06
tp3210
a((S'FW'
p3211
S'PRP'
p3212
tp3213
F5.3408247301548303e-06
tp3214
a((S'IN'
p3215
S'RBS'
p3216
tp3217
F5.3408247301548303e-06
tp3218
a((S'JJR'
p3219
S'RBR'
p3220
tp3221
F5.3408247301548303e-06
tp3222
a((S'JJR'
p3223
S'VBN'
p3224
tp3225
F5.3408247301548303e-06
tp3226
a((S'JJS'
p3227
S'MD'
p3228
tp3229
F5.3408247301548303e-06
tp3230
a((S'JJS'
p3231
S'VBD'
p3232
tp3233
F5.3408247301548303e-06
tp3234
a((S'LS'
p3235
S':'
tp3236
F5.3408247301548303e-06
tp3237
a((S'LS'
p3238
S'JJ'
p3239
tp3240
F5.3408247301548303e-06
tp3241
a((S'MD'
p3242
S'JJR'
p3243
tp3244
F5.3408247301548303e-06
tp3245
a((S'MD'
p3246
g3038
tp3247
F5.3408247301548303e-06
tp3248
a((S'MD'
p3249
S'RBR'
p3250
tp3251
F5.3408247301548303e-06
tp3252
a((S'MD'
p3253
S'WRB'
p3254
tp3255
F5.3408247301548303e-06
tp3256
a((S'NN'
p3257
S'NNP'
p3258
tp3259
F5.3408247301548303e-06
tp3260
a((S'NN'
p3261
S'RBS'
p3262
tp3263
F5.3408247301548303e-06
tp3264
a((S'NNP'
p3265
S'JJS'
p3266
tp3267
F5.3408247301548303e-06
tp3268
a((S'NNPS'
p3269
S'JJ'
p3270
tp3271
F5.3408247301548303e-06
tp3272
a((S'NNS'
p3273
S"''"
p3274
tp3275
F5.3408247301548303e-06
tp3276
a((S'NNS'
p3277
S'NNPS'
p3278
tp3279
F5.3408247301548303e-06
tp3280
a((S'NNS'
p3281
S'SYM'
p3282
tp3283
F5.3408247301548303e-06
tp3284
a((S'NNS'
p3285
S'WP$'
p3286
tp3287
F5.3408247301548303e-06
tp3288
a((S'POS'
p3289
g2778
tp3290
F5.3408247301548303e-06
tp3291
a((S'POS'
p3292
S'IN'
p3293
tp3294
F5.3408247301548303e-06
tp3295
a((S'POS'
p3296
S'NNP'
p3297
tp3298
F5.3408247301548303e-06
tp3299
a((S'POS'
p3300
S'RB'
p3301
tp3302
F5.3408247301548303e-06
tp3303
a((g2909
S'TO'
p3304
tp3305
F5.3408247301548303e-06
tp3306
a((S'PRP'
p3307
S'FW'
p3308
tp3309
F5.3408247301548303e-06
tp3310
a((S'PRP'
p3311
S'NNP'
p3312
tp3313
F5.3408247301548303e-06
tp3314
a((S'RB'
p3315
S'POS'
p3316
tp3317
F5.3408247301548303e-06
tp3318
a((S'RBR'
p3319
S'JJR'
p3320
tp3321
F5.3408247301548303e-06
tp3322
a((S'RBR'
p3323
S'NNS'
p3324
tp3325
F5.3408247301548303e-06
tp3326
a((S'RBR'
p3327
S'VBD'
p3328
tp3329
F5.3408247301548303e-06
tp3330
a((S'RBS'
p3331
S'PRP'
p3332
tp3333
F5.3408247301548303e-06
tp3334
a((S'RBS'
p3335
S'TO'
p3336
tp3337
F5.3408247301548303e-06
tp3338
a((S'RP'
p3339
S'CD'
p3340
tp3341
F5.3408247301548303e-06
tp3342
a((S'RP'
p3343
S'VBP'
p3344
tp3345
F5.3408247301548303e-06
tp3346
a((S'TO'
p3347
S'EX'
p3348
tp3349
F5.3408247301548303e-06
tp3350
a((S'TO'
p3351
g2912
tp3352
F5.3408247301548303e-06
tp3353
a((S'TO'
p3354
S'JJS'
p3355
tp3356
F5.3408247301548303e-06
tp3357
a((S'TO'
p3358
S'RP'
p3359
tp3360
F5.3408247301548303e-06
tp3361
a((S'TO'
p3362
S'WDT'
p3363
tp3364
F5.3408247301548303e-06
tp3365
a((S'VB'
p3366
S'RBS'
p3367
tp3368
F5.3408247301548303e-06
tp3369
a((S'VBD'
p3370
S'FW'
p3371
tp3372
F5.3408247301548303e-06
tp3373
a((S'VBD'
p3374
S'WDT'
p3375
tp3376
F5.3408247301548303e-06
tp3377
a((S'VBG'
p3378
S'FW'
p3379
tp3380
F5.3408247301548303e-06
tp3381
a((S'VBG'
p3382
S'UH'
p3383
tp3384
F5.3408247301548303e-06
tp3385
a((S'VBN'
p3386
S'JJS'
p3387
tp3388
F5.3408247301548303e-06
tp3389
a((S'VBN'
p3390
S'MD'
p3391
tp3392
F5.3408247301548303e-06
tp3393
a((S'VBP'
p3394
S'POS'
p3395
tp3396
F5.3408247301548303e-06
tp3397
a((S'VBZ'
p3398
g3165
tp3399
F5.3408247301548303e-06
tp3400
a((S'VBZ'
p3401
S'EX'
p3402
tp3403
F5.3408247301548303e-06
tp3404
a((S'WDT'
p3405
S'FW'
p3406
tp3407
F5.3408247301548303e-06
tp3408
a((S'WDT'
p3409
S'JJS'
p3410
tp3411
F5.3408247301548303e-06
tp3412
a((S'WDT'
p3413
S'TO'
p3414
tp3415
F5.3408247301548303e-06
tp3416
a((S'WP'
p3417
S','
tp3418
F5.3408247301548303e-06
tp3419
a((S'WP'
p3420
S'JJR'
p3421
tp3422
F5.3408247301548303e-06
tp3423
a((S'WP'
p3424
S'WRB'
p3425
tp3426
F5.3408247301548303e-06
tp3427
a((g3286
S'NN'
p3428
tp3429
F5.3408247301548303e-06
tp3430
a((S'WRB'
p3431
S'WDT'
p3432
tp3433
F5.3408247301548303e-06
tp3434
a((S'#'
S'IN'
p3435
tp3436
F2.6704123650774152e-06
tp3437
a((S'$'
S'IN'
p3438
tp3439
F2.6704123650774152e-06
tp3440
a((S'$'
S'RB'
p3441
tp3442
F2.6704123650774152e-06
tp3443
a((S"''"
p3444
S'DT'
p3445
tp3446
F2.6704123650774152e-06
tp3447
a((S"''"
p3448
S'TO'
p3449
tp3450
F2.6704123650774152e-06
tp3451
a((S"''"
p3452
S'VBG'
p3453
tp3454
F2.6704123650774152e-06
tp3455
a((S','
S'.'
tp3456
F2.6704123650774152e-06
tp3457
a((S','
S'LS'
p3458
tp3459
F2.6704123650774152e-06
tp3460
a((S'.'
g3235
tp3461
F2.6704123650774152e-06
tp3462
a((S'.'
S'RP'
p3463
tp3464
F2.6704123650774152e-06
tp3465
a((S':'
S'EX'
p3466
tp3467
F2.6704123650774152e-06
tp3468
a((S':'
S'FW'
p3469
tp3470
F2.6704123650774152e-06
tp3471
a((S':'
S'JJR'
p3472
tp3473
F2.6704123650774152e-06
tp3474
a((S':'
S'NNP'
p3475
tp3476
F2.6704123650774152e-06
tp3477
a((S':'
S'UH'
p3478
tp3479
F2.6704123650774152e-06
tp3480
a((S'CC'
p3481
S':'
tp3482
F2.6704123650774152e-06
tp3483
a((S'CC'
p3484
S'LS'
p3485
tp3486
F2.6704123650774152e-06
tp3487
a((S'CC'
p3488
S'POS'
p3489
tp3490
F2.6704123650774152e-06
tp3491
a((S'CD'
p3492
S'$'
tp3493
F2.6704123650774152e-06
tp3494
a((S'CD'
p3495
S'FW'
p3496
tp3497
F2.6704123650774152e-06
tp3498
a((S'CD'
p3499
S'JJS'
p3500
tp3501
F2.6704123650774152e-06
tp3502
a((S'CD'
p3503
S'RBR'
p3504
tp3505
F2.6704123650774152e-06
tp3506
a((S'CD'
p3507
S'SYM'
p3508
tp3509
F2.6704123650774152e-06
tp3510
a((S'CD'
p3511
S'VBN'
p3512
tp3513
F2.6704123650774152e-06
tp3514
a((S'DT'
p3515
S'#'
tp3516
F2.6704123650774152e-06
tp3517
a((S'DT'
p3518
S'EX'
p3519
tp3520
F2.6704123650774152e-06
tp3521
a((S'DT'
p3522
S'WP$'
p3523
tp3524
F2.6704123650774152e-06
tp3525
a((S'EX'
p3526
S'.'
tp3527
F2.6704123650774152e-06
tp3528
a((S'EX'
p3529
S'CD'
p3530
tp3531
F2.6704123650774152e-06
tp3532
a((S'EX'
p3533
S'DT'
p3534
tp3535
F2.6704123650774152e-06
tp3536
a((S'EX'
p3537
S'JJR'
p3538
tp3539
F2.6704123650774152e-06
tp3540
a((S'EX'
p3541
S'SYM'
p3542
tp3543
F2.6704123650774152e-06
tp3544
a((S'EX'
p3545
S'VB'
p3546
tp3547
F2.6704123650774152e-06
tp3548
a((g1999
g1255
tp3549
F2.6704123650774152e-06
tp3550
a((S'FW'
p3551
S':'
tp3552
F2.6704123650774152e-06
tp3553
a((S'FW'
p3554
S'DT'
p3555
tp3556
F2.6704123650774152e-06
tp3557
a((g2197
S'POS'
p3558
tp3559
F2.6704123650774152e-06
tp3560
a((g3308
g1292
tp3561
F2.6704123650774152e-06
tp3562
a((g3496
S'VBZ'
p3563
tp3564
F2.6704123650774152e-06
tp3565
a((S'IN'
p3566
S'UH'
p3567
tp3568
F2.6704123650774152e-06
tp3569
a((S'JJ'
p3570
S'$'
tp3571
F2.6704123650774152e-06
tp3572
a((S'JJ'
p3573
S'NNPS'
p3574
tp3575
F2.6704123650774152e-06
tp3576
a((S'JJR'
p3577
S':'
tp3578
F2.6704123650774152e-06
tp3579
a((S'JJR'
p3580
S'FW'
p3581
tp3582
F2.6704123650774152e-06
tp3583
a((S'JJR'
p3584
S'JJS'
p3585
tp3586
F2.6704123650774152e-06
tp3587
a((S'JJR'
p3588
S'VB'
p3589
tp3590
F2.6704123650774152e-06
tp3591
a((S'JJR'
p3592
S'WDT'
p3593
tp3594
F2.6704123650774152e-06
tp3595
a((S'JJR'
p3596
S'WP'
p3597
tp3598
F2.6704123650774152e-06
tp3599
a((S'JJS'
p3600
S'PDT'
p3601
tp3602
F2.6704123650774152e-06
tp3603
a((S'JJS'
p3604
S'PRP$'
p3605
tp3606
F2.6704123650774152e-06
tp3607
a((S'JJS'
p3608
S'VBZ'
p3609
tp3610
F2.6704123650774152e-06
tp3611
a((S'JJS'
p3612
S'WRB'
p3613
tp3614
F2.6704123650774152e-06
tp3615
a((g3485
S'CC'
p3616
tp3617
F2.6704123650774152e-06
tp3618
a((S'MD'
p3619
S'FW'
p3620
tp3621
F2.6704123650774152e-06
tp3622
a((S'NN'
p3623
S'UH'
p3624
tp3625
F2.6704123650774152e-06
tp3626
a((S'NNP'
p3627
S'UH'
p3628
tp3629
F2.6704123650774152e-06
tp3630
a((g2724
S':'
tp3631
F2.6704123650774152e-06
tp3632
a((S'NNPS'
p3633
S'VB'
p3634
tp3635
F2.6704123650774152e-06
tp3636
a((S'POS'
p3637
g3238
tp3638
F2.6704123650774152e-06
tp3639
a((S'POS'
p3640
g3110
tp3641
F2.6704123650774152e-06
tp3642
a((S'PRP$'
p3643
S'MD'
p3644
tp3645
F2.6704123650774152e-06
tp3646
a((S'PRP$'
p3647
S'NNPS'
p3648
tp3649
F2.6704123650774152e-06
tp3650
a((S'PRP$'
p3651
S'RBS'
p3652
tp3653
F2.6704123650774152e-06
tp3654
a((S'PRP$'
p3655
S'WP'
p3656
tp3657
F2.6704123650774152e-06
tp3658
a((S'RB'
p3659
S'LS'
p3660
tp3661
F2.6704123650774152e-06
tp3662
a((S'RBR'
p3663
S'RP'
p3664
tp3665
F2.6704123650774152e-06
tp3666
a((S'RBR'
p3667
S'VBZ'
p3668
tp3669
F2.6704123650774152e-06
tp3670
a((S'RBR'
p3671
S'WDT'
p3672
tp3673
F2.6704123650774152e-06
tp3674
a((S'RBS'
p3675
S'DT'
p3676
tp3677
F2.6704123650774152e-06
tp3678
a((S'RBS'
p3679
S'JJS'
p3680
tp3681
F2.6704123650774152e-06
tp3682
a((S'RBS'
p3683
S'VB'
p3684
tp3685
F2.6704123650774152e-06
tp3686
a((S'RBS'
p3687
S'VBP'
p3688
tp3689
F2.6704123650774152e-06
tp3690
a((S'RBS'
p3691
S'WDT'
p3692
tp3693
F2.6704123650774152e-06
tp3694
a((S'RP'
p3695
S"''"
p3696
tp3697
F2.6704123650774152e-06
tp3698
a((S'RP'
p3699
S'JJS'
p3700
tp3701
F2.6704123650774152e-06
tp3702
a((S'RP'
p3703
S'MD'
p3704
tp3705
F2.6704123650774152e-06
tp3706
a((S'RP'
p3707
S'POS'
p3708
tp3709
F2.6704123650774152e-06
tp3710
a((S'RP'
p3711
S'PRP'
p3712
tp3713
F2.6704123650774152e-06
tp3714
a((S'RP'
p3715
S'VBD'
p3716
tp3717
F2.6704123650774152e-06
tp3718
a((S'RP'
p3719
S'VBN'
p3720
tp3721
F2.6704123650774152e-06
tp3722
a((S'SYM'
p3723
S'FW'
p3724
tp3725
F2.6704123650774152e-06
tp3726
a((S'SYM'
p3727
S'NNS'
p3728
tp3729
F2.6704123650774152e-06
tp3730
a((S'SYM'
p3731
S'VBN'
p3732
tp3733
F2.6704123650774152e-06
tp3734
a((S'UH'
p3735
S'DT'
p3736
tp3737
F2.6704123650774152e-06
tp3738
a((S'UH'
p3739
S'MD'
p3740
tp3741
F2.6704123650774152e-06
tp3742
a((g3624
S'VBP'
p3743
tp3744
F2.6704123650774152e-06
tp3745
a((S'UH'
p3746
S'WRB'
p3747
tp3748
F2.6704123650774152e-06
tp3749
a((S'VB'
p3750
S'NNP'
p3751
tp3752
F2.6704123650774152e-06
tp3753
a((S'VBD'
p3754
S':'
tp3755
F2.6704123650774152e-06
tp3756
a((S'VBD'
p3757
S'SYM'
p3758
tp3759
F2.6704123650774152e-06
tp3760
a((S'VBG'
p3761
g3444
tp3762
F2.6704123650774152e-06
tp3763
a((S'VBG'
p3764
S':'
tp3765
F2.6704123650774152e-06
tp3766
a((S'VBG'
p3767
S'NNP'
p3768
tp3769
F2.6704123650774152e-06
tp3770
a((S'VBN'
p3771
S"''"
p3772
tp3773
F2.6704123650774152e-06
tp3774
a((S'VBN'
p3775
S'NNP'
p3776
tp3777
F2.6704123650774152e-06
tp3778
a((S'WDT'
p3779
S'JJ'
p3780
tp3781
F2.6704123650774152e-06
tp3782
a((S'WDT'
p3783
S'VBN'
p3784
tp3785
F2.6704123650774152e-06
tp3786
a((S'WDT'
p3787
S'WRB'
p3788
tp3789
F2.6704123650774152e-06
tp3790
a((S'WP'
p3791
S'PDT'
p3792
tp3793
F2.6704123650774152e-06
tp3794
a((S'WP$'
p3795
S'NNS'
p3796
tp3797
F2.6704123650774152e-06
tp3798
a((S'WRB'
p3799
S'CD'
p3800
tp3801
F2.6704123650774152e-06
tp3802
a((S'WRB'
p3803
S'RP'
p3804
tp3805
F2.6704123650774152e-06
tp3806
a.