(lp1
((S'DT'
p2
S'NN'
p3
tp4
F0.05627102450287625
tp5
a((S'IN'
p6
S'DT'
p7
tp8
F0.051984845770550105
tp9
a((g3
S'IN'
p10
tp11
F0.03801827265670097
tp12
a((S'JJ'
p13
S'NN'
p14
tp15
F0.026599520956494621
tp16
a((S'DT'
p17
g13
tp18
F0.022585375239687625
tp19
a((S'DT'
p20
S'NNS'
p21
tp22
F0.021364544145650456
tp23
a((S'TO'
p24
S'VB'
p25
tp26
F0.020289681986769906
tp27
a((S'NNS'
p28
S'IN'
p29
tp30
F0.017224334348480929
tp31
a((S'NN'
p32
S'.'
tp33
F0.016222456657178686
tp34
a((S'.'
S'DT'
p35
tp36
F0.015326738191444894
tp37
a((S'IN'
p38
S'NN'
p39
tp40
F0.014915371192367152
tp41
a((S'MD'
p42
S'VB'
p43
tp44
F0.014696417789632224
tp45
a((S'JJ'
p46
g28
tp47
F0.014125811952201809
tp48
a((g7
S'NNP'
p49
tp50
F0.013628190582349702
tp51
a((S'NN'
p52
S'VBD'
p53
tp54
F0.013263268244458157
tp55
a((S'RB'
p56
S'JJ'
p57
tp58
F0.01071544683081537
tp59
a((g25
S'DT'
p60
tp61
F0.010708811879217342
tp62
a((S'NN'
p63
S','
tp64
F0.010304079831737627
tp65
a((S'VBD'
p66
S'DT'
p67
tp68
F0.0092955671888373566
tp69
a((S'VBN'
p70
S'IN'
p71
tp72
F0.0089638196089359534
tp73
a((S'IN'
p74
S'JJ'
p75
tp76
F0.0089372798025438398
tp77
a((g71
S'NNP'
p78
tp79
F0.0088642953349655322
tp80
a((g21
S'VBD'
p81
tp82
F0.0083334992071232832
tp83
a((S'TO'
p84
S'DT'
p85
tp86
F0.0080614661916041316
tp87
a((S'JJ'
p88
S'IN'
p89
tp90
F0.0080548312400061037
tp91
a((S'PRP'
p92
S'VBD'
p93
tp94
F0.0078425127888692055
tp95
a((g29
S'VBG'
p96
tp97
F0.0075041302573697725
tp98
a((S'VBD'
p99
S'RB'
p100
tp101
F0.0074643205477816039
tp102
a((g10
S'NNS'
p103
tp104
F0.0073249865642230141
tp105
a((S'.'
S'IN'
p106
tp107
F0.0071524778226742837
tp108
a((S'NN'
p109
S'TO'
p110
tp111
F0.0069335244199393567
tp112
a((S'NNP'
p113
S'VBD'
p114
tp115
F0.0068340001459689355
tp116
a((g96
g2
tp117
F0.0066946661624103449
tp118
a((S'NN'
p119
S'MD'
p120
tp121
F0.0066482215012241483
tp122
a((S'NNS'
p123
S'TO'
p124
tp125
F0.0066150467432340085
tp126
a((S'NNS'
p127
S'.'
tp128
F0.0065619671304497831
tp129
a((g93
S'IN'
p130
tp131
F0.0061771399377641544
tp132
a((S'JJ'
p133
S'TO'
p134
tp135
F0.0061506001313720417
tp136
a((g124
S'NN'
p137
tp138
F0.0059979962446173951
tp139
a((S'NN'
p140
S'NNS'
p141
tp142
F0.0059316467286371147
tp143
a((S'NN'
p144
S'RB'
p145
tp146
F0.0057923127450785249
tp147
a((g81
g46
tp148
F0.0057591379870883842
tp149
a((S'VB'
p150
S'VBN'
p151
tp152
F0.0055534544875495131
tp153
a((S'RB'
p154
S'VB'
p155
tp156
F0.0054605651651771199
tp157
a((S','
S'DT'
p158
tp159
F0.005453930213579092
tp160
a((S'IN'
p161
S'PRP'
p162
tp163
F0.0052747865204323336
tp164
a((g145
S'IN'
p165
tp166
F0.0052681515688343056
tp167
a((S'VBD'
p168
g24
tp169
F0.0050624680692954345
tp170
a((S'VBD'
p171
S'VBN'
p172
tp173
F0.004896594279344732
tp174
a((S'NN'
p175
S'CC'
p176
tp177
F0.0045582117478452991
tp178
a((S'VBG'
p179
S'TO'
p180
tp181
F0.0045449418446492432
tp182
a((S'VB'
p183
g127
tp184
F0.0044785923286689627
tp185
a((S'JJ'
p186
S'.'
tp187
F0.0041335748455715018
tp188
a((S'PRP'
p189
S'MD'
p190
tp191
F0.0041136699907774171
tp192
a((S'VB'
p193
S'IN'
p194
tp195
F0.0040804952327872764
tp196
a((S','
S'CC'
p197
tp198
F0.0039677010556207993
tp199
a((S'NNP'
p200
S','
tp201
F0.0038283670720622091
tp202
a((S'NN'
p203
S'VBZ'
p204
tp205
F0.0036890330885036193
tp206
a((S'NNP'
p207
S'.'
tp208
F0.0036425884273174228
tp209
a((S"''"
p210
S'VBZ'
p211
tp212
F0.0036293185241213664
tp213
a((S'.'
S'RB'
p214
tp215
F0.0035696039597391139
tp216
a((g43
g186
tp217
F0.0035430641533470012
tp218
a((S'RB'
p219
S'.'
tp220
F0.0034103651213864394
tp221
a((S'NN'
p222
S'DT'
p223
tp224
F0.0033838253149943271
tp225
a((S'NNS'
p226
S'MD'
p227
tp228
F0.0032511262830337653
tp229
a((S'NNP'
p230
g32
tp231
F0.0032444913314357373
tp232
a((g227
g154
tp233
F0.0032113165734455966
tp234
a((S'NN'
p235
S'PRP'
p236
tp237
F0.0031914117186515123
tp238
a((S'.'
S'NNP'
p239
tp240
F0.0030918874446810912
tp241
a((S'CC'
p242
S'DT'
p243
tp244
F0.0029392835579264451
tp245
a((S'EX'
p246
S'VBD'
p247
tp248
F0.0029326486063284167
tp249
a((S'VB'
p250
S'TO'
p251
tp252
F0.0028264893807599676
tp253
a((S'VBN'
p254
S'TO'
p255
tp256
F0.0028132194775639112
tp257
a((S'VB'
p258
S'RB'
p259
tp260
F0.0027667748163777146
tp261
a((S'VBZ'
p262
S'RB'
p263
tp264
F0.0027336000583875739
tp265
a((S'NNS'
p266
S'VBN'
p267
tp268
F0.002726965106789546
tp269
a((S'CC'
p270
S'NN'
p271
tp272
F0.0027136952035934896
tp273
a((g211
S'NN'
p274
tp275
F0.0026805204456033494
tp276
a((g53
S'NN'
p277
tp278
F0.0026539806392112371
tp279
a((S'NNS'
p280
S','
tp281
F0.0026407107360151808
tp282
a((S'RB'
p283
S'VBG'
p284
tp285
F0.0026407107360151808
tp286
a((S'DT'
p287
S'IN'
p288
tp289
F0.0025942660748289842
tp290
a((S'NNS'
p291
S'VBG'
p292
tp293
F0.0025743612200348999
tp294
a((S'.'
g92
tp295
F0.0025212816072506753
tp296
a((S'RB'
p297
S','
tp298
F0.002508011704054619
tp299
a((S'VBG'
p300
S'RB'
p301
tp302
F0.0024814718976625067
tp303
a((S'WDT'
p304
S'VBD'
p305
tp306
F0.0024682019944664503
tp307
a((S'NNS'
p308
S'DT'
p309
tp310
F0.0023885825752901131
tp311
a((g239
S'IN'
p312
tp313
F0.0023753126720940571
tp314
a((S','
S'IN'
p315
tp316
F0.0023421379141039165
tp317
a((S'NN'
p318
S"''"
p319
tp320
F0.0022890583013196919
tp321
a((S'RB'
p322
S'VBN'
p323
tp324
F0.0022691534465256076
tp325
a((S'NN'
p326
S'WDT'
p327
tp328
F0.0022558835433295512
tp329
a((S'VBN'
p330
g63
tp331
F0.0022558835433295512
tp332
a((S'TO'
p333
S'JJ'
p334
tp335
F0.0022426136401334953
tp336
a((S'VBG'
p337
S'NN'
p338
tp339
F0.0022359786885354669
tp340
a((g214
S'DT'
p341
tp342
F0.0022094388821433547
tp343
a((S'DT'
p344
g56
tp345
F0.0020833748017808208
tp346
a((S'CD'
p347
S'NNS'
p348
tp349
F0.0020634699469867369
tp350
a((S'NNS'
p351
S'CC'
p352
tp353
F0.0020435650921926526
tp354
a((S'VBZ'
p355
g344
tp356
F0.0020435650921926526
tp357
a((S'NNS'
p358
g140
tp359
F0.0020369301405946242
tp360
a((S'JJ'
p361
S'CC'
p362
tp363
F0.0019705806246143433
tp364
a((g141
S'POS'
p365
tp366
F0.0019639456730163153
tp367
a((S','
S'VBG'
p368
tp369
F0.0019506757698202592
tp370
a((S'VBG'
p371
S'IN'
p372
tp373
F0.0019374058666242031
tp374
a((S'NN'
p375
g254
tp376
F0.0019307709150261749
tp377
a((S'VB'
p378
S'RP'
p379
tp380
F0.0019307709150261749
tp381
a((S'.'
S'CD'
p382
tp383
F0.0019175010118301188
tp384
a((S'RB'
p385
S'VBD'
p386
tp387
F0.0019042311086340626
tp388
a((S'VBG'
p389
S'JJ'
p390
tp391
F0.0018975961570360344
tp392
a((S'CC'
p393
S'JJ'
p394
tp395
F0.0018843262538399783
tp396
a((S','
S'PRP'
p397
tp398
F0.0018710563506439219
tp399
a((S'NNS'
p400
S'RB'
p401
tp402
F0.0018246116894577254
tp403
a((S'VB'
p404
S'NN'
p405
tp406
F0.0018113417862616692
tp407
a((g382
S'NN'
p408
tp409
F0.0017980718830656131
tp410
a((S'VBG'
p411
g351
tp412
F0.0017980718830656131
tp413
a((S'DT'
p414
S'JJS'
p415
tp416
F0.0017383573186833601
tp417
a((S'VB'
p418
S'PRP'
p419
tp420
F0.001725087415487304
tp421
a((S'VBD'
p422
g371
tp423
F0.0017118175122912479
tp424
a((g415
S'NN'
p425
tp426
F0.0016985476090951917
tp427
a((g362
S'IN'
p428
tp429
F0.0016720078027030792
tp430
a((S'CC'
p431
g385
tp432
F0.0016388330447129388
tp433
a((S'NNS'
p434
S'VBP'
p435
tp436
F0.0016122932383208265
tp437
a((S'NN'
p438
S'VBG'
p439
tp440
F0.0015990233351247704
tp441
a((S'RP'
p442
S'IN'
p443
tp444
F0.0015923883835267422
tp445
a((S'DT'
p446
g168
tp447
F0.001579118480330686
tp448
a((S'NN'
p449
S'JJ'
p450
tp451
F0.0015658485771346299
tp452
a((S'WDT'
p453
S'MD'
p454
tp455
F0.0014862291579582926
tp456
a((S'DT'
p457
S'VBG'
p458
tp459
F0.0014596893515661804
tp460
a((S'JJS'
p461
S'NNS'
p462
tp463
F0.0014596893515661804
tp464
a((S'PRP'
p465
S'.'
tp466
F0.0014596893515661804
tp467
a((S'VBD'
p468
S'PRP'
p469
tp470
F0.0014530543999681522
tp471
a((S'PDT'
p472
S'DT'
p473
tp474
F0.0014464194483701242
tp475
a((S'JJ'
p476
S','
tp477
F0.0014198796419780117
tp478
a((S'VBZ'
p479
S'IN'
p480
tp481
F0.0014132446903799838
tp482
a((S'PRP'
p483
S'VBZ'
p484
tp485
F0.0013999747871839274
tp486
a((S'TO'
p487
S'RB'
p488
tp489
F0.0013999747871839274
tp490
a((S'PRP'
p491
g133
tp492
F0.0013867048839878713
tp493
a((S'VBN'
p494
S'.'
tp495
F0.0013867048839878713
tp496
a((S'NNS'
p497
g304
tp498
F0.001360165077595759
tp499
a((S'VB'
p500
S'.'
tp501
F0.0013070854648115342
tp502
a((S','
S'WDT'
p503
tp504
F0.0012871806100174499
tp505
a((S'WRB'
p506
S'DT'
p507
tp508
F0.0012473709004292813
tp509
a((S'PRP$'
p510
S'NN'
p511
tp512
F0.0012407359488312533
tp513
a((g480
S'CD'
p514
tp515
F0.0012009262392430847
tp516
a((S'NN'
p517
S'NNP'
p518
tp519
F0.0012009262392430847
tp520
a((g348
S'JJ'
p521
tp522
F0.0011743864328509724
tp523
a((g151
S'DT'
p524
tp525
F0.0011743864328509724
tp526
a((S','
S'RB'
p527
tp528
F0.0011677514812529443
tp529
a((S'JJ'
p530
g347
tp531
F0.0011478466264588599
tp532
a((S'VBD'
p533
S'NNS'
p534
tp535
F0.0011345767232628038
tp536
a((S'.'
S'EX'
p537
tp538
F0.0011146718684687195
tp539
a((S'VBZ'
p540
S'JJ'
p541
tp542
F0.0011146718684687195
tp543
a((S'CD'
p544
S'IN'
p545
tp546
F0.0011080369168706915
tp547
a((g352
g226
tp548
F0.0010947670136746352
tp549
a((S'POS'
p550
S'NN'
p551
tp552
F0.0010881320620766072
tp553
a((g419
g219
tp554
F0.0010748621588805511
tp555
a((S'CC'
p556
g183
tp557
F0.0010549573040864668
tp558
a((S'DT'
p559
S'CD'
p560
tp561
F0.0010284174976943543
tp562
a((g503
g355
tp563
F0.0010085126429002699
tp564
a((S','
S'NN'
p565
tp566
F0.00098860778810618585
tp567
a((S'.'
S'VB'
p568
tp569
F0.00098197283650815767
tp570
a((S'NNP'
p571
S'VBZ'
p572
tp573
F0.00095543303011604529
tp574
a((S'VB'
p575
g300
tp576
F0.00095543303011604529
tp577
a((S'RB'
p578
S'TO'
p579
tp580
F0.00094216312691998915
tp581
a((S'JJ'
p582
S'RB'
p583
tp584
F0.00092889322372393291
tp585
a((S'NNP'
p586
S'CC'
p587
tp588
F0.00092225827212590484
tp589
a((S'IN'
p590
S'RB'
p591
tp592
F0.0009089883689298487
tp593
a((S'VBN'
p594
S'RP'
p595
tp596
F0.0009089883689298487
tp597
a((S'IN'
p598
S'PRP$'
p599
tp600
F0.00089571846573379245
tp601
a((S'CC'
p602
S'PRP'
p603
tp604
F0.00088908351413576438
tp605
a((S'CD'
p606
S','
tp607
F0.00087581361093970825
tp608
a((S'NNP'
p609
S'NNPS'
p610
tp611
F0.00086917865934168007
tp612
a((S'VBP'
p613
S'DT'
p614
tp615
F0.00086917865934168007
tp616
a((S'RP'
p617
S'TO'
p618
tp619
F0.00082936894975351155
tp620
a((S'NNP'
p621
S'DT'
p622
tp623
F0.00080946409495942723
tp624
a((S','
g266
tp625
F0.00080282914336139916
tp626
a((S'.'
S'JJ'
p627
tp628
F0.00080282914336139916
tp629
a((S'CC'
p630
S'VBD'
p631
tp632
F0.00078955924016534302
tp633
a((S'VBN'
p634
S'JJ'
p635
tp636
F0.00078955924016534302
tp637
a((S'DT'
p638
g540
tp639
F0.00078292428856731495
tp640
a((S'NNP'
p641
g42
tp642
F0.00077628933696928678
tp643
a((g204
S'VBN'
p644
tp645
F0.00077628933696928678
tp646
a((S'WRB'
p647
S'PRP'
p648
tp649
F0.00076965438537125871
tp650
a((S'NN'
p651
S'WRB'
p652
tp653
F0.00076301943377323064
tp654
a((S','
S'JJ'
p655
tp656
F0.00075638448217520257
tp657
a((S'DT'
p658
S'MD'
p659
tp660
F0.00075638448217520257
tp661
a((S'RB'
p662
S'CC'
p663
tp664
F0.00075638448217520257
tp665
a((S','
S'VBD'
p666
tp667
F0.00074974953057717439
tp668
a((S'NN'
p669
g246
tp670
F0.00074311457897914632
tp671
a((S'JJ'
p672
S'NNP'
p673
tp674
F0.00072984467578309019
tp675
a((S'RP'
p676
S'DT'
p677
tp678
F0.00072984467578309019
tp679
a((S','
S'CD'
p680
tp681
F0.00071657477258703394
tp682
a((S'.'
S'NNS'
p683
tp684
F0.00070993982098900587
tp685
a((S'NN'
p686
S':'
tp687
F0.00070993982098900587
tp688
a((S'VBN'
p689
S'RB'
p690
tp691
F0.00070993982098900587
tp692
a((S'WRB'
p693
S'VBG'
p694
tp695
F0.0007033048693909778
tp696
a((S','
S'EX'
p697
tp698
F0.00069666991779294973
tp699
a((S'NNP'
p700
g70
tp701
F0.00069003496619492156
tp702
a((S'PRP'
p703
g613
tp704
F0.00068340001459689349
tp705
a((S'NN'
p706
S'VB'
p707
tp708
F0.00067013011140083735
tp709
a((S'CC'
p710
g337
tp711
F0.0006568602082047811
tp712
a((S'VBN'
p713
S'CC'
p714
tp715
F0.0006568602082047811
tp716
a((S'.'
g179
tp717
F0.00065022525660675303
tp718
a((S'RP'
p719
S'.'
tp720
F0.00065022525660675303
tp721
a((S'VBN'
p722
S','
tp723
F0.00065022525660675303
tp724
a((S'JJR'
p725
S'IN'
p726
tp727
F0.00064359030500872496
tp728
a((S'RP'
p729
g556
tp730
F0.00064359030500872496
tp731
a((S'VBD'
p732
S'WRB'
p733
tp734
F0.0006369553534106969
tp735
a((S'VB'
p736
S'CC'
p737
tp738
F0.00063032040181266883
tp739
a((S'POS'
p740
g434
tp741
F0.00062368545021464065
tp742
a((S'RB'
p743
g725
tp744
F0.00062368545021464065
tp745
a((S','
S'NNP'
p746
tp747
F0.00061705049861661258
tp748
a((S'VBD'
p749
S','
tp750
F0.00061705049861661258
tp751
a((S'JJ'
p752
S'VBD'
p753
tp754
F0.00061041554701858451
tp755
a((g165
g472
tp756
F0.00060378059542055644
tp757
a((S'NNS'
p758
S'PRP'
p759
tp760
F0.00060378059542055644
tp761
a((S'VBG'
p762
S'PRP'
p763
tp764
F0.00060378059542055644
tp765
a((S'JJ'
p766
S'DT'
p767
tp768
F0.00059714564382252827
tp769
a((g162
S'NNS'
p770
tp771
F0.00059714564382252827
tp772
a((S'.'
S'VBN'
p773
tp774
F0.0005905106922245002
tp775
a((S'NNPS'
p776
S'VBN'
p777
tp778
F0.00058387574062647213
tp779
a((S'RB'
p780
S'NN'
p781
tp782
F0.00058387574062647213
tp783
a((S':'
S'NN'
p784
tp785
F0.00057060583743041599
tp786
a((S'.'
S'WRB'
p787
tp788
F0.00055733593423435974
tp789
a((S'NNP'
p790
S'PRP'
p791
tp792
F0.00055733593423435974
tp793
a((S'PRP'
p794
S'IN'
p795
tp796
F0.00055070098263633167
tp797
a((S'VBD'
p798
S'RP'
p799
tp800
F0.00054406603103830361
tp801
a((S'VB'
p802
S'PRP$'
p803
tp804
F0.00053743107944027554
tp805
a((S'NNP'
p806
g210
tp807
F0.00052416117624421929
tp808
a((S'VBN'
p809
S'VBD'
p810
tp811
F0.00052416117624421929
tp812
a((S'NNS'
p813
g693
tp814
F0.00051089127304816315
tp815
a((S'JJ'
p816
S"''"
p817
tp818
F0.00050425632145013497
tp819
a((S'WRB'
p820
S'JJ'
p821
tp822
F0.00050425632145013497
tp823
a((S'VBD'
p824
S'.'
tp825
F0.00049762136985210691
tp826
a((S'VBP'
p827
S'RB'
p828
tp829
F0.00049762136985210691
tp830
a((S'IN'
p831
S'EX'
p832
tp833
F0.00049098641825407884
tp834
a((g560
S':'
tp835
F0.00048435146665605077
tp836
a((S'DT'
p837
S'VBN'
p838
tp839
F0.00048435146665605077
tp840
a((g365
S'JJ'
p841
tp842
F0.00048435146665605077
tp843
a((g733
g743
tp844
F0.00048435146665605077
tp845
a((S'PRP$'
p846
S'NNS'
p847
tp848
F0.00047771651505802264
tp849
a((S'VBP'
p850
S'IN'
p851
tp852
F0.00047771651505802264
tp853
a((S'VBP'
p854
S'JJ'
p855
tp856
F0.00047771651505802264
tp857
a((S'VBP'
p858
S'TO'
p859
tp860
F0.00047771651505802264
tp861
a((g599
S'JJ'
p862
tp863
F0.00046444661186196645
tp864
a((g690
S'PRP'
p865
tp866
F0.00046444661186196645
tp867
a((S'IN'
p868
S'VBN'
p869
tp870
F0.00045781166026393838
tp871
a((g737
S'MD'
p872
tp873
F0.00045117670866591026
tp874
a((S'VBN'
p875
S'NNS'
p876
tp877
F0.00045117670866591026
tp878
a((S','
S'MD'
p879
tp880
F0.00044454175706788219
tp881
a((S'VBN'
p882
S'PDT'
p883
tp884
F0.00044454175706788219
tp885
a((S'IN'
p886
S'.'
tp887
F0.00043790680546985412
tp888
a((S'.'
S'CC'
p889
tp890
F0.000431271853871826
tp891
a((S'IN'
p892
S','
tp893
F0.000431271853871826
tp894
a((S'NNP'
p895
S'RB'
p896
tp897
F0.00041800195067576981
tp898
a((S'VBG'
p899
S'CC'
p900
tp901
F0.00041800195067576981
tp902
a((S'VBZ'
p903
S'VBG'
p904
tp905
F0.00041800195067576981
tp906
a((S'CD'
p907
S'JJ'
p908
tp909
F0.00041136699907774174
tp910
a((S'IN'
p911
S'VBD'
p912
tp913
F0.00041136699907774174
tp914
a((g763
g333
tp915
F0.00040473204747971362
tp916
a((S'RBR'
p917
S'JJ'
p918
tp919
F0.00040473204747971362
tp920
a((S'VBG'
p921
S'VBN'
p922
tp923
F0.00040473204747971362
tp924
a((S'DT'
p925
S'VBP'
p926
tp927
F0.00039146214428365748
tp928
a((S'NNP'
p929
g606
tp930
F0.00039146214428365748
tp931
a((S'IN'
p932
S'WRB'
p933
tp934
F0.00037819224108760129
tp935
a((S'NNP'
p936
S'NNS'
p937
tp938
F0.00037819224108760129
tp939
a((S'VBZ'
p940
S','
tp941
F0.00037819224108760129
tp942
a((S','
S'VBN'
p943
tp944
F0.00035828738629351697
tp945
a((g514
g461
tp946
F0.00034501748309746078
tp947
a((g114
g907
tp948
F0.00034501748309746078
tp949
a((S'VBP'
p950
S'NN'
p951
tp952
F0.00034501748309746078
tp953
a((S'IN'
p954
S'JJS'
p955
tp956
F0.00033838253149943271
tp957
a((S'JJR'
p958
S'NN'
p959
tp960
F0.00033838253149943271
tp961
a((S'VBG'
p962
S'.'
tp963
F0.00033838253149943271
tp964
a((g292
S'RP'
p965
tp966
F0.00033838253149943271
tp967
a((S'EX'
p968
S'VBP'
p969
tp970
F0.00033174757990140464
tp971
a((S'POS'
p972
S'VBZ'
p973
tp974
F0.00033174757990140464
tp975
a((S'DT'
p976
S','
tp977
F0.00032511262830337652
tp978
a((S'JJ'
p979
S'PRP'
p980
tp981
F0.00032511262830337652
tp982
a((S'NN'
p983
S'CD'
p984
tp985
F0.00032511262830337652
tp986
a((S'CC'
p987
S'RP'
p988
tp989
F0.00031847767670534845
tp990
a((S'VB'
p991
S','
tp992
F0.00031847767670534845
tp993
a((S'.'
S'NN'
p994
tp995
F0.00031184272510732032
tp996
a((g714
S'VBN'
p997
tp998
F0.00031184272510732032
tp999
a((S'IN'
p1000
S'WDT'
p1001
tp1002
F0.00031184272510732032
tp1003
a((S'PRP'
p1004
S"''"
p1005
tp1006
F0.00031184272510732032
tp1007
a((S'PRP'
p1008
S','
tp1009
F0.00031184272510732032
tp1010
a((S'RB'
p1011
S'VBP'
p1012
tp1013
F0.00031184272510732032
tp1014
a((S'JJ'
p1015
S':'
tp1016
F0.00030520777350929226
tp1017
a((S'VBP'
p1018
S'VBN'
p1019
tp1020
F0.00030520777350929226
tp1021
a((S'NNP'
p1022
g361
tp1023
F0.00029857282191126413
tp1024
a((S'NNP'
p1025
S'TO'
p1026
tp1027
F0.00029857282191126413
tp1028
a((S'PRP'
p1029
S'NN'
p1030
tp1031
F0.00029857282191126413
tp1032
a((g896
S'MD'
p1033
tp1034
F0.00029857282191126413
tp1035
a((S'VBN'
p1036
S'PRP'
p1037
tp1038
F0.00029193787031323606
tp1039
a((g855
S'VBG'
p1040
tp1041
F0.00028530291871520799
tp1042
a((S'TO'
p1043
S'NNS'
p1044
tp1045
F0.00028530291871520799
tp1046
a((S'WRB'
p1047
S'NNS'
p1048
tp1049
F0.00028530291871520799
tp1050
a((S'VBZ'
p1051
S'NNS'
p1052
tp1053
F0.0002720330155191518
tp1054
a((S','
S'WRB'
p1055
tp1056
F0.00026539806392112368
tp1057
a((S'.'
S'JJS'
p1058
tp1059
F0.00026539806392112368
tp1060
a((S'.'
S'TO'
p1061
tp1062
F0.00026539806392112368
tp1063
a((S':'
S'JJ'
p1064
tp1065
F0.00026539806392112368
tp1066
a((S'EX'
p1067
S'VBZ'
p1068
tp1069
F0.00026539806392112368
tp1070
a((S'NN'
p1071
g729
tp1072
F0.00025876311232309561
tp1073
a((S'RP'
p1074
S','
tp1075
F0.00025212816072506749
tp1076
a((S'RB'
p1077
S'VBZ'
p1078
tp1079
F0.00024549320912703942
tp1080
a((S'WP'
p1081
S'VBD'
p1082
tp1083
F0.00024549320912703942
tp1084
a((S'CC'
p1085
S'TO'
p1086
tp1087
F0.00023885825752901132
tp1088
a((S'NNPS'
p1089
S'VBD'
p1090
tp1091
F0.00023885825752901132
tp1092
a((S'IN'
p1093
S'CC'
p1094
tp1095
F0.00023222330593098323
tp1096
a((g1030
S'POS'
p1097
tp1098
F0.00023222330593098323
tp1099
a((S'NNS'
p1100
S'RP'
p1101
tp1102
F0.00023222330593098323
tp1103
a((S'RBS'
p1104
S'JJ'
p1105
tp1106
F0.00023222330593098323
tp1107
a((S'VBN'
p1108
S'VBG'
p1109
tp1110
F0.00023222330593098323
tp1111
a((S'VBZ'
p1112
S'PRP'
p1113
tp1114
F0.00023222330593098323
tp1115
a((S'VBZ'
p1116
S'WRB'
p1117
tp1118
F0.00023222330593098323
tp1119
a((S'JJR'
p1120
S'NNS'
p1121
tp1122
F0.00022558835433295513
tp1123
a((g872
g222
tp1124
F0.00022558835433295513
tp1125
a((S'RB'
p1126
g506
tp1127
F0.00022558835433295513
tp1128
a((S'VB'
p1129
g958
tp1130
F0.00022558835433295513
tp1131
a((S'VBN'
p1132
S'WRB'
p1133
tp1134
F0.00021895340273492706
tp1135
a((S':'
S'DT'
p1136
tp1137
F0.00021231845113689897
tp1138
a((S'NNS'
p1139
S':'
tp1140
F0.00021231845113689897
tp1141
a((S'PRP'
p1142
S'RP'
p1143
tp1144
F0.00021231845113689897
tp1145
a((S'RB'
p1146
g917
tp1147
F0.00021231845113689897
tp1148
a((S'WRB'
p1149
S'TO'
p1150
tp1151
F0.00021231845113689897
tp1152
a((g1058
S'IN'
p1153
tp1154
F0.00020568349953887087
tp1155
a((S'RB'
p1156
S'NNS'
p1157
tp1158
F0.00020568349953887087
tp1159
a((S','
S'TO'
p1160
tp1161
F0.00019904854794084277
tp1162
a((S','
S'VBZ'
p1163
tp1164
F0.00019904854794084277
tp1165
a((S'PRP'
p1166
g972
tp1167
F0.00019904854794084277
tp1168
a((S'PRP'
p1169
S'VB'
p1170
tp1171
F0.00019904854794084277
tp1172
a((S'VB'
p1173
S'VBD'
p1174
tp1175
F0.00019904854794084277
tp1176
a((S'VBZ'
p1177
S'TO'
p1178
tp1179
F0.00019904854794084277
tp1180
a((S':'
S'VBG'
p1181
tp1182
F0.00019241359634281468
tp1183
a((S'JJR'
p1184
S'.'
tp1185
F0.00019241359634281468
tp1186
a((S'NN'
p1187
S'VBP'
p1188
tp1189
F0.00019241359634281468
tp1190
a((S'TO'
p1191
S'PRP$'
p1192
tp1193
F0.00019241359634281468
tp1194
a((S'VBD'
p1195
g1173
tp1196
F0.00019241359634281468
tp1197
a((S'CC'
p1198
g647
tp1199
F0.00018577864474478658
tp1200
a((S'DT'
p1201
S'JJR'
p1202
tp1203
F0.00018577864474478658
tp1204
a((S'JJ'
p1205
g719
tp1206
F0.00018577864474478658
tp1207
a((S'JJ'
p1208
S'WRB'
p1209
tp1210
F0.00018577864474478658
tp1211
a((S'NNP'
p1212
S'VBG'
p1213
tp1214
F0.00018577864474478658
tp1215
a((S'DT'
p1216
g1104
tp1217
F0.00017914369314675849
tp1218
a((S'NNP'
p1219
S'VBP'
p1220
tp1221
F0.00017914369314675849
tp1222
a((S'VBD'
p1223
S'PRP$'
p1224
tp1225
F0.00017914369314675849
tp1226
a((S':'
S'IN'
p1227
tp1228
F0.00017250874154873039
tp1229
a((S'DT'
p1230
S'.'
tp1231
F0.00017250874154873039
tp1232
a((S'MD'
p1233
S"''"
p1234
tp1235
F0.00017250874154873039
tp1236
a((S'TO'
p1237
S'VBG'
p1238
tp1239
F0.00017250874154873039
tp1240
a((S'IN'
p1241
g84
tp1242
F0.00016587378995070232
tp1243
a((S'JJ'
p1244
S'VBN'
p1245
tp1246
F0.00016587378995070232
tp1247
a((S'MD'
p1248
S'IN'
p1249
tp1250
F0.00016587378995070232
tp1251
a((S'PRP'
p1252
S'DT'
p1253
tp1254
F0.00016587378995070232
tp1255
a((S'VBZ'
p1256
S'JJS'
p1257
tp1258
F0.00016587378995070232
tp1259
a((S'WDT'
p1260
g827
tp1261
F0.00016587378995070232
tp1262
a((S'NNP'
p1263
S'EX'
p1264
tp1265
F0.00015923883835267422
tp1266
a((S'NNS'
p1267
g903
tp1268
F0.00015923883835267422
tp1269
a((g595
S'RB'
p1270
tp1271
F0.00015923883835267422
tp1272
a((S'.'
S'NNPS'
p1273
tp1274
F0.00015260388675464613
tp1275
a((S'NN'
p1276
S'PRP$'
p1277
tp1278
F0.00015260388675464613
tp1279
a((S'NNP'
p1280
g453
tp1281
F0.00015260388675464613
tp1282
a((S'VBD'
p1283
S'CC'
p1284
tp1285
F0.00015260388675464613
tp1286
a((S'WDT'
p1287
S'PRP'
p1288
tp1289
F0.00015260388675464613
tp1290
a((S'CC'
p1291
S'EX'
p1292
tp1293
F0.00014596893515661803
tp1294
a((g197
g510
tp1295
F0.00014596893515661803
tp1296
a((S'DT'
p1297
S'VB'
p1298
tp1299
F0.00014596893515661803
tp1300
a((S'JJR'
p1301
S'DT'
p1302
tp1303
F0.00014596893515661803
tp1304
a((S'NNP'
p1305
S'POS'
p1306
tp1307
F0.00014596893515661803
tp1308
a((S'PRP'
p1309
S'VBN'
p1310
tp1311
F0.00014596893515661803
tp1312
a((g926
S'NNS'
p1313
tp1314
F0.00014596893515661803
tp1315
a((S','
S'JJS'
p1316
tp1317
F0.00013933398355858994
tp1318
a((S'NN'
p1319
S'JJR'
p1320
tp1321
F0.00013933398355858994
tp1322
a((g435
g465
tp1323
F0.00013933398355858994
tp1324
a((g697
S'MD'
p1325
tp1326
F0.00013269903196056184
tp1327
a((S'VB'
p1328
S'CD'
p1329
tp1330
F0.00013269903196056184
tp1331
a((S'VBP'
p1332
S'VBG'
p1333
tp1334
F0.00013269903196056184
tp1335
a((S"''"
p1336
S'PRP'
p1337
tp1338
F0.00012606408036253374
tp1339
a((S'CD'
p1340
S'.'
tp1341
F0.00012606408036253374
tp1342
a((S'DT'
p1343
S'PRP'
p1344
tp1345
F0.00012606408036253374
tp1346
a((S'NNS'
p1347
S'VB'
p1348
tp1349
F0.00012606408036253374
tp1350
a((S'TO'
p1351
S'NNP'
p1352
tp1353
F0.00012606408036253374
tp1354
a((S'VBZ'
p1355
S'.'
tp1356
F0.00012606408036253374
tp1357
a((S'.'
S'VBD'
p1358
tp1359
F0.00011279417716647757
tp1360
a((S':'
S'VBN'
p1361
tp1362
F0.00011279417716647757
tp1363
a((S'CC'
p1364
S'NNP'
p1365
tp1366
F0.00011279417716647757
tp1367
a((S'CD'
p1368
S'DT'
p1369
tp1370
F0.00011279417716647757
tp1371
a((S'RB'
p1372
S'CD'
p1373
tp1374
F0.00011279417716647757
tp1375
a((S'WDT'
p1376
S'NNS'
p1377
tp1378
F0.00011279417716647757
tp1379
a((S'NNP'
p1380
S'WRB'
p1381
tp1382
F0.00010615922556844948
tp1383
a((S'RB'
p1384
S':'
tp1385
F0.00010615922556844948
tp1386
a((S'TO'
p1387
S'IN'
p1388
tp1389
F0.00010615922556844948
tp1390
a((S'VBD'
p1391
S'JJR'
p1392
tp1393
F0.00010615922556844948
tp1394
a((S'VBD'
p1395
S'NNP'
p1396
tp1397
F0.00010615922556844948
tp1398
a((S'VBG'
p1399
S','
tp1400
F0.00010615922556844948
tp1401
a((S'NNP'
p1402
S'VB'
p1403
tp1404
F9.9524273970421387e-05
tp1405
a((g610
g950
tp1406
F9.9524273970421387e-05
tp1407
a((S'PRP'
p1408
g630
tp1409
F9.9524273970421387e-05
tp1410
a((S'PRP'
p1411
S'JJR'
p1412
tp1413
F9.9524273970421387e-05
tp1414
a((S'PRP'
p1415
S'VBG'
p1416
tp1417
F9.9524273970421387e-05
tp1418
a((S'VB'
p1419
S'POS'
p1420
tp1421
F9.9524273970421387e-05
tp1422
a((S'VBD'
p1423
S'EX'
p1424
tp1425
F9.9524273970421387e-05
tp1426
a((S'WDT'
p1427
S'RB'
p1428
tp1429
F9.9524273970421387e-05
tp1430
a((S'WRB'
p1431
S'VBN'
p1432
tp1433
F9.9524273970421387e-05
tp1434
a((S'.'
S'PRP$'
p1435
tp1436
F9.2889322372393291e-05
tp1437
a((S'CC'
p1438
S','
tp1439
F9.2889322372393291e-05
tp1440
a((S'CD'
p1441
S"''"
p1442
tp1443
F9.2889322372393291e-05
tp1444
a((S'IN'
p1445
S'VBZ'
p1446
tp1447
F9.2889322372393291e-05
tp1448
a((S'RB'
p1449
S'EX'
p1450
tp1451
F9.2889322372393291e-05
tp1452
a((S'VB'
p1453
S'WRB'
p1454
tp1455
F9.2889322372393291e-05
tp1456
a((S'VBZ'
p1457
S'NNP'
p1458
tp1459
F9.2889322372393291e-05
tp1460
a((S'WP'
p1461
S'PRP'
p1462
tp1463
F9.2889322372393291e-05
tp1464
a((S':'
S'CD'
p1465
tp1466
F8.6254370774365194e-05
tp1467
a((S'CC'
p1468
S'VBZ'
p1469
tp1470
F8.6254370774365194e-05
tp1471
a((S'IN'
p1472
S'JJR'
p1473
tp1474
F8.6254370774365194e-05
tp1475
a((S'JJ'
p1476
S'WDT'
p1477
tp1478
F8.6254370774365194e-05
tp1479
a((S'NNP'
p1480
S'RP'
p1481
tp1482
F8.6254370774365194e-05
tp1483
a((S'VB'
p1484
S'NNP'
p1485
tp1486
F8.6254370774365194e-05
tp1487
a((S'VBG'
p1488
S'JJS'
p1489
tp1490
F8.6254370774365194e-05
tp1491
a((S'VBZ'
p1492
S'CD'
p1493
tp1494
F8.6254370774365194e-05
tp1495
a((S','
S'JJR'
p1496
tp1497
F7.9619419176337112e-05
tp1498
a((S'DT'
p1499
S'NNPS'
p1500
tp1501
F7.9619419176337112e-05
tp1502
a((S'DT'
p1503
S'TO'
p1504
tp1505
F7.9619419176337112e-05
tp1506
a((S'IN'
p1507
S'WP'
p1508
tp1509
F7.9619419176337112e-05
tp1510
a((S'JJ'
p1511
S'JJR'
p1512
tp1513
F7.9619419176337112e-05
tp1514
a((g1420
S'VB'
p1515
tp1516
F7.9619419176337112e-05
tp1517
a((S'RP'
p1518
S'WRB'
p1519
tp1520
F7.9619419176337112e-05
tp1521
a((S'VB'
p1522
S'PDT'
p1523
tp1524
F7.9619419176337112e-05
tp1525
a((S'VB'
p1526
S'VBZ'
p1527
tp1528
F7.9619419176337112e-05
tp1529
a((S'VBG'
p1530
S'PRP$'
p1531
tp1532
F7.9619419176337112e-05
tp1533
a((S'.'
S'WDT'
p1534
tp1535
F7.2984467578309016e-05
tp1536
a((S':'
S'RB'
p1537
tp1538
F7.2984467578309016e-05
tp1539
a((S'CC'
p1540
S'CD'
p1541
tp1542
F7.2984467578309016e-05
tp1543
a((S'CC'
p1544
S'VBP'
p1545
tp1546
F7.2984467578309016e-05
tp1547
a((S'CC'
p1548
S'WDT'
p1549
tp1550
F7.2984467578309016e-05
tp1551
a((S'CD'
p1552
S'CC'
p1553
tp1554
F7.2984467578309016e-05
tp1555
a((S'CD'
p1556
S'PRP'
p1557
tp1558
F7.2984467578309016e-05
tp1559
a((S'CD'
p1560
S'VBD'
p1561
tp1562
F7.2984467578309016e-05
tp1563
a((S'JJR'
p1564
S','
tp1565
F7.2984467578309016e-05
tp1566
a((S'NN'
p1567
S'WP'
p1568
tp1569
F7.2984467578309016e-05
tp1570
a((S'NNP'
p1571
S':'
tp1572
F7.2984467578309016e-05
tp1573
a((S'NNS'
p1574
S'WP'
p1575
tp1576
F7.2984467578309016e-05
tp1577
a((g1435
S'VBD'
p1578
tp1579
F7.2984467578309016e-05
tp1580
a((S'VBD'
p1581
S'VBZ'
p1582
tp1583
F7.2984467578309016e-05
tp1584
a((S'VBN'
p1585
S'VBZ'
p1586
tp1587
F7.2984467578309016e-05
tp1588
a((S'.'
g1081
tp1589
F6.634951598028092e-05
tp1590
a((S':'
S'JJS'
p1591
tp1592
F6.634951598028092e-05
tp1593
a((S':'
S'MD'
p1594
tp1595
F6.634951598028092e-05
tp1596
a((S'IN'
p1597
S':'
tp1598
F6.634951598028092e-05
tp1599
a((S'JJS'
p1600
S'JJ'
p1601
tp1602
F6.634951598028092e-05
tp1603
a((S'NNS'
p1604
S'JJS'
p1605
tp1606
F6.634951598028092e-05
tp1607
a((S'NNS'
p1608
S'NNP'
p1609
tp1610
F6.634951598028092e-05
tp1611
a((S'PRP$'
p1612
S'.'
tp1613
F6.634951598028092e-05
tp1614
a((S'RBR'
p1615
S'IN'
p1616
tp1617
F6.634951598028092e-05
tp1618
a((S'RBS'
p1619
S'RB'
p1620
tp1621
F6.634951598028092e-05
tp1622
a((S'TO'
p1623
S'.'
tp1624
F6.634951598028092e-05
tp1625
a((S'TO'
p1626
g1008
tp1627
F6.634951598028092e-05
tp1628
a((S'VBD'
p1629
g1615
tp1630
F6.634951598028092e-05
tp1631
a((S'VBN'
p1632
S'MD'
p1633
tp1634
F6.634951598028092e-05
tp1635
a((S'VBZ'
p1636
S'RP'
p1637
tp1638
F6.634951598028092e-05
tp1639
a((S'WDT'
p1640
S'DT'
p1641
tp1642
F6.634951598028092e-05
tp1643
a((S"''"
p1644
S'NN'
p1645
tp1646
F5.9714564382252831e-05
tp1647
a((S','
S'VB'
p1648
tp1649
F5.9714564382252831e-05
tp1650
a((S'DT'
p1651
S'RBR'
p1652
tp1653
F5.9714564382252831e-05
tp1654
a((S'DT'
p1655
S'RP'
p1656
tp1657
F5.9714564382252831e-05
tp1658
a((S'JJ'
p1659
S'MD'
p1660
tp1661
F5.9714564382252831e-05
tp1662
a((g841
g418
tp1663
F5.9714564382252831e-05
tp1664
a((S'JJR'
p1665
S'RB'
p1666
tp1667
F5.9714564382252831e-05
tp1668
a((g379
S'NNS'
p1669
tp1670
F5.9714564382252831e-05
tp1671
a((S'VBG'
p1672
S'PDT'
p1673
tp1674
F5.9714564382252831e-05
tp1675
a((S'VBN'
p1676
S'JJS'
p1677
tp1678
F5.9714564382252831e-05
tp1679
a((S'VBN'
p1680
S'NNP'
p1681
tp1682
F5.9714564382252831e-05
tp1683
a((S'WDT'
p1684
S'EX'
p1685
tp1686
F5.9714564382252831e-05
tp1687
a((S'WRB'
p1688
S'NN'
p1689
tp1690
F5.9714564382252831e-05
tp1691
a((S'WRB'
p1692
S'NNP'
p1693
tp1694
F5.9714564382252831e-05
tp1695
a((g1234
S'JJ'
p1696
tp1697
F5.3079612784224741e-05
tp1698
a((S':'
S'CC'
p1699
tp1700
F5.3079612784224741e-05
tp1701
a((S':'
S'NNS'
p1702
tp1703
F5.3079612784224741e-05
tp1704
a((S'CC'
p1705
S'RBS'
p1706
tp1707
F5.3079612784224741e-05
tp1708
a((S'JJ'
p1709
S'VBP'
p1710
tp1711
F5.3079612784224741e-05
tp1712
a((S'JJ'
p1713
S'VBZ'
p1714
tp1715
F5.3079612784224741e-05
tp1716
a((S'MD'
p1717
S'DT'
p1718
tp1719
F5.3079612784224741e-05
tp1720
a((g1660
g1169
tp1721
F5.3079612784224741e-05
tp1722
a((S'NN'
p1723
S'JJS'
p1724
tp1725
F5.3079612784224741e-05
tp1726
a((S'NNS'
p1727
S'CD'
p1728
tp1729
F5.3079612784224741e-05
tp1730
a((S'NNS'
p1731
g1184
tp1732
F5.3079612784224741e-05
tp1733
a((S'TO'
p1734
S'CD'
p1735
tp1736
F5.3079612784224741e-05
tp1737
a((S'VBD'
p1738
S'WP'
p1739
tp1740
F5.3079612784224741e-05
tp1741
a((S'VBN'
p1742
S':'
tp1743
F5.3079612784224741e-05
tp1744
a((S'VBN'
p1745
S'JJR'
p1746
tp1747
F5.3079612784224741e-05
tp1748
a((S'VBP'
p1749
S'.'
tp1750
F5.3079612784224741e-05
tp1751
a((S'VBP'
p1752
S'RP'
p1753
tp1754
F5.3079612784224741e-05
tp1755
a((S'WP'
p1756
S'DT'
p1757
tp1758
F5.3079612784224741e-05
tp1759
a((S','
S'PRP$'
p1760
tp1761
F4.6444661186196645e-05
tp1762
a((S','
S'WP'
p1763
tp1764
F4.6444661186196645e-05
tp1765
a((S'.'
S'PDT'
p1766
tp1767
F4.6444661186196645e-05
tp1768
a((S'.'
S'VBZ'
p1769
tp1770
F4.6444661186196645e-05
tp1771
a((S':'
S'PRP'
p1772
tp1773
F4.6444661186196645e-05
tp1774
a((S'CC'
p1775
g1120
tp1776
F4.6444661186196645e-05
tp1777
a((S'CD'
p1778
S'NNP'
p1779
tp1780
F4.6444661186196645e-05
tp1781
a((S'IN'
p1782
S'VB'
p1783
tp1784
F4.6444661186196645e-05
tp1785
a((S'JJR'
p1786
S'CC'
p1787
tp1788
F4.6444661186196645e-05
tp1789
a((S'JJR'
p1790
S'PRP'
p1791
tp1792
F4.6444661186196645e-05
tp1793
a((S'NNP'
p1794
S'FW'
p1795
tp1796
F4.6444661186196645e-05
tp1797
a((S'NNPS'
p1798
S'.'
tp1799
F4.6444661186196645e-05
tp1800
a((S'NNS'
p1801
S'EX'
p1802
tp1803
F4.6444661186196645e-05
tp1804
a((S'RB'
p1805
S'JJS'
p1806
tp1807
F4.6444661186196645e-05
tp1808
a((S'SYM'
p1809
S'CD'
p1810
tp1811
F4.6444661186196645e-05
tp1812
a((S'VB'
p1813
S'WP'
p1814
tp1815
F4.6444661186196645e-05
tp1816
a((g1545
S','
tp1817
F4.6444661186196645e-05
tp1818
a((S'VBP'
p1819
S'CD'
p1820
tp1821
F4.6444661186196645e-05
tp1822
a((S'VBP'
p1823
S'VB'
p1824
tp1825
F4.6444661186196645e-05
tp1826
a((S'VBP'
p1827
S'WRB'
p1828
tp1829
F4.6444661186196645e-05
tp1830
a((g1078
g1419
tp1831
F4.6444661186196645e-05
tp1832
a((S'WDT'
p1833
S'IN'
p1834
tp1835
F4.6444661186196645e-05
tp1836
a((S'WP'
p1837
S'MD'
p1838
tp1839
F4.6444661186196645e-05
tp1840
a((S"''"
p1841
S'NNS'
p1842
tp1843
F3.9809709588168556e-05
tp1844
a((S"''"
p1845
S'VB'
p1846
tp1847
F3.9809709588168556e-05
tp1848
a((S':'
S'VBD'
p1849
tp1850
F3.9809709588168556e-05
tp1851
a((S'CC'
p1852
S'JJS'
p1853
tp1854
F3.9809709588168556e-05
tp1855
a((S'EX'
p1856
S'NNS'
p1857
tp1858
F3.9809709588168556e-05
tp1859
a((S'EX'
p1860
S'RB'
p1861
tp1862
F3.9809709588168556e-05
tp1863
a((S'IN'
p1864
S'MD'
p1865
tp1866
F3.9809709588168556e-05
tp1867
a((S'MD'
p1868
S'VBG'
p1869
tp1870
F3.9809709588168556e-05
tp1871
a((S'NNS'
p1872
S'RBR'
p1873
tp1874
F3.9809709588168556e-05
tp1875
a((S'PRP$'
p1876
S'VBG'
p1877
tp1878
F3.9809709588168556e-05
tp1879
a((S'RP'
p1880
S'JJ'
p1881
tp1882
F3.9809709588168556e-05
tp1883
a((S'RP'
p1884
S'NN'
p1885
tp1886
F3.9809709588168556e-05
tp1887
a((S'TO'
p1888
S'CC'
p1889
tp1890
F3.9809709588168556e-05
tp1891
a((S'VB'
p1892
S'EX'
p1893
tp1894
F3.9809709588168556e-05
tp1895
a((S'VBD'
p1896
S'JJS'
p1897
tp1898
F3.9809709588168556e-05
tp1899
a((S'VBG'
p1900
S'WRB'
p1901
tp1902
F3.9809709588168556e-05
tp1903
a((S'VBN'
p1904
S'PRP$'
p1905
tp1906
F3.9809709588168556e-05
tp1907
a((S'VBZ'
p1908
S'CC'
p1909
tp1910
F3.9809709588168556e-05
tp1911
a((S'VBZ'
p1912
S'EX'
p1913
tp1914
F3.9809709588168556e-05
tp1915
a((S'VBZ'
p1916
S'PDT'
p1917
tp1918
F3.9809709588168556e-05
tp1919
a((S'WDT'
p1920
S'NN'
p1921
tp1922
F3.9809709588168556e-05
tp1923
a((S'WRB'
p1924
S'EX'
p1925
tp1926
F3.9809709588168556e-05
tp1927
a((S'CD'
p1928
S'VBN'
p1929
tp1930
F3.317475799014046e-05
tp1931
a((S'EX'
p1932
S'NN'
p1933
tp1934
F3.317475799014046e-05
tp1935
a((S'IN'
p1936
g1809
tp1937
F3.317475799014046e-05
tp1938
a((S'JJR'
p1939
S'VBD'
p1940
tp1941
F3.317475799014046e-05
tp1942
a((S'NN'
p1943
S'PDT'
p1944
tp1945
F3.317475799014046e-05
tp1946
a((S'NN'
p1947
S'RBR'
p1948
tp1949
F3.317475799014046e-05
tp1950
a((S'NNPS'
p1951
S'IN'
p1952
tp1953
F3.317475799014046e-05
tp1954
a((S'RB'
p1955
S'WDT'
p1956
tp1957
F3.317475799014046e-05
tp1958
a((S'RBR'
p1959
S'.'
tp1960
F3.317475799014046e-05
tp1961
a((S'RP'
p1962
S'VBG'
p1963
tp1964
F3.317475799014046e-05
tp1965
a((S'TO'
p1966
S'PDT'
p1967
tp1968
F3.317475799014046e-05
tp1969
a((S'VB'
p1970
S'MD'
p1971
tp1972
F3.317475799014046e-05
tp1973
a((S'VBD'
p1974
S':'
tp1975
F3.317475799014046e-05
tp1976
a((S'VBD'
p1977
S'POS'
p1978
tp1979
F3.317475799014046e-05
tp1980
a((S'VBN'
p1981
S'CD'
p1982
tp1983
F3.317475799014046e-05
tp1984
a((S'VBN'
p1985
S'WDT'
p1986
tp1987
F3.317475799014046e-05
tp1988
a((S'VBP'
p1989
S'VBD'
p1990
tp1991
F3.317475799014046e-05
tp1992
a((S'VBZ'
p1993
S'RBR'
p1994
tp1995
F3.317475799014046e-05
tp1996
a((S'WDT'
p1997
S'JJ'
p1998
tp1999
F3.317475799014046e-05
tp2000
a((g1739
S'IN'
p2001
tp2002
F3.317475799014046e-05
tp2003
a((S'WRB'
p2004
g1876
tp2005
F3.317475799014046e-05
tp2006
a((S','
S'RBS'
p2007
tp2008
F2.6539806392112371e-05
tp2009
a((S'.'
S'MD'
p2010
tp2011
F2.6539806392112371e-05
tp2012
a((S'.'
S'VBP'
p2013
tp2014
F2.6539806392112371e-05
tp2015
a((S':'
S'VBZ'
p2016
tp2017
F2.6539806392112371e-05
tp2018
a((S':'
S'WDT'
p2019
tp2020
F2.6539806392112371e-05
tp2021
a((S'CC'
p2022
S'RBR'
p2023
tp2024
F2.6539806392112371e-05
tp2025
a((S'CD'
p2026
S'JJR'
p2027
tp2028
F2.6539806392112371e-05
tp2029
a((S'CD'
p2030
S'WDT'
p2031
tp2032
F2.6539806392112371e-05
tp2033
a((S'DT'
p2034
S'CC'
p2035
tp2036
F2.6539806392112371e-05
tp2037
a((S'DT'
p2038
S'WRB'
p2039
tp2040
F2.6539806392112371e-05
tp2041
a((S'FW'
p2042
S'NNP'
p2043
tp2044
F2.6539806392112371e-05
tp2045
a((S'JJ'
p2046
S'JJS'
p2047
tp2048
F2.6539806392112371e-05
tp2049
a((S'JJR'
p2050
S'JJ'
p2051
tp2052
F2.6539806392112371e-05
tp2053
a((S'MD'
p2054
S'NNS'
p2055
tp2056
F2.6539806392112371e-05
tp2057
a((S'MD'
p2058
S'VBD'
p2059
tp2060
F2.6539806392112371e-05
tp2061
a((S'NNP'
p2062
S'JJR'
p2063
tp2064
F2.6539806392112371e-05
tp2065
a((S'NNP'
p2066
S'WP'
p2067
tp2068
F2.6539806392112371e-05
tp2069
a((S'POS'
p2070
S'SYM'
p2071
tp2072
F2.6539806392112371e-05
tp2073
a((S'PRP$'
p2074
S'JJS'
p2075
tp2076
F2.6539806392112371e-05
tp2077
a((S'PRP$'
p2078
S'NNP'
p2079
tp2080
F2.6539806392112371e-05
tp2081
a((S'RB'
p2082
S'NNP'
p2083
tp2084
F2.6539806392112371e-05
tp2085
a((S'TO'
p2086
S'JJR'
p2087
tp2088
F2.6539806392112371e-05
tp2089
a((S'TO'
p2090
S'VBD'
p2091
tp2092
F2.6539806392112371e-05
tp2093
a((S'TO'
p2094
S'WRB'
p2095
tp2096
F2.6539806392112371e-05
tp2097
a((S'VB'
p2098
S'RBR'
p2099
tp2100
F2.6539806392112371e-05
tp2101
a((S'VBD'
p2102
S'PDT'
p2103
tp2104
F2.6539806392112371e-05
tp2105
a((S'VBG'
p2106
S'JJR'
p2107
tp2108
F2.6539806392112371e-05
tp2109
a((S'VBG'
p2110
S'NNP'
p2111
tp2112
F2.6539806392112371e-05
tp2113
a((S'VBN'
p2114
S'RBR'
p2115
tp2116
F2.6539806392112371e-05
tp2117
a((S'WDT'
p2118
S','
tp2119
F2.6539806392112371e-05
tp2120
a((S'WDT'
p2121
S'VBN'
p2122
tp2123
F2.6539806392112371e-05
tp2124
a((g1814
S'VBZ'
p2125
tp2126
F2.6539806392112371e-05
tp2127
a((S'WRB'
p2128
S'MD'
p2129
tp2130
F2.6539806392112371e-05
tp2131
a((S'WRB'
p2132
S'VBD'
p2133
tp2134
F2.6539806392112371e-05
tp2135
a((S','
S"''"
p2136
tp2137
F1.9904854794084278e-05
tp2138
a((S':'
S'NNP'
p2139
tp2140
F1.9904854794084278e-05
tp2141
a((S':'
S'VB'
p2142
tp2143
F1.9904854794084278e-05
tp2144
a((S'CC'
p2145
S'WP'
p2146
tp2147
F1.9904854794084278e-05
tp2148
a((S'CD'
p2149
S'VBZ'
p2150
tp2151
F1.9904854794084278e-05
tp2152
a((S'CD'
p2153
S'WRB'
p2154
tp2155
F1.9904854794084278e-05
tp2156
a((S'DT'
p2157
S'WDT'
p2158
tp2159
F1.9904854794084278e-05
tp2160
a((S'FW'
p2161
S'DT'
p2162
tp2163
F1.9904854794084278e-05
tp2164
a((S'IN'
p2165
S"''"
p2166
tp2167
F1.9904854794084278e-05
tp2168
a((S'JJ'
p2169
S'RBR'
p2170
tp2171
F1.9904854794084278e-05
tp2172
a((g1202
S'VBG'
p2173
tp2174
F1.9904854794084278e-05
tp2175
a((S'JJR'
p2176
S'WDT'
p2177
tp2178
F1.9904854794084278e-05
tp2179
a((S'JJS'
p2180
S'CC'
p2181
tp2182
F1.9904854794084278e-05
tp2183
a((S'JJS'
p2184
g2153
tp2185
F1.9904854794084278e-05
tp2186
a((S'JJS'
p2187
S'DT'
p2188
tp2189
F1.9904854794084278e-05
tp2190
a((S'MD'
p2191
S'JJ'
p2192
tp2193
F1.9904854794084278e-05
tp2194
a((S'MD'
p2195
S'NNP'
p2196
tp2197
F1.9904854794084278e-05
tp2198
a((S'MD'
p2199
S'VBN'
p2200
tp2201
F1.9904854794084278e-05
tp2202
a((S'NNP'
p2203
S'PRP$'
p2204
tp2205
F1.9904854794084278e-05
tp2206
a((S'NNPS'
p2207
S'CC'
p2208
tp2209
F1.9904854794084278e-05
tp2210
a((g1500
S'MD'
p2211
tp2212
F1.9904854794084278e-05
tp2213
a((S'NNPS'
p2214
S'RB'
p2215
tp2216
F1.9904854794084278e-05
tp2217
a((S'PRP'
p2218
S'WRB'
p2219
tp2220
F1.9904854794084278e-05
tp2221
a((g803
S'IN'
p2222
tp2223
F1.9904854794084278e-05
tp2224
a((S'PRP$'
p2225
S'RB'
p2226
tp2227
F1.9904854794084278e-05
tp2228
a((S'RB'
p2229
S'PRP$'
p2230
tp2231
F1.9904854794084278e-05
tp2232
a((S'RB'
p2233
S'RBS'
p2234
tp2235
F1.9904854794084278e-05
tp2236
a((S'RBR'
p2237
S'RB'
p2238
tp2239
F1.9904854794084278e-05
tp2240
a((S'RP'
p2241
S'PDT'
p2242
tp2243
F1.9904854794084278e-05
tp2244
a((S'RP'
p2245
S'PRP'
p2246
tp2247
F1.9904854794084278e-05
tp2248
a((S'RP'
p2249
S'PRP$'
p2250
tp2251
F1.9904854794084278e-05
tp2252
a((S'RP'
p2253
S'VBD'
p2254
tp2255
F1.9904854794084278e-05
tp2256
a((S'SYM'
p2257
S'NN'
p2258
tp2259
F1.9904854794084278e-05
tp2260
a((S'SYM'
p2261
S'NNP'
p2262
tp2263
F1.9904854794084278e-05
tp2264
a((S'TO'
p2265
S','
tp2266
F1.9904854794084278e-05
tp2267
a((S'TO'
p2268
S'VBN'
p2269
tp2270
F1.9904854794084278e-05
tp2271
a((S'TO'
p2272
g1749
tp2273
F1.9904854794084278e-05
tp2274
a((S'VBD'
p2275
S'MD'
p2276
tp2277
F1.9904854794084278e-05
tp2278
a((S'VBD'
p2279
g1332
tp2280
F1.9904854794084278e-05
tp2281
a((S'VBG'
p2282
S'CD'
p2283
tp2284
F1.9904854794084278e-05
tp2285
a((S'VBG'
p2286
S'VBD'
p2287
tp2288
F1.9904854794084278e-05
tp2289
a((S'VBG'
p2290
S'VBP'
p2291
tp2292
F1.9904854794084278e-05
tp2293
a((S'VBG'
p2294
S'WDT'
p2295
tp2296
F1.9904854794084278e-05
tp2297
a((S'VBP'
p2298
S'NNP'
p2299
tp2300
F1.9904854794084278e-05
tp2301
a((S'VBZ'
p2302
S'VBD'
p2303
tp2304
F1.9904854794084278e-05
tp2305
a((S'VBZ'
p2306
S'WP'
p2307
tp2308
F1.9904854794084278e-05
tp2309
a((S'WDT'
p2310
S'JJS'
p2311
tp2312
F1.9904854794084278e-05
tp2313
a((g1508
S'VBN'
p2314
tp2315
F1.9904854794084278e-05
tp2316
a((S'WRB'
p2317
S'IN'
p2318
tp2319
F1.9904854794084278e-05
tp2320
a((S'WRB'
p2321
S'JJS'
p2322
tp2323
F1.9904854794084278e-05
tp2324
a((S','
S'PDT'
p2325
tp2326
F1.3269903196056185e-05
tp2327
a((S','
S'VBP'
p2328
tp2329
F1.3269903196056185e-05
tp2330
a((S'.'
S'JJR'
p2331
tp2332
F1.3269903196056185e-05
tp2333
a((S'.'
S'RBS'
p2334
tp2335
F1.3269903196056185e-05
tp2336
a((S'.'
S'UH'
p2337
tp2338
F1.3269903196056185e-05
tp2339
a((S'CC'
p2340
S'PDT'
p2341
tp2342
F1.3269903196056185e-05
tp2343
a((S'CD'
p2344
S'MD'
p2345
tp2346
F1.3269903196056185e-05
tp2347
a((S'CD'
p2348
S'RB'
p2349
tp2350
F1.3269903196056185e-05
tp2351
a((S'CD'
p2352
S'TO'
p2353
tp2354
F1.3269903196056185e-05
tp2355
a((S'CD'
p2356
S'VBG'
p2357
tp2358
F1.3269903196056185e-05
tp2359
a((S'DT'
p2360
S'WP'
p2361
tp2362
F1.3269903196056185e-05
tp2363
a((S'IN'
p2364
S'POS'
p2365
tp2366
F1.3269903196056185e-05
tp2367
a((S'JJ'
p2368
S'EX'
p2369
tp2370
F1.3269903196056185e-05
tp2371
a((S'JJ'
p2372
S'PRP$'
p2373
tp2374
F1.3269903196056185e-05
tp2375
a((S'JJ'
p2376
S'WP'
p2377
tp2378
F1.3269903196056185e-05
tp2379
a((S'JJR'
p2380
S':'
tp2381
F1.3269903196056185e-05
tp2382
a((S'JJR'
p2383
S'TO'
p2384
tp2385
F1.3269903196056185e-05
tp2386
a((S'JJS'
p2387
S','
tp2388
F1.3269903196056185e-05
tp2389
a((S'JJS'
p2390
S'.'
tp2391
F1.3269903196056185e-05
tp2392
a((S'JJS'
p2393
S'VBD'
p2394
tp2395
F1.3269903196056185e-05
tp2396
a((S'MD'
p2397
S'CC'
p2398
tp2399
F1.3269903196056185e-05
tp2400
a((S'MD'
p2401
S'RBS'
p2402
tp2403
F1.3269903196056185e-05
tp2404
a((S'MD'
p2405
S'VBP'
p2406
tp2407
F1.3269903196056185e-05
tp2408
a((S'NNP'
p2409
g2261
tp2410
F1.3269903196056185e-05
tp2411
a((S'NNPS'
p2412
S','
tp2413
F1.3269903196056185e-05
tp2414
a((S'NNPS'
p2415
S'JJS'
p2416
tp2417
F1.3269903196056185e-05
tp2418
a((S'POS'
p2419
S'DT'
p2420
tp2421
F1.3269903196056185e-05
tp2422
a((S'POS'
p2423
S'VBD'
p2424
tp2425
F1.3269903196056185e-05
tp2426
a((S'PRP'
p2427
S'CD'
p2428
tp2429
F1.3269903196056185e-05
tp2430
a((S'PRP'
p2431
S'NNP'
p2432
tp2433
F1.3269903196056185e-05
tp2434
a((S'PRP'
p2435
S'RBR'
p2436
tp2437
F1.3269903196056185e-05
tp2438
a((S'PRP$'
p2439
S'DT'
p2440
tp2441
F1.3269903196056185e-05
tp2442
a((S'RB'
p2443
S'PDT'
p2444
tp2445
F1.3269903196056185e-05
tp2446
a((S'RB'
p2447
S'WP'
p2448
tp2449
F1.3269903196056185e-05
tp2450
a((S'RBR'
p2451
S'TO'
p2452
tp2453
F1.3269903196056185e-05
tp2454
a((S'RBS'
p2455
S'IN'
p2456
tp2457
F1.3269903196056185e-05
tp2458
a((S'SYM'
p2459
S'VB'
p2460
tp2461
F1.3269903196056185e-05
tp2462
a((g2071
S'VBP'
p2463
tp2464
F1.3269903196056185e-05
tp2465
a((S'TO'
p2466
S':'
tp2467
F1.3269903196056185e-05
tp2468
a((S'TO'
p2469
S'VBZ'
p2470
tp2471
F1.3269903196056185e-05
tp2472
a((g2337
S','
tp2473
F1.3269903196056185e-05
tp2474
a((S'VB'
p2475
S"''"
p2476
tp2477
F1.3269903196056185e-05
tp2478
a((S'VB'
p2479
S':'
tp2480
F1.3269903196056185e-05
tp2481
a((S'VB'
p2482
S'WDT'
p2483
tp2484
F1.3269903196056185e-05
tp2485
a((S'VBG'
p2486
S':'
tp2487
F1.3269903196056185e-05
tp2488
a((S'VBG'
p2489
S'EX'
p2490
tp2491
F1.3269903196056185e-05
tp2492
a((S'VBG'
p2493
S'MD'
p2494
tp2495
F1.3269903196056185e-05
tp2496
a((S'VBG'
p2497
S'SYM'
p2498
tp2499
F1.3269903196056185e-05
tp2500
a((S'VBG'
p2501
S'VBZ'
p2502
tp2503
F1.3269903196056185e-05
tp2504
a((S'VBG'
p2505
S'WP'
p2506
tp2507
F1.3269903196056185e-05
tp2508
a((S'VBN'
p2509
S'VBP'
p2510
tp2511
F1.3269903196056185e-05
tp2512
a((S'VBP'
p2513
S':'
tp2514
F1.3269903196056185e-05
tp2515
a((S'VBP'
p2516
S'CC'
p2517
tp2518
F1.3269903196056185e-05
tp2519
a((S'VBP'
p2520
S'PRP$'
p2521
tp2522
F1.3269903196056185e-05
tp2523
a((S'VBZ'
p2524
S'JJR'
p2525
tp2526
F1.3269903196056185e-05
tp2527
a((S'VBZ'
p2528
S'MD'
p2529
tp2530
F1.3269903196056185e-05
tp2531
a((g2448
S'NNP'
p2532
tp2533
F1.3269903196056185e-05
tp2534
a((S'WP'
p2535
S'NNS'
p2536
tp2537
F1.3269903196056185e-05
tp2538
a((g1763
S'RB'
p2539
tp2540
F1.3269903196056185e-05
tp2541
a((S'WP'
p2542
S'VB'
p2543
tp2544
F1.3269903196056185e-05
tp2545
a((S'WRB'
p2546
S'CC'
p2547
tp2548
F1.3269903196056185e-05
tp2549
a((S'$'
S'IN'
p2550
tp2551
F6.6349515980280927e-06
tp2552
a((S'$'
S'TO'
p2553
tp2554
F6.6349515980280927e-06
tp2555
a((g2136
S'DT'
p2556
tp2557
F6.6349515980280927e-06
tp2558
a((S"''"
p2559
S'IN'
p2560
tp2561
F6.6349515980280927e-06
tp2562
a((S"''"
p2563
S'RB'
p2564
tp2565
F6.6349515980280927e-06
tp2566
a((S"''"
p2567
S'WDT'
p2568
tp2569
F6.6349515980280927e-06
tp2570
a((S','
S'FW'
p2571
tp2572
F6.6349515980280927e-06
tp2573
a((S','
S'RBR'
p2574
tp2575
F6.6349515980280927e-06
tp2576
a((S'.'
g2161
tp2577
F6.6349515980280927e-06
tp2578
a((S'.'
S'LS'
p2579
tp2580
F6.6349515980280927e-06
tp2581
a((S'.'
S'RBR'
p2582
tp2583
F6.6349515980280927e-06
tp2584
a((S'.'
S'SYM'
p2585
tp2586
F6.6349515980280927e-06
tp2587
a((S':'
S'JJR'
p2588
tp2589
F6.6349515980280927e-06
tp2590
a((S':'
S'RBS'
p2591
tp2592
F6.6349515980280927e-06
tp2593
a((S':'
S'TO'
p2594
tp2595
F6.6349515980280927e-06
tp2596
a((S':'
S'VBP'
p2597
tp2598
F6.6349515980280927e-06
tp2599
a((S':'
S'WRB'
p2600
tp2601
F6.6349515980280927e-06
tp2602
a((S'CC'
p2603
S':'
tp2604
F6.6349515980280927e-06
tp2605
a((S'CC'
p2606
S'UH'
p2607
tp2608
F6.6349515980280927e-06
tp2609
a((g1810
S'$'
tp2610
F6.6349515980280927e-06
tp2611
a((S'CD'
p2612
S'VBP'
p2613
tp2614
F6.6349515980280927e-06
tp2615
a((S'DT'
p2616
S"''"
p2617
tp2618
F6.6349515980280927e-06
tp2619
a((S'DT'
p2620
S':'
tp2621
F6.6349515980280927e-06
tp2622
a((S'DT'
p2623
S'SYM'
p2624
tp2625
F6.6349515980280927e-06
tp2626
a((S'EX'
p2627
S','
tp2628
F6.6349515980280927e-06
tp2629
a((S'EX'
p2630
S'DT'
p2631
tp2632
F6.6349515980280927e-06
tp2633
a((S'EX'
p2634
S'JJS'
p2635
tp2636
F6.6349515980280927e-06
tp2637
a((S'EX'
p2638
S'POS'
p2639
tp2640
F6.6349515980280927e-06
tp2641
a((S'EX'
p2642
S'PRP'
p2643
tp2644
F6.6349515980280927e-06
tp2645
a((S'FW'
p2646
S'.'
tp2647
F6.6349515980280927e-06
tp2648
a((S'FW'
p2649
S'IN'
p2650
tp2651
F6.6349515980280927e-06
tp2652
a((S'FW'
p2653
S'NN'
p2654
tp2655
F6.6349515980280927e-06
tp2656
a((S'FW'
p2657
S'PRP'
p2658
tp2659
F6.6349515980280927e-06
tp2660
a((S'IN'
p2661
S'NNPS'
p2662
tp2663
F6.6349515980280927e-06
tp2664
a((S'IN'
p2665
g1884
tp2666
F6.6349515980280927e-06
tp2667
a((S'JJ'
p2668
S'$'
tp2669
F6.6349515980280927e-06
tp2670
a((S'JJ'
p2671
g2646
tp2672
F6.6349515980280927e-06
tp2673
a((S'JJ'
p2674
S'PDT'
p2675
tp2676
F6.6349515980280927e-06
tp2677
a((S'JJ'
p2678
S'RBS'
p2679
tp2680
F6.6349515980280927e-06
tp2681
a((S'JJR'
p2682
S'NNP'
p2683
tp2684
F6.6349515980280927e-06
tp2685
a((S'JJR'
p2686
S'VBN'
p2687
tp2688
F6.6349515980280927e-06
tp2689
a((S'JJR'
p2690
S'VBP'
p2691
tp2692
F6.6349515980280927e-06
tp2693
a((S'JJR'
p2694
g2524
tp2695
F6.6349515980280927e-06
tp2696
a((S'JJS'
p2697
S'EX'
p2698
tp2699
F6.6349515980280927e-06
tp2700
a((S'JJS'
p2701
S'NNP'
p2702
tp2703
F6.6349515980280927e-06
tp2704
a((S'JJS'
p2705
S'NNPS'
p2706
tp2707
F6.6349515980280927e-06
tp2708
a((S'JJS'
p2709
S'PRP'
p2710
tp2711
F6.6349515980280927e-06
tp2712
a((S'JJS'
p2713
S'RBS'
p2714
tp2715
F6.6349515980280927e-06
tp2716
a((S'JJS'
p2717
S'VB'
p2718
tp2719
F6.6349515980280927e-06
tp2720
a((S'JJS'
p2721
S'VBP'
p2722
tp2723
F6.6349515980280927e-06
tp2724
a((g2579
S'.'
tp2725
F6.6349515980280927e-06
tp2726
a((S'MD'
p2727
S','
tp2728
F6.6349515980280927e-06
tp2729
a((S'MD'
p2730
S'.'
tp2731
F6.6349515980280927e-06
tp2732
a((S'MD'
p2733
S':'
tp2734
F6.6349515980280927e-06
tp2735
a((S'MD'
p2736
S'PRP$'
p2737
tp2738
F6.6349515980280927e-06
tp2739
a((g1594
S'TO'
p2740
tp2741
F6.6349515980280927e-06
tp2742
a((S'MD'
p2743
S'WP'
p2744
tp2745
F6.6349515980280927e-06
tp2746
a((S'MD'
p2747
S'WRB'
p2748
tp2749
F6.6349515980280927e-06
tp2750
a((S'NN'
p2751
g2653
tp2752
F6.6349515980280927e-06
tp2753
a((S'NN'
p2754
S'NNPS'
p2755
tp2756
F6.6349515980280927e-06
tp2757
a((S'NN'
p2758
S'SYM'
p2759
tp2760
F6.6349515980280927e-06
tp2761
a((S'NNPS'
p2762
S'DT'
p2763
tp2764
F6.6349515980280927e-06
tp2765
a((S'NNPS'
p2766
S'NN'
p2767
tp2768
F6.6349515980280927e-06
tp2769
a((S'NNPS'
p2770
S'NNP'
p2771
tp2772
F6.6349515980280927e-06
tp2773
a((S'NNPS'
p2774
S'NNS'
p2775
tp2776
F6.6349515980280927e-06
tp2777
a((S'NNPS'
p2778
S'PRP'
p2779
tp2780
F6.6349515980280927e-06
tp2781
a((g2755
S'VBG'
p2782
tp2783
F6.6349515980280927e-06
tp2784
a((S'NNPS'
p2785
S'VBZ'
p2786
tp2787
F6.6349515980280927e-06
tp2788
a((S'NNS'
p2789
g2567
tp2790
F6.6349515980280927e-06
tp2791
a((S'NNS'
p2792
S'PDT'
p2793
tp2794
F6.6349515980280927e-06
tp2795
a((S'NNS'
p2796
S'PRP$'
p2797
tp2798
F6.6349515980280927e-06
tp2799
a((S'POS'
p2800
S'CC'
p2801
tp2802
F6.6349515980280927e-06
tp2803
a((S'POS'
p2804
S'CD'
p2805
tp2806
F6.6349515980280927e-06
tp2807
a((S'POS'
p2808
S'IN'
p2809
tp2810
F6.6349515980280927e-06
tp2811
a((g2365
S'NNP'
p2812
tp2813
F6.6349515980280927e-06
tp2814
a((S'POS'
p2815
S'VBN'
p2816
tp2817
F6.6349515980280927e-06
tp2818
a((S'PRP'
p2819
S':'
tp2820
F6.6349515980280927e-06
tp2821
a((S'PRP'
p2822
S'EX'
p2823
tp2824
F6.6349515980280927e-06
tp2825
a((S'PRP'
p2826
S'JJS'
p2827
tp2828
F6.6349515980280927e-06
tp2829
a((S'PRP'
p2830
g1951
tp2831
F6.6349515980280927e-06
tp2832
a((S'PRP'
p2833
S'WDT'
p2834
tp2835
F6.6349515980280927e-06
tp2836
a((S'PRP'
p2837
S'WP'
p2838
tp2839
F6.6349515980280927e-06
tp2840
a((S'PRP$'
p2841
S'CD'
p2842
tp2843
F6.6349515980280927e-06
tp2844
a((S'PRP$'
p2845
S'MD'
p2846
tp2847
F6.6349515980280927e-06
tp2848
a((S'PRP$'
p2849
S'PRP'
p2850
tp2851
F6.6349515980280927e-06
tp2852
a((S'PRP$'
p2853
S'VB'
p2854
tp2855
F6.6349515980280927e-06
tp2856
a((S'RB'
p2857
S'RP'
p2858
tp2859
F6.6349515980280927e-06
tp2860
a((g2582
S','
tp2861
F6.6349515980280927e-06
tp2862
a((S'RBR'
p2863
g2022
tp2864
F6.6349515980280927e-06
tp2865
a((S'RBR'
p2866
S'MD'
p2867
tp2868
F6.6349515980280927e-06
tp2869
a((S'RBR'
p2870
S'PRP'
p2871
tp2872
F6.6349515980280927e-06
tp2873
a((S'RBR'
p2874
S'VBG'
p2875
tp2876
F6.6349515980280927e-06
tp2877
a((g2170
S'WRB'
p2878
tp2879
F6.6349515980280927e-06
tp2880
a((S'RBS'
p2881
S'.'
tp2882
F6.6349515980280927e-06
tp2883
a((g2234
S'NNS'
p2884
tp2885
F6.6349515980280927e-06
tp2886
a((S'RBS'
p2887
S'VBN'
p2888
tp2889
F6.6349515980280927e-06
tp2890
a((S'RP'
p2891
S'CD'
p2892
tp2893
F6.6349515980280927e-06
tp2894
a((S'RP'
p2895
S'VBZ'
p2896
tp2897
F6.6349515980280927e-06
tp2898
a((S'RP'
p2899
S'WP'
p2900
tp2901
F6.6349515980280927e-06
tp2902
a((S'TO'
p2903
S'NNPS'
p2904
tp2905
F6.6349515980280927e-06
tp2906
a((S'TO'
p2907
S'WDT'
p2908
tp2909
F6.6349515980280927e-06
tp2910
a((S'TO'
p2911
S'WP'
p2912
tp2913
F6.6349515980280927e-06
tp2914
a((S'UH'
p2915
S'IN'
p2916
tp2917
F6.6349515980280927e-06
tp2918
a((S'VB'
p2919
S'RBS'
p2920
tp2921
F6.6349515980280927e-06
tp2922
a((S'VB'
p2923
g858
tp2924
F6.6349515980280927e-06
tp2925
a((S'VBD'
p2926
S'WDT'
p2927
tp2928
F6.6349515980280927e-06
tp2929
a((S'VBG'
p2930
S"''"
p2931
tp2932
F6.6349515980280927e-06
tp2933
a((S'VBN'
p2934
S'SYM'
p2935
tp2936
F6.6349515980280927e-06
tp2937
a((S'VBN'
p2938
S'VB'
p2939
tp2940
F6.6349515980280927e-06
tp2941
a((S'VBN'
p2942
S'WP'
p2943
tp2944
F6.6349515980280927e-06
tp2945
a((S'VBP'
p2946
S'RBR'
p2947
tp2948
F6.6349515980280927e-06
tp2949
a((S'VBP'
p2950
S'VBZ'
p2951
tp2952
F6.6349515980280927e-06
tp2953
a((S'VBP'
p2954
g2535
tp2955
F6.6349515980280927e-06
tp2956
a((S'VBZ'
p2957
S'WDT'
p2958
tp2959
F6.6349515980280927e-06
tp2960
a((S'WDT'
p2961
S"''"
p2962
tp2963
F6.6349515980280927e-06
tp2964
a((S'WDT'
p2965
S'NNP'
p2966
tp2967
F6.6349515980280927e-06
tp2968
a((S'WP'
p2969
S'JJS'
p2970
tp2971
F6.6349515980280927e-06
tp2972
a((g2146
S'NN'
p2973
tp2974
F6.6349515980280927e-06
tp2975
a((S'WP'
p2976
S'VBP'
p2977
tp2978
F6.6349515980280927e-06
tp2979
a((S'WP'
p2980
S'WRB'
p2981
tp2982
F6.6349515980280927e-06
tp2983
a((S'WRB'
p2984
S','
tp2985
F6.6349515980280927e-06
tp2986
a((S'WRB'
p2987
S'CD'
p2988
tp2989
F6.6349515980280927e-06
tp2990
a((S'WRB'
p2991
S'JJR'
p2992
tp2993
F6.6349515980280927e-06
tp2994
a((S'WRB'
p2995
S'PDT'
p2996
tp2997
F6.6349515980280927e-06
tp2998
a((S'WRB'
p2999
S'VB'
p3000
tp3001
F6.6349515980280927e-06
tp3002
a((S'WRB'
p3003
S'VBZ'
p3004
tp3005
F6.6349515980280927e-06
tp3006
a.