(lp1
(S'NN'
p2
I27147
tp3
a(S'IN'
p4
I20725
tp5
a(S'PRP'
p6
I19669
tp7
a(S'DT'
p8
I15709
tp9
a(S'VBD'
p10
I14927
tp11
a(S'JJ'
p12
I13068
tp13
a(S'RB'
p14
I12326
tp15
a(S'VB'
p16
I9022
tp17
a(S'CC'
p18
I8126
tp19
a(S'NNS'
p20
I7576
tp21
a(S'TO'
p22
I6109
tp23
a(S'PRP$'
p24
I5633
tp25
a(S'VBG'
p26
I5525
tp27
a(S'NNP'
p28
I4699
tp29
a(S'VBP'
p30
I4201
tp31
a(S'VBZ'
p32
I3322
tp33
a(S'VBN'
p34
I2849
tp35
a(S'MD'
p36
I2377
tp37
a(S'RP'
p38
I2229
tp39
a(S'WRB'
p40
I1869
tp41
a(S'CD'
p42
I1471
tp43
a(S'WP'
p44
I925
tp45
a(S'WDT'
p46
I909
tp47
a(S'FW'
p48
I714
tp49
a(S'JJS'
p50
I675
tp51
a(S'JJR'
p52
I555
tp53
a(S'RBR'
p54
I337
tp55
a(S'EX'
p56
I333
tp57
a(S'PDT'
p58
I301
tp59
a(NI131
tp60
a(S'RBS'
p61
I118
tp62
a(S'UH'
p63
I52
tp64
a(S'NNPS'
p65
I16
tp66
a(S':'
I7
tp67
a(S'WP$'
p68
I2
tp69
a(S'.'
I1
tp70
a(S'SYM'
p71
I1
tp72
a.