(lp1
(S'NN'
p2
I21325
tp3
a(S'DT'
p4
I20088
tp5
a(S'IN'
p6
I16903
tp7
a(S'JJ'
p8
I11221
tp9
a(S'NNS'
p10
I10090
tp11
a(S'NNP'
p12
I8306
tp13
a(S'VBD'
p14
I7848
tp15
a(S'VB'
p16
I6810
tp17
a(S'RB'
p18
I6677
tp19
a(S'TO'
p20
I6130
tp21
a(S'VBG'
p22
I3497
tp23
a(S'VBN'
p24
I3308
tp25
a(S'PRP'
p26
I3198
tp27
a(S'MD'
p28
I2883
tp29
a(S'CC'
p30
I2659
tp31
a(S'VBZ'
p32
I1296
tp33
a(S'CD'
p34
I1067
tp35
a(S'WDT'
p36
I829
tp37
a(S'RP'
p38
I742
tp39
a(S'WRB'
p40
I708
tp41
a(S'EX'
p42
I666
tp43
a(S'VBP'
p44
I605
tp45
a(S'JJS'
p46
I558
tp47
a(S'PRP$'
p48
I357
tp49
a(S'JJR'
p50
I274
tp51
a(S'PDT'
p52
I233
tp53
a(S'NNPS'
p54
I143
tp55
a(S'WP'
p56
I92
tp57
a(S'RBR'
p58
I76
tp59
a(S'RBS'
p60
I56
tp61
a(NI28
tp62
a(S':'
I4
tp63
a(S'SYM'
p64
I1
tp65
a(S'UH'
p66
I1
tp67
a.