(lp1
(S'NN'
p2
I99928
tp3
a(S'IN'
p4
I90367
tp5
a(S'NNS'
p6
I55557
tp7
a(S'DT'
p8
I52004
tp9
a(S'PRP'
p10
I49501
tp11
a(S'VB'
p12
I46288
tp13
a(S'JJ'
p14
I43126
tp15
a(S'.'
I40153
tp16
a(S'RB'
p17
I37742
tp18
a(S'VBP'
p19
I34473
tp20
a(S'CC'
p21
I26888
tp22
a(S','
I23989
tp23
a(S'TO'
p24
I22203
tp25
a(S'VBZ'
p26
I18187
tp27
a(S'MD'
p28
I16014
tp29
a(S'VBG'
p30
I15839
tp31
a(S'NNP'
p32
I13788
tp33
a(S'PRP$'
p34
I13610
tp35
a(S'VBD'
p36
I7624
tp37
a(S'VBN'
p38
I7304
tp39
a(S'WRB'
p40
I5722
tp41
a(S'POS'
p42
I4990
tp43
a(S'RP'
p44
I4323
tp45
a(S'JJR'
p46
I3872
tp47
a(S'WP'
p48
I2990
tp49
a(S'WDT'
p50
I2907
tp51
a(S'CD'
p52
I2900
tp53
a(S':'
I2122
tp54
a(S"''"
p55
I1976
tp56
a(S'RBR'
p57
I1656
tp58
a(S'EX'
p59
I1582
tp60
a(S'JJS'
p61
I1322
tp62
a(S'PDT'
p63
I871
tp64
a(S'FW'
p65
I531
tp66
a(S'SYM'
p67
I509
tp68
a(S'NNPS'
p69
I462
tp70
a(S'RBS'
p71
I408
tp72
a(S'UH'
p73
I381
tp74
a(S'LS'
p75
I14
tp76
a(S'$'
I5
tp77
a(S'WP$'
p78
I5
tp79
a(S'#'
I2
tp80
a.