(lp1
(S'NN'
p2
I17136
tp3
a(S'DT'
p4
I13232
tp5
a(S'IN'
p6
I11556
tp7
a(S'JJ'
p8
I6863
tp9
a(S'PRP'
p10
I6793
tp11
a(S'VBD'
p12
I5969
tp13
a(S'RB'
p14
I5088
tp15
a(S'VB'
p16
I4420
tp17
a(S'NNS'
p18
I4297
tp19
a(S'VBZ'
p20
I3734
tp21
a(S'CC'
p22
I3223
tp23
a(S'VBG'
p24
I2689
tp25
a(S'NNP'
p26
I2589
tp27
a(S'TO'
p28
I2548
tp29
a(S'VBN'
p30
I2235
tp31
a(S'PRP$'
p32
I1527
tp33
a(S'VBP'
p34
I1370
tp35
a(S'MD'
p36
I1167
tp37
a(S'WRB'
p38
I940
tp39
a(S'WDT'
p40
I774
tp41
a(S'RP'
p42
I733
tp43
a(S'CD'
p44
I364
tp45
a(S'JJR'
p46
I357
tp47
a(S'EX'
p48
I329
tp49
a(S'RBR'
p50
I263
tp51
a(S'WP'
p52
I209
tp53
a(S'JJS'
p54
I118
tp55
a(S'PDT'
p56
I106
tp57
a(S'RBS'
p58
I39
tp59
a(NI33
tp60
a(S'FW'
p61
I15
tp62
a(S':'
I10
tp63
a(S'NNPS'
p64
I5
tp65
a(S'.'
I4
tp66
a(S'SYM'
p67
I3
tp68
a(S'$'
I1
tp69
a(S','
I1
tp70
a(S'UH'
p71
I1
tp72
a.