(lp1
(S'NN'
p2
I20812
tp3
a(S'DT'
p4
I19245
tp5
a(S'IN'
p6
I16374
tp7
a(S'JJ'
p8
I10752
tp9
a(S'NNS'
p10
I9591
tp11
a(S'NNP'
p12
I7998
tp13
a(S'VBD'
p14
I7465
tp15
a(S'VB'
p16
I6646
tp17
a(S'RB'
p18
I6451
tp19
a(S'TO'
p20
I5926
tp21
a(S'VBG'
p22
I3275
tp23
a(S'VBN'
p24
I3208
tp25
a(S'PRP'
p26
I3165
tp27
a(S'MD'
p28
I2809
tp29
a(S'CC'
p30
I2574
tp31
a(S'VBZ'
p32
I1306
tp33
a(S'CD'
p34
I992
tp35
a(S'WDT'
p36
I873
tp37
a(S'WRB'
p38
I700
tp39
a(S'RP'
p40
I688
tp41
a(S'EX'
p42
I642
tp43
a(S'VBP'
p44
I634
tp45
a(S'JJS'
p46
I535
tp47
a(S'PRP$'
p48
I376
tp49
a(S'JJR'
p50
I291
tp51
a(S'PDT'
p52
I231
tp53
a(S'NNPS'
p54
I157
tp55
a(S'RBR'
p56
I90
tp57
a(S'WP'
p58
I88
tp59
a(S'RBS'
p60
I51
tp61
a(NI26
tp62
a(S':'
I3
tp63
a(S'UH'
p64
I2
tp65
a(S'$'
I1
tp66
a(S'FW'
p67
I1
tp68
a.