(lp1
(S'NN'
p2
I50063
tp3
a(S'IN'
p4
I44854
tp5
a(S'NNS'
p6
I27581
tp7
a(S'DT'
p8
I25922
tp9
a(S'PRP'
p10
I24492
tp11
a(S'VB'
p12
I22917
tp13
a(S'JJ'
p14
I21444
tp15
a(S'.'
I20084
tp16
a(S'RB'
p17
I18643
tp18
a(S'VBP'
p19
I17044
tp20
a(S'CC'
p21
I13291
tp22
a(S','
I11818
tp23
a(S'TO'
p24
I10888
tp25
a(S'VBZ'
p26
I9139
tp27
a(S'MD'
p28
I7928
tp29
a(S'VBG'
p30
I7830
tp31
a(S'PRP$'
p32
I6796
tp33
a(S'NNP'
p34
I6725
tp35
a(S'VBD'
p36
I3790
tp37
a(S'VBN'
p38
I3575
tp39
a(S'WRB'
p40
I2887
tp41
a(S'POS'
p42
I2493
tp43
a(S'RP'
p44
I2153
tp45
a(S'JJR'
p46
I1882
tp47
a(S'WDT'
p48
I1442
tp49
a(S'WP'
p50
I1426
tp51
a(S'CD'
p52
I1415
tp53
a(S':'
I1043
tp54
a(S"''"
p55
I1002
tp56
a(S'RBR'
p57
I812
tp58
a(S'EX'
p59
I796
tp60
a(S'JJS'
p61
I684
tp62
a(S'PDT'
p63
I447
tp64
a(S'FW'
p65
I293
tp66
a(S'SYM'
p67
I273
tp68
a(S'NNPS'
p69
I211
tp70
a(S'RBS'
p71
I206
tp72
a(S'UH'
p73
I171
tp74
a(S'$'
I5
tp75
a(S'LS'
p76
I5
tp77
a(S'WP$'
p78
I3
tp79
a(S'#'
I1
tp80
a.