(lp1
(S'NN'
p2
I50926
tp3
a(S'IN'
p4
I39428
tp5
a(S'NNS'
p6
I28794
tp7
a(S'DT'
p8
I27728
tp9
a(S'PRP'
p10
I25314
tp11
a(S'JJ'
p12
I24777
tp13
a(S'VB'
p14
I23910
tp15
a(S'RB'
p16
I19911
tp17
a(S'VBP'
p18
I18749
tp19
a(S'CC'
p20
I14278
tp21
a(S'TO'
p22
I12020
tp23
a(S'VBZ'
p24
I9025
tp25
a(S'VBG'
p26
I8423
tp27
a(S'MD'
p28
I8304
tp29
a(S'PRP$'
p30
I7159
tp31
a(S'NNP'
p32
I5285
tp33
a(S'VBD'
p34
I3967
tp35
a(S'VBN'
p36
I3819
tp37
a(S'WRB'
p38
I3034
tp39
a(S'RP'
p40
I2113
tp41
a(S'JJR'
p42
I2008
tp43
a(S'WDT'
p44
I1609
tp45
a(S'WP'
p46
I1549
tp47
a(S'CD'
p48
I1380
tp49
a(S'RBR'
p50
I924
tp51
a(S'EX'
p52
I812
tp53
a(S'JJS'
p54
I666
tp55
a(S'PDT'
p56
I478
tp57
a(S'FW'
p58
I228
tp59
a(S'NNPS'
p60
I226
tp61
a(S'RBS'
p62
I210
tp63
a(NI140
tp64
a(S'UH'
p65
I65
tp66
a(S':'
I62
tp67
a(S'.'
I11
tp68
a(S'SYM'
p69
I11
tp70
a(S'WP$'
p71
I4
tp72
a(S'#'
I2
tp73
a(S'LS'
p74
I2
tp75
a(S"''"
p76
I1
tp77
a(S'POS'
p78
I1
tp79
a.