(lp1
(S'NN'
p2
I19004
tp3
a(S'IN'
p4
I15140
tp5
a(S'DT'
p6
I12232
tp7
a(S'JJ'
p8
I8734
tp9
a(S'PRP'
p10
I7169
tp11
a(S'NNS'
p12
I6252
tp13
a(S'VBD'
p14
I5544
tp15
a(S'VBZ'
p16
I5544
tp17
a(S'.'
I5170
tp18
a(S'RB'
p19
I4907
tp20
a(S'CC'
p21
I4735
tp22
a(S'PRP$'
p23
I4721
tp24
a(S','
I3858
tp25
a(S'NNP'
p26
I3841
tp27
a(S'VB'
p28
I2979
tp29
a(S'TO'
p30
I2489
tp31
a(S'VBN'
p32
I2098
tp33
a(S'VBG'
p34
I2093
tp35
a(S'WRB'
p36
I1682
tp37
a(S'VBP'
p38
I1500
tp39
a(S'MD'
p40
I1023
tp41
a(S'WDT'
p42
I798
tp43
a(S'WP'
p44
I506
tp45
a(S'CD'
p46
I495
tp47
a(S'RP'
p48
I427
tp49
a(S'POS'
p50
I382
tp51
a(S':'
I372
tp52
a(S'JJR'
p53
I354
tp54
a(S"''"
p55
I347
tp56
a(S'EX'
p57
I248
tp58
a(S'PDT'
p59
I188
tp60
a(S'JJS'
p61
I80
tp62
a(S'RBR'
p63
I80
tp64
a(S'NNPS'
p65
I63
tp66
a(S'FW'
p67
I36
tp68
a(S'RBS'
p69
I30
tp70
a(S'SYM'
p71
I14
tp72
a(S'WP$'
p73
I1
tp74
a.