(lp1
(S'NN'
p2
I18333
tp3
a(S'IN'
p4
I13046
tp5
a(S'DT'
p6
I12131
tp7
a(S'JJ'
p8
I8395
tp9
a(S'PRP'
p10
I6894
tp11
a(S'NNS'
p12
I5681
tp13
a(S'VBD'
p14
I5356
tp15
a(S'VBZ'
p16
I5073
tp17
a(S'RB'
p18
I4822
tp19
a(S'PRP$'
p20
I4697
tp21
a(S'CC'
p22
I4616
tp23
a(S'NNP'
p24
I3442
tp25
a(S'VB'
p26
I3066
tp27
a(S'TO'
p28
I2486
tp29
a(S'VBN'
p30
I1750
tp31
a(S'VBG'
p32
I1711
tp33
a(S'WRB'
p34
I1679
tp35
a(S'VBP'
p36
I1511
tp37
a(S'MD'
p38
I1006
tp39
a(S'WDT'
p40
I803
tp41
a(S'WP'
p42
I502
tp43
a(S'RP'
p44
I412
tp45
a(S'CD'
p46
I357
tp47
a(S'JJR'
p48
I350
tp49
a(S'EX'
p50
I245
tp51
a(S'PDT'
p52
I196
tp53
a(S'JJS'
p54
I78
tp55
a(S'RBR'
p56
I78
tp57
a(S'NNPS'
p58
I64
tp59
a(NI48
tp60
a(S'RBS'
p61
I32
tp62
a(S'FW'
p63
I13
tp64
a(S':'
I6
tp65
a(S','
I1
tp66
a(S'POS'
p67
I1
tp68
a(S'WP$'
p69
I1
tp70
a.