(lp1
(S'NN'
p2
I18436
tp3
a(S'DT'
p4
I13453
tp5
a(S'IN'
p6
I12130
tp7
a(S'JJ'
p8
I7673
tp9
a(S'PRP'
p10
I7210
tp11
a(S'VBD'
p12
I6227
tp13
a(S'RB'
p14
I5285
tp15
a(S'.'
I5206
tp16
a(S'NNS'
p17
I4678
tp18
a(S'VB'
p19
I4407
tp20
a(S'VBZ'
p21
I4076
tp22
a(S'CC'
p23
I3338
tp24
a(S','
I3077
tp25
a(S'VBG'
p26
I2863
tp27
a(S'TO'
p28
I2553
tp29
a(S'VBN'
p30
I2417
tp31
a(S'NNP'
p32
I2142
tp33
a(S'PRP$'
p34
I1545
tp35
a(S'VBP'
p36
I1438
tp37
a(S'MD'
p38
I1198
tp39
a(S'WRB'
p40
I936
tp41
a(S'RP'
p42
I791
tp43
a(S'WDT'
p44
I760
tp45
a(S'CD'
p46
I457
tp47
a(S'JJR'
p48
I357
tp49
a(S'EX'
p50
I347
tp51
a(S':'
I303
tp52
a(S'RBR'
p53
I273
tp54
a(S'WP'
p55
I214
tp56
a(S'JJS'
p57
I114
tp58
a(S'PDT'
p59
I95
tp60
a(S'POS'
p61
I48
tp62
a(S"''"
p63
I47
tp64
a(S'SYM'
p65
I43
tp66
a(S'RBS'
p67
I37
tp68
a(S'FW'
p69
I30
tp70
a(S'``'
p71
I6
tp72
a(S'UH'
p73
I5
tp74
a(S'NNPS'
p75
I3
tp76
a(S'$'
I1
tp77
a.