(lp1
(S'NN'
p2
I18424
tp3
a(S'IN'
p4
I13160
tp5
a(S'DT'
p6
I12059
tp7
a(S'JJ'
p8
I8362
tp9
a(S'PRP'
p10
I6904
tp11
a(S'NNS'
p12
I5685
tp13
a(S'VBD'
p14
I5280
tp15
a(S'VBZ'
p16
I5248
tp17
a(S'RB'
p18
I4906
tp19
a(S'PRP$'
p20
I4649
tp21
a(S'CC'
p22
I4626
tp23
a(S'NNP'
p24
I3624
tp25
a(S'VB'
p26
I3120
tp27
a(S'TO'
p28
I2568
tp29
a(S'VBG'
p30
I1735
tp31
a(S'VBN'
p32
I1719
tp33
a(S'WRB'
p34
I1680
tp35
a(S'VBP'
p36
I1493
tp37
a(S'MD'
p38
I980
tp39
a(S'WDT'
p40
I751
tp41
a(S'WP'
p42
I551
tp43
a(S'RP'
p44
I407
tp45
a(S'CD'
p46
I376
tp47
a(S'JJR'
p48
I354
tp49
a(S'EX'
p50
I221
tp51
a(S'PDT'
p52
I191
tp53
a(S'RBR'
p54
I89
tp55
a(S'NNPS'
p56
I65
tp57
a(S'JJS'
p58
I62
tp59
a(NI49
tp60
a(S'RBS'
p61
I38
tp62
a(S'FW'
p63
I19
tp64
a(S':'
I3
tp65
a(S'POS'
p66
I2
tp67
a(S'UH'
p68
I2
tp69
a(S"''"
p70
I1
tp71
a(S','
I1
tp72
a(S'SYM'
p73
I1
tp74
a.