(lp1
(S'NN'
p2
I45472
tp3
a(S'IN'
p4
I45284
tp5
a(S'DT'
p6
I32637
tp7
a(S'NNS'
p8
I30932
tp9
a(S'VB'
p10
I27100
tp11
a(S'PRP'
p12
I25502
tp13
a(S'JJ'
p14
I22898
tp15
a(S'RB'
p16
I20454
tp17
a(S'.'
I18482
tp18
a(S'VBP'
p19
I17379
tp20
a(S'CC'
p21
I14495
tp22
a(S','
I13616
tp23
a(S'TO'
p24
I12788
tp25
a(S'VBZ'
p26
I10971
tp27
a(S'MD'
p28
I10182
tp29
a(S'VBN'
p30
I7139
tp31
a(S'VBG'
p32
I6414
tp33
a(S'NNP'
p34
I5353
tp35
a(S'PRP$'
p36
I5251
tp37
a(S'VBD'
p38
I4766
tp39
a(S'POS'
p40
I3432
tp41
a(S'WP'
p42
I3128
tp43
a(S'WDT'
p44
I3072
tp45
a(S'RP'
p46
I2648
tp47
a(S'WRB'
p48
I2490
tp49
a(S'EX'
p50
I1720
tp51
a(S"''"
p52
I1648
tp53
a(S'CD'
p54
I1309
tp55
a(S'JJR'
p56
I970
tp57
a(S'FW'
p58
I911
tp59
a(S'JJS'
p60
I586
tp61
a(S':'
I585
tp62
a(S'RBR'
p63
I435
tp64
a(S'PDT'
p65
I404
tp66
a(S'UH'
p67
I200
tp68
a(S'RBS'
p69
I134
tp70
a(S'NNPS'
p71
I108
tp72
a(S'SYM'
p73
I82
tp74
a(S'WP$'
p75
I8
tp76
a(S'LS'
p77
I3
tp78
a.