(lp1
(S'NN'
p2
I13697
tp3
a(S'DT'
p4
I10721
tp5
a(S'IN'
p6
I8811
tp7
a(S'PRP'
p8
I6293
tp9
a(S'VBZ'
p10
I5008
tp11
a(S'VB'
p12
I4733
tp13
a(S'JJ'
p14
I4112
tp15
a(S'RB'
p16
I4048
tp17
a(S'TO'
p18
I3157
tp19
a(S'CC'
p20
I2797
tp21
a(S'VBD'
p22
I2560
tp23
a(S'VBG'
p24
I2419
tp25
a(S'NNP'
p26
I2038
tp27
a(S'NNS'
p28
I1985
tp29
a(S'PRP$'
p30
I1749
tp31
a(S'MD'
p32
I1545
tp33
a(S'WRB'
p34
I1343
tp35
a(S'VBP'
p36
I1249
tp37
a(S'VBN'
p38
I985
tp39
a(S'RP'
p40
I441
tp41
a(S'WDT'
p42
I368
tp43
a(S'WP'
p44
I222
tp45
a(S'JJR'
p46
I150
tp47
a(S'RBR'
p48
I126
tp49
a(S'CD'
p50
I100
tp51
a(NI79
tp52
a(S'PDT'
p53
I70
tp54
a(S'EX'
p55
I55
tp56
a(S'JJS'
p57
I37
tp58
a(S'NNPS'
p59
I23
tp60
a(S'RBS'
p61
I17
tp62
a(S'FW'
p63
I4
tp64
a(S':'
I3
tp65
a(S'UH'
p66
I1
tp67
a(S'WP$'
p68
I1
tp69
a.