(lp1
(S'NN'
p2
I44853
tp3
a(S'IN'
p4
I40318
tp5
a(S'DT'
p6
I32653
tp7
a(S'NNS'
p8
I29367
tp9
a(S'VB'
p10
I26246
tp11
a(S'JJ'
p12
I24292
tp13
a(S'PRP'
p14
I24216
tp15
a(S'RB'
p16
I20223
tp17
a(S'VBP'
p18
I17352
tp19
a(S'CC'
p20
I14412
tp21
a(S'TO'
p22
I12756
tp23
a(S'VBZ'
p24
I10032
tp25
a(S'MD'
p26
I9921
tp27
a(S'VBN'
p28
I7113
tp29
a(S'VBG'
p30
I6533
tp31
a(S'PRP$'
p32
I5207
tp33
a(S'VBD'
p34
I4690
tp35
a(S'NNP'
p36
I4495
tp37
a(S'WDT'
p38
I3104
tp39
a(S'WP'
p40
I3081
tp41
a(S'WRB'
p42
I2477
tp43
a(S'RP'
p44
I2474
tp45
a(S'EX'
p46
I1647
tp47
a(S'CD'
p48
I1259
tp49
a(S'JJR'
p50
I969
tp51
a(S'FW'
p52
I654
tp53
a(S'JJS'
p54
I571
tp55
a(S'PDT'
p56
I429
tp57
a(S'RBR'
p58
I419
tp59
a(NI177
tp60
a(S'RBS'
p61
I146
tp62
a(S'NNPS'
p63
I138
tp64
a(S'UH'
p65
I35
tp66
a(S':'
I18
tp67
a(S'POS'
p68
I18
tp69
a(S"''"
p70
I11
tp71
a(S'.'
I11
tp72
a(S'WP$'
p73
I8
tp74
a(S'SYM'
p75
I2
tp76
a(S'LS'
p77
I1
tp78
a.