(lp1
(S'NN'
p2
I44364
tp3
a(S'IN'
p4
I39986
tp5
a(S'DT'
p6
I32434
tp7
a(S'NNS'
p8
I29654
tp9
a(S'VB'
p10
I26248
tp11
a(S'PRP'
p12
I24301
tp13
a(S'JJ'
p14
I24126
tp15
a(S'RB'
p16
I20229
tp17
a(S'VBP'
p18
I17286
tp19
a(S'CC'
p20
I14444
tp21
a(S'TO'
p22
I12537
tp23
a(S'MD'
p24
I10180
tp25
a(S'VBZ'
p26
I10022
tp27
a(S'VBN'
p28
I6976
tp29
a(S'VBG'
p30
I6408
tp31
a(S'PRP$'
p32
I4926
tp33
a(S'VBD'
p34
I4703
tp35
a(S'NNP'
p36
I4171
tp37
a(S'WP'
p38
I3104
tp39
a(S'WDT'
p40
I3082
tp41
a(S'WRB'
p42
I2615
tp43
a(S'RP'
p44
I2591
tp45
a(S'EX'
p46
I1701
tp47
a(S'CD'
p48
I1197
tp49
a(S'JJR'
p50
I996
tp51
a(S'FW'
p52
I644
tp53
a(S'JJS'
p54
I568
tp55
a(S'PDT'
p56
I457
tp57
a(S'RBR'
p58
I457
tp59
a(NI147
tp60
a(S'RBS'
p61
I144
tp62
a(S'NNPS'
p63
I140
tp64
a(S'UH'
p65
I38
tp66
a(S':'
I20
tp67
a(S'.'
I12
tp68
a(S'POS'
p69
I10
tp70
a(S"''"
p71
I8
tp72
a(S'WP$'
p73
I7
tp74
a(S'LS'
p75
I1
tp76
a(S'SYM'
p77
I1
tp78
a.