(lp1
(S'NN'
p2
I15225
tp3
a(S'DT'
p4
I11886
tp5
a(S'IN'
p6
I9753
tp7
a(S'PRP'
p8
I6898
tp9
a(S'VBZ'
p10
I5642
tp11
a(S'VB'
p12
I5251
tp13
a(S'JJ'
p14
I4600
tp15
a(S'RB'
p16
I4562
tp17
a(S'TO'
p18
I3386
tp19
a(S'CC'
p20
I3092
tp21
a(S'VBD'
p22
I2866
tp23
a(S'VBG'
p24
I2662
tp25
a(S'NNP'
p26
I2321
tp27
a(S'NNS'
p28
I2158
tp29
a(S'PRP$'
p30
I1890
tp31
a(S'MD'
p32
I1758
tp33
a(S'WRB'
p34
I1547
tp35
a(S'VBP'
p36
I1369
tp37
a(S'VBN'
p38
I1112
tp39
a(S'RP'
p40
I486
tp41
a(S'WDT'
p42
I402
tp43
a(S'WP'
p44
I256
tp45
a(S'JJR'
p46
I144
tp47
a(S'RBR'
p48
I129
tp49
a(S'CD'
p50
I116
tp51
a(S'PDT'
p52
I77
tp53
a(NI73
tp54
a(S'EX'
p55
I66
tp56
a(S'JJS'
p57
I43
tp58
a(S'NNPS'
p59
I29
tp60
a(S'RBS'
p61
I24
tp62
a(S'FW'
p63
I10
tp64
a(S':'
I7
tp65
a(S'UH'
p66
I1
tp67
a(S'WP$'
p68
I1
tp69
a.