(lp1
(S'NN'
p2
I15507
tp3
a(S'DT'
p4
I11875
tp5
a(S'IN'
p6
I10500
tp7
a(S'PRP'
p8
I6043
tp9
a(S'JJ'
p10
I5977
tp11
a(S'VBD'
p12
I5210
tp13
a(S'RB'
p14
I4553
tp15
a(S'VB'
p16
I4042
tp17
a(S'NNS'
p18
I3828
tp19
a(S'VBZ'
p20
I3420
tp21
a(S'CC'
p22
I2915
tp23
a(S'VBG'
p24
I2493
tp25
a(S'NNP'
p26
I2354
tp27
a(S'TO'
p28
I2337
tp29
a(S'VBN'
p30
I2029
tp31
a(S'PRP$'
p32
I1375
tp33
a(S'VBP'
p34
I1233
tp35
a(S'MD'
p36
I1056
tp37
a(S'WRB'
p38
I856
tp39
a(S'RP'
p40
I686
tp41
a(S'WDT'
p42
I681
tp43
a(S'CD'
p44
I343
tp45
a(S'JJR'
p46
I341
tp47
a(S'EX'
p48
I294
tp49
a(S'RBR'
p50
I212
tp51
a(S'WP'
p52
I199
tp53
a(S'JJS'
p54
I124
tp55
a(S'PDT'
p56
I107
tp57
a(S'RBS'
p58
I32
tp59
a(NI31
tp60
a(S'FW'
p61
I15
tp62
a(S'NNPS'
p63
I5
tp64
a(S':'
I4
tp65
a(S'.'
I2
tp66
a(S'SYM'
p67
I2
tp68
a(S'UH'
p69
I2
tp70
a(S'$'
I1
tp71
a(S','
I1
tp72
a(S'WP$'
p73
I1
tp74
a.