(lp1
(S'IN'
p2
I28174
tp3
a(S'NN'
p4
I27695
tp5
a(S'PRP'
p6
I20626
tp7
a(S'DT'
p8
I15678
tp9
a(S'VBD'
p10
I15069
tp11
a(S'RB'
p12
I12665
tp13
a(S'JJ'
p14
I12481
tp15
a(S'.'
I10718
tp16
a(S'VB'
p17
I8995
tp18
a(S'NNS'
p19
I8440
tp20
a(S'CC'
p21
I8192
tp22
a(S','
I7118
tp23
a(S'TO'
p24
I6116
tp25
a(S'NNP'
p26
I6095
tp27
a(S'PRP$'
p28
I5586
tp29
a(S'VBG'
p30
I5573
tp31
a(S'VBP'
p32
I4255
tp33
a(S'VBZ'
p34
I3935
tp35
a(S'VBN'
p36
I2965
tp37
a(S'MD'
p38
I2439
tp39
a(S'RP'
p40
I2437
tp41
a(S'POS'
p42
I2085
tp43
a(S'WRB'
p44
I1873
tp45
a(S'CD'
p46
I1574
tp47
a(S'WP'
p48
I943
tp49
a(S'WDT'
p50
I903
tp51
a(S'FW'
p52
I731
tp53
a(S'JJS'
p54
I681
tp55
a(S"''"
p56
I606
tp57
a(S'JJR'
p58
I568
tp59
a(S':'
I532
tp60
a(S'EX'
p61
I361
tp62
a(S'RBR'
p63
I349
tp64
a(S'PDT'
p65
I298
tp66
a(S'SYM'
p67
I193
tp68
a(S'RBS'
p69
I115
tp70
a(S'UH'
p71
I102
tp72
a(S'NNPS'
p73
I15
tp74
a(S'LS'
p75
I2
tp76
a(S'WP$'
p77
I2
tp78
a.