(lp1
(S'NN'
p2
I48084
tp3
a(S'IN'
p4
I36769
tp5
a(S'NNS'
p6
I26951
tp7
a(S'DT'
p8
I25977
tp9
a(S'PRP'
p10
I23408
tp11
a(S'JJ'
p12
I23167
tp13
a(S'VB'
p14
I22134
tp15
a(S'RB'
p16
I18482
tp17
a(S'VBP'
p18
I17262
tp19
a(S'CC'
p20
I13270
tp21
a(S'TO'
p22
I10858
tp23
a(S'VBZ'
p24
I8541
tp25
a(S'VBG'
p26
I7950
tp27
a(S'MD'
p28
I7707
tp29
a(S'PRP$'
p30
I6800
tp31
a(S'NNP'
p32
I4847
tp33
a(S'VBD'
p34
I3748
tp35
a(S'VBN'
p36
I3491
tp37
a(S'WRB'
p38
I2892
tp39
a(S'RP'
p40
I1950
tp41
a(S'JJR'
p42
I1828
tp43
a(S'WDT'
p44
I1486
tp45
a(S'WP'
p46
I1393
tp47
a(S'CD'
p48
I1317
tp49
a(S'RBR'
p50
I816
tp51
a(S'EX'
p52
I760
tp53
a(S'JJS'
p54
I668
tp55
a(S'PDT'
p56
I458
tp57
a(S'FW'
p58
I234
tp59
a(S'NNPS'
p60
I225
tp61
a(S'RBS'
p62
I216
tp63
a(NI100
tp64
a(S'UH'
p65
I53
tp66
a(S':'
I38
tp67
a(S'.'
I8
tp68
a(S'SYM'
p69
I8
tp70
a(S'LS'
p71
I3
tp72
a(S'WP$'
p73
I3
tp74
a(S'#'
I1
tp75
a(S'$'
I1
tp76
a(S'POS'
p77
I1
tp78
a.