(lp1
(S'NN'
p2
I21672
tp3
a(S'DT'
p4
I19361
tp5
a(S'IN'
p6
I17617
tp7
a(S'JJ'
p8
I10777
tp9
a(S'NNS'
p10
I10137
tp11
a(S'NNP'
p12
I8187
tp13
a(S'VBD'
p14
I7672
tp15
a(S'VB'
p16
I6708
tp17
a(S'RB'
p18
I6636
tp19
a(S'.'
I6175
tp20
a(S'TO'
p21
I5928
tp22
a(S','
I3812
tp23
a(S'VBG'
p24
I3673
tp25
a(S'VBN'
p26
I3527
tp27
a(S'PRP'
p28
I3284
tp29
a(S'MD'
p30
I2836
tp31
a(S'CC'
p32
I2692
tp33
a(S'VBZ'
p34
I2009
tp35
a(S'CD'
p36
I1245
tp37
a(S'WDT'
p38
I878
tp39
a(S'RP'
p40
I785
tp41
a(S'WRB'
p42
I700
tp43
a(S'VBP'
p44
I644
tp45
a(S"''"
p46
I599
tp47
a(S'EX'
p48
I575
tp49
a(S'JJS'
p50
I539
tp51
a(S'POS'
p52
I406
tp53
a(S'PRP$'
p54
I376
tp55
a(S':'
I322
tp56
a(S'JJR'
p57
I295
tp58
a(S'PDT'
p59
I218
tp60
a(S'NNPS'
p61
I171
tp62
a(S'WP'
p63
I90
tp64
a(S'RBR'
p65
I87
tp66
a(S'RBS'
p67
I50
tp68
a(S'SYM'
p69
I17
tp70
a(S'FW'
p71
I11
tp72
a(S'UH'
p73
I3
tp74
a(S'$'
I2
tp75
a(S'LS'
p76
I1
tp77
a.