(lp1
(S'NN'
p2
I18703
tp3
a(S'IN'
p4
I16014
tp5
a(S'PRP'
p6
I14388
tp7
a(S'VBD'
p8
I12088
tp9
a(S'DT'
p10
I8778
tp11
a(S'JJ'
p12
I8266
tp13
a(S'.'
I7899
tp14
a(S'RB'
p15
I7657
tp16
a(S'VB'
p17
I6284
tp18
a(S'CC'
p19
I5135
tp20
a(S'TO'
p21
I4344
tp22
a(S'NNS'
p23
I4062
tp24
a(S'NNP'
p25
I3922
tp26
a(S'PRP$'
p27
I3576
tp28
a(S'VBG'
p29
I2996
tp30
a(S','
I2872
tp31
a(S'VBP'
p32
I2513
tp33
a(S'VBZ'
p34
I2166
tp35
a(S'VBN'
p36
I1591
tp37
a(S'WRB'
p38
I1511
tp39
a(S'CD'
p40
I1340
tp41
a(S'RP'
p42
I1315
tp43
a(S'MD'
p44
I1190
tp45
a(S'WP'
p46
I331
tp47
a(S'WDT'
p48
I295
tp49
a(S'JJR'
p50
I266
tp51
a(S'EX'
p52
I241
tp53
a(S'POS'
p54
I201
tp55
a(S'JJS'
p56
I177
tp57
a(S':'
I153
tp58
a(S'RBR'
p59
I153
tp60
a(S'SYM'
p61
I145
tp62
a(S'PDT'
p63
I132
tp64
a(S'UH'
p65
I86
tp66
a(S'FW'
p67
I77
tp68
a(S"''"
p69
I66
tp70
a(S'RBS'
p71
I33
tp72
a(S'``'
p73
I23
tp74
a(S'NNPS'
p75
I6
tp76
a(S'LS'
p77
I2
tp78
a(S'WP$'
p79
I2
tp80
a(S'#'
I1
tp81
a.