(lp1
(S'NN'
p2
I17758
tp3
a(S'PRP'
p4
I13682
tp5
a(S'VBD'
p6
I11889
tp7
a(S'IN'
p8
I10706
tp9
a(S'DT'
p10
I8750
tp11
a(S'JJ'
p12
I7732
tp13
a(S'RB'
p14
I7136
tp15
a(S'VB'
p16
I6144
tp17
a(S'CC'
p18
I5081
tp19
a(S'TO'
p20
I4333
tp21
a(S'NNS'
p22
I3807
tp23
a(S'PRP$'
p24
I3581
tp25
a(S'NNP'
p26
I3336
tp27
a(S'VBG'
p28
I2960
tp29
a(S'VBP'
p30
I2440
tp31
a(S'VBZ'
p32
I1784
tp33
a(S'WRB'
p34
I1494
tp35
a(S'VBN'
p36
I1445
tp37
a(S'CD'
p38
I1205
tp39
a(S'RP'
p40
I1133
tp41
a(S'MD'
p42
I1112
tp43
a(S'WDT'
p44
I341
tp45
a(S'WP'
p46
I315
tp47
a(S'JJR'
p48
I262
tp49
a(S'EX'
p50
I241
tp51
a(S'JJS'
p52
I177
tp53
a(S'RBR'
p54
I147
tp55
a(S'PDT'
p56
I133
tp57
a(NI104
tp58
a(S'FW'
p59
I64
tp60
a(S'UH'
p61
I53
tp62
a(S'RBS'
p63
I33
tp64
a(S'.'
I19
tp65
a(S':'
I5
tp66
a(S'SYM'
p67
I4
tp68
a(S'NNPS'
p69
I3
tp70
a(S"''"
p71
I2
tp72
a(S'WP$'
p73
I2
tp74
a(S'#'
I1
tp75
a(S'POS'
p76
I1
tp77
a.