(lp1
(S'NN'
p2
I15852
tp3
a(S'DT'
p4
I11948
tp5
a(S'IN'
p6
I10294
tp7
a(S'PRP'
p8
I7363
tp9
a(S'VBZ'
p10
I6061
tp11
a(S'VB'
p12
I5230
tp13
a(S'RB'
p14
I5034
tp15
a(S'JJ'
p16
I4820
tp17
a(S'.'
I4017
tp18
a(S'TO'
p19
I3388
tp20
a(S'CC'
p21
I3145
tp22
a(S'VBD'
p23
I3052
tp24
a(S'VBG'
p25
I2800
tp26
a(S','
I2559
tp27
a(S'NNP'
p28
I2264
tp29
a(S'NNS'
p30
I2218
tp31
a(S'PRP$'
p32
I1853
tp33
a(S'MD'
p34
I1773
tp35
a(S'WRB'
p36
I1607
tp37
a(S'VBP'
p38
I1380
tp39
a(S'VBN'
p40
I1239
tp41
a(S'RP'
p42
I536
tp43
a(S'WDT'
p44
I394
tp45
a(S'CD'
p46
I281
tp47
a(S'WP'
p48
I259
tp49
a(S'JJR'
p50
I154
tp51
a(S':'
I124
tp52
a(S'RBR'
p53
I124
tp54
a(S'POS'
p55
I76
tp56
a(S'PDT'
p57
I72
tp58
a(S'EX'
p59
I69
tp60
a(S"''"
p61
I61
tp62
a(S'JJS'
p63
I42
tp64
a(S'NNPS'
p65
I32
tp66
a(S'RBS'
p67
I24
tp68
a(S'FW'
p69
I22
tp70
a(S'SYM'
p71
I7
tp72
a(S'UH'
p73
I6
tp74
a(S'``'
p75
I4
tp76
a(S'$'
I1
tp77
a(S'LS'
p78
I1
tp79
a(S'WP$'
p80
I1
tp81
a.