(lp1
(S'story'
p2
I1365
tp3
a(S'saeng'
p4
I1316
tp5
a(S'test'
p6
I1249
tp7
a(S'author'
p8
I1225
tp9
a(S'hibiscus'
p10
I877
tp11
a(S'paragraph'
p12
I806
tp13
a(S'take'
p14
I609
tp15
a(S'concludes'
p16
I561
tp17
a(S'spring'
p18
I523
tp19
a(S'geese'
p20
I504
tp21
a(S'new'
p22
I466
tp23
a(S'home'
p24
I439
tp25
a(S'back'
p26
I424
tp27
a(S'plant'
p28
I409
tp29
a(S'like'
p30
I364
tp31
a(S'budding'
p32
I294
tp33
a(S'winter'
p34
I288
tp35
a(S'also'
p36
I286
tp37
a(S'time'
p38
I284
tp39
a(S'think'
p40
I282
tp41
a(S'show'
p42
I280
tp43
a(S'come'
p44
I274
tp45
a(S'return'
p46
I269
tp47
a(S'shows'
p48
I251
tp49
a(S'flower'
p50
I238
tp51
a(S'going'
p52
I229
tp53
a(S'failed'
p54
I226
tp55
a(S'life'
p56
I204
tp57
a(S'things'
p58
I204
tp59
a(S'pass'
p60
I196
tp61
a(S'mother'
p62
I195
tp63
a(S'try'
p64
I195
tp65
a(S'says'
p66
I189
tp67
a(S'end'
p68
I184
tp69
a(S'melt'
p70
I179
tp71
a(S'caps1'
p72
I173
tp73
a(S'wants'
p74
I172
tp75
a(S'last'
p76
I170
tp77
a(S'make'
p78
I169
tp79
a(S'give'
p80
I164
tp81
a(S'way'
p82
I164
tp83
a(S'snow'
p84
I162
tp85
a(S'hope'
p86
I148
tp87
a(S'snows'
p88
I145
tp89
a(S'saying'
p90
I138
tp91
a(S'country'
p92
I135
tp93
a(S'reader'
p94
I133
tp95
a(S'reason'
p96
I130
tp97
a(S'vowed'
p98
I130
tp99
a(S'get'
p100
I128
tp101
a(S'driving'
p102
I127
tp103
a(S'would'
p104
I127
tp105
a(S'flowers'
p106
I125
tp107
a(S'silently'
p108
I123
tp109
a(S'memories'
p110
I122
tp111
a(S'said'
p112
I122
tp113
a(S'example'
p114
I120
tp115
a(S'feel'
p116
I120
tp117
a(S'start'
p118
I119
tp119
a(S'concluded'
p120
I118
tp121
a(S'next'
p122
I116
tp123
a(S'\x93winter'
p124
I116
tp125
a(S'know'
p126
I113
tp127
a(S'vietnam'
p128
I112
tp129
a(S'one'
p130
I109
tp131
a(S'familiar'
p132
I104
tp133
a(S'good'
p134
I104
tp135
a(S'trying'
p136
I103
tp137
a(S'many'
p138
I102
tp139
a(S'change'
p140
I100
tp141
a(S'conclusion'
p142
I97
tp143
a(S'girl'
p144
I97
tp145
a(S'another'
p146
I95
tp147
a(S'ended'
p148
I95
tp149
a(S'ends'
p150
I94
tp151
a(S'could'
p152
I93
tp153
a(S'say'
p154
I93
tp155
a(S'season'
p156
I93
tp157
a(S'strong'
p158
I92
tp159
a(S'ready'
p160
I91
tp161
a(S'wanted'
p162
I91
tp163
a(S'even'
p164
I90
tp165
a(S'hibiscus\x94'
p166
I90
tp167
a(S'plants'
p168
I89
tp169
a(S'used'
p170
I89
tp171
a(S'saeng\x92s'
p172
I88
tp173
a(S'feels'
p174
I87
tp175
a(S'homeland'
p176
I87
tp177
a(S'something'
p178
I86
tp179
a(S'failing'
p180
I85
tp181
a(S'everything'
p182
I84
tp183
a(S'sentence'
p184
I84
tp185
a(S'\x93when'
p186
I84
tp187
a(S'drivers'
p188
I83
tp189
a(S'comes'
p190
I80
tp191
a(S'grow'
p192
I80
tp193
a(S'old'
p194
I80
tp195
a(S'overcome'
p196
I79
tp197
a(S'determined'
p198
I78
tp199
a(S'go'
p200
I78
tp201
a(S'means'
p202
I78
tp203
a(S'again.\x94'
p204
I75
tp205
a(S'first'
p206
I75
tp207
a(S'gives'
p208
I75
tp209
a(S'past'
p210
I75
tp211
a(S'still'
p212
I75
tp213
a(S'year'
p214
I75
tp215
a(S'it\x92s'
p216
I74
tp217
a(S'want'
p218
I74
tp219
a(S'better'
p220
I73
tp221
a(S'believe'
p222
I72
tp223
a(S'ho'
p224
I72
tp225
a(S''
I71
tp226
a(S'melts'
p227
I70
tp228
a(S'adapt'
p229
I69
tp230
a(S'help'
p231
I69
tp232
a(S'see'
p233
I69
tp234
a(S'thought'
p235
I68
tp236
a(S'ending'
p237
I67
tp238
a(S'keep'
p239
I67
tp240
a(S'though'
p241
I67
tp242
a(S'states'
p243
I66
tp244
a(S'beginning'
p245
I65
tp246
a(S'thing'
p247
I64
tp248
a(S'comfort'
p249
I63
tp250
a(S'determination'
p251
I63
tp252
a(S'hard'
p253
I63
tp254
a(S'almost'
p255
I62
tp256
a(S'reasons'
p257
I62
tp258
a(S'reminds'
p259
I61
tp260
a(S'&'
I59
tp261
a(S'cold'
p262
I58
tp263
a(S'garden'
p264
I58
tp265
a(S'made'
p266
I58
tp267
a(S'much'
p268
I58
tp269
a(S'become'
p270
I56
tp271
a(S'place'
p272
I56
tp273
a(S'starting'
p274
I56
tp275
a(S'grandmother'
p276
I55
tp277
a(S'retake'
p278
I55
tp279
a(S'able'
p280
I54
tp281
a(S'different'
p282
I54
tp283
a(S'makes'
p284
I54
tp285
a(S'realized'
p286
I54
tp287
a(S'upset'
p288
I54
tp289
a(S'important'
p290
I53
tp291
a(S'always'
p292
I52
tp293
a(S'conclude'
p294
I52
tp295
a(S'minfong'
p296
I52
tp297
a(S'sees'
p298
I50
tp299
a(S'strange'
p300
I50
tp301
a(S'wait'
p302
I50
tp303
a(S'character'
p304
I49
tp305
a(S'quote'
p306
I49
tp307
a(S'sad'
p308
I49
tp309
a(S'showing'
p310
I49
tp311
a(S'beautiful'
p312
I48
tp313
a(S'really'
p314
I48
tp315
a(S'right'
p316
I48
tp317
a(S'around'
p318
I47
tp319
a(S'obstacles'
p320
I47
tp321
a(S'little'
p322
I46
tp323
a(S'represents'
p324
I46
tp325
a(S'strength'
p326
I46
tp327
a(S'well'
p328
I46
tp329
a(S'happy'
p330
I45
tp331
a(S'uses'
p332
I45
tp333
a(S'again\x94'
p334
I44
tp335
a(S'knows'
p336
I44
tp337
a(S'remind'
p338
I44
tp339
a(S'us'
p340
I44
tp341
a(S'enough'
p342
I43
tp343
a(S'found'
p344
I43
tp345
a(S'mom'
p346
I43
tp347
a(S'confidence'
p348
I42
tp349
a(S'put'
p350
I42
tp351
a(S'survive'
p352
I42
tp353
a(S'bought'
p354
I41
tp355
a(S'felt'
p356
I41
tp357
a(S'gets'
p358
I41
tp359
a(S'main'
p360
I41
tp361
a(S'statement'
p362
I41
tp363
a(S'feeling'
p364
I40
tp365
a(S'goes'
p366
I40
tp367
a(S'live'
p368
I40
tp369
a(S'reminded'
p370
I40
tp371
a(S'saw'
p372
I40
tp373
a(S'since'
p374
I40
tp375
a(S'caps2'
p376
I39
tp377
a(S'got'
p378
I39
tp379
a(S'growing'
p380
I39
tp381
a(S'location1'
p382
I39
tp383
a(S'lot'
p384
I39
tp385
a(S'never'
p386
I39
tp387
a(S'tell'
p388
I39
tp389
a(S'came'
p390
I38
tp391
a(S'chance'
p392
I38
tp393
a(S'driver\x92s'
p394
I38
tp395
a(S'future'
p396
I38
tp397
a(S'mean'
p398
I38
tp399
a(S'must'
p400
I38
tp401
a(S'nature'
p402
I38
tp403
a(S'passing'
p404
I38
tp405
a(S'didn\x92t'
p406
I37
tp407
a(S'kind'
p408
I37
tp409
a(S'might'
p410
I37
tp411
a(S'thinks'
p412
I37
tp413
a(S'\x93'
I37
tp414
a(S'let'
p415
I36
tp416
a(S'she\x92ll'
p417
I36
tp418
a(S'taking'
p419
I36
tp420
a(S'adapting'
p421
I35
tp422
a(S'away'
p423
I35
tp424
a(S'changes'
p425
I35
tp426
a(S'coming'
p427
I35
tp428
a(S'every'
p429
I35
tp430
a(S'misses'
p431
I35
tp432
a(S'moved'
p433
I35
tp434
a(S'sense'
p435
I35
tp436
a(S'tells'
p437
I35
tp438
a(S'theme'
p439
I35
tp440
a(S'concluding'
p441
I34
tp442
a(S'she\x92s'
p443
I34
tp444
a(S'symbol'
p445
I34
tp446
a(S'thats'
p447
I34
tp448
a(S'fresh'
p449
I33
tp450
a(S'getting'
p451
I33
tp452
a(S'helps'
p453
I33
tp454
a(S'month1'
p455
I33
tp456
a(S'fail'
p457
I32
tp458
a(S'people'
p459
I32
tp460
a(S'readers'
p461
I32
tp462
a(S'talking'
p463
I32
tp464
a(S'text'
p465
I32
tp466
a(S'upon'
p467
I32
tp468
a(S'use'
p469
I32
tp470
a(S'again.the'
p471
I31
tp472
a(S'blooming'
p473
I31
tp474
a(S'bud'
p475
I31
tp476
a(S'family'
p477
I31
tp478
a(S'planting'
p479
I31
tp480
a(S'takes'
p481
I31
tp482
a(S'united'
p483
I31
tp484
a(S'maybe'
p485
I30
tp486
a(S'move'
p487
I30
tp488
a(S'pretty'
p489
I30
tp490
a(S'seeing'
p491
I30
tp492
a(S'went'
p493
I30
tp494
a(S'\x93in'
p495
I30
tp496
a(S'chose'
p497
I29
tp498
a(S'final'
p499
I29
tp500
a(S'school'
p501
I29
tp502
a(S'second'
p503
I29
tp504
a(S'starts'
p505
I29
tp506
a(S'bloom'
p507
I28
tp508
a(S'idea'
p509
I28
tp510
a(S'part'
p511
I28
tp512
a(S'represent'
p513
I28
tp514
a(S'times'
p515
I28
tp516
a(S'confident'
p517
I27
tp518
a(S'location2'
p519
I27
tp520
a(S'paragraph.the'
p521
I27
tp522
a(S'person'
p523
I27
tp524
a(S'that\x92s'
p525
I27
tp526
a(S'took'
p527
I27
tp528
a(S'bring'
p529
I26
tp530
a(S'doesn\x92t'
p531
I26
tp532
a(S'look'
p533
I26
tp534
a(S'months'
p535
I26
tp536
a(S'passage'
p537
I26
tp538
a(S'test.the'
p539
I26
tp540
a(S'words'
p541
I26
tp542
a(S'adjust'
p543
I25
tp544
a(S'giving'
p545
I25
tp546
a(S'includes'
p547
I25
tp548
a(S'meaning'
p549
I25
tp550
a(S'narrator'
p551
I25
tp552
a(S'needs'
p553
I25
tp554
a(S'started'
p555
I25
tp556
a(S'therefore'
p557
I25
tp558
a(S'work'
p559
I25
tp560
a(S'best'
p561
I24
tp562
a(S'buds'
p563
I24
tp564
a(S'fact'
p565
I24
tp566
a(S'fails'
p567
I24
tp568
a(S'happen'
p569
I24
tp570
a(S'moving'
p571
I24
tp572
a(S'shes'
p573
I24
tp574
a(S'believes'
p575
I23
tp576
a(S'blooms'
p577
I23
tp578
a(S'comfortable'
p579
I23
tp580
a(S'don\x92t'
p581
I23
tp582
a(S'finally'
p583
I23
tp584
a(S'gave'
p585
I23
tp586
a(S'matter'
p587
I23
tp588
a(S'missed'
p589
I23
tp590
a(S'probably'
p591
I23
tp592
a(S'quiet'
p593
I23
tp594
a(S'seasons'
p595
I23
tp596
a(S'\x93i'
p597
I23
tp598
a(S'\x93the'
p599
I23
tp600
a(S'bad'
p601
I22
tp602
a(S'day'
p603
I22
tp604
a(S'disappointed'
p605
I22
tp606
a(S'land'
p607
I22
tp608
a(S'leaves'
p609
I22
tp610
a(S'realizes'
p611
I22
tp612
a(S'repetition'
p613
I22
tp614
a(S"saeng's"
p615
I22
tp616
a(S'situation'
p617
I22
tp618
a(S'\x94'
I22
tp619
a(S'brings'
p620
I21
tp621
a(S'done'
p622
I21
tp623
a(S'environment'
p624
I21
tp625
a(S'explains'
p626
I21
tp627
a(S'likes'
p628
I21
tp629
a(S'loss'
p630
I21
tp631
a(S'planted'
p632
I21
tp633
a(S'succeed'
p634
I21
tp635
a(S'symbolizes'
p636
I21
tp637
a(S'vows'
p638
I21
tp639
a(S'weather'
p640
I21
tp641
a(S'willing'
p642
I21
tp643
a(S'again,\x94'
p644
I20
tp645
a(S'flying'
p646
I20
tp647
a(S'given'
p648
I20
tp649
a(S'gone'
p650
I20
tp651
a(S'left'
p652
I20
tp653
a(S'long'
p654
I20
tp655
a(S'loves'
p656
I20
tp657
a(S'read'
p658
I20
tp659
a(S'real'
p660
I20
tp661
a(S'reluctantly'
p662
I20
tp663
a(S'shop'
p664
I20
tp665
a(S'story.the'
p666
I20
tp667
a(S'warm'
p668
I20
tp669
a(S'whole'
p670
I20
tp671
a(S'world'
p672
I20
tp673
a(S'yet'
p674
I20
tp675
a(S'\x93she'
p676
I20
tp677
a(S'fly'
p678
I19
tp679
a(S'knew'
p680
I19
tp681
a(S'need'
p682
I19
tp683
a(S'obstacle'
p684
I19
tp685
a(S'seems'
p686
I19
tp687
a(S'telling'
p688
I19
tp689
a(S'throughout'
p690
I19
tp691
a(S'till'
p692
I19
tp693
a(S'wrote'
p694
I19
tp695
a(S'\x93almost'
p696
I19
tp697
a(S'brought'
p698
I18
tp699
a(S'comforted'
p700
I18
tp701
a(S'continue'
p702
I18
tp703
a(S'eyes'
p704
I18
tp705
a(S'find'
p706
I18
tp707
a(S'learn'
p708
I18
tp709
a(S'making'
p710
I18
tp711
a(S'memory'
p712
I18
tp713
a(S'surroundings'
p714
I18
tp715
a(S'understand'
p716
I18
tp717
a(S'accept'
p718
I17
tp719
a(S'added'
p720
I17
tp721
a(S'along'
p722
I17
tp723
a(S'auther'
p724
I17
tp725
a(S'basically'
p726
I17
tp727
a(S'deep'
p728
I17
tp729
a(S'gardening'
p730
I17
tp731
a(S'ground'
p732
I17
tp733
a(S'happens'
p734
I17
tp735
a(S'head'
p736
I17
tp737
a(S'importance'
p738
I17
tp739
a(S'living'
p740
I17
tp741
a(S'looking'
p742
I17
tp743
a(S'love'
p744
I17
tp745
a(S'message'
p746
I17
tp747
a(S'now.\x94'
p748
I17
tp749
a(S'order'
p750
I17
tp751
a(S'positive'
p752
I17
tp753
a(S'showed'
p754
I17
tp755
a(S'thinking'
p756
I17
tp757
a(S'tone'
p758
I17
tp759
a(S'vowing'
p760
I17
tp761
a(S'\x96'
I17
tp762
a(S'adds'
p763
I16
tp764
a(S'adjusting'
p765
I16
tp766
a(S'attitude'
p767
I16
tp768
a(S'cause'
p769
I16
tp770
a(S'comforting'
p771
I16
tp772
a(S'explain'
p773
I16
tp774
a(S'finds'
p775
I16
tp776
a(S'goal'
p777
I16
tp778
a(S'greenhouse'
p779
I16
tp780
a(S'hibiscus,\x94'
p781
I16
tp782
a(S'hold'
p783
I16
tp784
a(S'hopeful'
p785
I16
tp786
a(S'however'
p787
I16
tp788
a(S'included'
p789
I16
tp790
a(S'it.the'
p791
I16
tp792
a(S'leave'
p793
I16
tp794
a(S'luck'
p795
I16
tp796
a(S'num1'
p797
I16
tp798
a(S'reading'
p799
I16
tp800
a(S'self'
p801
I16
tp802
a(S'south'
p803
I16
tp804
a(S'towards'
p805
I16
tp806
a(S'\x93and'
p807
I16
tp808
a(S'already'
p809
I15
tp810
a(S'big'
p811
I15
tp812
a(S'buying'
p813
I15
tp814
a(S'care'
p815
I15
tp816
a(S'comforts'
p817
I15
tp818
a(S'finish'
p819
I15
tp820
a(S'forget'
p821
I15
tp822
a(S'friends'
p823
I15
tp824
a(S'leaving'
p825
I15
tp826
a(S'melting'
p827
I15
tp828
a(S'mind'
p829
I15
tp830
a(S'money'
p831
I15
tp832
a(S'needed'
p833
I15
tp834
a(S'rebirth'
p835
I15
tp836
a(S'shaky'
p837
I15
tp838
a(S'small'
p839
I15
tp840
a(S'symbolize'
p841
I15
tp842
a(S'together'
p843
I15
tp844
a(S'two'
p845
I15
tp846
a(S'waiting'
p847
I15
tp848
a(S'won\x92t'
p849
I15
tp850
a(S'\x93then'
p851
I15
tp852
a(S'ability'
p853
I14
tp854
a(S'aren\x92t'
p855
I14
tp856
a(S'bit'
p857
I14
tp858
a(S'buy'
p859
I14
tp860
a(S'cry'
p861
I14
tp862
a(S'grew'
p863
I14
tp864
a(S'growth'
p865
I14
tp866
a(S'hopes'
p867
I14
tp868
a(S'likely'
p869
I14
tp870
a(S'lives'
p871
I14
tp872
a(S'loved'
p873
I14
tp874
a(S'overcoming'
p875
I14
tp876
a(S'remember'
p877
I14
tp878
a(S'returning'
p879
I14
tp880
a(S'seen'
p881
I14
tp882
a(S'short'
p883
I14
tp884
a(S'similar'
p885
I14
tp886
a(S'stronger'
p887
I14
tp888
a(S'vow'
p889
I14
tp890
a(S'wasn\x92t'
p891
I14
tp892
a(S'young'
p893
I14
tp894
a(S'adapted'
p895
I13
tp896
a(S'budding\x94'
p897
I13
tp898
a(S'buys'
p899
I13
tp900
a(S'can\x92t'
p901
I13
tp902
a(S'courage'
p903
I13
tp904
a(S'crying'
p905
I13
tp906
a(S'daughter'
p907
I13
tp908
a(S'decided'
p909
I13
tp910
a(S'forward'
p911
I13
tp912
a(S'green'
p913
I13
tp914
a(S'house'
p915
I13
tp916
a(S'knowing'
p917
I13
tp918
a(S'line'
p919
I13
tp920
a(S'nice'
p921
I13
tp922
a(S'ones'
p923
I13
tp924
a(S'relates'
p925
I13
tp926
a(S'time.the'
p927
I13
tp928
a(S'walking'
p929
I13
tp930
a(S'without'
p931
I13
tp932
a(S'wont'
p933
I13
tp934
a(S'\x93i-i'
p935
I13
tp936
a(S'clear'
p937
I12
tp938
a(S'connection'
p939
I12
tp940
a(S'difficult'
p941
I12
tp942
a(S'explaining'
p943
I12
tp944
a(S'face'
p945
I12
tp946
a(S'inspiration'
p947
I12
tp948
a(S'isn\x92t'
p949
I12
tp950
a(S'known'
p951
I12
tp952
a(S'passes'
p953
I12
tp954
a(S'returns'
p955
I12
tp956
a(S'sadness'
p957
I12
tp958
a(S'stung'
p959
I12
tp960
a(S'swept'
p961
I12
tp962
a(S'told'
p963
I12
tp964
a(S'tries'
p965
I12
tp966
a(S'understanding'
p967
I12
tp968
a(S'adaptation'
p969
I11
tp970
a(S'although'
p971
I11
tp972
a(S'begins'
p973
I11
tp974
a(S'birds'
p975
I11
tp976
a(S'blossom'
p977
I11
tp978
a(S'canada'
p979
I11
tp980
a(S'caps3'
p981
I11
tp982
a(S'childhood'
p983
I11
tp984
a(S'choice'
p985
I11
tp986
a(S'deal'
p987
I11
tp988
a(S'decides'
p989
I11
tp990
a(S'depressed'
p991
I11
tp992
a(S'drive'
p993
I11
tp994
a(S"driver's"
p995
I11
tp996
a(S'express'
p997
I11
tp998
a(S'feelings'
p999
I11
tp1000
a(S'finished'
p1001
I11
tp1002
a(S'flew'
p1003
I11
tp1004
a(S'florist'
p1005
I11
tp1006
a(S'happened'
p1007
I11
tp1008
a(S'harder'
p1009
I11
tp1010
a(S'her.the'
p1011
I11
tp1012
a(S'later'
p1013
I11
tp1014
a(S'learned'
p1015
I11
tp1016
a(S'nothing'
p1017
I11
tp1018
a(S'organization1'
p1019
I11
tp1020
a(S'piece'
p1021
I11
tp1022
a(S'puts'
p1023
I11
tp1024
a(S'remembers'
p1025
I11
tp1026
a(S'slowly'
p1027
I11
tp1028
a(S'stay'
p1029
I11
tp1030
a(S'v'
I11
tp1031
a(S'wave'
p1032
I11
tp1033
a(S'\x93a'
p1034
I11
tp1035
a(S'alive'
p1036
I10
tp1037
a(S'anything'
p1038
I10
tp1039
a(S'audience'
p1040
I10
tp1041
a(S'beauty'
p1042
I10
tp1043
a(S'beginnings'
p1044
I10
tp1045
a(S'belive'
p1046
I10
tp1047
a(S'cares'
p1048
I10
tp1049
a(S'die'
p1050
I10
tp1051
a(S'disappointment'
p1052
I10
tp1053
a(S'distinctive'
p1054
I10
tp1055
a(S'experience'
p1056
I10
tp1057
a(S'failure'
p1058
I10
tp1059
a(S'fit'
p1060
I10
tp1061
a(S'hair'
p1062
I10
tp1063
a(S'hardships'
p1064
I10
tp1065
a(S'harsh'
p1066
I10
tp1067
a(S"it's"
p1068
I10
tp1069
a(S'lesson'
p1070
I10
tp1071
a(S'letting'
p1072
I10
tp1073
a(S'lifestyle'
p1074
I10
tp1075
a(S'missing'
p1076
I10
tp1077
a(S'num1)'
p1078
I10
tp1079
a(S'promise'
p1080
I10
tp1081
a(S'quite'
p1082
I10
tp1083
a(S'realize'
p1084
I10
tp1085
a(S'relate'
p1086
I10
tp1087
a(S'rough'
p1088
I10
tp1089
a(S'seemed'
p1090
I10
tp1091
a(S'several'
p1092
I10
tp1093
a(S'shelter'
p1094
I10
tp1095
a(S'soil'
p1096
I10
tp1097
a(S'soon'
p1098
I10
tp1099
a(S'sort'
p1100
I10
tp1101
a(S'spent'
p1102
I10
tp1103
a(S'state'
p1104
I10
tp1105
a(S'stop'
p1106
I10
tp1107
a(S'study'
p1108
I10
tp1109
a(S'talk'
p1110
I10
tp1111
a(S'\x93it'
p1112
I10
tp1113
a(S'\x93it\x92s'
p1114
I10
tp1115
a(S'\x93saeng'
p1116
I10
tp1117
a(S'\x93test\x94'
p1118
I10
tp1119
a(S'again.i'
p1120
I9
tp1121
a(S'agin'
p1122
I9
tp1123
a(S'alot'
p1124
I9
tp1125
a(S'authors'
p1126
I9
tp1127
a(S'author\x92s'
p1128
I9
tp1129
a(S'becomes'
p1130
I9
tp1131
a(S'begin'
p1132
I9
tp1133
a(S'bitter'
p1134
I9
tp1135
a(S'broke'
p1136
I9
tp1137
a(S'burst'
p1138
I9
tp1139
a(S'called'
p1140
I9
tp1141
a(S'changed'
p1142
I9
tp1143
a(S'changing'
p1144
I9
tp1145
a(S'chooses'
p1146
I9
tp1147
a(S'circumstances'
p1148
I9
tp1149
a(S'convey'
p1150
I9
tp1151
a(S'describes'
p1152
I9
tp1153
a(S'despite'
p1154
I9
tp1155
a(S"don't"
p1156
I9
tp1157
a(S'everyone'
p1158
I9
tp1159
a(S'faith'
p1160
I9
tp1161
a(S'fight'
p1162
I9
tp1163
a(S'filled'
p1164
I9
tp1165
a(S'flock'
p1166
I9
tp1167
a(S'great'
p1168
I9
tp1169
a(S'hopefully'
p1170
I9
tp1171
a(S'keeps'
p1172
I9
tp1173
a(S'learning'
p1174
I9
tp1175
a(S'lets'
p1176
I9
tp1177
a(S'meant'
p1178
I9
tp1179
a(S'miss'
p1180
I9
tp1181
a(S'moist'
p1182
I9
tp1183
a(S'mood'
p1184
I9
tp1185
a(S'native'
p1186
I9
tp1187
a(S'note'
p1188
I9
tp1189
a(S'phrase'
p1190
I9
tp1191
a(S'plans'
p1192
I9
tp1193
a(S'prepared'
p1194
I9
tp1195
a(S'retaking'
p1196
I9
tp1197
a(S'set'
p1198
I9
tp1199
a(S'sky'
p1200
I9
tp1201
a(S'special'
p1202
I9
tp1203
a(S'stating'
p1204
I9
tp1205
a(S'symbolic'
p1206
I9
tp1207
a(S'tears'
p1208
I9
tp1209
a(S'test.\x94'
p1210
I9
tp1211
a(S'ways'
p1212
I9
tp1213
a(S'became'
p1214
I8
tp1215
a(S'break'
p1216
I8
tp1217
a(S'challenges'
p1218
I8
tp1219
a(S'comparing'
p1220
I8
tp1221
a(S'cool'
p1222
I8
tp1223
a(S'couldn\x92t'
p1224
I8
tp1225
a(S'due'
p1226
I8
tp1227
a(S'else'
p1228
I8
tp1229
a(S'events'
p1230
I8
tp1231
a(S'finding'
p1232
I8
tp1233
a(S'gonna'
p1234
I8
tp1235
a(S'grown'
p1236
I8
tp1237
a(S'he/she'
p1238
I8
tp1239
a(S'helped'
p1240
I8
tp1241
a(S'helping'
p1242
I8
tp1243
a(S'hole'
p1244
I8
tp1245
a(S'homesick'
p1246
I8
tp1247
a(S'homesickness'
p1248
I8
tp1249
a(S'lifted'
p1250
I8
tp1251
a(S'light'
p1252
I8
tp1253
a(S'lines'
p1254
I8
tp1255
a(S'lost'
p1256
I8
tp1257
a(S'mad'
p1258
I8
tp1259
a(S'motivated'
p1260
I8
tp1261
a(S'motivation'
p1262
I8
tp1263
a(S'ok'
p1264
I8
tp1265
a(S'okay'
p1266
I8
tp1267
a(S'outside'
p1268
I8
tp1269
a(S'particular'
p1270
I8
tp1271
a(S'passed'
p1272
I8
tp1273
a(S'peace'
p1274
I8
tp1275
a(S'problems'
p1276
I8
tp1277
a(S'proud'
p1278
I8
tp1279
a(S'purpose'
p1280
I8
tp1281
a(S'rather'
p1282
I8
tp1283
a(S'referring'
p1284
I8
tp1285
a(S'rest'
p1286
I8
tp1287
a(S'seem'
p1288
I8
tp1289
a(S'sets'
p1290
I8
tp1291
a(S"she's"
p1292
I8
tp1293
a(S'shown'
p1294
I8
tp1295
a(S'smooth'
p1296
I8
tp1297
a(S'sounds'
p1298
I8
tp1299
a(S'struggle'
p1300
I8
tp1301
a(S'symbolism'
p1302
I8
tp1303
a(S'talks'
p1304
I8
tp1305
a(S'toward'
p1306
I8
tp1307
a(S'working'
p1308
I8
tp1309
a(S'(ho)'
p1310
I7
tp1311
a(S'-'
I7
tp1312
a(S'actually'
p1313
I7
tp1314
a(S'adjusted'
p1315
I7
tp1316
a(S'afraid'
p1317
I7
tp1318
a(S'anymore'
p1319
I7
tp1320
a(S'area'
p1321
I7
tp1322
a(S'becoming'
p1323
I7
tp1324
a(S'began'
p1325
I7
tp1326
a(S'bloomed'
p1327
I7
tp1328
a(S'book'
p1329
I7
tp1330
a(S'close'
p1331
I7
tp1332
a(S'closed'
p1333
I7
tp1334
a(S'closure'
p1335
I7
tp1336
a(S'complete'
p1337
I7
tp1338
a(S'connects'
p1339
I7
tp1340
a(S'culture'
p1341
I7
tp1342
a(S'date1'
p1343
I7
tp1344
a(S'decision'
p1345
I7
tp1346
a(S"doesn't"
p1347
I7
tp1348
a(S'dollars'
p1349
I7
tp1350
a(S'encourage'
p1351
I7
tp1352
a(S'evening'
p1353
I7
tp1354
a(S'experiences'
p1355
I7
tp1356
a(S'faint'
p1357
I7
tp1358
a(S'foreign'
p1359
I7
tp1360
a(S'full'
p1361
I7
tp1362
a(S'habiscus'
p1363
I7
tp1364
a(S'hardship'
p1365
I7
tp1366
a(S'her.\x94'
p1367
I7
tp1368
a(S'implies'
p1369
I7
tp1370
a(S'instead'
p1371
I7
tp1372
a(S'job'
p1373
I7
tp1374
a(S'lastly'
p1375
I7
tp1376
a(S'life.the'
p1377
I7
tp1378
a(S'longer'
p1379
I7
tp1380
a(S'mainly'
p1381
I7
tp1382
a(S'mature'
p1383
I7
tp1384
a(S'nineteen'
p1385
I7
tp1386
a(S'now\x94'
p1387
I7
tp1388
a(S'over.the'
p1389
I7
tp1390
a(S'overall'
p1391
I7
tp1392
a(S'paragraph.i'
p1393
I7
tp1394
a(S'power'
p1395
I7
tp1396
a(S'remembering'
p1397
I7
tp1398
a(S'representing'
p1399
I7
tp1400
a(S'simply'
p1401
I7
tp1402
a(S'someone'
p1403
I7
tp1404
a(S'sometimes'
p1405
I7
tp1406
a(S'spirits'
p1407
I7
tp1408
a(S'spring.the'
p1409
I7
tp1410
a(S'stuff'
p1411
I7
tp1412
a(S'sums'
p1413
I7
tp1414
a(S'sweet'
p1415
I7
tp1416
a(S'test.i'
p1417
I7
tp1418
a(S'test\x94'
p1419
I7
tp1420
a(S'thoughts'
p1421
I7
tp1422
a(S'thrive'
p1423
I7
tp1424
a(S'top'
p1425
I7
tp1426
a(S'tough'
p1427
I7
tp1428
a(S'tropical'
p1429
I7
tp1430
a(S'using'
p1431
I7
tp1432
a(S'vegetable'
p1433
I7
tp1434
a(S'watched'
p1435
I7
tp1436
a(S'way.the'
p1437
I7
tp1438
a(S'wept.\x94'
p1439
I7
tp1440
a(S'white'
p1441
I7
tp1442
a(S'wild'
p1443
I7
tp1444
a(S'within'
p1445
I7
tp1446
a(S'writes'
p1447
I7
tp1448
a(S'\x93not'
p1449
I7
tp1450
a(S'\x93this'
p1451
I7
tp1452
a(S'(ho'
p1453
I6
tp1454
a(S'acceptance'
p1455
I6
tp1456
a(S'accepted'
p1457
I6
tp1458
a(S'accepts'
p1459
I6
tp1460
a(S'accustomed'
p1461
I6
tp1462
a(S'achieve'
p1463
I6
tp1464
a(S'across'
p1465
I6
tp1466
a(S'actions'
p1467
I6
tp1468
a(S'add'
p1469
I6
tp1470
a(S'adopt'
p1471
I6
tp1472
a(S'allow'
p1473
I6
tp1474
a(S'allows'
p1475
I6
tp1476
a(S'alone'
p1477
I6
tp1478
a(S'attempt'
p1479
I6
tp1480
a(S'b/c'
p1481
I6
tp1482
a(S'begining'
p1483
I6
tp1484
a(S'behind'
p1485
I6
tp1486
a(S'budding,\x94'
p1487
I6
tp1488
a(S'certain'
p1489
I6
tp1490
a(S'conflict'
p1491
I6
tp1492
a(S'connected'
p1493
I6
tp1494
a(S'cycle'
p1495
I6
tp1496
a(S'demonstrates'
p1497
I6
tp1498
a(S'describing'
p1499
I6
tp1500
a(S'details'
p1501
I6
tp1502
a(S'dinner'
p1503
I6
tp1504
a(S'effort'
p1505
I6
tp1506
a(S'emphasize'
p1507
I6
tp1508
a(S'etched'
p1509
I6
tp1510
a(S'ever'
p1511
I6
tp1512
a(S'expresses'
p1513
I6
tp1514
a(S'familiarity'
p1515
I6
tp1516
a(S'favorite'
p1517
I6
tp1518
a(S'finishes'
p1519
I6
tp1520
a(S'focus'
p1521
I6
tp1522
a(S'food'
p1523
I6
tp1524
a(S'forgotten'
p1525
I6
tp1526
a(S'glad'
p1527
I6
tp1528
a(S'grass'
p1529
I6
tp1530
a(S'gray'
p1531
I6
tp1532
a(S'grows'
p1533
I6
tp1534
a(S'guessing'
p1535
I6
tp1536
a(S'happiness'
p1537
I6
tp1538
a(S'heart'
p1539
I6
tp1540
a(S'high'
p1541
I6
tp1542
a(S'hint'
p1543
I6
tp1544
a(S'home.the'
p1545
I6
tp1546
a(S'illustrates'
p1547
I6
tp1548
a(S'include'
p1549
I6
tp1550
a(S'inspired'
p1551
I6
tp1552
a(S'instance'
p1553
I6
tp1554
a(S'interested'
p1555
I6
tp1556
a(S"isn't"
p1557
I6
tp1558
a(S'lest'
p1559
I6
tp1560
a(S'license'
p1561
I6
tp1562
a(S'melted'
p1563
I6
tp1564
a(S'ment'
p1565
I6
tp1566
a(S'moment'
p1567
I6
tp1568
a(S'money1'
p1569
I6
tp1570
a(S'mostly'
p1571
I6
tp1572
a(S'named'
p1573
I6
tp1574
a(S'overhead'
p1575
I6
tp1576
a(S'paid'
p1577
I6
tp1578
a(S'person1'
p1579
I6
tp1580
a(S'petals'
p1581
I6
tp1582
a(S'point'
p1583
I6
tp1584
a(S'previous'
p1585
I6
tp1586
a(S'putting'
p1587
I6
tp1588
a(S're-take'
p1589
I6
tp1590
a(S'realizing'
p1591
I6
tp1592
a(S'refers'
p1593
I6
tp1594
a(S'remembered'
p1595
I6
tp1596
a(S'reminder'
p1597
I6
tp1598
a(S'represented'
p1599
I6
tp1600
a(S'response'
p1601
I6
tp1602
a(S'sentimental'
p1603
I6
tp1604
a(S'stared'
p1605
I6
tp1606
a(S'support'
p1607
I6
tp1608
a(S'symbolized'
p1609
I6
tp1610
a(S'taken'
p1611
I6
tp1612
a(S'test,\x94'
p1613
I6
tp1614
a(S'trouble'
p1615
I6
tp1616
a(S'understands'
p1617
I6
tp1618
a(S'understood'
p1619
I6
tp1620
a(S'up.the'
p1621
I6
tp1622
a(S'velvet'
p1623
I6
tp1624
a(S'whats'
p1625
I6
tp1626
a(S'winter.the'
p1627
I6
tp1628
a(S'wonder'
p1629
I6
tp1630
a(S'write'
p1631
I6
tp1632
a(S'\x93hibiscus'
p1633
I6
tp1634
a(S'\x94when'
p1635
I6
tp1636
a(S'(the'
p1637
I5
tp1638
a(S'again.in'
p1639
I5
tp1640
a(S'america'
p1641
I5
tp1642
a(S'article'
p1643
I5
tp1644
a(S'attention'
p1645
I5
tp1646
a(S'blossoms'
p1647
I5
tp1648
a(S'budding.\x94'
p1649
I5
tp1650
a(S'caps4'
p1651
I5
tp1652
a(S'carefully'
p1653
I5
tp1654
a(S'chances'
p1655
I5
tp1656
a(S'comparison'
p1657
I5
tp1658
a(S'cost'
p1659
I5
tp1660
a(S'creates'
p1661
I5
tp1662
a(S'curiosity'
p1663
I5
tp1664
a(S'dare'
p1665
I5
tp1666
a(S'deeply'
p1667
I5
tp1668
a(S'dies'
p1669
I5
tp1670
a(S'disappoint'
p1671
I5
tp1672
a(S'dissapointed'
p1673
I5
tp1674
a(S'doesnt'
p1675
I5
tp1676
a(S'dok'
p1677
I5
tp1678
a(S'driver'
p1679
I5
tp1680
a(S'easy'
p1681
I5
tp1682
a(S'emotional'
p1683
I5
tp1684
a(S'enjoy'
p1685
I5
tp1686
a(S'especially'
p1687
I5
tp1688
a(S'excerpt'
p1689
I5
tp1690
a(S'fitting'
p1691
I5
tp1692
a(S'form'
p1693
I5
tp1694
a(S'friend'
p1695
I5
tp1696
a(S'gotten'
p1697
I5
tp1698
a(S'guess'
p1699
I5
tp1700
a(S'hasn\x92t'
p1701
I5
tp1702
a(S'held'
p1703
I5
tp1704
a(S'helpful'
p1705
I5
tp1706
a(S'herself.the'
p1707
I5
tp1708
a(S'honks'
p1709
I5
tp1710
a(S'hot'
p1711
I5
tp1712
a(S'ideas'
p1713
I5
tp1714
a(S'inside'
p1715
I5
tp1716
a(S'it.\x94'
p1717
I5
tp1718
a(S'lake'
p1719
I5
tp1720
a(S'learns'
p1721
I5
tp1722
a(S'location3'
p1723
I5
tp1724
a(S'looks'
p1725
I5
tp1726
a(S'mabe'
p1727
I5
tp1728
a(S'melon'
p1729
I5
tp1730
a(S'metaphor'
p1731
I5
tp1732
a(S'mumbled'
p1733
I5
tp1734
a(S'obviously'
p1735
I5
tp1736
a(S'open'
p1737
I5
tp1738
a(S'opinion'
p1739
I5
tp1740
a(S'parents'
p1741
I5
tp1742
a(S'perservering'
p1743
I5
tp1744
a(S'personal'
p1745
I5
tp1746
a(S'picked'
p1747
I5
tp1748
a(S'picture'
p1749
I5
tp1750
a(S'practice'
p1751
I5
tp1752
a(S'purchases'
p1753
I5
tp1754
a(S'quit'
p1755
I5
tp1756
a(S'reached'
p1757
I5
tp1758
a(S'recognizes'
p1759
I5
tp1760
a(S'relating'
p1761
I5
tp1762
a(S'reminders'
p1763
I5
tp1764
a(S'repeat'
p1765
I5
tp1766
a(S'respect'
p1767
I5
tp1768
a(S'saeng.the'
p1769
I5
tp1770
a(S'scent'
p1771
I5
tp1772
a(S'setting'
p1773
I5
tp1774
a(S'signify'
p1775
I5
tp1776
a(S'silent'
p1777
I5
tp1778
a(S'simple'
p1779
I5
tp1780
a(S'smell'
p1781
I5
tp1782
a(S'stand'
p1783
I5
tp1784
a(S'stated'
p1785
I5
tp1786
a(S'stories'
p1787
I5
tp1788
a(S'strive'
p1789
I5
tp1790
a(S'summarizes'
p1791
I5
tp1792
a(S'surrounding'
p1793
I5
tp1794
a(S'survival'
p1795
I5
tp1796
a(S'survives'
p1797
I5
tp1798
a(S'suspense'
p1799
I5
tp1800
a(S'task'
p1801
I5
tp1802
a(S'test.in'
p1803
I5
tp1804
a(S"that's"
p1805
I5
tp1806
a(S'that.the'
p1807
I5
tp1808
a(S'themes'
p1809
I5
tp1810
a(S'touch'
p1811
I5
tp1812
a(S'touched'
p1813
I5
tp1814
a(S'town'
p1815
I5
tp1816
a(S'type'
p1817
I5
tp1818
a(S'walks'
p1819
I5
tp1820
a(S'wit'
p1821
I5
tp1822
a(S'written'
p1823
I5
tp1824
a(S'yes'
p1825
I5
tp1826
a(S'\x92\x92'
p1827
I5
tp1828
a(S'\x93@caps1'
p1829
I5
tp1830
a(S'\x93but'
p1831
I5
tp1832
a(S'\x93here'
p1833
I5
tp1834
a(S'???'
p1835
I4
tp1836
a(S'accepting'
p1837
I4
tp1838
a(S'adaption'
p1839
I4
tp1840
a(S'addition'
p1841
I4
tp1842
a(S'againthe'
p1843
I4
tp1844
a(S'aurthor'
p1845
I4
tp1846
a(S'beggining'
p1847
I4
tp1848
a(S'belief'
p1849
I4
tp1850
a(S'better.the'
p1851
I4
tp1852
a(S'budding.the'
p1853
I4
tp1854
a(S'budds'
p1855
I4
tp1856
a(S'builds'
p1857
I4
tp1858
a(S'cant'
p1859
I4
tp1860
a(S'center'
p1861
I4
tp1862
a(S'challenge'
p1863
I4
tp1864
a(S'change.the'
p1865
I4
tp1866
a(S'clearly'
p1867
I4
tp1868
a(S'closing'
p1869
I4
tp1870
a(S'compare'
p1871
I4
tp1872
a(S'compares'
p1873
I4
tp1874
a(S'concluds'
p1875
I4
tp1876
a(S'confort'
p1877
I4
tp1878
a(S'connect'
p1879
I4
tp1880
a(S'conveys'
p1881
I4
tp1882
a(S'cope'
p1883
I4
tp1884
a(S'couple'
p1885
I4
tp1886
a(S'dainty'
p1887
I4
tp1888
a(S'depicts'
p1889
I4
tp1890
a(S'despair'
p1891
I4
tp1892
a(S'did.the'
p1893
I4
tp1894
a(S'dig'
p1895
I4
tp1896
a(S'disapointed'
p1897
I4
tp1898
a(S'displays'
p1899
I4
tp1900
a(S'do.the'
p1901
I4
tp1902
a(S'draw'
p1903
I4
tp1904
a(S'draws'
p1905
I4
tp1906
a(S'dying'
p1907
I4
tp1908
a(S'earlier'
p1909
I4
tp1910
a(S'either'
p1911
I4
tp1912
a(S'emotion'
p1913
I4
tp1914
a(S'emotions'
p1915
I4
tp1916
a(S'entire'
p1917
I4
tp1918
a(S'exactly'
p1919
I4
tp1920
a(S'examples'
p1921
I4
tp1922
a(S'expect'
p1923
I4
tp1924
a(S'expensive'
p1925
I4
tp1926
a(S'expressed'
p1927
I4
tp1928
a(S'eye'
p1929
I4
tp1930
a(S'faces'
p1931
I4
tp1932
a(S'facing'
p1933
I4
tp1934
a(S'fading'
p1935
I4
tp1936
a(S'faeng-noi'
p1937
I4
tp1938
a(S'farmiliar'
p1939
I4
tp1940
a(S'fine'
p1941
I4
tp1942
a(S'flow'
p1943
I4
tp1944
a(S'focused'
p1945
I4
tp1946
a(S'following'
p1947
I4
tp1948
a(S'gain'
p1949
I4
tp1950
a(S'geese.\x94'
p1951
I4
tp1952
a(S'gently'
p1953
I4
tp1954
a(S'grandma'
p1955
I4
tp1956
a(S'grandmother\x92s'
p1957
I4
tp1958
a(S'hang'
p1959
I4
tp1960
a(S'heal'
p1961
I4
tp1962
a(S'healed'
p1963
I4
tp1964
a(S'hear'
p1965
I4
tp1966
a(S'he\x92s'
p1967
I4
tp1968
a(S'hibicus'
p1969
I4
tp1970
a(S'hibiscus.the'
p1971
I4
tp1972
a(S'hints'
p1973
I4
tp1974
a(S'hobby'
p1975
I4
tp1976
a(S'huge'
p1977
I4
tp1978
a(S'i-i'
p1979
I4
tp1980
a(S'image'
p1981
I4
tp1982
a(S'inorder'
p1983
I4
tp1984
a(S'inspiring'
p1985
I4
tp1986
a(S'intense'
p1987
I4
tp1988
a(S'isnt'
p1989
I4
tp1990
a(S'joy'
p1991
I4
tp1992
a(S'keeping'
p1993
I4
tp1994
a(S'least'
p1995
I4
tp1996
a(S'less'
p1997
I4
tp1998
a(S'lift'
p1999
I4
tp2000
a(S'liked'
p2001
I4
tp2002
a(S'looked'
p2003
I4
tp2004
a(S'lowered'
p2005
I4
tp2006
a(S'matters'
p2007
I4
tp2008
a(S'matured'
p2009
I4
tp2010
a(S'mentioned'
p2011
I4
tp2012
a(S'mentions'
p2013
I4
tp2014
a(S'met'
p2015
I4
tp2016
a(S'motivate'
p2017
I4
tp2018
a(S'moves'
p2019
I4
tp2020
a(S'narration'
p2021
I4
tp2022
a(S'natural'
p2023
I4
tp2024
a(S'normal'
p2025
I4
tp2026
a(S'noticed'
p2027
I4
tp2028
a(S'obvious'
p2029
I4
tp2030
a(S'on.the'
p2031
I4
tp2032
a(S'opportunity'
p2033
I4
tp2034
a(S'optimism'
p2035
I4
tp2036
a(S'originally'
p2037
I4
tp2038
a(S'outlook'
p2039
I4
tp2040
a(S'petal'
p2041
I4
tp2042
a(S'plant.the'
p2043
I4
tp2044
a(S'powerful'
p2045
I4
tp2046
a(S'prepare'
p2047
I4
tp2048
a(S'present'
p2049
I4
tp2050
a(S'problem'
p2051
I4
tp2052
a(S'process'
p2053
I4
tp2054
a(S'prove'
p2055
I4
tp2056
a(S'provided'
p2057
I4
tp2058
a(S'provides'
p2059
I4
tp2060
a(S'purchase'
p2061
I4
tp2062
a(S'purchased'
p2063
I4
tp2064
a(S'purplish'
p2065
I4
tp2066
a(S'reality'
p2067
I4
tp2068
a(S'realization'
p2069
I4
tp2070
a(S'recognition'
p2071
I4
tp2072
a(S'relationship'
p2073
I4
tp2074
a(S'relaxed'
p2075
I4
tp2076
a(S'relief'
p2077
I4
tp2078
a(S'renewal'
p2079
I4
tp2080
a(S'renewed'
p2081
I4
tp2082
a(S'retry'
p2083
I4
tp2084
a(S'returned'
p2085
I4
tp2086
a(S'return\x94'
p2087
I4
tp2088
a(S'rich'
p2089
I4
tp2090
a(S'saeng\x91s'
p2091
I4
tp2092
a(S'says,\x94'
p2093
I4
tp2094
a(S'seed'
p2095
I4
tp2096
a(S'seeds'
p2097
I4
tp2098
a(S'sence'
p2099
I4
tp2100
a(S'shock'
p2101
I4
tp2102
a(S'sight'
p2103
I4
tp2104
a(S'similarities'
p2105
I4
tp2106
a(S'smelled'
p2107
I4
tp2108
a(S'sometime'
p2109
I4
tp2110
a(S'somewhat'
p2111
I4
tp2112
a(S'spend'
p2113
I4
tp2114
a(S'stands'
p2115
I4
tp2116
a(S'step'
p2117
I4
tp2118
a(S'story\x92s'
p2119
I4
tp2120
a(S'stress'
p2121
I4
tp2122
a(S'struggles'
p2123
I4
tp2124
a(S'stuck'
p2125
I4
tp2126
a(S'summarize'
p2127
I4
tp2128
a(S'sure'
p2129
I4
tp2130
a(S'sympathy'
p2131
I4
tp2132
a(S'tamped'
p2133
I4
tp2134
a(S'teach'
p2135
I4
tp2136
a(S'test)'
p2137
I4
tp2138
a(S'th'
p2139
I4
tp2140
a(S'things.the'
p2141
I4
tp2142
a(S'threw'
p2143
I4
tp2144
a(S'throught'
p2145
I4
tp2146
a(S'ties'
p2147
I4
tp2148
a(S'trees'
p2149
I4
tp2150
a(S'troubles'
p2151
I4
tp2152
a(S'true'
p2153
I4
tp2154
a(S'trys'
p2155
I4
tp2156
a(S'untill'
p2157
I4
tp2158
a(S'wanting'
p2159
I4
tp2160
a(S'watching'
p2161
I4
tp2162
a(S'water'
p2163
I4
tp2164
a(S'willingness'
p2165
I4
tp2166
a(S'wind'
p2167
I4
tp2168
a(S'wondering'
p2169
I4
tp2170
a(S'wouldnt'
p2171
I4
tp2172
a(S'wouldn\x92t'
p2173
I4
tp2174
a(S'wraps'
p2175
I4
tp2176
a(S'you?'
p2177
I4
tp2178
a(S'\x92\x92winter'
p2179
I4
tp2180
a(S'\x93its'
p2181
I4
tp2182
a(S'\x93take'
p2183
I4
tp2184
a(S'\x93that'
p2185
I4
tp2186
a(S'\x94winter'
p2187
I4
tp2188
a(S'(@num1)'
p2189
I3
tp2190
a(S'+'
I3
tp2191
a(S'/'
I3
tp2192
a(S'accomplish'
p2193
I3
tp2194
a(S'adjustment'
p2195
I3
tp2196
a(S'admitted'
p2197
I3
tp2198
a(S'adopting'
p2199
I3
tp2200
a(S'adversity'
p2201
I3
tp2202
a(S'affected'
p2203
I3
tp2204
a(S'agian'
p2205
I3
tp2206
a(S'alright'
p2207
I3
tp2208
a(S'alway'
p2209
I3
tp2210
a(S'amount'
p2211
I3
tp2212
a(S'animals'
p2213
I3
tp2214
a(S'appreciate'
p2215
I3
tp2216
a(S'arrives'
p2217
I3
tp2218
a(S'aspect'
p2219
I3
tp2220
a(S'aspects'
p2221
I3
tp2222
a(S'authour'
p2223
I3
tp2224
a(S'back.the'
p2225
I3
tp2226
a(S'becus'
p2227
I3
tp2228
a(S'befor'
p2229
I3
tp2230
a(S'before.\x94'
p2231
I3
tp2232
a(S'beleieve'
p2233
I3
tp2234
a(S'believed'
p2235
I3
tp2236
a(S'besides'
p2237
I3
tp2238
a(S'bigger'
p2239
I3
tp2240
a(S'bloom.the'
p2241
I3
tp2242
a(S'boost'
p2243
I3
tp2244
a(S'breaking'
p2245
I3
tp2246
a(S'breathed'
p2247
I3
tp2248
a(S'budd'
p2249
I3
tp2250
a(S'buding'
p2251
I3
tp2252
a(S'cannot'
p2253
I3
tp2254
a(S'caps1\x94'
p2255
I3
tp2256
a(S'caring'
p2257
I3
tp2258
a(S'carry'
p2259
I3
tp2260
a(S'case'
p2261
I3
tp2262
a(S'causes'
p2263
I3
tp2264
a(S'chance.the'
p2265
I3
tp2266
a(S'charm'
p2267
I3
tp2268
a(S'choose'
p2269
I3
tp2270
a(S'com'
p2271
I3
tp2272
a(S'comb'
p2273
I3
tp2274
a(S'compared'
p2275
I3
tp2276
a(S'conditions'
p2277
I3
tp2278
a(S'continues'
p2279
I3
tp2280
a(S'continus'
p2281
I3
tp2282
a(S'country.the'
p2283
I3
tp2284
a(S'cracks'
p2285
I3
tp2286
a(S'creatures'
p2287
I3
tp2288
a(S'date2'
p2289
I3
tp2290
a(S'demonstrate'
p2291
I3
tp2292
a(S'depressing'
p2293
I3
tp2294
a(S'develop'
p2295
I3
tp2296
a(S'development'
p2297
I3
tp2298
a(S"didn't"
p2299
I3
tp2300
a(S'died'
p2301
I3
tp2302
a(S'difficulties'
p2303
I3
tp2304
a(S'distance'
p2305
I3
tp2306
a(S'drew'
p2307
I3
tp2308
a(S'e'
I3
tp2309
a(S'easily'
p2310
I3
tp2311
a(S'eat'
p2312
I3
tp2313
a(S'effect'
p2314
I3
tp2315
a(S'encouragement'
p2316
I3
tp2317
a(S'ending.the'
p2318
I3
tp2319
a(S'enjoys'
p2320
I3
tp2321
a(S'essay'
p2322
I3
tp2323
a(S'etc'
p2324
I3
tp2325
a(S'eventhough'
p2326
I3
tp2327
a(S'eventually'
p2328
I3
tp2329
a(S'evidence'
p2330
I3
tp2331
a(S'except'
p2332
I3
tp2333
a(S'excited'
p2334
I3
tp2335
a(S'experienced'
p2336
I3
tp2337
a(S'faced'
p2338
I3
tp2339
a(S'faild'
p2340
I3
tp2341
a(S'fallen'
p2342
I3
tp2343
a(S'feel.\x94'
p2344
I3
tp2345
a(S'figure'
p2346
I3
tp2347
a(S'figures'
p2348
I3
tp2349
a(S'fill'
p2350
I3
tp2351
a(S'flood'
p2352
I3
tp2353
a(S'follow'
p2354
I3
tp2355
a(S'fond'
p2356
I3
tp2357
a(S'forever'
p2358
I3
tp2359
a(S'forgot'
p2360
I3
tp2361
a(S'formation'
p2362
I3
tp2363
a(S'fragrance'
p2364
I3
tp2365
a(S'freshly'
p2366
I3
tp2367
a(S'fun'
p2368
I3
tp2369
a(S'gardens'
p2370
I3
tp2371
a(S'geese.the'
p2372
I3
tp2373
a(S'girls'
p2374
I3
tp2375
a(S'goals'
p2376
I3
tp2377
a(S'grandparents'
p2378
I3
tp2379
a(S'greatly'
p2380
I3
tp2381
a(S'grief'
p2382
I3
tp2383
a(S'happen.the'
p2384
I3
tp2385
a(S'happening'
p2386
I3
tp2387
a(S'hedge'
p2388
I3
tp2389
a(S'hibernation'
p2390
I3
tp2391
a(S'hibiscus,\x92\x92'
p2392
I3
tp2393
a(S'hibiscus.\x94'
p2394
I3
tp2395
a(S'homeland.the'
p2396
I3
tp2397
a(S'hope.the'
p2398
I3
tp2399
a(S'hopeless'
p2400
I3
tp2401
a(S'hoping'
p2402
I3
tp2403
a(S'hurt'
p2404
I3
tp2405
a(S'impossible'
p2406
I3
tp2407
a(S'indicate'
p2408
I3
tp2409
a(S'insight'
p2410
I3
tp2411
a(S'inspire'
p2412
I3
tp2413
a(S'inspires'
p2414
I3
tp2415
a(S'interesting'
p2416
I3
tp2417
a(S'it,\x94'
p2418
I3
tp2419
a(S'it.in'
p2420
I3
tp2421
a(S'i\x92ll'
p2422
I3
tp2423
a(S'journey'
p2424
I3
tp2425
a(S'late'
p2426
I3
tp2427
a(S'lead'
p2428
I3
tp2429
a(S'leads'
p2430
I3
tp2431
a(S'lessons'
p2432
I3
tp2433
a(S'licens'
p2434
I3
tp2435
a(S'lived'
p2436
I3
tp2437
a(S'lungs'
p2438
I3
tp2439
a(S'mac'
p2440
I3
tp2441
a(S'major'
p2442
I3
tp2443
a(S'makeing'
p2444
I3
tp2445
a(S'matters.\x94'
p2446
I3
tp2447
a(S'maturity'
p2448
I3
tp2449
a(S'meaningful'
p2450
I3
tp2451
a(S'memorys'
p2452
I3
tp2453
a(S'mentally'
p2454
I3
tp2455
a(S'mention'
p2456
I3
tp2457
a(S'month'
p2458
I3
tp2459
a(S'moral'
p2460
I3
tp2461
a(S"mother's"
p2462
I3
tp2463
a(S'mother\x92s'
p2464
I3
tp2465
a(S'mrs'
p2466
I3
tp2467
a(S'mum'
p2468
I3
tp2469
a(S'nearly'
p2470
I3
tp2471
a(S'novel'
p2472
I3
tp2473
a(S'object'
p2474
I3
tp2475
a(S'occur'
p2476
I3
tp2477
a(S'offers'
p2478
I3
tp2479
a(S'older'
p2480
I3
tp2481
a(S'one\x94'
p2482
I3
tp2483
a(S'opportunities'
p2484
I3
tp2485
a(S'optimistic'
p2486
I3
tp2487
a(S'pain'
p2488
I3
tp2489
a(S'painful'
p2490
I3
tp2491
a(S'paragraph.in'
p2492
I3
tp2493
a(S'parts'
p2494
I3
tp2495
a(S'pass.the'
p2496
I3
tp2497
a(S'perfectly'
p2498
I3
tp2499
a(S'perseverance'
p2500
I3
tp2501
a(S'persistance'
p2502
I3
tp2503
a(S'persistant'
p2504
I3
tp2505
a(S'persistence'
p2506
I3
tp2507
a(S'pharagraph'
p2508
I3
tp2509
a(S'pick'
p2510
I3
tp2511
a(S'picking'
p2512
I3
tp2513
a(S'places'
p2514
I3
tp2515
a(S'planning'
p2516
I3
tp2517
a(S'plus'
p2518
I3
tp2519
a(S'possibly'
p2520
I3
tp2521
a(S'pot'
p2522
I3
tp2523
a(S'presence'
p2524
I3
tp2525
a(S'previously'
p2526
I3
tp2527
a(S'promises'
p2528
I3
tp2529
a(S'provide'
p2530
I3
tp2531
a(S'proving'
p2532
I3
tp2533
a(S'puffy'
p2534
I3
tp2535
a(S'push'
p2536
I3
tp2537
a(S'question'
p2538
I3
tp2539
a(S'raise'
p2540
I3
tp2541
a(S're'
p2542
I3
tp2543
a(S'reaction'
p2544
I3
tp2545
a(S'reference'
p2546
I3
tp2547
a(S'refering'
p2548
I3
tp2549
a(S'regain'
p2550
I3
tp2551
a(S'regret'
p2552
I3
tp2553
a(S'remain'
p2554
I3
tp2555
a(S'reminding'
p2556
I3
tp2557
a(S'repition'
p2558
I3
tp2559
a(S'repitition'
p2560
I3
tp2561
a(S'result'
p2562
I3
tp2563
a(S'return,\x94'
p2564
I3
tp2565
a(S'room'
p2566
I3
tp2567
a(S'saeg'
p2568
I3
tp2569
a(S'season\x94'
p2570
I3
tp2571
a(S'sh'
p2572
I3
tp2573
a(S'shadowing'
p2574
I3
tp2575
a(S'shell'
p2576
I3
tp2577
a(S'shovel'
p2578
I3
tp2579
a(S'shrub'
p2580
I3
tp2581
a(S'sickness'
p2582
I3
tp2583
a(S'side'
p2584
I3
tp2585
a(S'significant'
p2586
I3
tp2587
a(S'smallest'
p2588
I3
tp2589
a(S'somewhere'
p2590
I3
tp2591
a(S'speaker'
p2592
I3
tp2593
a(S'spending'
p2594
I3
tp2595
a(S'sping'
p2596
I3
tp2597
a(S'springtime'
p2598
I3
tp2599
a(S'stable'
p2600
I3
tp2601
a(S'statement.the'
p2602
I3
tp2603
a(S'steps'
p2604
I3
tp2605
a(S'stops'
p2606
I3
tp2607
a(S'store'
p2608
I3
tp2609
a(S'story.i'
p2610
I3
tp2611
a(S'strands'
p2612
I3
tp2613
a(S'strongly'
p2614
I3
tp2615
a(S'struggling'
p2616
I3
tp2617
a(S'success'
p2618
I3
tp2619
a(S'successful'
p2620
I3
tp2621
a(S'supposed'
p2622
I3
tp2623
a(S'surrounded'
p2624
I3
tp2625
a(S'symbolizing'
p2626
I3
tp2627
a(S'talked'
p2628
I3
tp2629
a(S'tall'
p2630
I3
tp2631
a(S'taste'
p2632
I3
tp2633
a(S'teaches'
p2634
I3
tp2635
a(S'tes'
p2636
I3
tp2637
a(S'tested'
p2638
I3
tp2639
a(S'thes'
p2640
I3
tp2641
a(S'third'
p2642
I3
tp2643
a(S'thriving'
p2644
I3
tp2645
a(S'thus'
p2646
I3
tp2647
a(S'too.the'
p2648
I3
tp2649
a(S'tried'
p2650
I3
tp2651
a(S'unable'
p2652
I3
tp2653
a(S'unfamiliar'
p2654
I3
tp2655
a(S'valuable'
p2656
I3
tp2657
a(S'value'
p2658
I3
tp2659
a(S'visceral.\x94'
p2660
I3
tp2661
a(S'vowes'
p2662
I3
tp2663
a(S'walk'
p2664
I3
tp2665
a(S'walked'
p2666
I3
tp2667
a(S"wasn't"
p2668
I3
tp2669
a(S'watch'
p2670
I3
tp2671
a(S'waxy'
p2672
I3
tp2673
a(S'whatever'
p2674
I3
tp2675
a(S'whenever'
p2676
I3
tp2677
a(S'whether'
p2678
I3
tp2679
a(S'winters'
p2680
I3
tp2681
a(S'wishes'
p2682
I3
tp2683
a(S"won't"
p2684
I3
tp2685
a(S'wonderful'
p2686
I3
tp2687
a(S'word'
p2688
I3
tp2689
a(S'worries'
p2690
I3
tp2691
a(S'worry'
p2692
I3
tp2693
a(S'wos'
p2694
I3
tp2695
a(S'wrap'
p2696
I3
tp2697
a(S'writing'
p2698
I3
tp2699
a(S'wrong'
p2700
I3
tp2701
a(S'years'
p2702
I3
tp2703
a(S'\x91\x92when'
p2704
I3
tp2705
a(S'\x93overhead'
p2706
I3
tp2707
a(S'\x93through'
p2708
I3
tp2709
a(S'\x93v\x94'
p2710
I3
tp2711
a(S'\x94i'
p2712
I3
tp2713
a(S'&the'
p2714
I2
tp2715
a(S'(\x93'
p2716
I2
tp2717
a(S'*the'
p2718
I2
tp2719
a(S'[she]'
p2720
I2
tp2721
a(S'about.the'
p2722
I2
tp2723
a(S'achievement'
p2724
I2
tp2725
a(S'action'
p2726
I2
tp2727
a(S'adapt.the'
p2728
I2
tp2729
a(S'adapts'
p2730
I2
tp2731
a(S'affection'
p2732
I2
tp2733
a(S'again.minfong'
p2734
I2
tp2735
a(S'ago'
p2736
I2
tp2737
a(S'ahead'
p2738
I2
tp2739
a(S'aint'
p2740
I2
tp2741
a(S'al'
p2742
I2
tp2743
a(S'alien'
p2744
I2
tp2745
a(S'alike'
p2746
I2
tp2747
a(S'allowing'
p2748
I2
tp2749
a(S'ambition'
p2750
I2
tp2751
a(S'angry'
p2752
I2
tp2753
a(S'anyone'
p2754
I2
tp2755
a(S'appeared'
p2756
I2
tp2757
a(S'applied'
p2758
I2
tp2759
a(S'apply'
p2760
I2
tp2761
a(S'appreciates'
p2762
I2
tp2763
a(S'ard'
p2764
I2
tp2765
a(S"aren't"
p2766
I2
tp2767
a(S'ariving'
p2768
I2
tp2769
a(S'arrived'
p2770
I2
tp2771
a(S'arthur'
p2772
I2
tp2773
a(S'ashamed'
p2774
I2
tp2775
a(S'at-'
p2776
I2
tp2777
a(S'at-at-'
p2778
I2
tp2779
a(S'atleast'
p2780
I2
tp2781
a(S'atmosphere'
p2782
I2
tp2783
a(S'attached'
p2784
I2
tp2785
a(S'attempting'
p2786
I2
tp2787
a(S'back,saeng'
p2788
I2
tp2789
a(S'back\x94'
p2790
I2
tp2791
a(S'beat'
p2792
I2
tp2793
a(S'becase'
p2794
I2
tp2795
a(S'becaus'
p2796
I2
tp2797
a(S'before.the'
p2798
I2
tp2799
a(S'begans'
p2800
I2
tp2801
a(S'beging'
p2802
I2
tp2803
a(S'behavior'
p2804
I2
tp2805
a(S'beleives'
p2806
I2
tp2807
a(S'beside'
p2808
I2
tp2809
a(S'beyond'
p2810
I2
tp2811
a(S'bidding'
p2812
I2
tp2813
a(S'birth'
p2814
I2
tp2815
a(S'bloms'
p2816
I2
tp2817
a(S'blossomed'
p2818
I2
tp2819
a(S'blossoming'
p2820
I2
tp2821
a(S'blowing'
p2822
I2
tp2823
a(S'body'
p2824
I2
tp2825
a(S'books'
p2826
I2
tp2827
a(S'born'
p2828
I2
tp2829
a(S'bout'
p2830
I2
tp2831
a(S'brave'
p2832
I2
tp2833
a(S'bright'
p2834
I2
tp2835
a(S'brighter'
p2836
I2
tp2837
a(S'budding,then'
p2838
I2
tp2839
a(S'build'
p2840
I2
tp2841
a(S'call'
p2842
I2
tp2843
a(S'calm'
p2844
I2
tp2845
a(S'calms'
p2846
I2
tp2847
a(S"can't"
p2848
I2
tp2849
a(S'cared'
p2850
I2
tp2851
a(S'carring'
p2852
I2
tp2853
a(S'carter'
p2854
I2
tp2855
a(S'catch'
p2856
I2
tp2857
a(S'caused'
p2858
I2
tp2859
a(S'centers.\x94'
p2860
I2
tp2861
a(S'certainly'
p2862
I2
tp2863
a(S'characteristics'
p2864
I2
tp2865
a(S'characters'
p2866
I2
tp2867
a(S'character\x92s'
p2868
I2
tp2869
a(S'charater'
p2870
I2
tp2871
a(S'cheeks'
p2872
I2
tp2873
a(S'cheer'
p2874
I2
tp2875
a(S'chicory'
p2876
I2
tp2877
a(S'child'
p2878
I2
tp2879
a(S'childs'
p2880
I2
tp2881
a(S'circle'
p2882
I2
tp2883
a(S'citizen'
p2884
I2
tp2885
a(S'class'
p2886
I2
tp2887
a(S'closer'
p2888
I2
tp2889
a(S'closes'
p2890
I2
tp2891
a(S'color'
p2892
I2
tp2893
a(S'combination'
p2894
I2
tp2895
a(S'combined'
p2896
I2
tp2897
a(S'come.the'
p2898
I2
tp2899
a(S'comeback'
p2900
I2
tp2901
a(S'comfertable'
p2902
I2
tp2903
a(S'completely'
p2904
I2
tp2905
a(S'concentrate'
p2906
I2
tp2907
a(S'concern'
p2908
I2
tp2909
a(S'conclusion.the'
p2910
I2
tp2911
a(S'confent'
p2912
I2
tp2913
a(S'confused'
p2914
I2
tp2915
a(S'connecting'
p2916
I2
tp2917
a(S'considered'
p2918
I2
tp2919
a(S'constantly'
p2920
I2
tp2921
a(S'container'
p2922
I2
tp2923
a(S'contible'
p2924
I2
tp2925
a(S'continuing'
p2926
I2
tp2927
a(S'contributes'
p2928
I2
tp2929
a(S'control'
p2930
I2
tp2931
a(S'cooking'
p2932
I2
tp2933
a(S'corner'
p2934
I2
tp2935
a(S'correction'
p2936
I2
tp2937
a(S'costs'
p2938
I2
tp2939
a(S'created'
p2940
I2
tp2941
a(S'cried'
p2942
I2
tp2943
a(S'cries'
p2944
I2
tp2945
a(S'current'
p2946
I2
tp2947
a(S'customs'
p2948
I2
tp2949
a(S'daughter\x92s'
p2950
I2
tp2951
a(S'days'
p2952
I2
tp2953
a(S'dead'
p2954
I2
tp2955
a(S'decide'
p2956
I2
tp2957
a(S'decied'
p2958
I2
tp2959
a(S'deeper'
p2960
I2
tp2961
a(S'def'
p2962
I2
tp2963
a(S'depression'
p2964
I2
tp2965
a(S'depth'
p2966
I2
tp2967
a(S'diction'
p2968
I2
tp2969
a(S'didnt'
p2970
I2
tp2971
a(S'differences'
p2972
I2
tp2973
a(S'differently'
p2974
I2
tp2975
a(S'digging'
p2976
I2
tp2977
a(S'direct'
p2978
I2
tp2979
a(S'discovers'
p2980
I2
tp2981
a(S'dissappointed'
p2982
I2
tp2983
a(S'distance.\x94'
p2984
I2
tp2985
a(S'distance\x94'
p2986
I2
tp2987
a(S'does.the'
p2988
I2
tp2989
a(S'done.the'
p2990
I2
tp2991
a(S'dont'
p2992
I2
tp2993
a(S'dose'
p2994
I2
tp2995
a(S'doubt'
p2996
I2
tp2997
a(S'dream'
p2998
I2
tp2999
a(S'driven'
p3000
I2
tp3001
a(S'drive\x92s'
p3002
I2
tp3003
a(S'dug'
p3004
I2
tp3005
a(S'durring'
p3006
I2
tp3007
a(S'early'
p3008
I2
tp3009
a(S'earn'
p3010
I2
tp3011
a(S'ease'
p3012
I2
tp3013
a(S'eased'
p3014
I2
tp3015
a(S'easier'
p3016
I2
tp3017
a(S'edge'
p3018
I2
tp3019
a(S'effective'
p3020
I2
tp3021
a(S'eger'
p3022
I2
tp3023
a(S'emphasizes'
p3024
I2
tp3025
a(S'encouraged'
p3026
I2
tp3027
a(S'end.i'
p3028
I2
tp3029
a(S'energy'
p3030
I2
tp3031
a(S'enhance'
p3032
I2
tp3033
a(S'enjoying'
p3034
I2
tp3035
a(S'ensure'
p3036
I2
tp3037
a(S'enviroment'
p3038
I2
tp3039
a(S'essentially'
p3040
I2
tp3041
a(S'event'
p3042
I2
tp3043
a(S'everybody'
p3044
I2
tp3045
a(S'everyday'
p3046
I2
tp3047
a(S'exerpt'
p3048
I2
tp3049
a(S'experience.the'
p3050
I2
tp3051
a(S'experiencing'
p3052
I2
tp3053
a(S'eyes.\x94'
p3054
I2
tp3055
a(S'fail.the'
p3056
I2
tp3057
a(S'fall'
p3058
I2
tp3059
a(S'falls'
p3060
I2
tp3061
a(S'familier'
p3062
I2
tp3063
a(S'far'
p3064
I2
tp3065
a(S'fell'
p3066
I2
tp3067
a(S'fells'
p3068
I2
tp3069
a(S'fighter'
p3070
I2
tp3071
a(S'fimilar'
p3072
I2
tp3073
a(S'fine-toothed'
p3074
I2
tp3075
a(S'fits'
p3076
I2
tp3077
a(S'flourist'
p3078
I2
tp3079
a(S'focusing'
p3080
I2
tp3081
a(S'for.the'
p3082
I2
tp3083
a(S'forced'
p3084
I2
tp3085
a(S'foreshadow'
p3086
I2
tp3087
a(S'foreshadows'
p3088
I2
tp3089
a(S'forexample'
p3090
I2
tp3091
a(S'forgets'
p3092
I2
tp3093
a(S'foward'
p3094
I2
tp3095
a(S'fragile'
p3096
I2
tp3097
a(S'frail'
p3098
I2
tp3099
a(S'free'
p3100
I2
tp3101
a(S'frends'
p3102
I2
tp3103
a(S'fully'
p3104
I2
tp3105
a(S'furthermore'
p3106
I2
tp3107
a(S'future.the'
p3108
I2
tp3109
a(S'gees'
p3110
I2
tp3111
a(S'gentle'
p3112
I2
tp3113
a(S'gesse'
p3114
I2
tp3115
a(S'geting'
p3116
I2
tp3117
a(S'go.the'
p3118
I2
tp3119
a(S'goin'
p3120
I2
tp3121
a(S'grandmothers'
p3122
I2
tp3123
a(S'grasp'
p3124
I2
tp3125
a(S'greenery'
p3126
I2
tp3127
a(S'grips'
p3128
I2
tp3129
a(S'ground.the'
p3130
I2
tp3131
a(S'growin'
p3132
I2
tp3133
a(S'hand'
p3134
I2
tp3135
a(S'happily'
p3136
I2
tp3137
a(S'happly'
p3138
I2
tp3139
a(S'happy.i'
p3140
I2
tp3141
a(S'hard.the'
p3142
I2
tp3143
a(S'hate'
p3144
I2
tp3145
a(S'hearing'
p3146
I2
tp3147
a(S'hedge?'
p3148
I2
tp3149
a(S'her;'
p3150
I2
tp3151
a(S'herself\x94'
p3152
I2
tp3153
a(S'her\x94'
p3154
I2
tp3155
a(S"hibiscus'"
p3156
I2
tp3157
a(S'hibiscus;'
p3158
I2
tp3159
a(S'hibiscus\x92'
p3160
I2
tp3161
a(S'hibisus'
p3162
I2
tp3163
a(S'holding'
p3164
I2
tp3165
a(S'holds'
p3166
I2
tp3167
a(S'home.in'
p3168
I2
tp3169
a(S'hometown'
p3170
I2
tp3171
a(S"i've"
p3172
I2
tp3173
a(S'illustrate'
p3174
I2
tp3175
a(S'images'
p3176
I2
tp3177
a(S'imagination'
p3178
I2
tp3179
a(S'immigrating'
p3180
I2
tp3181
a(S'improve'
p3182
I2
tp3183
a(S'including'
p3184
I2
tp3185
a(S'indeed'
p3186
I2
tp3187
a(S'indicates'
p3188
I2
tp3189
a(S'indication'
p3190
I2
tp3191
a(S'inform'
p3192
I2
tp3193
a(S'informs'
p3194
I2
tp3195
a(S'insince'
p3196
I2
tp3197
a(S'integrity'
p3198
I2
tp3199
a(S'intends'
p3200
I2
tp3201
a(S'interest'
p3202
I2
tp3203
a(S'internal'
p3204
I2
tp3205
a(S'interpret'
p3206
I2
tp3207
a(S'interpreted'
p3208
I2
tp3209
a(S'interseting'
p3210
I2
tp3211
a(S'is.the'
p3212
I2
tp3213
a(S'it.i'
p3214
I2
tp3215
a(S'item'
p3216
I2
tp3217
a(S'it\x94'
p3218
I2
tp3219
a(S'kept'
p3220
I2
tp3221
a(S'key'
p3222
I2
tp3223
a(S'kinda'
p3224
I2
tp3225
a(S'kindness'
p3226
I2
tp3227
a(S'knowledge'
p3228
I2
tp3229
a(S'l'
I2
tp3230
a(S'land.the'
p3231
I2
tp3232
a(S'level'
p3233
I2
tp3234
a(S'life.i'
p3235
I2
tp3236
a(S'lifes'
p3237
I2
tp3238
a(S'lifethe'
p3239
I2
tp3240
a(S'life\x92s'
p3241
I2
tp3242
a(S'lifting'
p3243
I2
tp3244
a(S'lisence'
p3245
I2
tp3246
a(S'list'
p3247
I2
tp3248
a(S'literal'
p3249
I2
tp3250
a(S'location2.the'
p3251
I2
tp3252
a(S'lonely'
p3253
I2
tp3254
a(S'longed'
p3255
I2
tp3256
a(S'longs'
p3257
I2
tp3258
a(S'lose'
p3259
I2
tp3260
a(S'loss.\x92\x92'
p3261
I2
tp3262
a(S'lucky'
p3263
I2
tp3264
a(S'lush'
p3265
I2
tp3266
a(S'manner'
p3267
I2
tp3268
a(S'mast'
p3269
I2
tp3270
a(S'matter\x94'
p3271
I2
tp3272
a(S'melons'
p3273
I2
tp3274
a(S'memories.the'
p3275
I2
tp3276
a(S'mental'
p3277
I2
tp3278
a(S'mentioning'
p3279
I2
tp3280
a(S'migration'
p3281
I2
tp3282
a(S'misery'
p3283
I2
tp3284
a(S'mistake'
p3285
I2
tp3286
a(S'mom\x92s'
p3287
I2
tp3288
a(S'mother,she'
p3289
I2
tp3290
a(S'mother.\x94'
p3291
I2
tp3292
a(S'motivates'
p3293
I2
tp3294
a(S'motivating'
p3295
I2
tp3296
a(S'mud'
p3297
I2
tp3298
a(S'narrative'
p3299
I2
tp3300
a(S'near'
p3301
I2
tp3302
a(S'negative'
p3303
I2
tp3304
a(S'nervous'
p3305
I2
tp3306
a(S'newfound'
p3307
I2
tp3308
a(S'nicely'
p3309
I2
tp3310
a(S'nobody'
p3311
I2
tp3312
a(S'north'
p3313
I2
tp3314
a(S'not.the'
p3315
I2
tp3316
a(S'notices'
p3317
I2
tp3318
a(S'now,\x92\x92'
p3319
I2
tp3320
a(S'num1]'
p3321
I2
tp3322
a(S'num2)'
p3323
I2
tp3324
a(S'nutura'
p3325
I2
tp3326
a(S'objects'
p3327
I2
tp3328
a(S'obstacle.the'
p3329
I2
tp3330
a(S'obstictes'
p3331
I2
tp3332
a(S'odd'
p3333
I2
tp3334
a(S'often'
p3335
I2
tp3336
a(S'ond'
p3337
I2
tp3338
a(S'one,\x94'
p3339
I2
tp3340
a(S'onto'
p3341
I2
tp3342
a(S'onto.\x94'
p3343
I2
tp3344
a(S'original'
p3345
I2
tp3346
a(S'othe'
p3347
I2
tp3348
a(S'others'
p3349
I2
tp3350
a(S'otherwise'
p3351
I2
tp3352
a(S'overcame'
p3353
I2
tp3354
a(S'overcomes'
p3355
I2
tp3356
a(S'overwhelmed'
p3357
I2
tp3358
a(S'page'
p3359
I2
tp3360
a(S'palm'
p3361
I2
tp3362
a(S'pan'
p3363
I2
tp3364
a(S'paragraph.it'
p3365
I2
tp3366
a(S'paragraph.she'
p3367
I2
tp3368
a(S'paragraphthe'
p3369
I2
tp3370
a(S'passage.the'
p3371
I2
tp3372
a(S'past.i'
p3373
I2
tp3374
a(S'past.the'
p3375
I2
tp3376
a(S'patch'
p3377
I2
tp3378
a(S'paused'
p3379
I2
tp3380
a(S'pedals'
p3381
I2
tp3382
a(S'perfect'
p3383
I2
tp3384
a(S'perserverance'
p3385
I2
tp3386
a(S'perseverence'
p3387
I2
tp3388
a(S'physical'
p3389
I2
tp3390
a(S'place,and'
p3391
I2
tp3392
a(S'place.the'
p3393
I2
tp3394
a(S'plants.the'
p3395
I2
tp3396
a(S'play'
p3397
I2
tp3398
a(S'plot'
p3399
I2
tp3400
a(S'point.the'
p3401
I2
tp3402
a(S'portrays'
p3403
I2
tp3404
a(S'preparing'
p3405
I2
tp3406
a(S'presented'
p3407
I2
tp3408
a(S'pressure'
p3409
I2
tp3410
a(S'pride'
p3411
I2
tp3412
a(S'principal'
p3413
I2
tp3414
a(S'probaly'
p3415
I2
tp3416
a(S'properly'
p3417
I2
tp3418
a(S'proves'
p3419
I2
tp3420
a(S'pungent'
p3421
I2
tp3422
a(S'qualities'
p3423
I2
tp3424
a(S'quest'
p3425
I2
tp3426
a(S'questions'
p3427
I2
tp3428
a(S'quietly'
p3429
I2
tp3430
a(S'quitter'
p3431
I2
tp3432
a(S'reach'
p3433
I2
tp3434
a(S'reader\x92s'
p3435
I2
tp3436
a(S'reads'
p3437
I2
tp3438
a(S'realy'
p3439
I2
tp3440
a(S'reasoning'
p3441
I2
tp3442
a(S'reborn'
p3443
I2
tp3444
a(S'rebuild'
p3445
I2
tp3446
a(S'rebuilding'
p3447
I2
tp3448
a(S'recalls'
p3449
I2
tp3450
a(S'received'
p3451
I2
tp3452
a(S'reflected'
p3453
I2
tp3454
a(S'reflection'
p3455
I2
tp3456
a(S'reflects'
p3457
I2
tp3458
a(S'related'
p3459
I2
tp3460
a(S'relation'
p3461
I2
tp3462
a(S'reliable'
p3463
I2
tp3464
a(S'relize'
p3465
I2
tp3466
a(S'remembrance'
p3467
I2
tp3468
a(S'replace'
p3469
I2
tp3470
a(S'resolution'
p3471
I2
tp3472
a(S'resolutive'
p3473
I2
tp3474
a(S'resolve'
p3475
I2
tp3476
a(S'reson'
p3477
I2
tp3478
a(S'responsibility'
p3479
I2
tp3480
a(S'restart'
p3481
I2
tp3482
a(S'restarts'
p3483
I2
tp3484
a(S'restored'
p3485
I2
tp3486
a(S'restricted'
p3487
I2
tp3488
a(S'return.the'
p3489
I2
tp3490
a(S'return.\x94'
p3491
I2
tp3492
a(S'reveal'
p3493
I2
tp3494
a(S'revival'
p3495
I2
tp3496
a(S'reward'
p3497
I2
tp3498
a(S'road'
p3499
I2
tp3500
a(S'rushing'
p3501
I2
tp3502
a(S'saebba'
p3503
I2
tp3504
a(S'saengs'
p3505
I2
tp3506
a(S'saids'
p3507
I2
tp3508
a(S'sand'
p3509
I2
tp3510
a(S'say\x92s'
p3511
I2
tp3512
a(S'scared'
p3513
I2
tp3514
a(S'scent-'
p3515
I2
tp3516
a(S'school.the'
p3517
I2
tp3518
a(S'score'
p3519
I2
tp3520
a(S'seang'
p3521
I2
tp3522
a(S'seasons.the'
p3523
I2
tp3524
a(S'secondly'
p3525
I2
tp3526
a(S'seemingly'
p3527
I2
tp3528
a(S'see\x92s'
p3529
I2
tp3530
a(S'selection'
p3531
I2
tp3532
a(S'send'
p3533
I2
tp3534
a(S'sends'
p3535
I2
tp3536
a(S'senses'
p3537
I2
tp3538
a(S'sent'
p3539
I2
tp3540
a(S'sentence.saeng'
p3541
I2
tp3542
a(S'sentences'
p3543
I2
tp3544
a(S'sequal'
p3545
I2
tp3546
a(S'sequel'
p3547
I2
tp3548
a(S'shape'
p3549
I2
tp3550
a(S"she'll"
p3551
I2
tp3552
a(S'shore'
p3553
I2
tp3554
a(S'shouldn\x92t'
p3555
I2
tp3556
a(S'sign'
p3557
I2
tp3558
a(S'significance'
p3559
I2
tp3560
a(S'signifies'
p3561
I2
tp3562
a(S'signs'
p3563
I2
tp3564
a(S'similarity'
p3565
I2
tp3566
a(S'situation.after'
p3567
I2
tp3568
a(S'situations'
p3569
I2
tp3570
a(S'skip'
p3571
I2
tp3572
a(S'slowing'
p3573
I2
tp3574
a(S'smart'
p3575
I2
tp3576
a(S'smelling'
p3577
I2
tp3578
a(S'smells'
p3579
I2
tp3580
a(S'snowing'
p3581
I2
tp3582
a(S'snows!'
p3583
I2
tp3584
a(S'snowy'
p3585
I2
tp3586
a(S'solution'
p3587
I2
tp3588
a(S'sooner'
p3589
I2
tp3590
a(S'sorrow'
p3591
I2
tp3592
a(S'sorry'
p3593
I2
tp3594
a(S'sound'
p3595
I2
tp3596
a(S'spark'
p3597
I2
tp3598
a(S'speaks'
p3599
I2
tp3600
a(S'spirit'
p3601
I2
tp3602
a(S'spring;'
p3603
I2
tp3604
a(S'springs'
p3605
I2
tp3606
a(S'stability'
p3607
I2
tp3608
a(S'start.the'
p3609
I2
tp3610
a(S'started.the'
p3611
I2
tp3612
a(S'stayed'
p3613
I2
tp3614
a(S'staying'
p3615
I2
tp3616
a(S'stength'
p3617
I2
tp3618
a(S'storie'
p3619
I2
tp3620
a(S'story.in'
p3621
I2
tp3622
a(S'story.saeng'
p3623
I2
tp3624
a(S'story;'
p3625
I2
tp3626
a(S'storys'
p3627
I2
tp3628
a(S'stressed'
p3629
I2
tp3630
a(S'string'
p3631
I2
tp3632
a(S'subject'
p3633
I2
tp3634
a(S'succed'
p3635
I2
tp3636
a(S'succeeds'
p3637
I2
tp3638
a(S'successfully'
p3639
I2
tp3640
a(S'summary'
p3641
I2
tp3642
a(S'sunlight'
p3643
I2
tp3644
a(S'table'
p3645
I2
tp3646
a(S'tasks'
p3647
I2
tp3648
a(S'taught'
p3649
I2
tp3650
a(S'tearing'
p3651
I2
tp3652
a(S'tearstains'
p3653
I2
tp3654
a(S'teenage'
p3655
I2
tp3656
a(S'teenager'
p3657
I2
tp3658
a(S'terms'
p3659
I2
tp3660
a(S'testing'
p3661
I2
tp3662
a(S'tests'
p3663
I2
tp3664
a(S'thee'
p3665
I2
tp3666
a(S'themes.the'
p3667
I2
tp3668
a(S'there\x92s'
p3669
I2
tp3670
a(S"they're"
p3671
I2
tp3672
a(S'they\x92re'
p3673
I2
tp3674
a(S'tho'
p3675
I2
tp3676
a(S'thot'
p3677
I2
tp3678
a(S'three'
p3679
I2
tp3680
a(S'through.the'
p3681
I2
tp3682
a(S'tight'
p3683
I2
tp3684
a(S'time.in'
p3685
I2
tp3686
a(S'time.saeng'
p3687
I2
tp3688
a(S'tipped'
p3689
I2
tp3690
a(S'title'
p3691
I2
tp3692
a(S'to.the'
p3693
I2
tp3694
a(S'tock'
p3695
I2
tp3696
a(S'tool'
p3697
I2
tp3698
a(S'toothed'
p3699
I2
tp3700
a(S'topic'
p3701
I2
tp3702
a(S'track'
p3703
I2
tp3704
a(S'tradition'
p3705
I2
tp3706
a(S'transition'
p3707
I2
tp3708
a(S'tree'
p3709
I2
tp3710
a(S'trigger'
p3711
I2
tp3712
a(S'tring'
p3713
I2
tp3714
a(S'truly'
p3715
I2
tp3716
a(S'turns'
p3717
I2
tp3718
a(S'u'
I2
tp3719
a(S'uncomfortable'
p3720
I2
tp3721
a(S'unhappy'
p3722
I2
tp3723
a(S'unique'
p3724
I2
tp3725
a(S'unlike'
p3726
I2
tp3727
a(S'unsure'
p3728
I2
tp3729
a(S'uplifting'
p3730
I2
tp3731
a(S'vary'
p3732
I2
tp3733
a(S'veggies'
p3734
I2
tp3735
a(S'view'
p3736
I2
tp3737
a(S'visceral'
p3738
I2
tp3739
a(S'visualize'
p3740
I2
tp3741
a(S'vowe'
p3742
I2
tp3743
a(S'vowel'
p3744
I2
tp3745
a(S'w/this'
p3746
I2
tp3747
a(S'waits'
p3748
I2
tp3749
a(S'walls'
p3750
I2
tp3751
a(S'warmed'
p3752
I2
tp3753
a(S'warmer'
p3754
I2
tp3755
a(S'washed'
p3756
I2
tp3757
a(S'watches'
p3758
I2
tp3759
a(S'waves'
p3760
I2
tp3761
a(S'ways.the'
p3762
I2
tp3763
a(S'weeds'
p3764
I2
tp3765
a(S'weird'
p3766
I2
tp3767
a(S'welcome'
p3768
I2
tp3769
a(S'wept'
p3770
I2
tp3771
a(S'what?'
p3772
I2
tp3773
a(S'what\x92s'
p3774
I2
tp3775
a(S'whent'
p3776
I2
tp3777
a(S'wile'
p3778
I2
tp3779
a(S'wish'
p3780
I2
tp3781
a(S'withstand'
p3782
I2
tp3783
a(S'words.the'
p3784
I2
tp3785
a(S'worked'
p3786
I2
tp3787
a(S'works'
p3788
I2
tp3789
a(S'worried'
p3790
I2
tp3791
a(S'worrying'
p3792
I2
tp3793
a(S'worse'
p3794
I2
tp3795
a(S"wouldn't"
p3796
I2
tp3797
a(S'year.i'
p3798
I2
tp3799
a(S'yelling'
p3800
I2
tp3801
a(S'\x91s'
p3802
I2
tp3803
a(S'\x91saeng'
p3804
I2
tp3805
a(S'\x92\x92take'
p3806
I2
tp3807
a(S'\x92\x92when'
p3808
I2
tp3809
a(S'\x93(@num1)'
p3810
I2
tp3811
a(S'\x93(ho'
p3812
I2
tp3813
a(S'\x93.this'
p3814
I2
tp3815
a(S'\x93decided'
p3816
I2
tp3817
a(S'\x93familiar'
p3818
I2
tp3819
a(S'\x93gently'
p3820
I2
tp3821
a(S'\x93her'
p3822
I2
tp3823
a(S'\x93i\x92m'
p3824
I2
tp3825
a(S'\x93i\x92ve'
p3826
I2
tp3827
a(S'\x93let\x92s'
p3828
I2
tp3829
a(S'\x93like'
p3830
I2
tp3831
a(S'\x93many'
p3832
I2
tp3833
a(S'\x93plant'
p3834
I2
tp3835
a(S'\x93snows'
p3836
I2
tp3837
a(S'\x93strong'
p3838
I2
tp3839
a(S'\x93vowed'
p3840
I2
tp3841
a(S'\x93why'
p3842
I2
tp3843
a(S'\x93you'
p3844
I2
tp3845
a(S'\x94)'
p3846
I2
tp3847
a(S'\x94she'
p3848
I2
tp3849
a(S'&challenges'
p3850
I1
tp3851
a(S"'at"
p3852
I1
tp3853
a(S"'i"
p3854
I1
tp3855
a(S"'its"
p3856
I1
tp3857
a(S"'winter"
p3858
I1
tp3859
a(S'(@num1).the'
p3860
I1
tp3861
a(S'(@num2)'
p3862
I1
tp3863
a(S'(@num2),she'
p3864
I1
tp3865
a(S'(another'
p3866
I1
tp3867
a(S'(dollars)'
p3868
I1
tp3869
a(S'(failing'
p3870
I1
tp3871
a(S'(for'
p3872
I1
tp3873
a(S'(geese)'
p3874
I1
tp3875
a(S'(ho).the'
p3876
I1
tp3877
a(S'(last'
p3878
I1
tp3879
a(S'(minfong'
p3880
I1
tp3881
a(S'(not'
p3882
I1
tp3883
a(S'(perhaps'
p3884
I1
tp3885
a(S'(saeng'
p3886
I1
tp3887
a(S'(saeng)'
p3888
I1
tp3889
a(S'(she)'
p3890
I1
tp3891
a(S'(shows'
p3892
I1
tp3893
a(S'(this'
p3894
I1
tp3895
a(S'(when'
p3896
I1
tp3897
a(S'(who'
p3898
I1
tp3899
a(S'(writers'
p3900
I1
tp3901
a(S')'
I1
tp3902
a(S'-yes-'
p3903
I1
tp3904
a(S'-yes-familiar'
p3905
I1
tp3906
a(S'-\x93'
p3907
I1
tp3908
a(S'/person'
p3909
I1
tp3910
a(S'/reader'
p3911
I1
tp3912
a(S'1'
I1
tp3913
a(S'?\x94.the'
p3914
I1
tp3915
a(S'[]'
p3916
I1
tp3917
a(S'`@caps1'
p3918
I1
tp3919
a(S'a???'
p3920
I1
tp3921
a(S'aas'
p3922
I1
tp3923
a(S'aasked'
p3924
I1
tp3925
a(S'abilities'
p3926
I1
tp3927
a(S'abought'
p3928
I1
tp3929
a(S'about.i'
p3930
I1
tp3931
a(S'about.she'
p3932
I1
tp3933
a(S'about.when'
p3934
I1
tp3935
a(S'aboutincluding'
p3936
I1
tp3937
a(S'abrupt'
p3938
I1
tp3939
a(S'abruptly'
p3940
I1
tp3941
a(S'absent'
p3942
I1
tp3943
a(S'accentuate'
p3944
I1
tp3945
a(S'accomplished'
p3946
I1
tp3947
a(S'according'
p3948
I1
tp3949
a(S'accostomed'
p3950
I1
tp3951
a(S'accostumed'
p3952
I1
tp3953
a(S'accustom'
p3954
I1
tp3955
a(S'acentric'
p3956
I1
tp3957
a(S'achieved'
p3958
I1
tp3959
a(S'achievedi'
p3960
I1
tp3961
a(S'act'
p3962
I1
tp3963
a(S'acting'
p3964
I1
tp3965
a(S'acustomed'
p3966
I1
tp3967
a(S'adapte'
p3968
I1
tp3969
a(S'addapt'
p3970
I1
tp3971
a(S'addapts'
p3972
I1
tp3973
a(S'adding'
p3974
I1
tp3975
a(S'addittude'
p3976
I1
tp3977
a(S'adjustment-all'
p3978
I1
tp3979
a(S'adjustment.the'
p3980
I1
tp3981
a(S'admire'
p3982
I1
tp3983
a(S'admires'
p3984
I1
tp3985
a(S'adopted'
p3986
I1
tp3987
a(S'adoption'
p3988
I1
tp3989
a(S'adores'
p3990
I1
tp3991
a(S'affect'
p3992
I1
tp3993
a(S'affine'
p3994
I1
tp3995
a(S'afternoon'
p3996
I1
tp3997
a(S'afterwards'
p3998
I1
tp3999
a(S'again!'
p4000
I1
tp4001
a(S'again"(ho)'
p4002
I1
tp4003
a(S'again)'
p4004
I1
tp4005
a(S'again,\x93'
p4006
I1
tp4007
a(S'again."i'
p4008
I1
tp4009
a(S'again.also,the'
p4010
I1
tp4011
a(S'again.if'
p4012
I1
tp4013
a(S'again.life'
p4014
I1
tp4015
a(S'again.resons'
p4016
I1
tp4017
a(S'again.saeng'
p4018
I1
tp4019
a(S'again.so'
p4020
I1
tp4021
a(S'again.thes'
p4022
I1
tp4023
a(S'again.this'
p4024
I1
tp4025
a(S'again.why'
p4026
I1
tp4027
a(S'again.winter'
p4028
I1
tp4029
a(S'again.\x92'
p4030
I1
tp4031
a(S'again.\x92\x92'
p4032
I1
tp4033
a(S'again.\x92\x92all'
p4034
I1
tp4035
a(S'again.\x92\x94'
p4036
I1
tp4037
a(S'again.\x93you'
p4038
I1
tp4039
a(S'again.\x94the'
p4040
I1
tp4041
a(S'again.\x94therefore'
p4042
I1
tp4043
a(S'again;'
p4044
I1
tp4045
a(S'againg'
p4046
I1
tp4047
a(S'againin'
p4048
I1
tp4049
a(S'again\x92\x92'
p4050
I1
tp4051
a(S'again\x92\x92(ho)'
p4052
I1
tp4053
a(S'again\x94.the'
p4054
I1
tp4055
a(S'again\x94[@num2]'
p4056
I1
tp4057
a(S'agan'
p4058
I1
tp4059
a(S'agein'
p4060
I1
tp4061
a(S'agien'
p4062
I1
tp4063
a(S'agin.the'
p4064
I1
tp4065
a(S'agonizingly'
p4066
I1
tp4067
a(S'agree'
p4068
I1
tp4069
a(S'agrees'
p4070
I1
tp4071
a(S'ain\x92t'
p4072
I1
tp4073
a(S'air'
p4074
I1
tp4075
a(S'ajusted'
p4076
I1
tp4077
a(S'alittle'
p4078
I1
tp4079
a(S'all.in'
p4080
I1
tp4081
a(S'all.there'
p4082
I1
tp4083
a(S'alleinates'
p4084
I1
tp4085
a(S'allowed'
p4086
I1
tp4087
a(S'allready'
p4088
I1
tp4089
a(S'allthe'
p4090
I1
tp4091
a(S'alluded'
p4092
I1
tp4093
a(S'along.i'
p4094
I1
tp4095
a(S'aloud'
p4096
I1
tp4097
a(S'also.the'
p4098
I1
tp4099
a(S'alsole'
p4100
I1
tp4101
a(S'american'
p4102
I1
tp4103
a(S'amidst'
p4104
I1
tp4105
a(S'ampasize'
p4106
I1
tp4107
a(S'amphasis'
p4108
I1
tp4109
a(S'analyzed'
p4110
I1
tp4111
a(S'ancious'
p4112
I1
tp4113
a(S'ands'
p4114
I1
tp4115
a(S'ane'
p4116
I1
tp4117
a(S'anew.the'
p4118
I1
tp4119
a(S'anges'
p4120
I1
tp4121
a(S'anierpaady'
p4122
I1
tp4123
a(S'annoyed'
p4124
I1
tp4125
a(S'annual'
p4126
I1
tp4127
a(S'answer'
p4128
I1
tp4129
a(S'anther'
p4130
I1
tp4131
a(S'anythin'
p4132
I1
tp4133
a(S'anythings.this'
p4134
I1
tp4135
a(S'anyway'
p4136
I1
tp4137
a(S'anyways'
p4138
I1
tp4139
a(S'aphrase'
p4140
I1
tp4141
a(S'apologize'
p4142
I1
tp4143
a(S'apon'
p4144
I1
tp4145
a(S'appears'
p4146
I1
tp4147
a(S'appreciated'
p4148
I1
tp4149
a(S'appreciation'
p4150
I1
tp4151
a(S'apprecite'
p4152
I1
tp4153
a(S'appriate'
p4154
I1
tp4155
a(S'approach'
p4156
I1
tp4157
a(S'approval'
p4158
I1
tp4159
a(S'approve'
p4160
I1
tp4161
a(S'apreciate'
p4162
I1
tp4163
a(S'archetype'
p4164
I1
tp4165
a(S'archetypes'
p4166
I1
tp4167
a(S'archotyal'
p4168
I1
tp4169
a(S'areas'
p4170
I1
tp4171
a(S'arent'
p4172
I1
tp4173
a(S'ark'
p4174
I1
tp4175
a(S"arn't"
p4176
I1
tp4177
a(S'arn\x92t'
p4178
I1
tp4179
a(S'around.the'
p4180
I1
tp4181
a(S'around.\x93when'
p4182
I1
tp4183
a(S'arrangement'
p4184
I1
tp4185
a(S'as,\x94'
p4186
I1
tp4187
a(S'asia'
p4188
I1
tp4189
a(S'asked'
p4190
I1
tp4191
a(S'asking'
p4192
I1
tp4193
a(S'asks'
p4194
I1
tp4195
a(S'associated'
p4196
I1
tp4197
a(S'assume'
p4198
I1
tp4199
a(S'assumption'
p4200
I1
tp4201
a(S'assure'
p4202
I1
tp4203
a(S'asymbol'
p4204
I1
tp4205
a(S'at-at'
p4206
I1
tp4207
a(S"at-at'"
p4208
I1
tp4209
a(S'at-at-".this'
p4210
I1
tp4211
a(S'at-at-,\x94'
p4212
I1
tp4213
a(S'at-at\x92'
p4214
I1
tp4215
a(S'ate'
p4216
I1
tp4217
a(S'atempt'
p4218
I1
tp4219
a(S'atey'
p4220
I1
tp4221
a(S'athor'
p4222
I1
tp4223
a(S'atmoshere'
p4224
I1
tp4225
a(S'ator'
p4226
I1
tp4227
a(S'attempted'
p4228
I1
tp4229
a(S'attentive'
p4230
I1
tp4231
a(S'auethor'
p4232
I1
tp4233
a(S'authar'
p4234
I1
tp4235
a(S"author's"
p4236
I1
tp4237
a(S'authorby'
p4238
I1
tp4239
a(S'authore'
p4240
I1
tp4241
a(S'authrs'
p4242
I1
tp4243
a(S'autor'
p4244
I1
tp4245
a(S'aware'
p4246
I1
tp4247
a(S'away.i'
p4248
I1
tp4249
a(S'away.saeng'
p4250
I1
tp4251
a(S'away;'
p4252
I1
tp4253
a(S'aways'
p4254
I1
tp4255
a(S'awkward'
p4256
I1
tp4257
a(S'babies'
p4258
I1
tp4259
a(S'back,\x92'
p4260
I1
tp4261
a(S'back,\x94'
p4262
I1
tp4263
a(S'back...then'
p4264
I1
tp4265
a(S'back.that'
p4266
I1
tp4267
a(S'back.when'
p4268
I1
tp4269
a(S'back.will'
p4270
I1
tp4271
a(S'backabout'
p4272
I1
tp4273
a(S'badly'
p4274
I1
tp4275
a(S'baety.when'
p4276
I1
tp4277
a(S'baised'
p4278
I1
tp4279
a(S'balance'
p4280
I1
tp4281
a(S'balancing'
p4282
I1
tp4283
a(S'ball'
p4284
I1
tp4285
a(S'banks'
p4286
I1
tp4287
a(S'base'
p4288
I1
tp4289
a(S'based'
p4290
I1
tp4291
a(S'basically.this'
p4292
I1
tp4293
a(S'basiclly'
p4294
I1
tp4295
a(S'basis'
p4296
I1
tp4297
a(S'batter'
p4298
I1
tp4299
a(S'be.the'
p4300
I1
tp4301
a(S'beach'
p4302
I1
tp4303
a(S'bease'
p4304
I1
tp4305
a(S'beatiful'
p4306
I1
tp4307
a(S'beating'
p4308
I1
tp4309
a(S'beauitful'
p4310
I1
tp4311
a(S'beautie'
p4312
I1
tp4313
a(S'beautiful.it'
p4314
I1
tp4315
a(S'beautiful.the'
p4316
I1
tp4317
a(S'beautifully'
p4318
I1
tp4319
a(S'beautifulthe'
p4320
I1
tp4321
a(S'becaming'
p4322
I1
tp4323
a(S'become\x94'
p4324
I1
tp4325
a(S'becuose'
p4326
I1
tp4327
a(S'becuse'
p4328
I1
tp4329
a(S'bee-maags\x94'
p4330
I1
tp4331
a(S'beest'
p4332
I1
tp4333
a(S'beet'
p4334
I1
tp4335
a(S'befall'
p4336
I1
tp4337
a(S'before.\x94this'
p4338
I1
tp4339
a(S'before\x92'
p4340
I1
tp4341
a(S'before\x94'
p4342
I1
tp4343
a(S'begaing'
p4344
I1
tp4345
a(S'begains'
p4346
I1
tp4347
a(S'began.i'
p4348
I1
tp4349
a(S'beggening'
p4350
I1
tp4351
a(S'beginging'
p4352
I1
tp4353
a(S'begininig'
p4354
I1
tp4355
a(S'beginnig'
p4356
I1
tp4357
a(S'beginning.maybe'
p4358
I1
tp4359
a(S'beginning.the'
p4360
I1
tp4361
a(S'beginningin'
p4362
I1
tp4363
a(S'beginnings.she'
p4364
I1
tp4365
a(S'beginnings.what'
p4366
I1
tp4367
a(S'beginningthe'
p4368
I1
tp4369
a(S'beguin'
p4370
I1
tp4371
a(S'begun'
p4372
I1
tp4373
a(S'behaviors'
p4374
I1
tp4375
a(S'behavoir-all'
p4376
I1
tp4377
a(S'beign'
p4378
I1
tp4379
a(S'beleieves'
p4380
I1
tp4381
a(S'beleive'
p4382
I1
tp4383
a(S'believing'
p4384
I1
tp4385
a(S'belive.the'
p4386
I1
tp4387
a(S'belonged'
p4388
I1
tp4389
a(S'benefits'
p4390
I1
tp4391
a(S'best.the'
p4392
I1
tp4393
a(S'better.why'
p4394
I1
tp4395
a(S'betters'
p4396
I1
tp4397
a(S'beuttifl'
p4398
I1
tp4399
a(S'bibiscus'
p4400
I1
tp4401
a(S'bidding)'
p4402
I1
tp4403
a(S'bidding\x94'
p4404
I1
tp4405
a(S'big-mac.the'
p4406
I1
tp4407
a(S'bind'
p4408
I1
tp4409
a(S'biological'
p4410
I1
tp4411
a(S'bird'
p4412
I1
tp4413
a(S'biscus'
p4414
I1
tp4415
a(S'bits\x94'
p4416
I1
tp4417
a(S'bitter.minfong'
p4418
I1
tp4419
a(S'bitterness'
p4420
I1
tp4421
a(S'blese'
p4422
I1
tp4423
a(S'blessings.i'
p4424
I1
tp4425
a(S'blink.\x94'
p4426
I1
tp4427
a(S'blive'
p4428
I1
tp4429
a(S'blizzared'
p4430
I1
tp4431
a(S'blom'
p4432
I1
tp4433
a(S'bloming'
p4434
I1
tp4435
a(S'blomming'
p4436
I1
tp4437
a(S'blommming'
p4438
I1
tp4439
a(S'blooming.the'
p4440
I1
tp4441
a(S'blooms.the'
p4442
I1
tp4443
a(S'blossed'
p4444
I1
tp4445
a(S'blossom.to'
p4446
I1
tp4447
a(S'blossome.the'
p4448
I1
tp4449
a(S'blossoms.the'
p4450
I1
tp4451
a(S'blown'
p4452
I1
tp4453
a(S'blue'
p4454
I1
tp4455
a(S'blume'
p4456
I1
tp4457
a(S'blutal'
p4458
I1
tp4459
a(S'boaght'
p4460
I1
tp4461
a(S'boby'
p4462
I1
tp4463
a(S'bock'
p4464
I1
tp4465
a(S'bond'
p4466
I1
tp4467
a(S'book.the'
p4468
I1
tp4469
a(S'bottom'
p4470
I1
tp4471
a(S'bought\x94'
p4472
I1
tp4473
a(S'bougth'
p4474
I1
tp4475
a(S'bound'
p4476
I1
tp4477
a(S'bowl'
p4478
I1
tp4479
a(S'box'
p4480
I1
tp4481
a(S'brake'
p4482
I1
tp4483
a(S'brand'
p4484
I1
tp4485
a(S'breakdown'
p4486
I1
tp4487
a(S'breaks'
p4488
I1
tp4489
a(S'breeze'
p4490
I1
tp4491
a(S'brick'
p4492
I1
tp4493
a(S'brief'
p4494
I1
tp4495
a(S'bringing'
p4496
I1
tp4497
a(S'brining'
p4498
I1
tp4499
a(S'brong'
p4500
I1
tp4501
a(S'brutal'
p4502
I1
tp4503
a(S'bucking'
p4504
I1
tp4505
a(S'bud/bloom'
p4506
I1
tp4507
a(S'budded'
p4508
I1
tp4509
a(S'budded.the'
p4510
I1
tp4511
a(S'buddin'
p4512
I1
tp4513
a(S'budding(being'
p4514
I1
tp4515
a(S'budding,\x93'
p4516
I1
tp4517
a(S'budding...\x94'
p4518
I1
tp4519
a(S'buddling'
p4520
I1
tp4521
a(S'buddng'
p4522
I1
tp4523
a(S'budds.the'
p4524
I1
tp4525
a(S'buddy'
p4526
I1
tp4527
a(S'buds.in'
p4528
I1
tp4529
a(S'buetiful'
p4530
I1
tp4531
a(S'buffalo-horn'
p4532
I1
tp4533
a(S'building'
p4534
I1
tp4535
a(S'bump'
p4536
I1
tp4537
a(S'burnt'
p4538
I1
tp4539
a(S'bush'
p4540
I1
tp4541
a(S'bushes'
p4542
I1
tp4543
a(S'butt'
p4544
I1
tp4545
a(S'buyin'
p4546
I1
tp4547
a(S'by,their'
p4548
I1
tp4549
a(S'by.\x94when'
p4550
I1
tp4551
a(S'by\x94'
p4552
I1
tp4553
a(S'calming\x94'
p4554
I1
tp4555
a(S'cam'
p4556
I1
tp4557
a(S'camitmint'
p4558
I1
tp4559
a(S'canadian'
p4560
I1
tp4561
a(S'canre'
p4562
I1
tp4563
a(S'capable'
p4564
I1
tp4565
a(S'capacity'
p4566
I1
tp4567
a(S'caps1.s'
p4568
I1
tp4569
a(S'caps1.the'
p4570
I1
tp4571
a(S'caps1i'
p4572
I1
tp4573
a(S"caps2's"
p4574
I1
tp4575
a(S'caps2)she'
p4576
I1
tp4577
a(S'caps2.k'
p4578
I1
tp4579
a(S'caps2.the'
p4580
I1
tp4581
a(S'caps2/@caps3'
p4582
I1
tp4583
a(S'caps3.saeng'
p4584
I1
tp4585
a(S"caps4't"
p4586
I1
tp4587
a(S'capture'
p4588
I1
tp4589
a(S"care's"
p4590
I1
tp4591
a(S'carried'
p4592
I1
tp4593
a(S'carries'
p4594
I1
tp4595
a(S'cat'
p4596
I1
tp4597
a(S'caught'
p4598
I1
tp4599
a(S'causing'
p4600
I1
tp4601
a(S'ceizors'
p4602
I1
tp4603
a(S'cent'
p4604
I1
tp4605
a(S'center-'
p4606
I1
tp4607
a(S'centers'
p4608
I1
tp4609
a(S'centers\x94'
p4610
I1
tp4611
a(S'central'
p4612
I1
tp4613
a(S'centre\x94'
p4614
I1
tp4615
a(S'certaint'
p4616
I1
tp4617
a(S'chage'
p4618
I1
tp4619
a(S'chages'
p4620
I1
tp4621
a(S'chanellge'
p4622
I1
tp4623
a(S'chang'
p4624
I1
tp4625
a(S'change.i'
p4626
I1
tp4627
a(S'change.in'
p4628
I1
tp4629
a(S'changed.i'
p4630
I1
tp4631
a(S'changeing'
p4632
I1
tp4633
a(S'changes.the'
p4634
I1
tp4635
a(S'changes.well'
p4636
I1
tp4637
a(S'changesthe'
p4638
I1
tp4639
a(S'changing.the'
p4640
I1
tp4641
a(S'chase'
p4642
I1
tp4643
a(S'cheecks'
p4644
I1
tp4645
a(S'cheerful'
p4646
I1
tp4647
a(S'cheerfully\x94'
p4648
I1
tp4649
a(S'cheers'
p4650
I1
tp4651
a(S'children'
p4652
I1
tp4653
a(S'child\x92s'
p4654
I1
tp4655
a(S'chosen'
p4656
I1
tp4657
a(S'choses'
p4658
I1
tp4659
a(S'circle.i'
p4660
I1
tp4661
a(S'circumstance'
p4662
I1
tp4663
a(S'citizenship'
p4664
I1
tp4665
a(S'city'
p4666
I1
tp4667
a(S'clash'
p4668
I1
tp4669
a(S'classes'
p4670
I1
tp4671
a(S'clean'
p4672
I1
tp4673
a(S'cleaning'
p4674
I1
tp4675
a(S'clear,\x94'
p4676
I1
tp4677
a(S'cliff'
p4678
I1
tp4679
a(S'cliff-hanges'
p4680
I1
tp4681
a(S'cliffhanger'
p4682
I1
tp4683
a(S'cliffhaofer'
p4684
I1
tp4685
a(S'clock'
p4686
I1
tp4687
a(S'closet'
p4688
I1
tp4689
a(S'closeur'
p4690
I1
tp4691
a(S'cludes'
p4692
I1
tp4693
a(S'cncludes'
p4694
I1
tp4695
a(S'coaches'
p4696
I1
tp4697
a(S'coarge'
p4698
I1
tp4699
a(S'coins'
p4700
I1
tp4701
a(S'cold.\x93when'
p4702
I1
tp4703
a(S'colder'
p4704
I1
tp4705
a(S'collective'
p4706
I1
tp4707
a(S'colorful'
p4708
I1
tp4709
a(S'colosing'
p4710
I1
tp4711
a(S'comb?'
p4712
I1
tp4713
a(S'combed'
p4714
I1
tp4715
a(S'combided'
p4716
I1
tp4717
a(S'combine'
p4718
I1
tp4719
a(S'combines'
p4720
I1
tp4721
a(S'combining'
p4722
I1
tp4723
a(S'come?'
p4724
I1
tp4725
a(S'comei'
p4726
I1
tp4727
a(S'comes.i'
p4728
I1
tp4729
a(S'comes.in'
p4730
I1
tp4731
a(S'comfirtable'
p4732
I1
tp4733
a(S'comfortably'
p4734
I1
tp4735
a(S'comforte'
p4736
I1
tp4737
a(S'comited'
p4738
I1
tp4739
a(S'comitmint'
p4740
I1
tp4741
a(S'comittment'
p4742
I1
tp4743
a(S'comming'
p4744
I1
tp4745
a(S'commiting'
p4746
I1
tp4747
a(S'commitment'
p4748
I1
tp4749
a(S'committed'
p4750
I1
tp4751
a(S'common'
p4752
I1
tp4753
a(S'communicating'
p4754
I1
tp4755
a(S'comng'
p4756
I1
tp4757
a(S'completes'
p4758
I1
tp4759
a(S'completing'
p4760
I1
tp4761
a(S'completly'
p4762
I1
tp4763
a(S'complex'
p4764
I1
tp4765
a(S'comrade'
p4766
I1
tp4767
a(S'coms'
p4768
I1
tp4769
a(S'concentrat'
p4770
I1
tp4771
a(S'concentrating'
p4772
I1
tp4773
a(S'concentratted'
p4774
I1
tp4775
a(S'concerned'
p4776
I1
tp4777
a(S'concideration'
p4778
I1
tp4779
a(S'conclde'
p4780
I1
tp4781
a(S'conclded'
p4782
I1
tp4783
a(S'conclud'
p4784
I1
tp4785
a(S'conclued'
p4786
I1
tp4787
a(S'conclusion.saeng'
p4788
I1
tp4789
a(S'conclution'
p4790
I1
tp4791
a(S'concor'
p4792
I1
tp4793
a(S'conditions.the'
p4794
I1
tp4795
a(S'conferdence'
p4796
I1
tp4797
a(S'confidance'
p4798
I1
tp4799
a(S'confidence.the'
p4800
I1
tp4801
a(S'confidence.this'
p4802
I1
tp4803
a(S'confident.the'
p4804
I1
tp4805
a(S'confident.this'
p4806
I1
tp4807
a(S'confined'
p4808
I1
tp4809
a(S'conflicts'
p4810
I1
tp4811
a(S'conflicts.the'
p4812
I1
tp4813
a(S'confodence'
p4814
I1
tp4815
a(S'confortable'
p4816
I1
tp4817
a(S'conforted'
p4818
I1
tp4819
a(S'confusion'
p4820
I1
tp4821
a(S'conludes'
p4822
I1
tp4823
a(S'conluds'
p4824
I1
tp4825
a(S'connections'
p4826
I1
tp4827
a(S'connents'
p4828
I1
tp4829
a(S'connteced'
p4830
I1
tp4831
a(S'conquered.in'
p4832
I1
tp4833
a(S'consider'
p4834
I1
tp4835
a(S'consist'
p4836
I1
tp4837
a(S'consoltes'
p4838
I1
tp4839
a(S'constants'
p4840
I1
tp4841
a(S'consume'
p4842
I1
tp4843
a(S'consumer'
p4844
I1
tp4845
a(S'contains'
p4846
I1
tp4847
a(S'continuation'
p4848
I1
tp4849
a(S'continueation'
p4850
I1
tp4851
a(S'continued'
p4852
I1
tp4853
a(S'continuly'
p4854
I1
tp4855
a(S'contrey'
p4856
I1
tp4857
a(S'contrury'
p4858
I1
tp4859
a(S'cooks'
p4860
I1
tp4861
a(S'coped'
p4862
I1
tp4863
a(S'coping'
p4864
I1
tp4865
a(S'core'
p4866
I1
tp4867
a(S'correct'
p4868
I1
tp4869
a(S'corresponds'
p4870
I1
tp4871
a(S'coucluding'
p4872
I1
tp4873
a(S"couldn't"
p4874
I1
tp4875
a(S'couldnt'
p4876
I1
tp4877
a(S'counclude'
p4878
I1
tp4879
a(S'count'
p4880
I1
tp4881
a(S'countries'
p4882
I1
tp4883
a(S'country.i'
p4884
I1
tp4885
a(S'country.in'
p4886
I1
tp4887
a(S'country.mingfong'
p4888
I1
tp4889
a(S'country.promise'
p4890
I1
tp4891
a(S'country.\x94'
p4892
I1
tp4893
a(S'country\x92s'
p4894
I1
tp4895
a(S'course'
p4896
I1
tp4897
a(S'covered'
p4898
I1
tp4899
a(S'crack'
p4900
I1
tp4901
a(S'cran'
p4902
I1
tp4903
a(S'create'
p4904
I1
tp4905
a(S'creating'
p4906
I1
tp4907
a(S'creatively'
p4908
I1
tp4909
a(S'crushed'
p4910
I1
tp4911
a(S'cry.the'
p4912
I1
tp4913
a(S'crying.\x94'
p4914
I1
tp4915
a(S'cultures'
p4916
I1
tp4917
a(S'customers'
p4918
I1
tp4919
a(S'cynical'
p4920
I1
tp4921
a(S'd-d'
p4922
I1
tp4923
a(S'daily'
p4924
I1
tp4925
a(S'damages'
p4926
I1
tp4927
a(S'damn'
p4928
I1
tp4929
a(S'dangers'
p4930
I1
tp4931
a(S'dark'
p4932
I1
tp4933
a(S"daughter's"
p4934
I1
tp4935
a(S'daughters'
p4936
I1
tp4937
a(S'de'
p4938
I1
tp4939
a(S'deafeted'
p4940
I1
tp4941
a(S'dealhtith'
p4942
I1
tp4943
a(S'dealing'
p4944
I1
tp4945
a(S'dear'
p4946
I1
tp4947
a(S'dearly'
p4948
I1
tp4949
a(S'death'
p4950
I1
tp4951
a(S'deciedes'
p4952
I1
tp4953
a(S'declares'
p4954
I1
tp4955
a(S'dedicated'
p4956
I1
tp4957
a(S'dedication'
p4958
I1
tp4959
a(S'deeply\x94'
p4960
I1
tp4961
a(S'defeat'
p4962
I1
tp4963
a(S'defeated'
p4964
I1
tp4965
a(S'definatly'
p4966
I1
tp4967
a(S'definetly'
p4968
I1
tp4969
a(S'deftly'
p4970
I1
tp4971
a(S'deicides'
p4972
I1
tp4973
a(S'dejected'
p4974
I1
tp4975
a(S'delicate'
p4976
I1
tp4977
a(S'delight.\x94'
p4978
I1
tp4979
a(S'delights'
p4980
I1
tp4981
a(S'delinlted'
p4982
I1
tp4983
a(S'demanding'
p4984
I1
tp4985
a(S'depend'
p4986
I1
tp4987
a(S'depict'
p4988
I1
tp4989
a(S'depicted'
p4990
I1
tp4991
a(S'deppresed'
p4992
I1
tp4993
a(S'depress'
p4994
I1
tp4995
a(S'descovered'
p4996
I1
tp4997
a(S'describe'
p4998
I1
tp4999
a(S'described'
p5000
I1
tp5001
a(S'description'
p5002
I1
tp5003
a(S'descriptions'
p5004
I1
tp5005
a(S'desdion'
p5006
I1
tp5007
a(S'deserve'
p5008
I1
tp5009
a(S'desirable'
p5010
I1
tp5011
a(S'desperately'
p5012
I1
tp5013
a(S'despise'
p5014
I1
tp5015
a(S'destroy'
p5016
I1
tp5017
a(S'detail'
p5018
I1
tp5019
a(S'detatchment'
p5020
I1
tp5021
a(S'deterimined'
p5022
I1
tp5023
a(S'determed'
p5024
I1
tp5025
a(S'determinated'
p5026
I1
tp5027
a(S'determination.in'
p5028
I1
tp5029
a(S'determind'
p5030
I1
tp5031
a(S'determinded'
p5032
I1
tp5033
a(S'determine'
p5034
I1
tp5035
a(S'determined.the'
p5036
I1
tp5037
a(S'determinedness'
p5038
I1
tp5039
a(S'determing'
p5040
I1
tp5041
a(S'detirmen'
p5042
I1
tp5043
a(S'device'
p5044
I1
tp5045
a(S'devices'
p5046
I1
tp5047
a(S'devoted'
p5048
I1
tp5049
a(S'dheredulously'
p5050
I1
tp5051
a(S'dialogue'
p5052
I1
tp5053
a(S'dicide'
p5054
I1
tp5055
a(S'did.i'
p5056
I1
tp5057
a(S'did.in'
p5058
I1
tp5059
a(S'did.saeng'
p5060
I1
tp5061
a(S'die.in'
p5062
I1
tp5063
a(S'diff'
p5064
I1
tp5065
a(S'diffent'
p5066
I1
tp5067
a(S'difficuilty'
p5068
I1
tp5069
a(S'difficultly'
p5070
I1
tp5071
a(S'difficulty'
p5072
I1
tp5073
a(S'dilemma'
p5074
I1
tp5075
a(S'dinner.he'
p5076
I1
tp5077
a(S'din\x92t'
p5078
I1
tp5079
a(S'direction'
p5080
I1
tp5081
a(S'disagree'
p5082
I1
tp5083
a(S'disapear'
p5084
I1
tp5085
a(S'disappearing'
p5086
I1
tp5087
a(S'disappointe'
p5088
I1
tp5089
a(S'disappointments'
p5090
I1
tp5091
a(S'disbelief'
p5092
I1
tp5093
a(S'discomfort'
p5094
I1
tp5095
a(S'discourage'
p5096
I1
tp5097
a(S'discouraged'
p5098
I1
tp5099
a(S'discover'
p5100
I1
tp5101
a(S'discovered'
p5102
I1
tp5103
a(S'discrepancy'
p5104
I1
tp5105
a(S'discribe'
p5106
I1
tp5107
a(S'discussed'
p5108
I1
tp5109
a(S'discussion'
p5110
I1
tp5111
a(S'dishearted'
p5112
I1
tp5113
a(S'disheartened'
p5114
I1
tp5115
a(S'disliked'
p5116
I1
tp5117
a(S'dispite'
p5118
I1
tp5119
a(S'displease'
p5120
I1
tp5121
a(S'displeased'
p5122
I1
tp5123
a(S'dissapointment'
p5124
I1
tp5125
a(S'dissappoinment'
p5126
I1
tp5127
a(S'dissatisified'
p5128
I1
tp5129
a(S'distant'
p5130
I1
tp5131
a(S'distract'
p5132
I1
tp5133
a(S'distraught.in'
p5134
I1
tp5135
a(S'distress\x94'
p5136
I1
tp5137
a(S'distrout'
p5138
I1
tp5139
a(S'distsnt'
p5140
I1
tp5141
a(S'diver'
p5142
I1
tp5143
a(S'diving'
p5144
I1
tp5145
a(S'do.he'
p5146
I1
tp5147
a(S'do.to'
p5148
I1
tp5149
a(S'doesn\xe2\x80\x99t'
p5150
I1
tp5151
a(S'dollar'
p5152
I1
tp5153
a(S'dollars\x94'
p5154
I1
tp5155
a(S'domestic'
p5156
I1
tp5157
a(S'done.\x93if'
p5158
I1
tp5159
a(S'donethe'
p5160
I1
tp5161
a(S'dorl'
p5162
I1
tp5163
a(S'dormant'
p5164
I1
tp5165
a(S'dosene'
p5166
I1
tp5167
a(S'dosent'
p5168
I1
tp5169
a(S'dotted'
p5170
I1
tp5171
a(S'doubts'
p5172
I1
tp5173
a(S'down.the'
p5174
I1
tp5175
a(S'downfall'
p5176
I1
tp5177
a(S'drama'
p5178
I1
tp5179
a(S'dramatic'
p5180
I1
tp5181
a(S'drawing'
p5182
I1
tp5183
a(S'drawn'
p5184
I1
tp5185
a(S'dreaming'
p5186
I1
tp5187
a(S'dress'
p5188
I1
tp5189
a(S'drift'
p5190
I1
tp5191
a(S'driverd'
p5192
I1
tp5193
a(S'drivers\x92'
p5194
I1
tp5195
a(S'drives'
p5196
I1
tp5197
a(S'ducks'
p5198
I1
tp5199
a(S'dusk'
p5200
I1
tp5201
a(S'dust'
p5202
I1
tp5203
a(S'dwelling'
p5204
I1
tp5205
a(S'eaither'
p5206
I1
tp5207
a(S'earely'
p5208
I1
tp5209
a(S'earth'
p5210
I1
tp5211
a(S'eases'
p5212
I1
tp5213
a(S'easly'
p5214
I1
tp5215
a(S'easyer'
p5216
I1
tp5217
a(S'eating'
p5218
I1
tp5219
a(S'ed'
p5220
I1
tp5221
a(S'effect.i'
p5222
I1
tp5223
a(S'effect.the'
p5224
I1
tp5225
a(S'effectively'
p5226
I1
tp5227
a(S'efficient'
p5228
I1
tp5229
a(S'efforts'
p5230
I1
tp5231
a(S'eggs'
p5232
I1
tp5233
a(S'elders'
p5234
I1
tp5235
a(S'eldersin'
p5236
I1
tp5237
a(S'elds'
p5238
I1
tp5239
a(S'elements'
p5240
I1
tp5241
a(S'else.the'
p5242
I1
tp5243
a(S'emblem'
p5244
I1
tp5245
a(S'embrace'
p5246
I1
tp5247
a(S'embracing'
p5248
I1
tp5249
a(S'emotionally'
p5250
I1
tp5251
a(S'emphasis'
p5252
I1
tp5253
a(S'emphasises'
p5254
I1
tp5255
a(S'emphasizing'
p5256
I1
tp5257
a(S'emphazing'
p5258
I1
tp5259
a(S'emphesis'
p5260
I1
tp5261
a(S'emphisise'
p5262
I1
tp5263
a(S'employee'
p5264
I1
tp5265
a(S'emptied'
p5266
I1
tp5267
a(S'encompasses'
p5268
I1
tp5269
a(S'encourages'
p5270
I1
tp5271
a(S'encouragment'
p5272
I1
tp5273
a(S'end.in'
p5274
I1
tp5275
a(S'end.the'
p5276
I1
tp5277
a(S'end;'
p5278
I1
tp5279
a(S'endding'
p5280
I1
tp5281
a(S'endeded'
p5282
I1
tp5283
a(S'endend'
p5284
I1
tp5285
a(S'ending.i'
p5286
I1
tp5287
a(S'endings'
p5288
I1
tp5289
a(S'endthe'
p5290
I1
tp5291
a(S'endurance'
p5292
I1
tp5293
a(S'endyat'
p5294
I1
tp5295
a(S'ened'
p5296
I1
tp5297
a(S'english'
p5298
I1
tp5299
a(S'enhances'
p5300
I1
tp5301
a(S'enlightened'
p5302
I1
tp5303
a(S'enlightenment'
p5304
I1
tp5305
a(S'entered'
p5306
I1
tp5307
a(S'ently'
p5308
I1
tp5309
a(S'entwined'
p5310
I1
tp5311
a(S'enuff'
p5312
I1
tp5313
a(S'enviorment'
p5314
I1
tp5315
a(S'environments..the'
p5316
I1
tp5317
a(S'envoke'
p5318
I1
tp5319
a(S'envoked'
p5320
I1
tp5321
a(S'epiphany'
p5322
I1
tp5323
a(S'equal'
p5324
I1
tp5325
a(S'equates'
p5326
I1
tp5327
a(S'equivlent'
p5328
I1
tp5329
a(S'erlier'
p5330
I1
tp5331
a(S'ery'
p5332
I1
tp5333
a(S'escaping'
p5334
I1
tp5335
a(S'esteem'
p5336
I1
tp5337
a(S'etact'
p5338
I1
tp5339
a(S'etches'
p5340
I1
tp5341
a(S'etcs'
p5342
I1
tp5343
a(S'etered'
p5344
I1
tp5345
a(S'eve'
p5346
I1
tp5347
a(S'event\x92s'
p5348
I1
tp5349
a(S'evenyone'
p5350
I1
tp5351
a(S'everlasting'
p5352
I1
tp5353
a(S'everthing'
p5354
I1
tp5355
a(S'everything.in'
p5356
I1
tp5357
a(S'everytime'
p5358
I1
tp5359
a(S'everywhere'
p5360
I1
tp5361
a(S'eves'
p5362
I1
tp5363
a(S'eviorment'
p5364
I1
tp5365
a(S'evironment'
p5366
I1
tp5367
a(S'exact'
p5368
I1
tp5369
a(S'exam'
p5370
I1
tp5371
a(S'examines'
p5372
I1
tp5373
a(S'excellent'
p5374
I1
tp5375
a(S'exciting'
p5376
I1
tp5377
a(S'exhibits'
p5378
I1
tp5379
a(S'exotic'
p5380
I1
tp5381
a(S'expectance'
p5382
I1
tp5383
a(S'expecting'
p5384
I1
tp5385
a(S'experiances'
p5386
I1
tp5387
a(S'experience.i'
p5388
I1
tp5389
a(S'experiment'
p5390
I1
tp5391
a(S'expierances'
p5392
I1
tp5393
a(S'explained'
p5394
I1
tp5395
a(S'explaing'
p5396
I1
tp5397
a(S'explaning'
p5398
I1
tp5399
a(S'explans'
p5400
I1
tp5401
a(S'explaynes'
p5402
I1
tp5403
a(S'explayns'
p5404
I1
tp5405
a(S'exploding'
p5406
I1
tp5407
a(S'exploins'
p5408
I1
tp5409
a(S'explores'
p5410
I1
tp5411
a(S'exposure'
p5412
I1
tp5413
a(S'expressing'
p5414
I1
tp5415
a(S'expression'
p5416
I1
tp5417
a(S'exsploring'
p5418
I1
tp5419
a(S'external'
p5420
I1
tp5421
a(S'extract'
p5422
I1
tp5423
a(S'extraordinary'
p5424
I1
tp5425
a(S'extremely'
p5426
I1
tp5427
a(S'eye,\x94'
p5428
I1
tp5429
a(S'eye\x94'
p5430
I1
tp5431
a(S'faces.in'
p5432
I1
tp5433
a(S'faces.why'
p5434
I1
tp5435
a(S'faeled'
p5436
I1
tp5437
a(S'faeng'
p5438
I1
tp5439
a(S'faeng-'
p5440
I1
tp5441
a(S'faeng-nor\x94'
p5442
I1
tp5443
a(S'failing.i'
p5444
I1
tp5445
a(S'failingthere'
p5446
I1
tp5447
a(S'failled'
p5448
I1
tp5449
a(S'failure.the'
p5450
I1
tp5451
a(S'failurecomes'
p5452
I1
tp5453
a(S'faints'
p5454
I1
tp5455
a(S'fair'
p5456
I1
tp5457
a(S'fake'
p5458
I1
tp5459
a(S'faldse'
p5460
I1
tp5461
a(S'faled'
p5462
I1
tp5463
a(S'falled'
p5464
I1
tp5465
a(S'famed'
p5466
I1
tp5467
a(S'familar'
p5468
I1
tp5469
a(S'familarity'
p5470
I1
tp5471
a(S'fare'
p5472
I1
tp5473
a(S'farmland'
p5474
I1
tp5475
a(S'farmllular'
p5476
I1
tp5477
a(S'fashion'
p5478
I1
tp5479
a(S'fast'
p5480
I1
tp5481
a(S'fating'
p5482
I1
tp5483
a(S'favirte'
p5484
I1
tp5485
a(S'favoriteplant'
p5486
I1
tp5487
a(S'fears'
p5488
I1
tp5489
a(S'feature'
p5490
I1
tp5491
a(S'feeling.the'
p5492
I1
tp5493
a(S'feelingsshe'
p5494
I1
tp5495
a(S'feels.the'
p5496
I1
tp5497
a(S'feel\x94'
p5498
I1
tp5499
a(S'felling'
p5500
I1
tp5501
a(S'femiliar'
p5502
I1
tp5503
a(S'fence'
p5504
I1
tp5505
a(S'fereshadows'
p5506
I1
tp5507
a(S'fights'
p5508
I1
tp5509
a(S'figurative'
p5510
I1
tp5511
a(S'figured'
p5512
I1
tp5513
a(S'figurers'
p5514
I1
tp5515
a(S'fil'
p5516
I1
tp5517
a(S'fills'
p5518
I1
tp5519
a(S'fine-foothed'
p5520
I1
tp5521
a(S'finising'
p5522
I1
tp5523
a(S'firm'
p5524
I1
tp5525
a(S'firmilar'
p5526
I1
tp5527
a(S'firmiliar'
p5528
I1
tp5529
a(S'first;'
p5530
I1
tp5531
a(S'fix'
p5532
I1
tp5533
a(S'flawall'
p5534
I1
tp5535
a(S'fleeing'
p5536
I1
tp5537
a(S'flewaway'
p5538
I1
tp5539
a(S'flock/fasten'
p5540
I1
tp5541
a(S'floral'
p5542
I1
tp5543
a(S'florishing'
p5544
I1
tp5545
a(S'florist\x92s'
p5546
I1
tp5547
a(S'florizd'
p5548
I1
tp5549
a(S'flour'
p5550
I1
tp5551
a(S'flourish'
p5552
I1
tp5553
a(S'flourishing'
p5554
I1
tp5555
a(S"flower's"
p5556
I1
tp5557
a(S'flower.i'
p5558
I1
tp5559
a(S'flower.in'
p5560
I1
tp5561
a(S'flower.now'
p5562
I1
tp5563
a(S'flower.saeng'
p5564
I1
tp5565
a(S'flower/plant'
p5566
I1
tp5567
a(S'flowering'
p5568
I1
tp5569
a(S'flowers.i'
p5570
I1
tp5571
a(S'flowers.the'
p5572
I1
tp5573
a(S'flowershop'
p5574
I1
tp5575
a(S'flowerthe'
p5576
I1
tp5577
a(S'flowrist'
p5578
I1
tp5579
a(S'flowrs'
p5580
I1
tp5581
a(S'focus.i'
p5582
I1
tp5583
a(S'focuses'
p5584
I1
tp5585
a(S'foe'
p5586
I1
tp5587
a(S'follows'
p5588
I1
tp5589
a(S'fon'
p5590
I1
tp5591
a(S'fong'
p5592
I1
tp5593
a(S'foods'
p5594
I1
tp5595
a(S'foot'
p5596
I1
tp5597
a(S'ford'
p5598
I1
tp5599
a(S'foregiveness'
p5600
I1
tp5601
a(S'foreward'
p5602
I1
tp5603
a(S'forexemple'
p5604
I1
tp5605
a(S'forgave'
p5606
I1
tp5607
a(S'forges'
p5608
I1
tp5609
a(S'forget.the'
p5610
I1
tp5611
a(S'formingthe'
p5612
I1
tp5613
a(S'fort'
p5614
I1
tp5615
a(S'foward.i'
p5616
I1
tp5617
a(S'frame'
p5618
I1
tp5619
a(S'fresh/new'
p5620
I1
tp5621
a(S'fried'
p5622
I1
tp5623
a(S'friend.\x94'
p5624
I1
tp5625
a(S'friendship'
p5626
I1
tp5627
a(S'friends\x94'
p5628
I1
tp5629
a(S'friend\x94'
p5630
I1
tp5631
a(S'frogrence'
p5632
I1
tp5633
a(S'from.the'
p5634
I1
tp5635
a(S'frome'
p5636
I1
tp5637
a(S'front'
p5638
I1
tp5639
a(S'frst'
p5640
I1
tp5641
a(S'fruits'
p5642
I1
tp5643
a(S'fullest'
p5644
I1
tp5645
a(S'function'
p5646
I1
tp5647
a(S'future.i'
p5648
I1
tp5649
a(S'future.why'
p5650
I1
tp5651
a(S'futurethe'
p5652
I1
tp5653
a(S'gained'
p5654
I1
tp5655
a(S'gains'
p5656
I1
tp5657
a(S'game'
p5658
I1
tp5659
a(S'garden.for'
p5660
I1
tp5661
a(S'garden.the'
p5662
I1
tp5663
a(S'garden.\x94'
p5664
I1
tp5665
a(S'gardening.in'
p5666
I1
tp5667
a(S'gardening.the'
p5668
I1
tp5669
a(S'gardning'
p5670
I1
tp5671
a(S'gathered'
p5672
I1
tp5673
a(S'gaving'
p5674
I1
tp5675
a(S'geasse'
p5676
I1
tp5677
a(S"geese's"
p5678
I1
tp5679
a(S'geese,\x94'
p5680
I1
tp5681
a(S'geese.i'
p5682
I1
tp5683
a(S'geesein'
p5684
I1
tp5685
a(S'geeses'
p5686
I1
tp5687
a(S'geese\x92s'
p5688
I1
tp5689
a(S'geess'
p5690
I1
tp5691
a(S'generates'
p5692
I1
tp5693
a(S"get's"
p5694
I1
tp5695
a(S'getall'
p5696
I1
tp5697
a(S'gether'
p5698
I1
tp5699
a(S'geve'
p5700
I1
tp5701
a(S'gil'
p5702
I1
tp5703
a(S'girl)'
p5704
I1
tp5705
a(S'girl.the'
p5706
I1
tp5707
a(S'girl;'
p5708
I1
tp5709
a(S'girllwill'
p5710
I1
tp5711
a(S'girlthe'
p5712
I1
tp5713
a(S'girl\x92s'
p5714
I1
tp5715
a(S'gist'
p5716
I1
tp5717
a(S'git'
p5718
I1
tp5719
a(S'giver'
p5720
I1
tp5721
a(S'glimmer'
p5722
I1
tp5723
a(S'glimpses'
p5724
I1
tp5725
a(S'go?'
p5726
I1
tp5727
a(S'golden'
p5728
I1
tp5729
a(S'good-day'
p5730
I1
tp5731
a(S'good.i'
p5732
I1
tp5733
a(S'goodluck'
p5734
I1
tp5735
a(S'goslings'
p5736
I1
tp5737
a(S'grab'
p5738
I1
tp5739
a(S'grabs'
p5740
I1
tp5741
a(S'grade'
p5742
I1
tp5743
a(S'graden'
p5744
I1
tp5745
a(S'grader'
p5746
I1
tp5747
a(S'grander'
p5748
I1
tp5749
a(S"grandmother's"
p5750
I1
tp5751
a(S'grandmother.she\x92s'
p5752
I1
tp5753
a(S'grandmother?\x94'
p5754
I1
tp5755
a(S'grandmother\x94'
p5756
I1
tp5757
a(S'grarden'
p5758
I1
tp5759
a(S'grateful'
p5760
I1
tp5761
a(S'graw'
p5762
I1
tp5763
a(S'great.saeng'
p5764
I1
tp5765
a(S'greeness'
p5766
I1
tp5767
a(S'greenhouse.the'
p5768
I1
tp5769
a(S'grews'
p5770
I1
tp5771
a(S'grieve'
p5772
I1
tp5773
a(S'grieving'
p5774
I1
tp5775
a(S'grif'
p5776
I1
tp5777
a(S'groundthe'
p5778
I1
tp5779
a(S'group'
p5780
I1
tp5781
a(S'grow.he'
p5782
I1
tp5783
a(S'growing.the'
p5784
I1
tp5785
a(S'guaranteed'
p5786
I1
tp5787
a(S'guest'
p5788
I1
tp5789
a(S'guiding'
p5790
I1
tp5791
a(S'gust'
p5792
I1
tp5793
a(S'guts'
p5794
I1
tp5795
a(S'habiscas'
p5796
I1
tp5797
a(S'habitat'
p5798
I1
tp5799
a(S"hadn't"
p5800
I1
tp5801
a(S'haft'
p5802
I1
tp5803
a(S'hair.\x94'
p5804
I1
tp5805
a(S'hand.\x94'
p5806
I1
tp5807
a(S'hander'
p5808
I1
tp5809
a(S'handle'
p5810
I1
tp5811
a(S'hands'
p5812
I1
tp5813
a(S'handtimes'
p5814
I1
tp5815
a(S'handwork'
p5816
I1
tp5817
a(S'hanging'
p5818
I1
tp5819
a(S'hangs.in'
p5820
I1
tp5821
a(S'hapiness'
p5822
I1
tp5823
a(S'happ'
p5824
I1
tp5825
a(S'happe'
p5826
I1
tp5827
a(S'happed'
p5828
I1
tp5829
a(S'happeed'
p5830
I1
tp5831
a(S'happen.i'
p5832
I1
tp5833
a(S'happened.know'
p5834
I1
tp5835
a(S'happened?\x94'
p5836
I1
tp5837
a(S'happier'
p5838
I1
tp5839
a(S'happiest'
p5840
I1
tp5841
a(S'happiness.the'
p5842
I1
tp5843
a(S'happy.the'
p5844
I1
tp5845
a(S'hardestand'
p5846
I1
tp5847
a(S'hardships.the'
p5848
I1
tp5849
a(S'hardtime'
p5850
I1
tp5851
a(S'hardy'
p5852
I1
tp5853
a(S'harmony'
p5854
I1
tp5855
a(S'hasent'
p5856
I1
tp5857
a(S'hasen\x92t'
p5858
I1
tp5859
a(S'hath'
p5860
I1
tp5861
a(S'haunts'
p5862
I1
tp5863
a(S'have.in'
p5864
I1
tp5865
a(S'have.the'
p5866
I1
tp5867
a(S'haven\x92t'
p5868
I1
tp5869
a(S'headed'
p5870
I1
tp5871
a(S'heading'
p5872
I1
tp5873
a(S'heads'
p5874
I1
tp5875
a(S'heal.the'
p5876
I1
tp5877
a(S'heals'
p5878
I1
tp5879
a(S'healthy'
p5880
I1
tp5881
a(S'hears'
p5882
I1
tp5883
a(S'heartache'
p5884
I1
tp5885
a(S'hedid'
p5886
I1
tp5887
a(S'hedpe'
p5888
I1
tp5889
a(S'height'
p5890
I1
tp5891
a(S'helpful.i'
p5892
I1
tp5893
a(S'heoked'
p5894
I1
tp5895
a(S'hep'
p5896
I1
tp5897
a(S'her-self'
p5898
I1
tp5899
a(S'her.cause'
p5900
I1
tp5901
a(S'her.i'
p5902
I1
tp5903
a(S'her.in'
p5904
I1
tp5905
a(S'her.saeng'
p5906
I1
tp5907
a(S'here.\x94'
p5908
I1
tp5909
a(S'here\x94'
p5910
I1
tp5911
a(S'heritage'
p5912
I1
tp5913
a(S'hers.the'
p5914
I1
tp5915
a(S'hersef'
p5916
I1
tp5917
a(S'herself,\x92in'
p5918
I1
tp5919
a(S'herself,\x94'
p5920
I1
tp5921
a(S'hes'
p5922
I1
tp5923
a(S'hesitate'
p5924
I1
tp5925
a(S'hey'
p5926
I1
tp5927
a(S'hibcus'
p5928
I1
tp5929
a(S'hibibiscus'
p5930
I1
tp5931
a(S'hibicous'
p5932
I1
tp5933
a(S'hibiscis'
p5934
I1
tp5935
a(S'hibiscud'
p5936
I1
tp5937
a(S'hibiscus)'
p5938
I1
tp5939
a(S'hibiscus,\x93'
p5940
I1
tp5941
a(S'hibiscus,\x94minfong'
p5942
I1
tp5943
a(S'hibiscus.for'
p5944
I1
tp5945
a(S'hibiscus.i'
p5946
I1
tp5947
a(S'hibiscus.in'
p5948
I1
tp5949
a(S'hibiscus.she'
p5950
I1
tp5951
a(S'hibiscus.thats'
p5952
I1
tp5953
a(S'hibiscus.\x94it'
p5954
I1
tp5955
a(S'hibiscuss'
p5956
I1
tp5957
a(S'hibiscus\x92s'
p5958
I1
tp5959
a(S'hibiscus\x92\x92'
p5960
I1
tp5961
a(S'hibiscus\x93'
p5962
I1
tp5963
a(S'hibiscus\x94by'
p5964
I1
tp5965
a(S'hibiscus\x94chose'
p5966
I1
tp5967
a(S'hibisuse'
p5968
I1
tp5969
a(S'hibscus'
p5970
I1
tp5971
a(S'hibuscus'
p5972
I1
tp5973
a(S'hidden'
p5974
I1
tp5975
a(S'higher'
p5976
I1
tp5977
a(S'highlight'
p5978
I1
tp5979
a(S'highlights'
p5980
I1
tp5981
a(S'highly'
p5982
I1
tp5983
a(S'highway'
p5984
I1
tp5985
a(S'hiliscus'
p5986
I1
tp5987
a(S'hill.the'
p5988
I1
tp5989
a(S'him/her'
p5990
I1
tp5991
a(S'hisbiiscus'
p5992
I1
tp5993
a(S'hisbiscus'
p5994
I1
tp5995
a(S'hiscubus'
p5996
I1
tp5997
a(S'hishiscus'
p5998
I1
tp5999
a(S'hits'
p6000
I1
tp6001
a(S'ho)'
p6002
I1
tp6003
a(S'ho,put'
p6004
I1
tp6005
a(S'ho,the'
p6006
I1
tp6007
a(S'holes'
p6008
I1
tp6009
a(S'hole\x94'
p6010
I1
tp6011
a(S'home"when'
p6012
I1
tp6013
a(S"home,'"
p6014
I1
tp6015
a(S'home-'
p6016
I1
tp6017
a(S'home-sickness'
p6018
I1
tp6019
a(S'home..\x94'
p6020
I1
tp6021
a(S'home.hope'
p6022
I1
tp6023
a(S'home.i'
p6024
I1
tp6025
a(S'home.once'
p6026
I1
tp6027
a(S'home.so'
p6028
I1
tp6029
a(S'home.\x94'
p6030
I1
tp6031
a(S'homelad'
p6032
I1
tp6033
a(S'homeland,when'
p6034
I1
tp6035
a(S'homelandthe'
p6036
I1
tp6037
a(S'homelard'
p6038
I1
tp6039
a(S'homes'
p6040
I1
tp6041
a(S'home\x94'
p6042
I1
tp6043
a(S'honaor'
p6044
I1
tp6045
a(S'hone'
p6046
I1
tp6047
a(S'honk'
p6048
I1
tp6049
a(S'honor'
p6050
I1
tp6051
a(S'hood'
p6052
I1
tp6053
a(S'hope).\x94and'
p6054
I1
tp6055
a(S'hope.i'
p6056
I1
tp6057
a(S'hope.saeng'
p6058
I1
tp6059
a(S'hope.\x93then'
p6060
I1
tp6061
a(S'hoped'
p6062
I1
tp6063
a(S'hopefoly'
p6064
I1
tp6065
a(S'hopfully'
p6066
I1
tp6067
a(S'hopping'
p6068
I1
tp6069
a(S'horribly'
p6070
I1
tp6071
a(S'how:-'
p6072
I1
tp6073
a(S'ho\x92s'
p6074
I1
tp6075
a(S'hubiscius'
p6076
I1
tp6077
a(S'human'
p6078
I1
tp6079
a(S'hunks'
p6080
I1
tp6081
a(S'hunting'
p6082
I1
tp6083
a(S'hurdle'
p6084
I1
tp6085
a(S'hurting'
p6086
I1
tp6087
a(S'ib'
p6088
I1
tp6089
a(S'ibet'
p6090
I1
tp6091
a(S'ideas.the'
p6092
I1
tp6093
a(S'illustrations'
p6094
I1
tp6095
a(S'imagein'
p6096
I1
tp6097
a(S'imagen'
p6098
I1
tp6099
a(S'imagenation'
p6100
I1
tp6101
a(S'imagethes'
p6102
I1
tp6103
a(S'imes'
p6104
I1
tp6105
a(S'immense'
p6106
I1
tp6107
a(S'immigrant'
p6108
I1
tp6109
a(S'immigrants'
p6110
I1
tp6111
a(S'impacted'
p6112
I1
tp6113
a(S'impatient'
p6114
I1
tp6115
a(S'implied'
p6116
I1
tp6117
a(S'imply'
p6118
I1
tp6119
a(S'implys'
p6120
I1
tp6121
a(S'important\x94'
p6122
I1
tp6123
a(S'importian'
p6124
I1
tp6125
a(S'impowering'
p6126
I1
tp6127
a(S'impress'
p6128
I1
tp6129
a(S'impression'
p6130
I1
tp6131
a(S'improvement.the'
p6132
I1
tp6133
a(S'improving'
p6134
I1
tp6135
a(S'in.in'
p6136
I1
tp6137
a(S'in.the'
p6138
I1
tp6139
a(S'inability'
p6140
I1
tp6141
a(S'inconclusion'
p6142
I1
tp6143
a(S'incorperating'
p6144
I1
tp6145
a(S'incorporated'
p6146
I1
tp6147
a(S'incorporates'
p6148
I1
tp6149
a(S'incorporating'
p6150
I1
tp6151
a(S'incredulously'
p6152
I1
tp6153
a(S'incredulously"(ho'
p6154
I1
tp6155
a(S'incredulously\x94'
p6156
I1
tp6157
a(S'increously.\x94'
p6158
I1
tp6159
a(S'indicating'
p6160
I1
tp6161
a(S'indifferent'
p6162
I1
tp6163
a(S'individual'
p6164
I1
tp6165
a(S'indomitable'
p6166
I1
tp6167
a(S'inevitable'
p6168
I1
tp6169
a(S'infer'
p6170
I1
tp6171
a(S'infers'
p6172
I1
tp6173
a(S'inffuse'
p6174
I1
tp6175
a(S'influent'
p6176
I1
tp6177
a(S'informing'
p6178
I1
tp6179
a(S'infured'
p6180
I1
tp6181
a(S'initially'
p6182
I1
tp6183
a(S'inkling'
p6184
I1
tp6185
a(S'insentive'
p6186
I1
tp6187
a(S'inspiration.to'
p6188
I1
tp6189
a(S'instantly'
p6190
I1
tp6191
a(S'instants'
p6192
I1
tp6193
a(S'insted'
p6194
I1
tp6195
a(S'instilled'
p6196
I1
tp6197
a(S'intended'
p6198
I1
tp6199
a(S'inter'
p6200
I1
tp6201
a(S'inthe'
p6202
I1
tp6203
a(S'intial'
p6204
I1
tp6205
a(S'intill'
p6206
I1
tp6207
a(S'intoto'
p6208
I1
tp6209
a(S'intrested'
p6210
I1
tp6211
a(S'intresting'
p6212
I1
tp6213
a(S'introduce'
p6214
I1
tp6215
a(S'introduced'
p6216
I1
tp6217
a(S'intwines'
p6218
I1
tp6219
a(S'involved'
p6220
I1
tp6221
a(S'involving'
p6222
I1
tp6223
a(S'in\x94'
p6224
I1
tp6225
a(S"is'"
p6226
I1
tp6227
a(S'is,the'
p6228
I1
tp6229
a(S'isanters'
p6230
I1
tp6231
a(S'isin'
p6232
I1
tp6233
a(S"it'll"
p6234
I1
tp6235
a(S'it.everything'
p6236
I1
tp6237
a(S'it.she'
p6238
I1
tp6239
a(S'it.there'
p6240
I1
tp6241
a(S'it.\x94the'
p6242
I1
tp6243
a(S'it?'
p6244
I1
tp6245
a(S'it`s'
p6246
I1
tp6247
a(S'ith'
p6248
I1
tp6249
a(S'iti'
p6250
I1
tp6251
a(S'itis'
p6252
I1
tp6253
a(S'itshows'
p6254
I1
tp6255
a(S'it\x92ll'
p6256
I1
tp6257
a(S"it\x92s-it's"
p6258
I1
tp6259
a(S'it\x92s-it\x92s'
p6260
I1
tp6261
a(S'it\x94(no)'
p6262
I1
tp6263
a(S'i\x92d'
p6264
I1
tp6265
a(S'i\x92m'
p6266
I1
tp6267
a(S'i\x96i'
p6268
I1
tp6269
a(S'jasmine'
p6270
I1
tp6271
a(S'jittering'
p6272
I1
tp6273
a(S'joyed'
p6274
I1
tp6275
a(S'joyful'
p6276
I1
tp6277
a(S'jump,it'
p6278
I1
tp6279
a(S'jutting'
p6280
I1
tp6281
a(S'keepsakes'
p6282
I1
tp6283
a(S'keys'
p6284
I1
tp6285
a(S'kid'
p6286
I1
tp6287
a(S'kill'
p6288
I1
tp6289
a(S'kills'
p6290
I1
tp6291
a(S'kindly'
p6292
I1
tp6293
a(S'kindof'
p6294
I1
tp6295
a(S'kinds'
p6296
I1
tp6297
a(S'kitchen'
p6298
I1
tp6299
a(S'kno'
p6300
I1
tp6301
a(S'knocked'
p6302
I1
tp6303
a(S'knocks'
p6304
I1
tp6305
a(S'knolageble'
p6306
I1
tp6307
a(S'labeled'
p6308
I1
tp6309
a(S'lack'
p6310
I1
tp6311
a(S'lack.i'
p6312
I1
tp6313
a(S'lady'
p6314
I1
tp6315
a(S'lambert\x94'
p6316
I1
tp6317
a(S'landmark'
p6318
I1
tp6319
a(S'landthe'
p6320
I1
tp6321
a(S'language'
p6322
I1
tp6323
a(S'languages'
p6324
I1
tp6325
a(S'lass'
p6326
I1
tp6327
a(S'later.but'
p6328
I1
tp6329
a(S'laws'
p6330
I1
tp6331
a(S'lays'
p6332
I1
tp6333
a(S'leab,shredding'
p6334
I1
tp6335
a(S'leading'
p6336
I1
tp6337
a(S'leaf'
p6338
I1
tp6339
a(S'leafs'
p6340
I1
tp6341
a(S'leans'
p6342
I1
tp6343
a(S'learning.@caps2'
p6344
I1
tp6345
a(S'leaver'
p6346
I1
tp6347
a(S'leavy'
p6348
I1
tp6349
a(S'led'
p6350
I1
tp6351
a(S'ledges'
p6352
I1
tp6353
a(S'leds'
p6354
I1
tp6355
a(S'left.the'
p6356
I1
tp6357
a(S'legible)i'
p6358
I1
tp6359
a(S'lends'
p6360
I1
tp6361
a(S'lessions'
p6362
I1
tp6363
a(S'let\x92s'
p6364
I1
tp6365
a(S'leveing'
p6366
I1
tp6367
a(S'licenc'
p6368
I1
tp6369
a(S'license.i'
p6370
I1
tp6371
a(S'licesies.the'
p6372
I1
tp6373
a(S'life,&'
p6374
I1
tp6375
a(S'life.many'
p6376
I1
tp6377
a(S'life.saeng'
p6378
I1
tp6379
a(S'life;'
p6380
I1
tp6381
a(S'lifebecause'
p6382
I1
tp6383
a(S'lifei'
p6384
I1
tp6385
a(S'lighten'
p6386
I1
tp6387
a(S'lightened'
p6388
I1
tp6389
a(S'like.after'
p6390
I1
tp6391
a(S'likewise'
p6392
I1
tp6393
a(S'liking'
p6394
I1
tp6395
a(S'limiting'
p6396
I1
tp6397
a(S'linethe'
p6398
I1
tp6399
a(S'linting'
p6400
I1
tp6401
a(S'liscence'
p6402
I1
tp6403
a(S'lisense'
p6404
I1
tp6405
a(S'litter'
p6406
I1
tp6407
a(S'live.i'
p6408
I1
tp6409
a(S'live.she'
p6410
I1
tp6411
a(S'lively'
p6412
I1
tp6413
a(S'lives.saeng'
p6414
I1
tp6415
a(S'living."i'
p6416
I1
tp6417
a(S'location1.in'
p6418
I1
tp6419
a(S'location1.the'
p6420
I1
tp6421
a(S'location4'
p6422
I1
tp6423
a(S'lock'
p6424
I1
tp6425
a(S'locked'
p6426
I1
tp6427
a(S'logic'
p6428
I1
tp6429
a(S'logical'
p6430
I1
tp6431
a(S'lone'
p6432
I1
tp6433
a(S'lonesome'
p6434
I1
tp6435
a(S'long?'
p6436
I1
tp6437
a(S'longing'
p6438
I1
tp6439
a(S'longtime'
p6440
I1
tp6441
a(S'losing'
p6442
I1
tp6443
a(S'lots'
p6444
I1
tp6445
a(S'love\x92s'
p6446
I1
tp6447
a(S'loving'
p6448
I1
tp6449
a(S'lungs.\x94'
p6450
I1
tp6451
a(S'ly'
p6452
I1
tp6453
a(S'lyrical'
p6454
I1
tp6455
a(S'mac.\x94'
p6456
I1
tp6457
a(S'maint'
p6458
I1
tp6459
a(S'mak'
p6460
I1
tp6461
a(S'malik\x94'
p6462
I1
tp6463
a(S'man'
p6464
I1
tp6465
a(S'manages'
p6466
I1
tp6467
a(S'maner'
p6468
I1
tp6469
a(S'mates'
p6470
I1
tp6471
a(S'maths'
p6472
I1
tp6473
a(S'mattered.well'
p6474
I1
tp6475
a(S'matters,\x94'
p6476
I1
tp6477
a(S'me.i'
p6478
I1
tp6479
a(S"mean't"
p6480
I1
tp6481
a(S'meanings'
p6482
I1
tp6483
a(S'means.in'
p6484
I1
tp6485
a(S'means.they'
p6486
I1
tp6487
a(S'means.when'
p6488
I1
tp6489
a(S'meant.the'
p6490
I1
tp6491
a(S'meanwhile'
p6492
I1
tp6493
a(S'meerly'
p6494
I1
tp6495
a(S'meet'
p6496
I1
tp6497
a(S'meeting'
p6498
I1
tp6499
a(S'meisly'
p6500
I1
tp6501
a(S'melancholy'
p6502
I1
tp6503
a(S'melon?'
p6504
I1
tp6505
a(S'melsts'
p6506
I1
tp6507
a(S'melt.the'
p6508
I1
tp6509
a(S'melting\x94'
p6510
I1
tp6511
a(S'melts.the'
p6512
I1
tp6513
a(S'melt\x94'
p6514
I1
tp6515
a(S'memones'
p6516
I1
tp6517
a(S'memorie'
p6518
I1
tp6519
a(S'memories.i'
p6520
I1
tp6521
a(S'memorises'
p6522
I1
tp6523
a(S'memorize'
p6524
I1
tp6525
a(S'memory\x92s'
p6526
I1
tp6527
a(S'mentaly'
p6528
I1
tp6529
a(S'meqan'
p6530
I1
tp6531
a(S'mess'
p6532
I1
tp6533
a(S'messages'
p6534
I1
tp6535
a(S'metaphor)i'
p6536
I1
tp6537
a(S'metaphorically'
p6538
I1
tp6539
a(S'middle'
p6540
I1
tp6541
a(S'migrate'
p6542
I1
tp6543
a(S'migrating'
p6544
I1
tp6545
a(S'milestone'
p6546
I1
tp6547
a(S'mine'
p6548
I1
tp6549
a(S'ming'
p6550
I1
tp6551
a(S'mingled'
p6552
I1
tp6553
a(S'minimal'
p6554
I1
tp6555
a(S'misses.i'
p6556
I1
tp6557
a(S'missis'
p6558
I1
tp6559
a(S'mistakes'
p6560
I1
tp6561
a(S'mistake\x92s'
p6562
I1
tp6563
a(S'misunderstood'
p6564
I1
tp6565
a(S'mite'
p6566
I1
tp6567
a(S'moderatly'
p6568
I1
tp6569
a(S'modilates'
p6570
I1
tp6571
a(S'modivation'
p6572
I1
tp6573
a(S'momhe'
p6574
I1
tp6575
a(S'monfong'
p6576
I1
tp6577
a(S'months.i'
p6578
I1
tp6579
a(S'months.\x94'
p6580
I1
tp6581
a(S'morale'
p6582
I1
tp6583
a(S'moreover'
p6584
I1
tp6585
a(S'most.the'
p6586
I1
tp6587
a(S'most.\x94the'
p6588
I1
tp6589
a(S'mother,\x94'
p6590
I1
tp6591
a(S'mother.i'
p6592
I1
tp6593
a(S'mother.in'
p6594
I1
tp6595
a(S'mother.try'
p6596
I1
tp6597
a(S'motheri'
p6598
I1
tp6599
a(S'mothers'
p6600
I1
tp6601
a(S'mothesaid'
p6602
I1
tp6603
a(S'motivation.saeng'
p6604
I1
tp6605
a(S'motivational'
p6606
I1
tp6607
a(S'mouth'
p6608
I1
tp6609
a(S'mre'
p6610
I1
tp6611
a(S'much!\x94'
p6612
I1
tp6613
a(S'much.the'
p6614
I1
tp6615
a(S'muddy'
p6616
I1
tp6617
a(S'mutul'
p6618
I1
tp6619
a(S'mystery'
p6620
I1
tp6621
a(S'n'
I1
tp6622
a(S'na'
p6623
I1
tp6624
a(S'name'
p6625
I1
tp6626
a(S'nand'
p6627
I1
tp6628
a(S'narrator\x92s'
p6629
I1
tp6630
a(S'nather'
p6631
I1
tp6632
a(S'nature.in'
p6633
I1
tp6634
a(S'nature.the'
p6635
I1
tp6636
a(S'natures'
p6637
I1
tp6638
a(S'nature\x92s'
p6639
I1
tp6640
a(S'nav'
p6641
I1
tp6642
a(S'negatave'
p6643
I1
tp6644
a(S'nervously'
p6645
I1
tp6646
a(S'new.the'
p6647
I1
tp6648
a(S'newby'
p6649
I1
tp6650
a(S'newcomers'
p6651
I1
tp6652
a(S'newhome'
p6653
I1
tp6654
a(S'newhope'
p6655
I1
tp6656
a(S'newlife'
p6657
I1
tp6658
a(S'newly'
p6659
I1
tp6660
a(S'newness'
p6661
I1
tp6662
a(S'newoman'
p6663
I1
tp6664
a(S'news'
p6665
I1
tp6666
a(S'newseeds'
p6667
I1
tp6668
a(S'newsra'
p6669
I1
tp6670
a(S'next.the'
p6671
I1
tp6672
a(S'nicer'
p6673
I1
tp6674
a(S'nieve'
p6675
I1
tp6676
a(S'noi'
p6677
I1
tp6678
a(S'noi,\x94'
p6679
I1
tp6680
a(S'nomore'
p6681
I1
tp6682
a(S'non-natve'
p6683
I1
tp6684
a(S'none'
p6685
I1
tp6686
a(S'normally'
p6687
I1
tp6688
a(S'normol'
p6689
I1
tp6690
a(S'nostalgiaover'
p6691
I1
tp6692
a(S'nostalgic'
p6693
I1
tp6694
a(S'nosty'
p6695
I1
tp6696
a(S'note.the'
p6697
I1
tp6698
a(S'notes'
p6699
I1
tp6700
a(S'noticeable'
p6701
I1
tp6702
a(S'noting'
p6703
I1
tp6704
a(S'novel.the'
p6705
I1
tp6706
a(S'now,\x94'
p6707
I1
tp6708
a(S'now.in'
p6709
I1
tp6710
a(S'now.the'
p6711
I1
tp6712
a(S'now.\x94(@num2)'
p6713
I1
tp6714
a(S'nting'
p6715
I1
tp6716
a(S'nuforment'
p6717
I1
tp6718
a(S'num1$'
p6719
I1
tp6720
a(S'num2'
p6721
I1
tp6722
a(S'num2]'
p6723
I1
tp6724
a(S'num3)'
p6725
I1
tp6726
a(S'number'
p6727
I1
tp6728
a(S'numerous'
p6729
I1
tp6730
a(S'nuste'
p6731
I1
tp6732
a(S'o'
I1
tp6733
a(S'observed'
p6734
I1
tp6735
a(S'observes'
p6736
I1
tp6737
a(S'observing'
p6738
I1
tp6739
a(S'obstacles.authors'
p6740
I1
tp6741
a(S'obstacles.i'
p6742
I1
tp6743
a(S'obstacles.minfong'
p6744
I1
tp6745
a(S'obstacles.the'
p6746
I1
tp6747
a(S'obsticales'
p6748
I1
tp6749
a(S'obsticates'
p6750
I1
tp6751
a(S'obsticles'
p6752
I1
tp6753
a(S'occurred'
p6754
I1
tp6755
a(S'odvestily'
p6756
I1
tp6757
a(S'offered'
p6758
I1
tp6759
a(S'offered\x94'
p6760
I1
tp6761
a(S'ofplace'
p6762
I1
tp6763
a(S'of\x94winter'
p6764
I1
tp6765
a(S'oho'
p6766
I1
tp6767
a(S'oil'
p6768
I1
tp6769
a(S'okey'
p6770
I1
tp6771
a(S'omelet'
p6772
I1
tp6773
a(S'on.i'
p6774
I1
tp6775
a(S'on.i\x92ll'
p6776
I1
tp6777
a(S'on.she'
p6778
I1
tp6779
a(S'on.\x94'
p6780
I1
tp6781
a(S"one's"
p6782
I1
tp6783
a(S'one...i'
p6784
I1
tp6785
a(S'one.the'
p6786
I1
tp6787
a(S'one.well'
p6788
I1
tp6789
a(S'only.i'
p6790
I1
tp6791
a(S'onpion'
p6792
I1
tp6793
a(S'opened'
p6794
I1
tp6795
a(S'opening'
p6796
I1
tp6797
a(S'opon'
p6798
I1
tp6799
a(S'opportuniy'
p6800
I1
tp6801
a(S'opposite'
p6802
I1
tp6803
a(S'optimistic.the'
p6804
I1
tp6805
a(S'ore'
p6806
I1
tp6807
a(S'organization1i'
p6808
I1
tp6809
a(S'organization1why'
p6810
I1
tp6811
a(S'others.so'
p6812
I1
tp6813
a(S'othersi'
p6814
I1
tp6815
a(S'ourtose'
p6816
I1
tp6817
a(S'out.the'
p6818
I1
tp6819
a(S'outsider'
p6820
I1
tp6821
a(S'ouvong'
p6822
I1
tp6823
a(S'over)'
p6824
I1
tp6825
a(S'over.in'
p6826
I1
tp6827
a(S'overconsistent'
p6828
I1
tp6829
a(S'overthe'
p6830
I1
tp6831
a(S'overtime'
p6832
I1
tp6833
a(S'overtones'
p6834
I1
tp6835
a(S'over\x92\x92'
p6836
I1
tp6837
a(S'paid.\x94'
p6838
I1
tp6839
a(S'pain.she'
p6840
I1
tp6841
a(S'panouvong'
p6842
I1
tp6843
a(S'pant'
p6844
I1
tp6845
a(S'paped'
p6846
I1
tp6847
a(S'par'
p6848
I1
tp6849
a(S'paragaph'
p6850
I1
tp6851
a(S'paragragh'
p6852
I1
tp6853
a(S'paragrap'
p6854
I1
tp6855
a(S'paragraped'
p6856
I1
tp6857
a(S'paragraph)'
p6858
I1
tp6859
a(S'paragraph,\x94'
p6860
I1
tp6861
a(S'paragraph..the'
p6862
I1
tp6863
a(S'paragraph.because'
p6864
I1
tp6865
a(S'paragraph.memories'
p6866
I1
tp6867
a(S'paragraph.these'
p6868
I1
tp6869
a(S'paragraph.this'
p6870
I1
tp6871
a(S'paragraph.\x93in'
p6872
I1
tp6873
a(S'paragraphe'
p6874
I1
tp6875
a(S'paragraphthere'
p6876
I1
tp6877
a(S'paragraphto'
p6878
I1
tp6879
a(S'paragraph\x93winter'
p6880
I1
tp6881
a(S'parallel'
p6882
I1
tp6883
a(S'parallels'
p6884
I1
tp6885
a(S'parapraph'
p6886
I1
tp6887
a(S'parchases'
p6888
I1
tp6889
a(S'parents;'
p6890
I1
tp6891
a(S'pargraphthe'
p6892
I1
tp6893
a(S'parography'
p6894
I1
tp6895
a(S'parragraph'
p6896
I1
tp6897
a(S'party'
p6898
I1
tp6899
a(S'pas'
p6900
I1
tp6901
a(S'pasage.i'
p6902
I1
tp6903
a(S'pass.in'
p6904
I1
tp6905
a(S'pass.saeng'
p6906
I1
tp6907
a(S'pass.there'
p6908
I1
tp6909
a(S'passes.so'
p6910
I1
tp6911
a(S'passes.the'
p6912
I1
tp6913
a(S'passthe'
p6914
I1
tp6915
a(S'pastthe'
p6916
I1
tp6917
a(S'path'
p6918
I1
tp6919
a(S'patience'
p6920
I1
tp6921
a(S'patient'
p6922
I1
tp6923
a(S'patintions'
p6924
I1
tp6925
a(S'pattern'
p6926
I1
tp6927
a(S'patterns.i'
p6928
I1
tp6929
a(S'pay'
p6930
I1
tp6931
a(S'payed'
p6932
I1
tp6933
a(S'pays'
p6934
I1
tp6935
a(S'peaceful'
p6936
I1
tp6937
a(S'pecause'
p6938
I1
tp6939
a(S'peddle'
p6940
I1
tp6941
a(S'peice'
p6942
I1
tp6943
a(S'penwinhle\x94'
p6944
I1
tp6945
a(S'peolpe'
p6946
I1
tp6947
a(S'peperd'
p6948
I1
tp6949
a(S'peppers'
p6950
I1
tp6951
a(S'peragraph'
p6952
I1
tp6953
a(S'percent1'
p6954
I1
tp6955
a(S'perfection'
p6956
I1
tp6957
a(S'performance'
p6958
I1
tp6959
a(S'perhaps'
p6960
I1
tp6961
a(S'period'
p6962
I1
tp6963
a(S'permit'
p6964
I1
tp6965
a(S'perserveer'
p6966
I1
tp6967
a(S'perserveers'
p6968
I1
tp6969
a(S'perservere'
p6970
I1
tp6971
a(S'perserverence'
p6972
I1
tp6973
a(S'perservirance'
p6974
I1
tp6975
a(S'persevere'
p6976
I1
tp6977
a(S'perseveriance'
p6978
I1
tp6979
a(S'persistently'
p6980
I1
tp6981
a(S'person.in'
p6982
I1
tp6983
a(S'personality'
p6984
I1
tp6985
a(S'personality.i'
p6986
I1
tp6987
a(S'personally'
p6988
I1
tp6989
a(S'personely'
p6990
I1
tp6991
a(S'peservere'
p6992
I1
tp6993
a(S'pharagraph.she'
p6994
I1
tp6995
a(S'phrase.the'
p6996
I1
tp6997
a(S'physically'
p6998
I1
tp6999
a(S'physicaly'
p7000
I1
tp7001
a(S'piches'
p7002
I1
tp7003
a(S'picks'
p7004
I1
tp7005
a(S'piece.the'
p7006
I1
tp7007
a(S'pieces'
p7008
I1
tp7009
a(S'pigs'
p7010
I1
tp7011
a(S'pla'
p7012
I1
tp7013
a(S'placed'
p7014
I1
tp7015
a(S'placing'
p7016
I1
tp7017
a(S'placthe'
p7018
I1
tp7019
a(S'plan'
p7020
I1
tp7021
a(S'plan.the'
p7022
I1
tp7023
a(S'planned'
p7024
I1
tp7025
a(S'plant.why'
p7026
I1
tp7027
a(S'plant.\x94'
p7028
I1
tp7029
a(S'plantation'
p7030
I1
tp7031
a(S'planting.the'
p7032
I1
tp7033
a(S'plants.i'
p7034
I1
tp7035
a(S'planty'
p7036
I1
tp7037
a(S'plant\x92s'
p7038
I1
tp7039
a(S'plarts'
p7040
I1
tp7041
a(S'plastic'
p7042
I1
tp7043
a(S'plate'
p7044
I1
tp7045
a(S'plays'
p7046
I1
tp7047
a(S'pleasant'
p7048
I1
tp7049
a(S'please'
p7050
I1
tp7051
a(S'pleases'
p7052
I1
tp7053
a(S'plown'
p7054
I1
tp7055
a(S'pocify'
p7056
I1
tp7057
a(S'pointed'
p7058
I1
tp7059
a(S'pointes'
p7060
I1
tp7061
a(S'pointless'
p7062
I1
tp7063
a(S'pollen'
p7064
I1
tp7065
a(S'pond.i'
p7066
I1
tp7067
a(S'ponder'
p7068
I1
tp7069
a(S'pone'
p7070
I1
tp7071
a(S'poor'
p7072
I1
tp7073
a(S'popular'
p7074
I1
tp7075
a(S'porpuse'
p7076
I1
tp7077
a(S'portray'
p7078
I1
tp7079
a(S'portrayed'
p7080
I1
tp7081
a(S'portraying'
p7082
I1
tp7083
a(S'posative'
p7084
I1
tp7085
a(S'position'
p7086
I1
tp7087
a(S'positively'
p7088
I1
tp7089
a(S'positivly'
p7090
I1
tp7091
a(S'positivness'
p7092
I1
tp7093
a(S'possibilities'
p7094
I1
tp7095
a(S'poter'
p7096
I1
tp7097
a(S'poto'
p7098
I1
tp7099
a(S'potted'
p7100
I1
tp7101
a(S'pot\x94'
p7102
I1
tp7103
a(S'powering'
p7104
I1
tp7105
a(S'powoful'
p7106
I1
tp7107
a(S'prags'
p7108
I1
tp7109
a(S'praying'
p7110
I1
tp7111
a(S'preasnt.saeng'
p7112
I1
tp7113
a(S'precious'
p7114
I1
tp7115
a(S'preety'
p7116
I1
tp7117
a(S'prefered'
p7118
I1
tp7119
a(S'preferring'
p7120
I1
tp7121
a(S'prefers'
p7122
I1
tp7123
a(S'premises'
p7124
I1
tp7125
a(S'prepared.in'
p7126
I1
tp7127
a(S'preprared'
p7128
I1
tp7129
a(S'presents'
p7130
I1
tp7131
a(S'preticular'
p7132
I1
tp7133
a(S'pretty.the'
p7134
I1
tp7135
a(S'prevail'
p7136
I1
tp7137
a(S'prevails'
p7138
I1
tp7139
a(S'prevented'
p7140
I1
tp7141
a(S'price'
p7142
I1
tp7143
a(S'pridicshon'
p7144
I1
tp7145
a(S'primarily'
p7146
I1
tp7147
a(S'principle'
p7148
I1
tp7149
a(S'principles'
p7150
I1
tp7151
a(S'prior'
p7152
I1
tp7153
a(S'probally'
p7154
I1
tp7155
a(S'probley'
p7156
I1
tp7157
a(S'proceeded'
p7158
I1
tp7159
a(S'profusion'
p7160
I1
tp7161
a(S'project'
p7162
I1
tp7163
a(S'prolonged'
p7164
I1
tp7165
a(S'promise\x94'
p7166
I1
tp7167
a(S'promising'
p7168
I1
tp7169
a(S'proper'
p7170
I1
tp7171
a(S'proplems'
p7172
I1
tp7173
a(S'proved'
p7174
I1
tp7175
a(S'pull'
p7176
I1
tp7177
a(S'pulls'
p7178
I1
tp7179
a(S'pushed'
p7180
I1
tp7181
a(S'pysical'
p7182
I1
tp7183
a(S'quesition'
p7184
I1
tp7185
a(S'quesiton'
p7186
I1
tp7187
a(S'quick'
p7188
I1
tp7189
a(S'quickly'
p7190
I1
tp7191
a(S"quietly'"
p7192
I1
tp7193
a(S'quiter'
p7194
I1
tp7195
a(S'quivering'
p7196
I1
tp7197
a(S'quotation'
p7198
I1
tp7199
a(S'quote)'
p7200
I1
tp7201
a(S'quote,\x94'
p7202
I1
tp7203
a(S'quote.saeng'
p7204
I1
tp7205
a(S'raids'
p7206
I1
tp7207
a(S'rain'
p7208
I1
tp7209
a(S'random'
p7210
I1
tp7211
a(S'rare'
p7212
I1
tp7213
a(S're-bud'
p7214
I1
tp7215
a(S're-establing'
p7216
I1
tp7217
a(S're-taking'
p7218
I1
tp7219
a(S're-trying'
p7220
I1
tp7221
a(S're-visit'
p7222
I1
tp7223
a(S're.taking'
p7224
I1
tp7225
a(S'reaching'
p7226
I1
tp7227
a(S'reade'
p7228
I1
tp7229
a(S'readjusting'
p7230
I1
tp7231
a(S'readon'
p7232
I1
tp7233
a(S'ready.she'
p7234
I1
tp7235
a(S'ready.the'
p7236
I1
tp7237
a(S'readythe'
p7238
I1
tp7239
a(S'realised'
p7240
I1
tp7241
a(S'realistic'
p7242
I1
tp7243
a(S'realizeses'
p7244
I1
tp7245
a(S'realness'
p7246
I1
tp7247
a(S'reamder'
p7248
I1
tp7249
a(S'reason.in'
p7250
I1
tp7251
a(S'reason.the'
p7252
I1
tp7253
a(S'reasonable'
p7254
I1
tp7255
a(S'reasons.memory,promise,life-all'
p7256
I1
tp7257
a(S'reasons.she'
p7258
I1
tp7259
a(S'reasons.this'
p7260
I1
tp7261
a(S'reassures'
p7262
I1
tp7263
a(S'reasurrance'
p7264
I1
tp7265
a(S'reborn)'
p7266
I1
tp7267
a(S'rebud'
p7268
I1
tp7269
a(S'rebuds'
p7270
I1
tp7271
a(S'recalled'
p7272
I1
tp7273
a(S'receives'
p7274
I1
tp7275
a(S'recent'
p7276
I1
tp7277
a(S'recently'
p7278
I1
tp7279
a(S'recognized'
p7280
I1
tp7281
a(S'recollection'
p7282
I1
tp7283
a(S'recollects'
p7284
I1
tp7285
a(S'recommend'
p7286
I1
tp7287
a(S'reconize'
p7288
I1
tp7289
a(S'reconized'
p7290
I1
tp7291
a(S'recover'
p7292
I1
tp7293
a(S'recovering'
p7294
I1
tp7295
a(S'recovery'
p7296
I1
tp7297
a(S'recreate'
p7298
I1
tp7299
a(S'recrop'
p7300
I1
tp7301
a(S'red'
p7302
I1
tp7303
a(S'redeam'
p7304
I1
tp7305
a(S'redeem'
p7306
I1
tp7307
a(S'reeder'
p7308
I1
tp7309
a(S'reenforce'
p7310
I1
tp7311
a(S'references'
p7312
I1
tp7313
a(S'reffiring'
p7314
I1
tp7315
a(S'reffs'
p7316
I1
tp7317
a(S'reflecting'
p7318
I1
tp7319
a(S'refound'
p7320
I1
tp7321
a(S'refrencing'
p7322
I1
tp7323
a(S'refuses'
p7324
I1
tp7325
a(S'regard'
p7326
I1
tp7327
a(S'regroup'
p7328
I1
tp7329
a(S'reinforces'
p7330
I1
tp7331
a(S'rejected'
p7332
I1
tp7333
a(S'relaizes'
p7334
I1
tp7335
a(S'relasonship'
p7336
I1
tp7337
a(S'relatestnct'
p7338
I1
tp7339
a(S'relax'
p7340
I1
tp7341
a(S'relazed'
p7342
I1
tp7343
a(S'release'
p7344
I1
tp7345
a(S'releive'
p7346
I1
tp7347
a(S'relevant'
p7348
I1
tp7349
a(S'relieved'
p7350
I1
tp7351
a(S'relieving'
p7352
I1
tp7353
a(S'relive'
p7354
I1
tp7355
a(S'relizes'
p7356
I1
tp7357
a(S'remaind'
p7358
I1
tp7359
a(S'remains'
p7360
I1
tp7361
a(S'remants'
p7362
I1
tp7363
a(S'rembember'
p7364
I1
tp7365
a(S'rememberence'
p7366
I1
tp7367
a(S'remeniscent'
p7368
I1
tp7369
a(S'remids'
p7370
I1
tp7371
a(S'remined'
p7372
I1
tp7373
a(S'reminiscence'
p7374
I1
tp7375
a(S'reminisces'
p7376
I1
tp7377
a(S'reminiscing'
p7378
I1
tp7379
a(S'remins'
p7380
I1
tp7381
a(S'remmeder'
p7382
I1
tp7383
a(S'remnants'
p7384
I1
tp7385
a(S'renew'
p7386
I1
tp7387
a(S'renewing'
p7388
I1
tp7389
a(S'renews'
p7390
I1
tp7391
a(S'repeated'
p7392
I1
tp7393
a(S'repeating'
p7394
I1
tp7395
a(S'repents'
p7396
I1
tp7397
a(S'repetitions'
p7398
I1
tp7399
a(S'repititon'
p7400
I1
tp7401
a(S'replemise'
p7402
I1
tp7403
a(S'replied'
p7404
I1
tp7405
a(S'report'
p7406
I1
tp7407
a(S'reported'
p7408
I1
tp7409
a(S'reprecent'
p7410
I1
tp7411
a(S'representation'
p7412
I1
tp7413
a(S'reprimanded'
p7414
I1
tp7415
a(S'requperate'
p7416
I1
tp7417
a(S'resembels'
p7418
I1
tp7419
a(S'resemblance'
p7420
I1
tp7421
a(S'resembled'
p7422
I1
tp7423
a(S'resembling'
p7424
I1
tp7425
a(S'resilient'
p7426
I1
tp7427
a(S'resolved'
p7428
I1
tp7429
a(S'resoned'
p7430
I1
tp7431
a(S'respectful'
p7432
I1
tp7433
a(S'restated'
p7434
I1
tp7435
a(S'restrency'
p7436
I1
tp7437
a(S'rests'
p7438
I1
tp7439
a(S'retailing'
p7440
I1
tp7441
a(S'retests'
p7442
I1
tp7443
a(S'rethinks'
p7444
I1
tp7445
a(S'retorning'
p7446
I1
tp7447
a(S'reture'
p7448
I1
tp7449
a(S'return.spring'
p7450
I1
tp7451
a(S'return;'
p7452
I1
tp7453
a(S'revealed'
p7454
I1
tp7455
a(S'reveat'
p7456
I1
tp7457
a(S'revolves'
p7458
I1
tp7459
a(S'right.he'
p7460
I1
tp7461
a(S'rise'
p7462
I1
tp7463
a(S'risk'
p7464
I1
tp7465
a(S'rite.the'
p7466
I1
tp7467
a(S'roem'
p7468
I1
tp7469
a(S'role'
p7470
I1
tp7471
a(S'rolls'
p7472
I1
tp7473
a(S'ron'
p7474
I1
tp7475
a(S'roofs'
p7476
I1
tp7477
a(S'root'
p7478
I1
tp7479
a(S'rooting/grasping'
p7480
I1
tp7481
a(S'roots'
p7482
I1
tp7483
a(S'rubs'
p7484
I1
tp7485
a(S'rule'
p7486
I1
tp7487
a(S'running'
p7488
I1
tp7489
a(S'runs'
p7490
I1
tp7491
a(S'ruturn'
p7492
I1
tp7493
a(S'ryt'
p7494
I1
tp7495
a(S"s'aeng"
p7496
I1
tp7497
a(S'sad.the'
p7498
I1
tp7499
a(S'saddened'
p7500
I1
tp7501
a(S'saddens'
p7502
I1
tp7503
a(S'sadder'
p7504
I1
tp7505
a(S'saebya'
p7506
I1
tp7507
a(S'saeng,\x94'
p7508
I1
tp7509
a(S'saeng.he'
p7510
I1
tp7511
a(S'saeng.i'
p7512
I1
tp7513
a(S'saeng;'
p7514
I1
tp7515
a(S'saeng\x94'
p7516
I1
tp7517
a(S'safer'
p7518
I1
tp7519
a(S'said,"i-i'
p7520
I1
tp7521
a(S'said.\x92'
p7522
I1
tp7523
a(S'said;'
p7524
I1
tp7525
a(S'said\x94canada'
p7526
I1
tp7527
a(S'said\x94she'
p7528
I1
tp7529
a(S'samething'
p7530
I1
tp7531
a(S'sandwich'
p7532
I1
tp7533
a(S'sanne'
p7534
I1
tp7535
a(S'sarcaism'
p7536
I1
tp7537
a(S'sarng'
p7538
I1
tp7539
a(S'sated'
p7540
I1
tp7541
a(S'satisfaction'
p7542
I1
tp7543
a(S"say's"
p7544
I1
tp7545
a(S'sayin'
p7546
I1
tp7547
a(S'saying,\x94'
p7548
I1
tp7549
a(S'saying,\x94i'
p7550
I1
tp7551
a(S'saying\x94'
p7552
I1
tp7553
a(S'says,\x92\x92'
p7554
I1
tp7555
a(S'says,\x94the'
p7556
I1
tp7557
a(S'says,\x94when'
p7558
I1
tp7559
a(S'says.\x94'
p7560
I1
tp7561
a(S'says\x94'
p7562
I1
tp7563
a(S'scarred'
p7564
I1
tp7565
a(S'scene'
p7566
I1
tp7567
a(S'scentence'
p7568
I1
tp7569
a(S'schoolwork'
p7570
I1
tp7571
a(S'screw'
p7572
I1
tp7573
a(S'scribed'
p7574
I1
tp7575
a(S'se'
p7576
I1
tp7577
a(S'seal.the'
p7578
I1
tp7579
a(S'searching'
p7580
I1
tp7581
a(S"season's"
p7582
I1
tp7583
a(S'season,almost'
p7584
I1
tp7585
a(S'season,the'
p7586
I1
tp7587
a(S'season.he'
p7588
I1
tp7589
a(S'season.in'
p7590
I1
tp7591
a(S'season.saeng'
p7592
I1
tp7593
a(S'season.the'
p7594
I1
tp7595
a(S'secure'
p7596
I1
tp7597
a(S'security'
p7598
I1
tp7599
a(S'security.the'
p7600
I1
tp7601
a(S"see's"
p7602
I1
tp7603
a(S'seed.\x94'
p7604
I1
tp7605
a(S'seek'
p7606
I1
tp7607
a(S'seeking'
p7608
I1
tp7609
a(S'seing'
p7610
I1
tp7611
a(S'selected.in'
p7612
I1
tp7613
a(S'selfconcious'
p7614
I1
tp7615
a(S'selfs'
p7616
I1
tp7617
a(S'selve'
p7618
I1
tp7619
a(S'selves'
p7620
I1
tp7621
a(S'semblance'
p7622
I1
tp7623
a(S'semile'
p7624
I1
tp7625
a(S'semi\x96new'
p7626
I1
tp7627
a(S'sen'
p7628
I1
tp7629
a(S'sensens'
p7630
I1
tp7631
a(S'sensing'
p7632
I1
tp7633
a(S'sentance'
p7634
I1
tp7635
a(S'sentemental'
p7636
I1
tp7637
a(S'sentence.the'
p7638
I1
tp7639
a(S'sentense'
p7640
I1
tp7641
a(S'sentimentality'
p7642
I1
tp7643
a(S'seprated'
p7644
I1
tp7645
a(S'sequal.the'
p7646
I1
tp7647
a(S'sequel.in'
p7648
I1
tp7649
a(S'series'
p7650
I1
tp7651
a(S'seriously'
p7652
I1
tp7653
a(S'served'
p7654
I1
tp7655
a(S'servle'
p7656
I1
tp7657
a(S'setback'
p7658
I1
tp7659
a(S'seterel'
p7660
I1
tp7661
a(S'setvation'
p7662
I1
tp7663
a(S'sew'
p7664
I1
tp7665
a(S'shades'
p7666
I1
tp7667
a(S'shake'
p7668
I1
tp7669
a(S'shakey'
p7670
I1
tp7671
a(S'shall'
p7672
I1
tp7673
a(S'shame'
p7674
I1
tp7675
a(S'shangling'
p7676
I1
tp7677
a(S'shapes'
p7678
I1
tp7679
a(S'sharing'
p7680
I1
tp7681
a(S'she.i'
p7682
I1
tp7683
a(S'she.the'
p7684
I1
tp7685
a(S'she/@caps1'
p7686
I1
tp7687
a(S'she/he'
p7688
I1
tp7689
a(S'she`ll'
p7690
I1
tp7691
a(S'she\x94ll'
p7692
I1
tp7693
a(S'shine'
p7694
I1
tp7695
a(S'shining'
p7696
I1
tp7697
a(S'sholders.saeng'
p7698
I1
tp7699
a(S'shorter'
p7700
I1
tp7701
a(S'shortness'
p7702
I1
tp7703
a(S"shouldn't"
p7704
I1
tp7705
a(S'shy'
p7706
I1
tp7707
a(S'sick'
p7708
I1
tp7709
a(S'sick.the'
p7710
I1
tp7711
a(S'sidewalk'
p7712
I1
tp7713
a(S'sidewalk.the'
p7714
I1
tp7715
a(S'sidwak'
p7716
I1
tp7717
a(S'sileltly'
p7718
I1
tp7719
a(S'similar.the'
p7720
I1
tp7721
a(S'similarly'
p7722
I1
tp7723
a(S'simpley'
p7724
I1
tp7725
a(S'singingi'
p7726
I1
tp7727
a(S'single'
p7728
I1
tp7729
a(S'single-handedly'
p7730
I1
tp7731
a(S'sink'
p7732
I1
tp7733
a(S'sioteero'
p7734
I1
tp7735
a(S'sit'
p7736
I1
tp7737
a(S'situated'
p7738
I1
tp7739
a(S'situration'
p7740
I1
tp7741
a(S'siving'
p7742
I1
tp7743
a(S'sizzle'
p7744
I1
tp7745
a(S'skilled'
p7746
I1
tp7747
a(S'slate'
p7748
I1
tp7749
a(S'slices'
p7750
I1
tp7751
a(S'slightly'
p7752
I1
tp7753
a(S'slot'
p7754
I1
tp7755
a(S'slow'
p7756
I1
tp7757
a(S'slows'
p7758
I1
tp7759
a(S'smile'
p7760
I1
tp7761
a(S'snow)'
p7762
I1
tp7763
a(S'snow.the'
p7764
I1
tp7765
a(S'snowed'
p7766
I1
tp7767
a(S'snowsmelt'
p7768
I1
tp7769
a(S'snow\x92'
p7770
I1
tp7771
a(S'snow\x92s'
p7772
I1
tp7773
a(S'so,if'
p7774
I1
tp7775
a(S'society.the'
p7776
I1
tp7777
a(S'soit'
p7778
I1
tp7779
a(S'solace'
p7780
I1
tp7781
a(S'sold'
p7782
I1
tp7783
a(S'solid'
p7784
I1
tp7785
a(S'solve'
p7786
I1
tp7787
a(S'solved'
p7788
I1
tp7789
a(S'solves'
p7790
I1
tp7791
a(S'someone.in'
p7792
I1
tp7793
a(S'something.the'
p7794
I1
tp7795
a(S'somethings'
p7796
I1
tp7797
a(S'somethings.the'
p7798
I1
tp7799
a(S'somewere'
p7800
I1
tp7801
a(S'sonip'
p7802
I1
tp7803
a(S'sooth'
p7804
I1
tp7805
a(S'soothe'
p7806
I1
tp7807
a(S'soothes'
p7808
I1
tp7809
a(S'sorely'
p7810
I1
tp7811
a(S'soring'
p7812
I1
tp7813
a(S'sorrows'
p7814
I1
tp7815
a(S'sory'
p7816
I1
tp7817
a(S'sotherefore'
p7818
I1
tp7819
a(S'sounded'
p7820
I1
tp7821
a(S'source'
p7822
I1
tp7823
a(S'sow'
p7824
I1
tp7825
a(S'speaking'
p7826
I1
tp7827
a(S'spear'
p7828
I1
tp7829
a(S'specific'
p7830
I1
tp7831
a(S'specifically'
p7832
I1
tp7833
a(S'spends'
p7834
I1
tp7835
a(S'spierit'
p7836
I1
tp7837
a(S'spin'
p7838
I1
tp7839
a(S'splayed'
p7840
I1
tp7841
a(S'sports'
p7842
I1
tp7843
a(S'spots'
p7844
I1
tp7845
a(S'spring!the'
p7846
I1
tp7847
a(S"spring's"
p7848
I1
tp7849
a(S'spring,when'
p7850
I1
tp7851
a(S'spring.he'
p7852
I1
tp7853
a(S'spring.i'
p7854
I1
tp7855
a(S'spring.in'
p7856
I1
tp7857
a(S'spring.saeng'
p7858
I1
tp7859
a(S'spring.they'
p7860
I1
tp7861
a(S'spring.when'
p7862
I1
tp7863
a(S'springin'
p7864
I1
tp7865
a(S'springtime.the'
p7866
I1
tp7867
a(S'spring\x92s'
p7868
I1
tp7869
a(S'spring\x94'
p7870
I1
tp7871
a(S'sprout'
p7872
I1
tp7873
a(S'sprouting'
p7874
I1
tp7875
a(S'stains'
p7876
I1
tp7877
a(S'stamen'
p7878
I1
tp7879
a(S'stang'
p7880
I1
tp7881
a(S'staping'
p7882
I1
tp7883
a(S'star'
p7884
I1
tp7885
a(S'starlight.\x94'
p7886
I1
tp7887
a(S'started.also'
p7888
I1
tp7889
a(S'starti'
p7890
I1
tp7891
a(S'statement.well'
p7892
I1
tp7893
a(S'statements'
p7894
I1
tp7895
a(S'steally'
p7896
I1
tp7897
a(S'stentment'
p7898
I1
tp7899
a(S'stick'
p7900
I1
tp7901
a(S'stilled'
p7902
I1
tp7903
a(S'stood'
p7904
I1
tp7905
a(S'stoping'
p7906
I1
tp7907
a(S'story...because'
p7908
I1
tp7909
a(S'story.he'
p7910
I1
tp7911
a(S'storythe'
p7912
I1
tp7913
a(S'stoy'
p7914
I1
tp7915
a(S'straidth'
p7916
I1
tp7917
a(S'stranger'
p7918
I1
tp7919
a(S'stranger;'
p7920
I1
tp7921
a(S'strart'
p7922
I1
tp7923
a(S'strengthens'
p7924
I1
tp7925
a(S'strgging'
p7926
I1
tp7927
a(S'strives'
p7928
I1
tp7929
a(S'striving'
p7930
I1
tp7931
a(S'strong.in'
p7932
I1
tp7933
a(S'strong.the'
p7934
I1
tp7935
a(S'stronger.the'
p7936
I1
tp7937
a(S'structure'
p7938
I1
tp7939
a(S'structured'
p7940
I1
tp7941
a(S'student'
p7942
I1
tp7943
a(S'studies'
p7944
I1
tp7945
a(S'studing'
p7946
I1
tp7947
a(S'studying'
p7948
I1
tp7949
a(S'stumble'
p7950
I1
tp7951
a(S'stumbling'
p7952
I1
tp7953
a(S'stuttering'
p7954
I1
tp7955
a(S'subject.the'
p7956
I1
tp7957
a(S'subjects'
p7958
I1
tp7959
a(S'success.the'
p7960
I1
tp7961
a(S'successed'
p7962
I1
tp7963
a(S'sucede'
p7964
I1
tp7965
a(S'sucess'
p7966
I1
tp7967
a(S'sucseed'
p7968
I1
tp7969
a(S'suddenly'
p7970
I1
tp7971
a(S'suggest'
p7972
I1
tp7973
a(S'suggests'
p7974
I1
tp7975
a(S'sumarizises'
p7976
I1
tp7977
a(S'summed'
p7978
I1
tp7979
a(S'summerized'
p7980
I1
tp7981
a(S'sumthin'
p7982
I1
tp7983
a(S'suports'
p7984
I1
tp7985
a(S'supported'
p7986
I1
tp7987
a(S'supports'
p7988
I1
tp7989
a(S'supposively'
p7990
I1
tp7991
a(S'surely'
p7992
I1
tp7993
a(S'surive'
p7994
I1
tp7995
a(S'surprise'
p7996
I1
tp7997
a(S'surprised'
p7998
I1
tp7999
a(S'survive.during'
p8000
I1
tp8001
a(S'survived'
p8002
I1
tp8003
a(S'surviving'
p8004
I1
tp8005
a(S'suspect'
p8006
I1
tp8007
a(S'suspenes'
p8008
I1
tp8009
a(S'suspicious'
p8010
I1
tp8011
a(S'sustain'
p8012
I1
tp8013
a(S'sweater,it'
p8014
I1
tp8015
a(S'sweit'
p8016
I1
tp8017
a(S'symble'
p8018
I1
tp8019
a(S'symbolistic'
p8020
I1
tp8021
a(S'symbols'
p8022
I1
tp8023
a(S'sympathetic'
p8024
I1
tp8025
a(S'syr'
p8026
I1
tp8027
a(S'tacke'
p8028
I1
tp8029
a(S'taht'
p8030
I1
tp8031
a(S'takeing'
p8032
I1
tp8033
a(S'talk.the'
p8034
I1
tp8035
a(S'talkes'
p8036
I1
tp8037
a(S'talkin'
p8038
I1
tp8039
a(S'talk\x92s'
p8040
I1
tp8041
a(S'tamed'
p8042
I1
tp8043
a(S'task,try'
p8044
I1
tp8045
a(S'tat'
p8046
I1
tp8047
a(S'te'
p8048
I1
tp8049
a(S'teaching'
p8050
I1
tp8051
a(S'team'
p8052
I1
tp8053
a(S'tear'
p8054
I1
tp8055
a(S'teast'
p8056
I1
tp8057
a(S'techniques'
p8058
I1
tp8059
a(S'tell\x92s'
p8060
I1
tp8061
a(S'temporally'
p8062
I1
tp8063
a(S'tenth'
p8064
I1
tp8065
a(S'terrain'
p8066
I1
tp8067
a(S'terribly'
p8068
I1
tp8069
a(S'test"(ho)'
p8070
I1
tp8071
a(S'test,she'
p8072
I1
tp8073
a(S'test,\xe2\x80\x9d'
p8074
I1
tp8075
a(S'test.explains'
p8076
I1
tp8077
a(S'test.her'
p8078
I1
tp8079
a(S'test.saeng'
p8080
I1
tp8081
a(S'test.she'
p8082
I1
tp8083
a(S'test.they'
p8084
I1
tp8085
a(S'test.with'
p8086
I1
tp8087
a(S'test.\x93it\x92s'
p8088
I1
tp8089
a(S'test;'
p8090
I1
tp8091
a(S'tested.the'
p8092
I1
tp8093
a(S'tests.the'
p8094
I1
tp8095
a(S'testshe'
p8096
I1
tp8097
a(S'testthe'
p8098
I1
tp8099
a(S'tha'
p8100
I1
tp8101
a(S'thagh'
p8102
I1
tp8103
a(S'thaght'
p8104
I1
tp8105
a(S'thaking'
p8106
I1
tp8107
a(S'thal'
p8108
I1
tp8109
a(S'thanked'
p8110
I1
tp8111
a(S'thanks'
p8112
I1
tp8113
a(S'thas'
p8114
I1
tp8115
a(S'that.in'
p8116
I1
tp8117
a(S'thatit'
p8118
I1
tp8119
a(S'thattest'
p8120
I1
tp8121
a(S'thay'
p8122
I1
tp8123
a(S'theauther'
p8124
I1
tp8125
a(S'theauthor'
p8126
I1
tp8127
a(S'theirthe'
p8128
I1
tp8129
a(S'thelast'
p8130
I1
tp8131
a(S'them.i'
p8132
I1
tp8133
a(S'them.the'
p8134
I1
tp8135
a(S'there.the'
p8136
I1
tp8137
a(S'thereis'
p8138
I1
tp8139
a(S'theres'
p8140
I1
tp8141
a(S'therw'
p8142
I1
tp8143
a(S'ther\x92s'
p8144
I1
tp8145
a(S'they\x92ll'
p8146
I1
tp8147
a(S'they\x92ve'
p8148
I1
tp8149
a(S'thi'
p8150
I1
tp8151
a(S'thik'
p8152
I1
tp8153
a(S"thing's"
p8154
I1
tp8155
a(S'thing.in'
p8156
I1
tp8157
a(S'things;'
p8158
I1
tp8159
a(S'thingsthe'
p8160
I1
tp8161
a(S'thing\x92s'
p8162
I1
tp8163
a(S'think.this'
p8164
I1
tp8165
a(S'thinking.the'
p8166
I1
tp8167
a(S'thins'
p8168
I1
tp8169
a(S'this.in'
p8170
I1
tp8171
a(S'this.the'
p8172
I1
tp8173
a(S'this.when'
p8174
I1
tp8175
a(S'thom'
p8176
I1
tp8177
a(S'thought.at'
p8178
I1
tp8179
a(S'thoughts.the'
p8180
I1
tp8181
a(S'thought\x92s'
p8182
I1
tp8183
a(S'thourgh'
p8184
I1
tp8185
a(S'thr'
p8186
I1
tp8187
a(S'thre'
p8188
I1
tp8189
a(S'thrends'
p8190
I1
tp8191
a(S'thrives'
p8192
I1
tp8193
a(S'thro'
p8194
I1
tp8195
a(S'throu'
p8196
I1
tp8197
a(S'throug'
p8198
I1
tp8199
a(S'throw'
p8200
I1
tp8201
a(S'thrusting'
p8202
I1
tp8203
a(S'ths'
p8204
I1
tp8205
a(S'ti'
p8206
I1
tp8207
a(S'tie'
p8208
I1
tp8209
a(S'tightly'
p8210
I1
tp8211
a(S'til'
p8212
I1
tp8213
a(S'tiled'
p8214
I1
tp8215
a(S'time.i'
p8216
I1
tp8217
a(S'time.most'
p8218
I1
tp8219
a(S'times.that'
p8220
I1
tp8221
a(S'timewhat'
p8222
I1
tp8223
a(S'tird'
p8224
I1
tp8225
a(S'tis'
p8226
I1
tp8227
a(S'tisaeng'
p8228
I1
tp8229
a(S'to.i'
p8230
I1
tp8231
a(S'to.\x94'
p8232
I1
tp8233
a(S'toched'
p8234
I1
tp8235
a(S'today'
p8236
I1
tp8237
a(S'togather'
p8238
I1
tp8239
a(S'together.the'
p8240
I1
tp8241
a(S'togod'
p8242
I1
tp8243
a(S'toils'
p8244
I1
tp8245
a(S'toin'
p8246
I1
tp8247
a(S'toke'
p8248
I1
tp8249
a(S'tommorow'
p8250
I1
tp8251
a(S'ton.\x94'
p8252
I1
tp8253
a(S'tongue'
p8254
I1
tp8255
a(S'too.i'
p8256
I1
tp8257
a(S'too.in'
p8258
I1
tp8259
a(S'too\x94'
p8260
I1
tp8261
a(S'tore'
p8262
I1
tp8263
a(S'torn'
p8264
I1
tp8265
a(S'total'
p8266
I1
tp8267
a(S'totally'
p8268
I1
tp8269
a(S'tothe'
p8270
I1
tp8271
a(S'touching'
p8272
I1
tp8273
a(S'tought'
p8274
I1
tp8275
a(S'toughts'
p8276
I1
tp8277
a(S'tradition.the'
p8278
I1
tp8279
a(S'traditions'
p8280
I1
tp8281
a(S'tragic'
p8282
I1
tp8283
a(S'tragrant'
p8284
I1
tp8285
a(S'traits'
p8286
I1
tp8287
a(S'traits.the'
p8288
I1
tp8289
a(S'transformed'
p8290
I1
tp8291
a(S'trapped'
p8292
I1
tp8293
a(S'treasure'
p8294
I1
tp8295
a(S'trials'
p8296
I1
tp8297
a(S'trip'
p8298
I1
tp8299
a(S'trip.so'
p8300
I1
tp8301
a(S'triumph'
p8302
I1
tp8303
a(S'triumphs'
p8304
I1
tp8305
a(S'troubled'
p8306
I1
tp8307
a(S'trown'
p8308
I1
tp8309
a(S'truley'
p8310
I1
tp8311
a(S'trust'
p8312
I1
tp8313
a(S'truth'
p8314
I1
tp8315
a(S'try.the'
p8316
I1
tp8317
a(S'tryed'
p8318
I1
tp8319
a(S'tryin'
p8320
I1
tp8321
a(S'tryinh'
p8322
I1
tp8323
a(S'trys.the'
p8324
I1
tp8325
a(S'tst'
p8326
I1
tp8327
a(S'tthe'
p8328
I1
tp8329
a(S'tto'
p8330
I1
tp8331
a(S'tunnel'
p8332
I1
tp8333
a(S'ture'
p8334
I1
tp8335
a(S'turn'
p8336
I1
tp8337
a(S'turnig'
p8338
I1
tp8339
a(S'turning'
p8340
I1
tp8341
a(S'twenty'
p8342
I1
tp8343
a(S'twist'
p8344
I1
tp8345
a(S'tying'
p8346
I1
tp8347
a(S"type's"
p8348
I1
tp8349
a(S'tyring'
p8350
I1
tp8351
a(S'u.s'
p8352
I1
tp8353
a(S'ua'
p8354
I1
tp8355
a(S'uhen'
p8356
I1
tp8357
a(S'ultimate'
p8358
I1
tp8359
a(S'ultimately'
p8360
I1
tp8361
a(S'ultimatly'
p8362
I1
tp8363
a(S'unclaimed'
p8364
I1
tp8365
a(S'unconcluded'
p8366
I1
tp8367
a(S'undergoes'
p8368
I1
tp8369
a(S'undergoes.i'
p8370
I1
tp8371
a(S'undergos'
p8372
I1
tp8373
a(S'understand.the'
p8374
I1
tp8375
a(S'understandig'
p8376
I1
tp8377
a(S'undividual'
p8378
I1
tp8379
a(S'uneasy'
p8380
I1
tp8381
a(S'unexpected'
p8382
I1
tp8383
a(S'unfimiliar'
p8384
I1
tp8385
a(S'unhappen'
p8386
I1
tp8387
a(S'uniqueness'
p8388
I1
tp8389
a(S'unites'
p8390
I1
tp8391
a(S'unknown'
p8392
I1
tp8393
a(S'unlocks'
p8394
I1
tp8395
a(S'unordinary'
p8396
I1
tp8397
a(S'unsatisfying'
p8398
I1
tp8399
a(S'unsuccessful'
p8400
I1
tp8401
a(S'up.in'
p8402
I1
tp8403
a(S'up.this'
p8404
I1
tp8405
a(S'up.\x93when'
p8406
I1
tp8407
a(S'upinto'
p8408
I1
tp8409
a(S'upsets'
p8410
I1
tp8411
a(S'upsetting'
p8412
I1
tp8413
a(S'uptill'
p8414
I1
tp8415
a(S'usher'
p8416
I1
tp8417
a(S'usually'
p8418
I1
tp8419
a(S'uttered'
p8420
I1
tp8421
a(S'valkay'
p8422
I1
tp8423
a(S'valueing'
p8424
I1
tp8425
a(S'values'
p8426
I1
tp8427
a(S'vanish'
p8428
I1
tp8429
a(S'various'
p8430
I1
tp8431
a(S've'
p8432
I1
tp8433
a(S'vegetables'
p8434
I1
tp8435
a(S'vegtable'
p8436
I1
tp8437
a(S'vegteble'
p8438
I1
tp8439
a(S'vejetable'
p8440
I1
tp8441
a(S'velet'
p8442
I1
tp8443
a(S'vengeance'
p8444
I1
tp8445
a(S'ver'
p8446
I1
tp8447
a(S'vermilion'
p8448
I1
tp8449
a(S'vew'
p8450
I1
tp8451
a(S'victim'
p8452
I1
tp8453
a(S'vietnam.it'
p8454
I1
tp8455
a(S'vietnam;'
p8456
I1
tp8457
a(S'views'
p8458
I1
tp8459
a(S'visit'
p8460
I1
tp8461
a(S'visits'
p8462
I1
tp8463
a(S'visual'
p8464
I1
tp8465
a(S'visualizeing.by'
p8466
I1
tp8467
a(S'visualizing'
p8468
I1
tp8469
a(S'vital'
p8470
I1
tp8471
a(S'vivid'
p8472
I1
tp8473
a(S'void'
p8474
I1
tp8475
a(S'vowed.i'
p8476
I1
tp8477
a(S'voweds'
p8478
I1
tp8479
a(S'vows,\x94'
p8480
I1
tp8481
a(S'w/'
p8482
I1
tp8483
a(S'w/the'
p8484
I1
tp8485
a(S'wa'
p8486
I1
tp8487
a(S'wacth'
p8488
I1
tp8489
a(S'wafled'
p8490
I1
tp8491
a(S'wafted'
p8492
I1
tp8493
a(S'waist'
p8494
I1
tp8495
a(S'waite'
p8496
I1
tp8497
a(S'waited'
p8498
I1
tp8499
a(S'wale'
p8500
I1
tp8501
a(S'walkes'
p8502
I1
tp8503
a(S"want's"
p8504
I1
tp8505
a(S'want`s'
p8506
I1
tp8507
a(S'wan\x92t\x92s'
p8508
I1
tp8509
a(S'war'
p8510
I1
tp8511
a(S'was.they'
p8512
I1
tp8513
a(S'wasedin'
p8514
I1
tp8515
a(S'wasent'
p8516
I1
tp8517
a(S'wash'
p8518
I1
tp8519
a(S'wasnt'
p8520
I1
tp8521
a(S'waste'
p8522
I1
tp8523
a(S'watered,\x94'
p8524
I1
tp8525
a(S'watste'
p8526
I1
tp8527
a(S'way.i'
p8528
I1
tp8529
a(S'way.saeng'
p8530
I1
tp8531
a(S'way.\x93winter'
p8532
I1
tp8533
a(S'ways.in'
p8534
I1
tp8535
a(S'weakness'
p8536
I1
tp8537
a(S'weaknesses'
p8538
I1
tp8539
a(S'wealth'
p8540
I1
tp8541
a(S'wean'
p8542
I1
tp8543
a(S'wear'
p8544
I1
tp8545
a(S'weary'
p8546
I1
tp8547
a(S'wed'
p8548
I1
tp8549
a(S'weeps'
p8550
I1
tp8551
a(S'weight'
p8552
I1
tp8553
a(S'well.i'
p8554
I1
tp8555
a(S'well.its'
p8556
I1
tp8557
a(S'well.the'
p8558
I1
tp8559
a(S'well?'
p8560
I1
tp8561
a(S'welli'
p8562
I1
tp8563
a(S'well\x94'
p8564
I1
tp8565
a(S'wents'
p8566
I1
tp8567
a(S'wept,\x94'
p8568
I1
tp8569
a(S'wereing'
p8570
I1
tp8571
a(S'were\x92nt'
p8572
I1
tp8573
a(S'wew'
p8574
I1
tp8575
a(S'we\x96what'
p8576
I1
tp8577
a(S'whant'
p8578
I1
tp8579
a(S'what?\x94'
p8580
I1
tp8581
a(S'whch'
p8582
I1
tp8583
a(S'whe'
p8584
I1
tp8585
a(S'wher'
p8586
I1
tp8587
a(S'wheras'
p8588
I1
tp8589
a(S'whereelse'
p8590
I1
tp8591
a(S'whereever'
p8592
I1
tp8593
a(S'wheres'
p8594
I1
tp8595
a(S'whose'
p8596
I1
tp8597
a(S'whot'
p8598
I1
tp8599
a(S'wht'
p8600
I1
tp8601
a(S'wich'
p8602
I1
tp8603
a(S'wiil'
p8604
I1
tp8605
a(S'wild,\x94'
p8606
I1
tp8607
a(S'will.the'
p8608
I1
tp8609
a(S'willed'
p8610
I1
tp8611
a(S'willtake'
p8612
I1
tp8613
a(S'wind.\x94'
p8614
I1
tp8615
a(S'window'
p8616
I1
tp8617
a(S'winds'
p8618
I1
tp8619
a(S'winte'
p8620
I1
tp8621
a(S"winter's"
p8622
I1
tp8623
a(S'winter.hope'
p8624
I1
tp8625
a(S'winter.i'
p8626
I1
tp8627
a(S'winter.in'
p8628
I1
tp8629
a(S'winter.she'
p8630
I1
tp8631
a(S'winter.\x94'
p8632
I1
tp8633
a(S'winter\x94'
p8634
I1
tp8635
a(S'wiry'
p8636
I1
tp8637
a(S'wisdom'
p8638
I1
tp8639
a(S'wise'
p8640
I1
tp8641
a(S'wise.the'
p8642
I1
tp8643
a(S'wishing'
p8644
I1
tp8645
a(S'witer'
p8646
I1
tp8647
a(S'withe'
p8648
I1
tp8649
a(S'woked'
p8650
I1
tp8651
a(S'wont`s'
p8652
I1
tp8653
a(S'wording'
p8654
I1
tp8655
a(S'work-candle'
p8656
I1
tp8657
a(S'workout'
p8658
I1
tp8659
a(S'world,\x94'
p8660
I1
tp8661
a(S'world.")'
p8662
I1
tp8663
a(S'world.?the'
p8664
I1
tp8665
a(S'world.having'
p8666
I1
tp8667
a(S'worlds'
p8668
I1
tp8669
a(S'world\x94'
p8670
I1
tp8671
a(S'worn'
p8672
I1
tp8673
a(S'worthless'
p8674
I1
tp8675
a(S'worthwhile'
p8676
I1
tp8677
a(S'wownt'
p8678
I1
tp8679
a(S'wrights'
p8680
I1
tp8681
a(S'writers'
p8682
I1
tp8683
a(S'writings'
p8684
I1
tp8685
a(S'wrost'
p8686
I1
tp8687
a(S'wrotez'
p8688
I1
tp8689
a(S'xample'
p8690
I1
tp8691
a(S'year.determination'
p8692
I1
tp8693
a(S'year.he'
p8694
I1
tp8695
a(S'year.the'
p8696
I1
tp8697
a(S'year.when'
p8698
I1
tp8699
a(S'year.\x94'
p8700
I1
tp8701
a(S'yell'
p8702
I1
tp8703
a(S'yellow'
p8704
I1
tp8705
a(S'yor'
p8706
I1
tp8707
a(S'you.the'
p8708
I1
tp8709
a(S'youst'
p8710
I1
tp8711
a(S'you\x92re'
p8712
I1
tp8713
a(S'you\x92ve'
p8714
I1
tp8715
a(S'zone'
p8716
I1
tp8717
a(S'\x91@caps1'
p8718
I1
tp8719
a(S'\x91dok'
p8720
I1
tp8721
a(S'\x91i'
p8722
I1
tp8723
a(S'\x91not'
p8724
I1
tp8725
a(S'\x91seem'
p8726
I1
tp8727
a(S'\x91she'
p8728
I1
tp8729
a(S'\x91the'
p8730
I1
tp8731
a(S'\x91\x92'
p8732
I1
tp8733
a(S'\x91\x92a'
p8734
I1
tp8735
a(S'\x92\x92@caps1'
p8736
I1
tp8737
a(S'\x93(ho)'
p8738
I1
tp8739
a(S'\x93...then'
p8740
I1
tp8741
a(S'\x93..she'
p8742
I1
tp8743
a(S'\x93.so'
p8744
I1
tp8745
a(S'\x93@caps3'
p8746
I1
tp8747
a(S'\x93@person1'
p8748
I1
tp8749
a(S'\x93[@num2]'
p8750
I1
tp8751
a(S'\x93after'
p8752
I1
tp8753
a(S'\x93an'
p8754
I1
tp8755
a(S'\x93and\x94'
p8756
I1
tp8757
a(S'\x93as'
p8758
I1
tp8759
a(S'\x93at'
p8760
I1
tp8761
a(S'\x93aware'
p8762
I1
tp8763
a(S'\x93back'
p8764
I1
tp8765
a(S'\x93beautiful'
p8766
I1
tp8767
a(S'\x93because'
p8768
I1
tp8769
a(S'\x93blossom\x94'
p8770
I1
tp8771
a(S'\x93cheep'
p8772
I1
tp8773
a(S'\x93comfort'
p8774
I1
tp8775
a(S'\x93died\x94'
p8776
I1
tp8777
a(S'\x93dies\x94'
p8778
I1
tp8779
a(S'\x93dug'
p8780
I1
tp8781
a(S'\x93ends'
p8782
I1
tp8783
a(S'\x93failed'
p8784
I1
tp8785
a(S'\x93felt'
p8786
I1
tp8787
a(S'\x93geese'
p8788
I1
tp8789
a(S'\x93hear\x94'
p8790
I1
tp8791
a(S'\x93hidiscus'
p8792
I1
tp8793
a(S'\x93home.\x94'
p8794
I1
tp8795
a(S'\x93home\x94'
p8796
I1
tp8797
a(S'\x93how'
p8798
I1
tp8799
a(S'\x93if'
p8800
I1
tp8801
a(S'\x93is'
p8802
I1
tp8803
a(S'\x93its\x92'
p8804
I1
tp8805
a(S"\x93it\x92s-it's"
p8806
I1
tp8807
a(S'\x93it\x92s-it\x92s'
p8808
I1
tp8809
a(S'\x93i\x96i'
p8810
I1
tp8811
a(S'\x93jasmine\x94'
p8812
I1
tp8813
a(S'\x93left'
p8814
I1
tp8815
a(S'\x93long'
p8816
I1
tp8817
a(S'\x93madagascar'
p8818
I1
tp8819
a(S'\x93mashaft'
p8820
I1
tp8821
a(S'\x93never'
p8822
I1
tp8823
a(S'\x93next'
p8824
I1
tp8825
a(S'\x93no'
p8826
I1
tp8827
a(S'\x93obstacle,\x94'
p8828
I1
tp8829
a(S'\x93old'
p8830
I1
tp8831
a(S'\x93one'
p8832
I1
tp8833
a(S'\x93passage'
p8834
I1
tp8835
a(S'\x93plants'
p8836
I1
tp8837
a(S'\x93plant\x94'
p8838
I1
tp8839
a(S'\x93reluctantly\x94'
p8840
I1
tp8841
a(S'\x93return\x94'
p8842
I1
tp8843
a(S'\x93run'
p8844
I1
tp8845
a(S'\x93slowly'
p8846
I1
tp8847
a(S'\x93snow'
p8848
I1
tp8849
a(S'\x93spring\x94'
p8850
I1
tp8851
a(S'\x93strange'
p8852
I1
tp8853
a(S'\x93uses'
p8854
I1
tp8855
a(S'\x93vowed\x94'
p8856
I1
tp8857
a(S'\x93war\x94'
p8858
I1
tp8859
a(S'\x93waxy'
p8860
I1
tp8861
a(S'\x93what'
p8862
I1
tp8863
a(S'\x93where'
p8864
I1
tp8865
a(S'\x93while'
p8866
I1
tp8867
a(S'\x93winter\x94'
p8868
I1
tp8869
a(S'\x93\x92when'
p8870
I1
tp8871
a(S'\x94(no)'
p8872
I1
tp8873
a(S'\x94etc'
p8874
I1
tp8875
a(S'\x94hibiscus'
p8876
I1
tp8877
a(S'\x94its'
p8878
I1
tp8879
a(S'\x94many'
p8880
I1
tp8881
a(S'\x94the'
p8882
I1
tp8883
a(S'\x94then'
p8884
I1
tp8885
a(S'\x94there'
p8886
I1
tp8887
a(S'\x96just'
p8888
I1
tp8889
a(S'\x96minded'
p8890
I1
tp8891
a(S'\x96yes-'
p8892
I1
tp8893
a(S'\x96yes-fimiliar'
p8894
I1
tp8895
a(S'\xe2\x80\x93'
p8896
I1
tp8897
a(S'\xe2\x80\x9ci-i'
p8898
I1
tp8899
a(S'\xe2\x80\x9cwhen'
p8900
I1
tp8901
a.