(lp1
(S'building'
p2
I3047
tp3
a(S'would'
p4
I1875
tp5
a(S'dirigibles'
p6
I1829
tp7
a(S'empire'
p8
I1655
tp9
a(S'state'
p10
I1651
tp11
a(S'mast'
p12
I1440
tp13
a(S'builders'
p14
I1173
tp15
a(S'mooring'
p16
I1153
tp17
a(S'dirigible'
p18
I1007
tp19
a(S'faced'
p20
I984
tp21
a(S'obstacles'
p22
I981
tp23
a(S'dock'
p24
I964
tp25
a(S'top'
p26
I768
tp27
a(S'could'
p28
I723
tp29
a(S'obstacle'
p30
I695
tp31
a(S'many'
p32
I687
tp33
a(S'hydrogen'
p34
I680
tp35
a(S'allow'
p36
I594
tp37
a(S'new'
p38
I584
tp39
a(S'law'
p40
I515
tp41
a(S'winds'
p42
I510
tp43
a(S'one'
p44
I467
tp45
a(S'attempting'
p46
I419
tp47
a(S'also'
p48
I415
tp49
a(S'air'
p50
I408
tp51
a(S'another'
p52
I405
tp53
a(S'wind'
p54
I405
tp55
a(S'frame'
p56
I391
tp57
a(S'around'
p58
I383
tp59
a(S'york'
p60
I382
tp61
a(S'low'
p62
I377
tp63
a(S'urban'
p64
I360
tp65
a(S'area'
p66
I356
tp67
a(S'safety'
p68
I355
tp69
a(S'stress'
p70
I354
tp71
a(S'flammable'
p72
I353
tp73
a(S'nature'
p74
I351
tp75
a(S'highly'
p76
I347
tp77
a(S'problem'
p78
I344
tp79
a(S'airships'
p80
I334
tp81
a(S'used'
p82
I334
tp83
a(S'currents'
p84
I333
tp85
a(S'areas'
p86
I332
tp87
a(S'violent'
p88
I328
tp89
a(S'even'
p90
I326
tp91
a(S'due'
p92
I311
tp93
a(S"building's"
p94
I310
tp95
a(S'caps1'
p96
I310
tp97
a(S'made'
p98
I289
tp99
a(S'flying'
p100
I287
tp101
a(S'idea'
p102
I286
tp103
a(S'make'
p104
I284
tp105
a(S'helium'
p106
I280
tp107
a(S'problems'
p108
I262
tp109
a(S'back'
p110
I259
tp111
a(S'populated'
p112
I245
tp113
a(S'constantly'
p114
I239
tp115
a(S'excerpt'
p116
I236
tp117
a(S'shifting'
p118
I235
tp119
a(S'use'
p120
I229
tp121
a(S'ship'
p122
I228
tp123
a(S'states'
p124
I228
tp125
a(S'buildings'
p126
I222
tp127
a(S'way'
p128
I222
tp129
a(S'city'
p130
I219
tp131
a(S'architects'
p132
I216
tp133
a(S'people'
p134
I209
tp135
a(S'outside'
p136
I204
tp137
a(S'add'
p138
I195
tp139
a(S'fire'
p140
I195
tp141
a(S'docking'
p142
I194
tp143
a(S'first'
p144
I193
tp145
a(S'safe'
p146
I191
tp147
a(S'landing'
p148
I190
tp149
a(S'never'
p150
I189
tp151
a(S'high'
p152
I182
tp153
a(S'illegal'
p154
I180
tp155
a(S'paragraph'
p156
I180
tp157
a(S'blimp'
p158
I177
tp159
a(S'blimps'
p160
I176
tp161
a(S'rather'
p162
I175
tp163
a(S'thousand'
p164
I173
tp165
a(S'existing'
p166
I169
tp167
a(S'much'
p168
I168
tp169
a(S'realized'
p170
I162
tp171
a(S'swivel'
p172
I162
tp173
a(S'reason'
p174
I161
tp175
a(S'densely'
p176
I159
tp177
a(S'get'
p178
I158
tp179
a(S'num1'
p180
I158
tp181
a(S'greatest'
p182
I155
tp183
a(S'like'
p184
I154
tp185
a(S'pressure'
p186
I153
tp187
a(S'tie'
p188
I152
tp189
a(S'dangerous'
p190
I151
tp191
a(S'hindenburg'
p192
I151
tp193
a(S'united'
p194
I151
tp195
a(S'practical'
p196
I147
tp197
a(S'pedestrians'
p198
I146
tp199
a(S'smith'
p200
I144
tp201
a(S'accident'
p202
I140
tp203
a(S'weights'
p204
I138
tp205
a(S'ever'
p206
I137
tp207
a(S'place'
p208
I137
tp209
a(S'moored'
p210
I136
tp211
a(S'foundation'
p212
I134
tp213
a(S'fly'
p214
I132
tp215
a(S'cause'
p216
I131
tp217
a(S'steel'
p218
I130
tp219
a(S'al'
p220
I129
tp221
a(S'lead'
p222
I126
tp223
a(S'put'
p224
I123
tp225
a(S'close'
p226
I117
tp227
a(S'able'
p228
I116
tp229
a(S'marcia'
p230
I116
tp231
a(S'amidon'
p232
I113
tp233
a(S'passengers'
p234
I113
tp235
a(S'enough'
p236
I112
tp237
a(S'face'
p238
I111
tp239
a(S'modifications'
p240
I111
tp241
a(S'sixty'
p242
I110
tp243
a(S'land'
p244
I108
tp245
a(S'feet'
p246
I107
tp247
a(S'work'
p248
I107
tp249
a(S'downtown'
p250
I106
tp251
a(S'l\xfcsted'
p252
I105
tp253
a(S'trying'
p254
I105
tp255
a(S'load'
p256
I102
tp257
a(S'cable'
p258
I101
tp259
a(S"couldn't"
p260
I100
tp261
a(S'german'
p262
I99
tp263
a(S'tethered'
p264
I98
tp265
a(S'reasons'
p266
I97
tp267
a(S'dangling'
p268
I95
tp269
a(S'single'
p270
I95
tp271
a(S'tether'
p272
I95
tp273
a(S'owners'
p274
I94
tp275
a(S'destroyed'
p276
I93
tp277
a(S'roof'
p278
I93
tp279
a(S'strong'
p280
I91
tp281
a(S'issue'
p282
I90
tp283
a(S'framework'
p284
I89
tp285
a(S'caps2'
p286
I88
tp287
a(S'time'
p288
I88
tp289
a(S'worse'
p290
I88
tp291
a(S'dollars'
p292
I87
tp293
a(S'great'
p294
I87
tp295
a(S'height'
p296
I87
tp297
a(S'workers'
p298
I87
tp299
a(S'build'
p300
I86
tp301
a(S'modified'
p302
I85
tp303
a(S'allowing'
p304
I84
tp305
a(S'held'
p306
I84
tp307
a(S'laws'
p308
I83
tp309
a(S'major'
p310
I82
tp311
a(S'construction'
p312
I81
tp313
a(S'making'
p314
I81
tp315
a(S'worth'
p316
I81
tp317
a(S'num1)'
p318
I80
tp319
a(S'approach'
p320
I77
tp321
a(S'street'
p322
I77
tp323
a(S"dirigible's"
p324
I76
tp325
a(S'go'
p326
I76
tp327
a(S'order'
p328
I76
tp329
a(S'said'
p330
I76
tp331
a(S'says'
p332
I76
tp333
a(S'strengthened'
p334
I76
tp335
a(S'transmitted'
p336
I76
tp337
a(S'difficult'
p338
I75
tp339
a(S'using'
p340
I75
tp341
a(S'drop'
p342
I74
tp343
a(S'jersey'
p344
I74
tp345
a(S'neither'
p346
I73
tp347
a(S'unsafe'
p348
I73
tp349
a(S'main'
p350
I72
tp351
a(S'moor'
p352
I71
tp353
a(S'example'
p354
I70
tp355
a(S'instead'
p356
I70
tp357
a(S'filled'
p358
I69
tp359
a(S'project'
p360
I69
tp361
a(S'attempt'
p362
I68
tp363
a(S'issues'
p364
I68
tp365
a(S'weight'
p366
I68
tp367
a(S'however'
p368
I67
tp369
a(S'last'
p370
I67
tp371
a(S'lot'
p372
I67
tp373
a(S'simply'
p374
I67
tp375
a(S'structure'
p376
I67
tp377
a(S'docked'
p378
I66
tp379
a(S'fact'
p380
I66
tp381
a(S'gas'
p382
I66
tp383
a(S'plan'
p384
I66
tp385
a(S'suitable'
p386
I66
tp387
a(S'needed'
p388
I65
tp389
a(S'num2'
p390
I65
tp391
a(S'stated'
p392
I65
tp393
a(S'caused'
p394
I64
tp395
a(S'end'
p396
I64
tp397
a(S'lack'
p398
I64
tp399
a(S'purpose'
p400
I64
tp401
a(S'several'
p402
I64
tp403
a(S'successful'
p404
I64
tp405
a(S'accommodate'
p406
I63
tp407
a(S'flat'
p408
I63
tp409
a(S'going'
p410
I63
tp411
a(S"it's"
p412
I63
tp413
a(S'open'
p414
I63
tp415
a(S'organization2'
p416
I63
tp417
a(S'take'
p418
I63
tp419
a(S'transportation'
p420
I63
tp421
a(S'went'
p422
I63
tp423
a(S'big'
p424
I62
tp425
a(S"didn't"
p426
I62
tp427
a(S'something'
p428
I61
tp429
a(S'thousand-foot'
p430
I61
tp431
a(S'(paragraph'
p432
I60
tp433
a(S'extremely'
p434
I60
tp435
a(S'tallest'
p436
I60
tp437
a(S'impossible'
p438
I59
tp439
a(S'u.s'
p440
I59
tp441
a(S'added'
p442
I58
tp443
a(S'hard'
p444
I58
tp445
a(S'came'
p446
I57
tp447
a(S'flamable'
p448
I57
tp449
a(S'taken'
p450
I57
tp451
a(S'thought'
p452
I57
tp453
a(S'situation'
p454
I56
tp455
a(S'final'
p456
I55
tp457
a(S'tied'
p458
I55
tp459
a(S'although'
p460
I54
tp461
a(S"wasn't"
p462
I54
tp463
a(S'may'
p464
I53
tp465
a(S'foot'
p466
I52
tp467
a(S'fulfill'
p468
I52
tp469
a(S'let'
p470
I52
tp471
a(S'risk'
p472
I52
tp473
a(S'two'
p474
I52
tp475
a(S'weather'
p476
I52
tp477
a(S'danger'
p478
I51
tp479
a(S'finally'
p480
I51
tp481
a(S'huge'
p482
I51
tp483
a(S'lastly'
p484
I51
tp485
a(S'since'
p486
I51
tp487
a(S'well'
p488
I51
tp489
a(S'airship'
p490
I50
tp491
a(S'built'
p492
I50
tp493
a(S'cost'
p494
I50
tp495
a(S'ships'
p496
I50
tp497
a(S'building.the'
p498
I49
tp499
a(S'good'
p500
I49
tp501
a(S'obsticles'
p502
I49
tp503
a(S'fields'
p504
I48
tp505
a(S'happen'
p506
I48
tp507
a(S'organization1'
p508
I48
tp509
a(S'lakehurst'
p510
I47
tp511
a(S'large'
p512
I47
tp513
a(S'modify'
p514
I47
tp515
a(S'support'
p516
I47
tp517
a(S'weighted'
p518
I47
tp519
a(S'atop'
p520
I46
tp521
a(S'changing'
p522
I46
tp523
a(S'need'
p524
I46
tp525
a(S'second'
p526
I46
tp527
a(S'still'
p528
I46
tp529
a(S'num2)'
p530
I45
tp531
a(S'things'
p532
I45
tp533
a(S'destined'
p534
I44
tp535
a(S'engineers'
p536
I44
tp537
a(S'happened'
p538
I44
tp539
a(S'wanted'
p540
I44
tp541
a(S'ground'
p542
I43
tp543
a(S'prevented'
p544
I43
tp545
a(S'without'
p546
I43
tp547
a(S'caught'
p548
I42
tp549
a(S'constructing'
p550
I42
tp551
a(S'think'
p552
I42
tp553
a(S'biggest'
p554
I41
tp555
a(S'come'
p556
I41
tp557
a(S'money1'
p558
I41
tp559
a(S'overcome'
p560
I41
tp561
a(S'thing'
p562
I41
tp563
a(S'attempted'
p564
I40
tp565
a(S'became'
p566
I40
tp567
a(S'long'
p568
I40
tp569
a(S'1937'
p570
I39
tp571
a(S'always'
p572
I39
tp573
a(S'bad'
p574
I39
tp575
a(S'chrysler'
p576
I39
tp577
a(S'los'
p578
I39
tp579
a(S'though'
p580
I39
tp581
a(S'hold'
p582
I38
tp583
a(S'keep'
p584
I38
tp585
a(S'nearly'
p586
I38
tp587
a(S'sharp'
p588
I38
tp589
a(S'strengthen'
p590
I38
tp591
a(S'want'
p592
I38
tp593
a(S'already'
p594
I37
tp595
a(S'angeles'
p596
I37
tp597
a(S'conclusion'
p598
I37
tp599
a(S'constructed'
p600
I37
tp601
a(S'station'
p602
I37
tp603
a(S'tower'
p604
I37
tp605
a(S'author'
p606
I36
tp607
a(S'future'
p608
I36
tp609
a(S'onto'
p610
I36
tp611
a(S'wrong'
p612
I36
tp613
a(S'aircraft'
p614
I35
tp615
a(S'catch'
p616
I35
tp617
a(S'challenges'
p618
I35
tp619
a(S'dream'
p620
I35
tp621
a(S'means'
p622
I35
tp623
a(S'money'
p624
I35
tp625
a(S'obsticle'
p626
I35
tp627
a(S'safely'
p628
I35
tp629
a(S'whole'
p630
I35
tp631
a(S'anchor'
p632
I34
tp633
a(S'blow'
p634
I34
tp635
a(S'design'
p636
I34
tp637
a(S'hundred'
p638
I34
tp639
a(S'possible'
p640
I34
tp641
a(S'streets'
p642
I34
tp643
a(S'therefore'
p644
I34
tp645
a(S"wouldn't"
p646
I34
tp647
a(S'6'
I33
tp648
a(S'article'
p649
I33
tp650
a(S'tried'
p651
I33
tp652
a(S'adding'
p653
I32
tp654
a(S'disaster'
p655
I32
tp656
a(S'done'
p657
I32
tp658
a(S'fix'
p659
I32
tp660
a(S'next'
p661
I32
tp662
a(S'spires'
p663
I32
tp664
a(S'swing'
p665
I32
tp666
a(S'apparent'
p667
I31
tp668
a(S'caps3'
p669
I31
tp670
a(S'causing'
p671
I31
tp672
a(S'fall'
p673
I31
tp674
a(S'right'
p675
I31
tp676
a(S'travel'
p677
I31
tp678
a(S'1,250'
p679
I30
tp680
a(S'designed'
p681
I30
tp682
a(S'eleven'
p683
I30
tp684
a(S'foreign'
p685
I30
tp686
a(S'plans'
p687
I30
tp688
a(S'reach'
p689
I30
tp690
a(S'spire'
p691
I30
tp692
a(S'tall'
p693
I30
tp694
a(S"dollars'"
p695
I29
tp696
a(S'forceful'
p697
I29
tp698
a(S'navy'
p699
I29
tp700
a(S'really'
p701
I29
tp702
a(S'refueling'
p703
I29
tp704
a(S'taller'
p705
I29
tp706
a(S'world'
p707
I29
tp708
a(S'actually'
p709
I28
tp710
a(S'control'
p711
I28
tp712
a(S'damage'
p713
I28
tp714
a(S'encountered'
p715
I28
tp716
a(S'location1'
p717
I28
tp718
a(S'meant'
p719
I28
tp720
a(S'near'
p721
I28
tp722
a(S'service'
p723
I28
tp724
a(S'third'
p725
I28
tp726
a(S'try'
p727
I28
tp728
a(S'alot'
p729
I27
tp730
a(S'easy'
p731
I27
tp732
a(S'got'
p733
I27
tp734
a(S'reality'
p735
I27
tp736
a(S'yet'
p737
I27
tp738
a(S''
I26
tp739
a(S'according'
p740
I26
tp741
a(S'become'
p742
I26
tp743
a(S'changes'
p744
I26
tp745
a(S'easily'
p746
I26
tp747
a(S'found'
p748
I26
tp749
a(S'heavy'
p750
I26
tp751
a(S'sure'
p752
I26
tp753
a(S'weigh'
p754
I26
tp755
a(S'(\xb6'
p756
I25
tp757
a(S'attempts'
p758
I25
tp759
a(S'designing'
p760
I25
tp761
a(S'floors'
p762
I25
tp763
a(S'front'
p764
I25
tp765
a(S'gases'
p766
I25
tp767
a(S'hours'
p768
I25
tp769
a(S'overall'
p770
I25
tp771
a(S'putting'
p772
I25
tp773
a(S'set'
p774
I25
tp775
a(S'shows'
p776
I25
tp777
a(S'stainless'
p778
I25
tp779
a(S'&'
I24
tp780
a(S'(@caps1'
p781
I24
tp782
a(S'amount'
p783
I24
tp784
a(S'create'
p785
I24
tp786
a(S'entire'
p787
I24
tp788
a(S'mass'
p789
I24
tp790
a(S'process'
p791
I24
tp792
a(S'architect'
p793
I23
tp794
a(S'completed'
p795
I23
tp796
a(S'concern'
p797
I23
tp798
a(S'different'
p799
I23
tp800
a(S'factor'
p801
I23
tp802
a(S'failed'
p803
I23
tp804
a(S'ft'
p805
I23
tp806
a(S'glass'
p807
I23
tp808
a(S'known'
p809
I23
tp810
a(S'later'
p811
I23
tp812
a(S'move'
p813
I23
tp814
a(S'num3'
p815
I23
tp816
a(S'observation'
p817
I23
tp818
a(S'person1'
p819
I23
tp820
a(S'ran'
p821
I23
tp822
a(S'realize'
p823
I23
tp824
a(S'see'
p825
I23
tp826
a(S'stable'
p827
I23
tp828
a(S'sway'
p829
I23
tp830
a(S'task'
p831
I23
tp832
a(S'addition'
p833
I22
tp834
a(S'balloon'
p835
I22
tp836
a(S'builder'
p837
I22
tp838
a(S'considered'
p839
I22
tp840
a(S'equipment'
p841
I22
tp842
a(S'hanging'
p843
I22
tp844
a(S'know'
p845
I22
tp846
a(S'planned'
p847
I22
tp848
a(S'potential'
p849
I22
tp850
a(S'stay'
p851
I22
tp852
a(S'there.the'
p853
I22
tp854
a(S'attached'
p855
I21
tp856
a(S'construct'
p857
I21
tp858
a(S'hit'
p859
I21
tp860
a(S'mask'
p861
I21
tp862
a(S'num3)'
p863
I21
tp864
a(S'safty'
p865
I21
tp866
a(S"smith's"
p867
I21
tp868
a(S'soon'
p869
I21
tp870
a(S'balloons'
p871
I20
tp872
a(S'building.in'
p873
I20
tp874
a(S'cities'
p875
I20
tp876
a(S'current'
p877
I20
tp878
a(S'deal'
p879
I20
tp880
a(S'decided'
p881
I20
tp882
a(S'expanded'
p883
I20
tp884
a(S'hazard'
p885
I20
tp886
a(S'important'
p887
I20
tp888
a(S'inside'
p889
I20
tp890
a(S'winch'
p891
I20
tp892
a(S'altitude'
p893
I19
tp894
a(S'anything'
p895
I19
tp896
a(S'blowing'
p897
I19
tp898
a(S'conditions'
p899
I19
tp900
a(S'fear'
p901
I19
tp902
a(S'getting'
p903
I19
tp904
a(S'higher'
p905
I19
tp906
a(S'led'
p907
I19
tp908
a(S'proved'
p909
I19
tp910
a(S'puncture'
p911
I19
tp912
a(S'thousands'
p913
I19
tp914
a(S'three'
p915
I19
tp916
a(S'unable'
p917
I19
tp918
a(S'weighed'
p919
I19
tp920
a(S"world's"
p921
I19
tp922
a(S'approached'
p923
I18
tp924
a(S'crash'
p925
I18
tp926
a(S'december'
p927
I18
tp928
a(S'failure'
p929
I18
tp930
a(S'find'
p931
I18
tp932
a(S'floor'
p933
I18
tp934
a(S'goal'
p935
I18
tp936
a(S'seemed'
p937
I18
tp938
a(S'shift'
p939
I18
tp940
a(S'shiny'
p941
I18
tp942
a(S'(@num1)'
p943
I17
tp944
a(S'(l\xfcsted'
p945
I17
tp946
a(S'aircrafts'
p947
I17
tp948
a(S'called'
p949
I17
tp950
a(S'challenge'
p951
I17
tp952
a(S'chrome-nickel'
p953
I17
tp954
a(S'complete'
p955
I17
tp956
a(S'countries'
p957
I17
tp958
a(S'created'
p959
I17
tp960
a(S'explains'
p961
I17
tp962
a(S'explode'
p963
I17
tp964
a(S'extra'
p965
I17
tp966
a(S'four'
p967
I17
tp968
a(S'location2'
p969
I17
tp970
a(S'original'
p971
I17
tp972
a(S'possibly'
p973
I17
tp974
a(S'prohibited'
p975
I17
tp976
a(S'public'
p977
I17
tp978
a(S'quite'
p979
I17
tp980
a(S'risks'
p981
I17
tp982
a(S'skeleton'
p983
I17
tp984
a(S'speed'
p985
I17
tp986
a(S'spend'
p987
I17
tp988
a(S'took'
p989
I17
tp990
a(S'blown'
p991
I16
tp992
a(S'clear'
p993
I16
tp994
a(S'date1'
p995
I16
tp996
a(S'electric'
p997
I16
tp998
a(S'eventually'
p999
I16
tp1000
a(S'everything'
p1001
I16
tp1002
a(S'framing'
p1003
I16
tp1004
a(S'largest'
p1005
I16
tp1006
a(S'legal'
p1007
I16
tp1008
a(S'line'
p1009
I16
tp1010
a(S'numerous'
p1011
I16
tp1012
a(S'presented'
p1013
I16
tp1014
a(S'saw'
p1015
I16
tp1016
a(S'spent'
p1017
I16
tp1018
a(S'strengthening'
p1019
I16
tp1020
a(S'working'
p1021
I16
tp1022
a(S'102'
p1023
I15
tp1024
a(S'allowed'
p1025
I15
tp1026
a(S'along'
p1027
I15
tp1028
a(S'attach'
p1029
I15
tp1030
a(S'change'
p1031
I15
tp1032
a(S'derigibles'
p1033
I15
tp1034
a(S'describes'
p1035
I15
tp1036
a(S'either'
p1037
I15
tp1038
a(S'enormous'
p1039
I15
tp1040
a(S'experts'
p1041
I15
tp1042
a(S'fixed'
p1043
I15
tp1044
a(S'government'
p1045
I15
tp1046
a(S'included'
p1047
I15
tp1048
a(S'late'
p1049
I15
tp1050
a(S'lives'
p1051
I15
tp1052
a(S'location'
p1053
I15
tp1054
a(S'might'
p1055
I15
tp1056
a(S'modern'
p1057
I15
tp1058
a(S'moving'
p1059
I15
tp1060
a(S'nothing'
p1061
I15
tp1062
a(S'obvious'
p1063
I15
tp1064
a(S'passage'
p1065
I15
tp1066
a(S'posed'
p1067
I15
tp1068
a(S'stronger'
p1069
I15
tp1070
a(S'success'
p1071
I15
tp1072
a(S'taking'
p1073
I15
tp1074
a(S'technology'
p1075
I15
tp1076
a(S'violently'
p1077
I15
tp1078
a(S'walking'
p1079
I15
tp1080
a(S'worked'
p1081
I15
tp1082
a(S'across'
p1083
I14
tp1084
a(S'away'
p1085
I14
tp1086
a(S"builder's"
p1087
I14
tp1088
a(S'civilians'
p1089
I14
tp1090
a(S'clearly'
p1091
I14
tp1092
a(S'crowded'
p1093
I14
tp1094
a(S'dangers'
p1095
I14
tp1096
a(S'drigibles'
p1097
I14
tp1098
a(S'dropped'
p1099
I14
tp1100
a(S'far'
p1101
I14
tp1102
a(S'flames'
p1103
I14
tp1104
a(S'knew'
p1105
I14
tp1106
a(S'makes'
p1107
I14
tp1108
a(S'mother'
p1109
I14
tp1110
a(S'multiple'
p1111
I14
tp1112
a(S'occurred'
p1113
I14
tp1114
a(S'result'
p1115
I14
tp1116
a(S'shell'
p1117
I14
tp1118
a(S'size'
p1119
I14
tp1120
a(S'stating'
p1121
I14
tp1122
a(S'stop'
p1123
I14
tp1124
a(S'thus'
p1125
I14
tp1126
a(S'town'
p1127
I14
tp1128
a(S'unpredictable'
p1129
I14
tp1130
a(S'unstable'
p1131
I14
tp1132
a(S'zeppelins'
p1133
I14
tp1134
a(S"1930's"
p1135
I13
tp1136
a(S'account'
p1137
I13
tp1138
a(S'blocks'
p1139
I13
tp1140
a(S"can't"
p1141
I13
tp1142
a(S'causes'
p1143
I13
tp1144
a(S'difficulty'
p1145
I13
tp1146
a(S'exploded'
p1147
I13
tp1148
a(S'explosion'
p1149
I13
tp1150
a(S'field'
p1151
I13
tp1152
a(S'harm'
p1153
I13
tp1154
a(S'ideas'
p1155
I13
tp1156
a(S'involved'
p1157
I13
tp1158
a(S'landed'
p1159
I13
tp1160
a(S'lighter'
p1161
I13
tp1162
a(S'mast.the'
p1163
I13
tp1164
a(S'occur'
p1165
I13
tp1166
a(S'part'
p1167
I13
tp1168
a(S'planning'
p1169
I13
tp1170
a(S'refuel'
p1171
I13
tp1172
a(S'start'
p1173
I13
tp1174
a(S'story'
p1175
I13
tp1176
a(S'swiveling'
p1177
I13
tp1178
a(S'thinking'
p1179
I13
tp1180
a(S'unfortunately'
p1181
I13
tp1182
a(S'unrealistic'
p1183
I13
tp1184
a(S'11'
p1185
I12
tp1186
a(S'1930'
p1187
I12
tp1188
a(S'almost'
p1189
I12
tp1190
a(S'aviation'
p1191
I12
tp1192
a(S'bring'
p1193
I12
tp1194
a(S'caps4'
p1195
I12
tp1196
a(S'citizens'
p1197
I12
tp1198
a(S'complications'
p1199
I12
tp1200
a(S'day'
p1201
I12
tp1202
a(S'desirable'
p1203
I12
tp1204
a(S'especially'
p1205
I12
tp1206
a(S'factors'
p1207
I12
tp1208
a(S'figure'
p1209
I12
tp1210
a(S'force'
p1211
I12
tp1212
a(S'governor'
p1213
I12
tp1214
a(S'impractical'
p1215
I12
tp1216
a(S'incident'
p1217
I12
tp1218
a(S'kept'
p1219
I12
tp1220
a(S'killed'
p1221
I12
tp1222
a(S'letting'
p1223
I12
tp1224
a(S'looked'
p1225
I12
tp1226
a(S'mainly'
p1227
I12
tp1228
a(S'massive'
p1229
I12
tp1230
a(S'number'
p1231
I12
tp1232
a(S'per'
p1233
I12
tp1234
a(S'population'
p1235
I12
tp1236
a(S'potentially'
p1237
I12
tp1238
a(S'prevent'
p1239
I12
tp1240
a(S'saftey'
p1241
I12
tp1242
a(S'secondly'
p1243
I12
tp1244
a(S'serve'
p1245
I12
tp1246
a(S'solve'
p1247
I12
tp1248
a(S'speeds'
p1249
I12
tp1250
a(S'structural'
p1251
I12
tp1252
a(S'threat'
p1253
I12
tp1254
a(S'unsolved'
p1255
I12
tp1256
a(S"weren't"
p1257
I12
tp1258
a(S'windy'
p1259
I12
tp1260
a(S'age'
p1261
I11
tp1262
a(S'architectural'
p1263
I11
tp1264
a(S'base'
p1265
I11
tp1266
a(S'blew'
p1267
I11
tp1268
a(S'board'
p1269
I11
tp1270
a(S'body'
p1271
I11
tp1272
a(S'breaking'
p1273
I11
tp1274
a(S'brought'
p1275
I11
tp1276
a(S'cannot'
p1277
I11
tp1278
a(S'captain'
p1279
I11
tp1280
a(S'collapse'
p1281
I11
tp1282
a(S'creating'
p1283
I11
tp1284
a(S'date'
p1285
I11
tp1286
a(S'described'
p1287
I11
tp1288
a(S'destroy'
p1289
I11
tp1290
a(S'dirigble'
p1291
I11
tp1292
a(S'dirigibles.the'
p1293
I11
tp1294
a(S'effect'
p1295
I11
tp1296
a(S'fate'
p1297
I11
tp1298
a(S'harsh'
p1299
I11
tp1300
a(S'holding'
p1301
I11
tp1302
a(S'hour'
p1303
I11
tp1304
a(S'installed'
p1305
I11
tp1306
a(S'job'
p1307
I11
tp1308
a(S'miles'
p1309
I11
tp1310
a(S'modifying'
p1311
I11
tp1312
a(S'overlooked'
p1313
I11
tp1314
a(S'past'
p1315
I11
tp1316
a(S'platform'
p1317
I11
tp1318
a(S'played'
p1319
I11
tp1320
a(S'point'
p1321
I11
tp1322
a(S'postpone'
p1323
I11
tp1324
a(S'quote'
p1325
I11
tp1326
a(S'reading'
p1327
I11
tp1328
a(S'serious'
p1329
I11
tp1330
a(S'solution'
p1331
I11
tp1332
a(S'solved'
p1333
I11
tp1334
a(S'started'
p1335
I11
tp1336
a(S'strength'
p1337
I11
tp1338
a(S'swinging'
p1339
I11
tp1340
a(S'theory'
p1341
I11
tp1342
a(S'worry'
p1343
I11
tp1344
a(S'(@num2)'
p1345
I10
tp1346
a(S'1929'
p1347
I10
tp1348
a(S'1930s'
p1349
I10
tp1350
a(S'accomplish'
p1351
I10
tp1352
a(S'areas.the'
p1353
I10
tp1354
a(S'began'
p1355
I10
tp1356
a(S'begin'
p1357
I10
tp1358
a(S'building.there'
p1359
I10
tp1360
a(S'caps5'
p1361
I10
tp1362
a(S'catastrophic'
p1363
I10
tp1364
a(S'consideration'
p1365
I10
tp1366
a(S'constant'
p1367
I10
tp1368
a(S"date1's"
p1369
I10
tp1370
a(S'didnt'
p1371
I10
tp1372
a(S'difficulties'
p1373
I10
tp1374
a(S"don't"
p1375
I10
tp1376
a(S'drigible'
p1377
I10
tp1378
a(S'feared'
p1379
I10
tp1380
a(S'floating'
p1381
I10
tp1382
a(S'framed'
p1383
I10
tp1384
a(S'hazards'
p1385
I10
tp1386
a(S'hurt'
p1387
I10
tp1388
a(S'located'
p1389
I10
tp1390
a(S'lots'
p1391
I10
tp1392
a(S'man'
p1393
I10
tp1394
a(S'nine'
p1395
I10
tp1396
a(S'originally'
p1397
I10
tp1398
a(S'plus'
p1399
I10
tp1400
a(S'say'
p1401
I10
tp1402
a(S'spin'
p1403
I10
tp1404
a(S'successfully'
p1405
I10
tp1406
a(S'times'
p1407
I10
tp1408
a(S'tours'
p1409
I10
tp1410
a(S'upon'
p1411
I10
tp1412
a(S'withstand'
p1413
I10
tp1414
a(S'zeppelin'
p1415
I10
tp1416
a(S'(par'
p1417
I9
tp1418
a(S'affect'
p1419
I9
tp1420
a(S'announced'
p1421
I9
tp1422
a(S'break'
p1423
I9
tp1424
a(S'breeze'
p1425
I9
tp1426
a(S'changed'
p1427
I9
tp1428
a(S'columbia'
p1429
I9
tp1430
a(S'constructors'
p1431
I9
tp1432
a(S'contained'
p1433
I9
tp1434
a(S'cotton'
p1435
I9
tp1436
a(S'designers'
p1437
I9
tp1438
a(S'destruction'
p1439
I9
tp1440
a(S'determined'
p1441
I9
tp1442
a(S'doomed'
p1443
I9
tp1444
a(S'expensive'
p1445
I9
tp1446
a(S'explained'
p1447
I9
tp1448
a(S'fabric'
p1449
I9
tp1450
a(S'fail'
p1451
I9
tp1452
a(S'fearing'
p1453
I9
tp1454
a(S'fell'
p1455
I9
tp1456
a(S'figuring'
p1457
I9
tp1458
a(S'finished'
p1459
I9
tp1460
a(S'given'
p1461
I9
tp1462
a(S'hands'
p1463
I9
tp1464
a(S'happening'
p1465
I9
tp1466
a(S'harder'
p1467
I9
tp1468
a(S'heads'
p1469
I9
tp1470
a(S'highest'
p1471
I9
tp1472
a(S'illuminated'
p1473
I9
tp1474
a(S'installation'
p1475
I9
tp1476
a(S'keeping'
p1477
I9
tp1478
a(S'length'
p1479
I9
tp1480
a(S'life'
p1481
I9
tp1482
a(S'look'
p1483
I9
tp1484
a(S"mast's"
p1485
I9
tp1486
a(S'mind'
p1487
I9
tp1488
a(S'normally'
p1489
I9
tp1490
a(S'noticed'
p1491
I9
tp1492
a(S'obsticals'
p1493
I9
tp1494
a(S'opportunity'
p1495
I9
tp1496
a(S'passed'
p1497
I9
tp1498
a(S'pop'
p1499
I9
tp1500
a(S'preventing'
p1501
I9
tp1502
a(S'prohibiting'
p1503
I9
tp1504
a(S'rope'
p1505
I9
tp1506
a(S'saying'
p1507
I9
tp1508
a(S'seen'
p1509
I9
tp1510
a(S'self'
p1511
I9
tp1512
a(S'shifted'
p1513
I9
tp1514
a(S'space'
p1515
I9
tp1516
a(S'stood'
p1517
I9
tp1518
a(S'surrounding'
p1519
I9
tp1520
a(S'swaying'
p1521
I9
tp1522
a(S'transport'
p1523
I9
tp1524
a(S'true'
p1525
I9
tp1526
a(S'turn'
p1527
I9
tp1528
a(S'usually'
p1529
I9
tp1530
a(S'workable'
p1531
I9
tp1532
a(S'written'
p1533
I9
tp1534
a(S'airplanes'
p1535
I8
tp1536
a(S'area.the'
p1537
I8
tp1538
a(S'arose'
p1539
I8
tp1540
a(S'baggage'
p1541
I8
tp1542
a(S'bigger'
p1543
I8
tp1544
a(S'bundle'
p1545
I8
tp1546
a(S'caps6'
p1547
I8
tp1548
a(S'challenging'
p1549
I8
tp1550
a(S'concerns'
p1551
I8
tp1552
a(S'couldnt'
p1553
I8
tp1554
a(S'dangle'
p1555
I8
tp1556
a(S'devastating'
p1557
I8
tp1558
a(S'direction'
p1559
I8
tp1560
a(S'disappeared'
p1561
I8
tp1562
a(S'docks'
p1563
I8
tp1564
a(S'equipped'
p1565
I8
tp1566
a(S'finding'
p1567
I8
tp1568
a(S'flamible'
p1569
I8
tp1570
a(S'forced'
p1571
I8
tp1572
a(S'forgot'
p1573
I8
tp1574
a(S'form'
p1575
I8
tp1576
a(S'forth'
p1577
I8
tp1578
a(S'full'
p1579
I8
tp1580
a(S'furthermore'
p1581
I8
tp1582
a(S'gangplank'
p1583
I8
tp1584
a(S'hauled'
p1585
I8
tp1586
a(S'heavily'
p1587
I8
tp1588
a(S'help'
p1589
I8
tp1590
a(S'hundreds'
p1591
I8
tp1592
a(S'kill'
p1593
I8
tp1594
a(S'level'
p1595
I8
tp1596
a(S'little'
p1597
I8
tp1598
a(S'mast.in'
p1599
I8
tp1600
a(S'modification'
p1601
I8
tp1602
a(S'must'
p1603
I8
tp1604
a(S'obstacles.the'
p1605
I8
tp1606
a(S'pioneers'
p1607
I8
tp1608
a(S'play'
p1609
I8
tp1610
a(S'probably'
p1611
I8
tp1612
a(S'proves'
p1613
I8
tp1614
a(S'punctured'
p1615
I8
tp1616
a(S'quickly'
p1617
I8
tp1618
a(S'realizing'
p1619
I8
tp1620
a(S'redesign'
p1621
I8
tp1622
a(S'rest'
p1623
I8
tp1624
a(S'role'
p1625
I8
tp1626
a(S'run'
p1627
I8
tp1628
a(S'short'
p1629
I8
tp1630
a(S'side'
p1631
I8
tp1632
a(S'significant'
p1633
I8
tp1634
a(S'sometimes'
p1635
I8
tp1636
a(S'tail'
p1637
I8
tp1638
a(S'team'
p1639
I8
tp1640
a(S'title'
p1641
I8
tp1642
a(S'trouble'
p1643
I8
tp1644
a(S'ultimately'
p1645
I8
tp1646
a(S'uses'
p1647
I8
tp1648
a(S'within'
p1649
I8
tp1650
a(S'(@caps2'
p1651
I7
tp1652
a(S'1'
I7
tp1653
a(S'accidents'
p1654
I7
tp1655
a(S'actual'
p1656
I7
tp1657
a(S'additional'
p1658
I7
tp1659
a(S'affected'
p1660
I7
tp1661
a(S'afloat'
p1662
I7
tp1663
a(S'afraid'
p1664
I7
tp1665
a(S'american'
p1666
I7
tp1667
a(S'arrangement'
p1668
I7
tp1669
a(S'based'
p1670
I7
tp1671
a(S'becoming'
p1672
I7
tp1673
a(S'better'
p1674
I7
tp1675
a(S'blind'
p1676
I7
tp1677
a(S'boarding'
p1678
I7
tp1679
a(S'caps7'
p1680
I7
tp1681
a(S'caps8'
p1682
I7
tp1683
a(S'certain'
p1684
I7
tp1685
a(S'coming'
p1686
I7
tp1687
a(S'competitive'
p1688
I7
tp1689
a(S'concerning'
p1690
I7
tp1691
a(S'consider'
p1692
I7
tp1693
a(S'considering'
p1694
I7
tp1695
a(S'consulted'
p1696
I7
tp1697
a(S'country'
p1698
I7
tp1699
a(S'craft'
p1700
I7
tp1701
a(S'crashed'
p1702
I7
tp1703
a(S'deliver'
p1704
I7
tp1705
a(S'die'
p1706
I7
tp1707
a(S'efforts'
p1708
I7
tp1709
a(S'ended'
p1710
I7
tp1711
a(S'everyone'
p1712
I7
tp1713
a(S'extreme'
p1714
I7
tp1715
a(S'figured'
p1716
I7
tp1717
a(S'fourteen'
p1718
I7
tp1719
a(S'gear'
p1720
I7
tp1721
a(S'giant'
p1722
I7
tp1723
a(S'hailed'
p1724
I7
tp1725
a(S'heights'
p1726
I7
tp1727
a(S'it.the'
p1728
I7
tp1729
a(S'killing'
p1730
I7
tp1731
a(S'kind'
p1732
I7
tp1733
a(S'learned'
p1734
I7
tp1735
a(S'least'
p1736
I7
tp1737
a(S'less'
p1738
I7
tp1739
a(S'material'
p1740
I7
tp1741
a(S'meaning'
p1742
I7
tp1743
a(S'mentioned'
p1744
I7
tp1745
a(S'millions'
p1746
I7
tp1747
a(S'morning'
p1748
I7
tp1749
a(S'newspapers'
p1750
I7
tp1751
a(S'occured'
p1752
I7
tp1753
a(S'often'
p1754
I7
tp1755
a(S'operations'
p1756
I7
tp1757
a(S'places'
p1758
I7
tp1759
a(S'possibility'
p1760
I7
tp1761
a(S'present'
p1762
I7
tp1763
a(S'properly'
p1764
I7
tp1765
a(S'question'
p1766
I7
tp1767
a(S'reached'
p1768
I7
tp1769
a(S'reinforce'
p1770
I7
tp1771
a(S'results'
p1772
I7
tp1773
a(S'room'
p1774
I7
tp1775
a(S'routes'
p1776
I7
tp1777
a(S'safe.the'
p1778
I7
tp1779
a(S'shape'
p1780
I7
tp1781
a(S'shown'
p1782
I7
tp1783
a(S'steady'
p1784
I7
tp1785
a(S'stopped'
p1786
I7
tp1787
a(S'stressed'
p1788
I7
tp1789
a(S'stunt'
p1790
I7
tp1791
a(S'supposed'
p1792
I7
tp1793
a(S'there.in'
p1794
I7
tp1795
a(S'throughout'
p1796
I7
tp1797
a(S'towards'
p1798
I7
tp1799
a(S'tying'
p1800
I7
tp1801
a(S'washington'
p1802
I7
tp1803
a(S'wich'
p1804
I7
tp1805
a(S'(@num3)'
p1806
I6
tp1807
a(S'(para'
p1808
I6
tp1809
a(S'1920s'
p1810
I6
tp1811
a(S'alone'
p1812
I6
tp1813
a(S'amounts'
p1814
I6
tp1815
a(S'aspect'
p1816
I6
tp1817
a(S'building;'
p1818
I6
tp1819
a(S'burn'
p1820
I6
tp1821
a(S'catastrophe'
p1822
I6
tp1823
a(S'catching'
p1824
I6
tp1825
a(S'chance'
p1826
I6
tp1827
a(S'clavan'
p1828
I6
tp1829
a(S'combined'
p1830
I6
tp1831
a(S'company'
p1832
I6
tp1833
a(S'competition'
p1834
I6
tp1835
a(S'complicated'
p1836
I6
tp1837
a(S'concerned'
p1838
I6
tp1839
a(S'controll'
p1840
I6
tp1841
a(S'costed'
p1842
I6
tp1843
a(S'costing'
p1844
I6
tp1845
a(S'costly'
p1846
I6
tp1847
a(S"could've"
p1848
I6
tp1849
a(S'couple'
p1850
I6
tp1851
a(S'crafts'
p1852
I6
tp1853
a(S'crashing'
p1854
I6
tp1855
a(S'dangerously'
p1856
I6
tp1857
a(S'dense'
p1858
I6
tp1859
a(S'densly'
p1860
I6
tp1861
a(S'dirigable'
p1862
I6
tp1863
a(S'dirigables'
p1864
I6
tp1865
a(S'dock.the'
p1866
I6
tp1867
a(S'effort'
p1868
I6
tp1869
a(S'eighty'
p1870
I6
tp1871
a(S'elevation'
p1872
I6
tp1873
a(S'endangering'
p1874
I6
tp1875
a(S'exerpt'
p1876
I6
tp1877
a(S'expected'
p1878
I6
tp1879
a(S'falling'
p1880
I6
tp1881
a(S'famous'
p1882
I6
tp1883
a(S'fast'
p1884
I6
tp1885
a(S'fierce'
p1886
I6
tp1887
a(S'fires'
p1888
I6
tp1889
a(S'flammability'
p1890
I6
tp1891
a(S'fuel'
p1892
I6
tp1893
a(S'gave'
p1894
I6
tp1895
a(S'give'
p1896
I6
tp1897
a(S'greater'
p1898
I6
tp1899
a(S'handle'
p1900
I6
tp1901
a(S'hat'
p1902
I6
tp1903
a(S'hope'
p1904
I6
tp1905
a(S'hopes'
p1906
I6
tp1907
a(S'house'
p1908
I6
tp1909
a(S'incredibly'
p1910
I6
tp1911
a(S'international'
p1912
I6
tp1913
a(S'it.in'
p1914
I6
tp1915
a(S'location3'
p1916
I6
tp1917
a(S'materials'
p1918
I6
tp1919
a(S'men'
p1920
I6
tp1921
a(S'mention'
p1922
I6
tp1923
a(S'middle'
p1924
I6
tp1925
a(S'natural'
p1926
I6
tp1927
a(S'naval'
p1928
I6
tp1929
a(S'nearby'
p1930
I6
tp1931
a(S'organization3'
p1932
I6
tp1933
a(S'para'
p1934
I6
tp1935
a(S'pre-existing'
p1936
I6
tp1937
a(S'previous'
p1938
I6
tp1939
a(S'proven'
p1940
I6
tp1941
a(S'puncturing'
p1942
I6
tp1943
a(S'push'
p1944
I6
tp1945
a(S'rear'
p1946
I6
tp1947
a(S'relized'
p1948
I6
tp1949
a(S'seeing'
p1950
I6
tp1951
a(S'seems'
p1952
I6
tp1953
a(S'send'
p1954
I6
tp1955
a(S'shut'
p1956
I6
tp1957
a(S'stand'
p1958
I6
tp1959
a(S'sturdy'
p1960
I6
tp1961
a(S'talks'
p1962
I6
tp1963
a(S'terrible'
p1964
I6
tp1965
a(S'today'
p1966
I6
tp1967
a(S'wings'
p1968
I6
tp1969
a(S'(@caps1)'
p1970
I5
tp1971
a(S'85th'
p1972
I5
tp1973
a(S'abandoned'
p1974
I5
tp1975
a(S'adds'
p1976
I5
tp1977
a(S'adjust'
p1978
I5
tp1979
a(S'altitudes'
p1980
I5
tp1981
a(S'amazing'
p1982
I5
tp1983
a(S'attaching'
p1984
I5
tp1985
a(S'basically'
p1986
I5
tp1987
a(S'best'
p1988
I5
tp1989
a(S'bit'
p1990
I5
tp1991
a(S'blimb'
p1992
I5
tp1993
a(S'brilliant'
p1994
I5
tp1995
a(S'building.based'
p1996
I5
tp1997
a(S'calling'
p1998
I5
tp1999
a(S'completely'
p2000
I5
tp2001
a(S'complex'
p2002
I5
tp2003
a(S'confronted'
p2004
I5
tp2005
a(S'conical'
p2006
I5
tp2007
a(S'consequences'
p2008
I5
tp2009
a(S'contributed'
p2010
I5
tp2011
a(S'corners'
p2012
I5
tp2013
a(S'course'
p2014
I5
tp2015
a(S'deck'
p2016
I5
tp2017
a(S'despite'
p2018
I5
tp2019
a(S'dirgibles'
p2020
I5
tp2021
a(S'disastrous'
p2022
I5
tp2023
a(S'elevators'
p2024
I5
tp2025
a(S'envelopes'
p2026
I5
tp2027
a(S'evident'
p2028
I5
tp2029
a(S'examples'
p2030
I5
tp2031
a(S'exit'
p2032
I5
tp2033
a(S'faced.the'
p2034
I5
tp2035
a(S'facing'
p2036
I5
tp2037
a(S'fatal'
p2038
I5
tp2039
a(S'firstly'
p2040
I5
tp2041
a(S'flammible'
p2042
I5
tp2043
a(S'flight'
p2044
I5
tp2045
a(S'float'
p2046
I5
tp2047
a(S'forefront'
p2048
I5
tp2049
a(S'fulfilled'
p2050
I5
tp2051
a(S'goodyear'
p2052
I5
tp2053
a(S'greatly'
p2054
I5
tp2055
a(S'hazardous'
p2056
I5
tp2057
a(S'hight'
p2058
I5
tp2059
a(S'hitting'
p2060
I5
tp2061
a(S'imitated'
p2062
I5
tp2063
a(S'including'
p2064
I5
tp2065
a(S'information'
p2066
I5
tp2067
a(S'intended'
p2068
I5
tp2069
a(S'involving'
p2070
I5
tp2071
a(S"isn't"
p2072
I5
tp2073
a(S'learn'
p2074
I5
tp2075
a(S'legally'
p2076
I5
tp2077
a(S'loading'
p2078
I5
tp2079
a(S'managed'
p2080
I5
tp2081
a(S'masts'
p2082
I5
tp2083
a(S'mean'
p2084
I5
tp2085
a(S'metal'
p2086
I5
tp2087
a(S'months'
p2088
I5
tp2089
a(S'mostly'
p2090
I5
tp2091
a(S'named'
p2092
I5
tp2093
a(S'necessary'
p2094
I5
tp2095
a(S'ocean'
p2096
I5
tp2097
a(S'okay'
p2098
I5
tp2099
a(S'ones'
p2100
I5
tp2101
a(S'ontop'
p2102
I5
tp2103
a(S'overcame'
p2104
I5
tp2105
a(S'page'
p2106
I5
tp2107
a(S'pay'
p2108
I5
tp2109
a(S"people's"
p2110
I5
tp2111
a(S'placing'
p2112
I5
tp2113
a(S'planes'
p2114
I5
tp2115
a(S'precautions'
p2116
I5
tp2117
a(S'president'
p2118
I5
tp2119
a(S'problems.the'
p2120
I5
tp2121
a(S'proper'
p2122
I5
tp2123
a(S'prove'
p2124
I5
tp2125
a(S'publicity'
p2126
I5
tp2127
a(S'pushing'
p2128
I5
tp2129
a(S'quietly'
p2130
I5
tp2131
a(S'raised'
p2132
I5
tp2133
a(S'rapidly'
p2134
I5
tp2135
a(S'revealed'
p2136
I5
tp2137
a(S'secure'
p2138
I5
tp2139
a(S'seem'
p2140
I5
tp2141
a(S'sense'
p2142
I5
tp2143
a(S'sentence'
p2144
I5
tp2145
a(S'seventy'
p2146
I5
tp2147
a(S"should've"
p2148
I5
tp2149
a(S'similar'
p2150
I5
tp2151
a(S'soda'
p2152
I5
tp2153
a(S'sound'
p2154
I5
tp2155
a(S'sounds'
p2156
I5
tp2157
a(S'spark'
p2158
I5
tp2159
a(S'special'
p2160
I5
tp2161
a(S'stability'
p2162
I5
tp2163
a(S'steal'
p2164
I5
tp2165
a(S'tea'
p2166
I5
tp2167
a(S'test'
p2168
I5
tp2169
a(S"that's"
p2170
I5
tp2171
a(S'there.there'
p2172
I5
tp2173
a(S'tough'
p2174
I5
tp2175
a(S'unique'
p2176
I5
tp2177
a(S'us'
p2178
I5
tp2179
a(S'useful'
p2180
I5
tp2181
a(S'ways'
p2182
I5
tp2183
a(S'worlds'
p2184
I5
tp2185
a(S'worried'
p2186
I5
tp2187
a(S'zepplins'
p2188
I5
tp2189
a(S'(blimps)'
p2190
I4
tp2191
a(S'(p'
p2192
I4
tp2193
a(S'(the'
p2194
I4
tp2195
a(S'1)'
p2196
I4
tp2197
a(S'101st'
p2198
I4
tp2199
a(S'6)'
p2200
I4
tp2201
a(S'ability'
p2202
I4
tp2203
a(S'additionally'
p2204
I4
tp2205
a(S'aloft'
p2206
I4
tp2207
a(S'anchored'
p2208
I4
tp2209
a(S'anyone'
p2210
I4
tp2211
a(S'anyway'
p2212
I4
tp2213
a(S'anyways'
p2214
I4
tp2215
a(S'anywhere'
p2216
I4
tp2217
a(S'approaching'
p2218
I4
tp2219
a(S'aside'
p2220
I4
tp2221
a(S'ballons'
p2222
I4
tp2223
a(S'below.the'
p2224
I4
tp2225
a(S'bottom'
p2226
I4
tp2227
a(S'bricks'
p2228
I4
tp2229
a(S"builders'"
p2230
I4
tp2231
a(S'burned'
p2232
I4
tp2233
a(S'care'
p2234
I4
tp2235
a(S'cargo'
p2236
I4
tp2237
a(S'case'
p2238
I4
tp2239
a(S'casualties'
p2240
I4
tp2241
a(S'chances'
p2242
I4
tp2243
a(S"city's"
p2244
I4
tp2245
a(S'city.in'
p2246
I4
tp2247
a(S'compared'
p2248
I4
tp2249
a(S'competing'
p2250
I4
tp2251
a(S'completing'
p2252
I4
tp2253
a(S'consisted'
p2254
I4
tp2255
a(S'consult'
p2256
I4
tp2257
a(S'creation'
p2258
I4
tp2259
a(S'cruise'
p2260
I4
tp2261
a(S'dangerouse'
p2262
I4
tp2263
a(S'decision'
p2264
I4
tp2265
a(S'defeat'
p2266
I4
tp2267
a(S'definitely'
p2268
I4
tp2269
a(S'density'
p2270
I4
tp2271
a(S'destiny'
p2272
I4
tp2273
a(S'development'
p2274
I4
tp2275
a(S'directions'
p2276
I4
tp2277
a(S'dirigbles'
p2278
I4
tp2279
a(S'dirigibles.in'
p2280
I4
tp2281
a(S'dirrigible'
p2282
I4
tp2283
a(S'discovered'
p2284
I4
tp2285
a(S'discussed'
p2286
I4
tp2287
a(S"dollar's"
p2288
I4
tp2289
a(S'dope'
p2290
I4
tp2291
a(S'earlier'
p2292
I4
tp2293
a(S'early'
p2294
I4
tp2295
a(S'else'
p2296
I4
tp2297
a(S'ends'
p2298
I4
tp2299
a(S'every'
p2300
I4
tp2301
a(S'everywhere'
p2302
I4
tp2303
a(S'except'
p2304
I4
tp2305
a(S'face.the'
p2306
I4
tp2307
a(S'faced.in'
p2308
I4
tp2309
a(S'failed.the'
p2310
I4
tp2311
a(S'fifty'
p2312
I4
tp2313
a(S'fit'
p2314
I4
tp2315
a(S'flameable'
p2316
I4
tp2317
a(S'following'
p2318
I4
tp2319
a(S'fountain'
p2320
I4
tp2321
a(S'fram'
p2322
I4
tp2323
a(S'frames'
p2324
I4
tp2325
a(S'fully'
p2326
I4
tp2327
a(S'garden'
p2328
I4
tp2329
a(S'general'
p2330
I4
tp2331
a(S'gets'
p2332
I4
tp2333
a(S'goes'
p2334
I4
tp2335
a(S'gone'
p2336
I4
tp2337
a(S'hand'
p2338
I4
tp2339
a(S'hang'
p2340
I4
tp2341
a(S'harmed'
p2342
I4
tp2343
a(S'head'
p2344
I4
tp2345
a(S'hellium'
p2346
I4
tp2347
a(S'helped'
p2348
I4
tp2349
a(S'hieght'
p2350
I4
tp2351
a(S'hindered'
p2352
I4
tp2353
a(S'hole'
p2354
I4
tp2355
a(S'ignited'
p2356
I4
tp2357
a(S'injuries'
p2358
I4
tp2359
a(S'innocent'
p2360
I4
tp2361
a(S'intense'
p2362
I4
tp2363
a(S'john'
p2364
I4
tp2365
a(S'knock'
p2366
I4
tp2367
a(S'knowing'
p2368
I4
tp2369
a(S'law.the'
p2370
I4
tp2371
a(S'leader'
p2372
I4
tp2373
a(S'left'
p2374
I4
tp2375
a(S'levers'
p2376
I4
tp2377
a(S'light'
p2378
I4
tp2379
a(S'likely'
p2380
I4
tp2381
a(S'lived'
p2382
I4
tp2383
a(S'losing'
p2384
I4
tp2385
a(S'lost'
p2386
I4
tp2387
a(S'low-flying'
p2388
I4
tp2389
a(S'lower'
p2390
I4
tp2391
a(S'luggage'
p2392
I4
tp2393
a(S'machinery'
p2394
I4
tp2395
a(S'maybe'
p2396
I4
tp2397
a(S'mentions'
p2398
I4
tp2399
a(S'met'
p2400
I4
tp2401
a(S'movement'
p2402
I4
tp2403
a(S"nature's"
p2404
I4
tp2405
a(S'nobody'
p2406
I4
tp2407
a(S'notice'
p2408
I4
tp2409
a(S'object'
p2410
I4
tp2411
a(S'obstacals'
p2412
I4
tp2413
a(S'obstacles.in'
p2414
I4
tp2415
a(S'obstical'
p2416
I4
tp2417
a(S'obsticale'
p2418
I4
tp2419
a(S'offered'
p2420
I4
tp2421
a(S'outcome'
p2422
I4
tp2423
a(S'outstrip'
p2424
I4
tp2425
a(S'pacific'
p2426
I4
tp2427
a(S'pedestrian'
p2428
I4
tp2429
a(S'perfect'
p2430
I4
tp2431
a(S'perhaps'
p2432
I4
tp2433
a(S'person'
p2434
I4
tp2435
a(S'placed'
p2436
I4
tp2437
a(S'plane'
p2438
I4
tp2439
a(S'popular'
p2440
I4
tp2441
a(S'pose'
p2442
I4
tp2443
a(S'power'
p2444
I4
tp2445
a(S'practicality'
p2446
I4
tp2447
a(S'pretty'
p2448
I4
tp2449
a(S'progress'
p2450
I4
tp2451
a(S'promblems'
p2452
I4
tp2453
a(S'public.there'
p2454
I4
tp2455
a(S'pull'
p2456
I4
tp2457
a(S'pulled'
p2458
I4
tp2459
a(S'pulling'
p2460
I4
tp2461
a(S'purposes'
p2462
I4
tp2463
a(S'real'
p2464
I4
tp2465
a(S'realistic'
p2466
I4
tp2467
a(S'restricted'
p2468
I4
tp2469
a(S'restricting'
p2470
I4
tp2471
a(S'risky'
p2472
I4
tp2473
a(S'ruin'
p2474
I4
tp2475
a(S'served'
p2476
I4
tp2477
a(S'shaft'
p2478
I4
tp2479
a(S'shelved'
p2480
I4
tp2481
a(S'show'
p2482
I4
tp2483
a(S'six'
p2484
I4
tp2485
a(S'smart'
p2486
I4
tp2487
a(S'sounded'
p2488
I4
tp2489
a(S'spot'
p2490
I4
tp2491
a(S'stabilize'
p2492
I4
tp2493
a(S'stairs'
p2494
I4
tp2495
a(S'stake'
p2496
I4
tp2497
a(S'standing'
p2498
I4
tp2499
a(S'steel-framed'
p2500
I4
tp2501
a(S'structurally'
p2502
I4
tp2503
a(S'struggled'
p2504
I4
tp2505
a(S'successful.the'
p2506
I4
tp2507
a(S'system'
p2508
I4
tp2509
a(S'tear'
p2510
I4
tp2511
a(S'teathered'
p2512
I4
tp2513
a(S'tell'
p2514
I4
tp2515
a(S'tells'
p2516
I4
tp2517
a(S'tension'
p2518
I4
tp2519
a(S'tested'
p2520
I4
tp2521
a(S'testing'
p2522
I4
tp2523
a(S'thats'
p2524
I4
tp2525
a(S'there.one'
p2526
I4
tp2527
a(S"they're"
p2528
I4
tp2529
a(S'together'
p2530
I4
tp2531
a(S'transatlantic'
p2532
I4
tp2533
a(S'transmit'
p2534
I4
tp2535
a(S'troubles'
p2536
I4
tp2537
a(S'truly'
p2538
I4
tp2539
a(S'used.in'
p2540
I4
tp2541
a(S'utilitarian'
p2542
I4
tp2543
a(S'vision'
p2544
I4
tp2545
a(S'walk'
p2546
I4
tp2547
a(S"we're"
p2548
I4
tp2549
a(S'weighing'
p2550
I4
tp2551
a(S'work.the'
p2552
I4
tp2553
a(S"york's"
p2554
I4
tp2555
a(S"'the"
p2556
I3
tp2557
a(S'(@num1'
p2558
I3
tp2559
a(S'(@organization2'
p2560
I3
tp2561
a(S'(l\xfcsted)'
p2562
I3
tp2563
a(S'(pg'
p2564
I3
tp2565
a(S'+'
I3
tp2566
a(S'-'
I3
tp2567
a(S'1,046'
p2568
I3
tp2569
a(S'102nd'
p2570
I3
tp2571
a(S'46'
p2572
I3
tp2573
a(S'[the'
p2574
I3
tp2575
a(S'accommodating'
p2576
I3
tp2577
a(S'accomodate'
p2578
I3
tp2579
a(S'achieve'
p2580
I3
tp2581
a(S'achieved'
p2582
I3
tp2583
a(S'address'
p2584
I3
tp2585
a(S'aganist'
p2586
I3
tp2587
a(S'anchoring'
p2588
I3
tp2589
a(S'aparent'
p2590
I3
tp2591
a(S'apart'
p2592
I3
tp2593
a(S'architechs'
p2594
I3
tp2595
a(S'architecture'
p2596
I3
tp2597
a(S'associated'
p2598
I3
tp2599
a(S'attention'
p2600
I3
tp2601
a(S'b/c'
p2602
I3
tp2603
a(S'backs'
p2604
I3
tp2605
a(S'banned'
p2606
I3
tp2607
a(S'banning'
p2608
I3
tp2609
a(S'beams'
p2610
I3
tp2611
a(S'becuse'
p2612
I3
tp2613
a(S'behind'
p2614
I3
tp2615
a(S'believed'
p2616
I3
tp2617
a(S'blimbs'
p2618
I3
tp2619
a(S'broken'
p2620
I3
tp2621
a(S'building.from'
p2622
I3
tp2623
a(S'building.many'
p2624
I3
tp2625
a(S'building.some'
p2626
I3
tp2627
a(S'burst'
p2628
I3
tp2629
a(S'busy'
p2630
I3
tp2631
a(S'carefully'
p2632
I3
tp2633
a(S'carried'
p2634
I3
tp2635
a(S'carry'
p2636
I3
tp2637
a(S'catches'
p2638
I3
tp2639
a(S'center'
p2640
I3
tp2641
a(S'certainly'
p2642
I3
tp2643
a(S'charge'
p2644
I3
tp2645
a(S'chemicals'
p2646
I3
tp2647
a(S'city.the'
p2648
I3
tp2649
a(S'climate'
p2650
I3
tp2651
a(S'combusted'
p2652
I3
tp2653
a(S'combustion'
p2654
I3
tp2655
a(S'comes'
p2656
I3
tp2657
a(S'commented'
p2658
I3
tp2659
a(S'compete'
p2660
I3
tp2661
a(S'concept'
p2662
I3
tp2663
a(S'conflict'
p2664
I3
tp2665
a(S'connect'
p2666
I3
tp2667
a(S'connected'
p2668
I3
tp2669
a(S'consequently'
p2670
I3
tp2671
a(S'continued'
p2672
I3
tp2673
a(S'correctly'
p2674
I3
tp2675
a(S'creates'
p2676
I3
tp2677
a(S'cut'
p2678
I3
tp2679
a(S'dealing'
p2680
I3
tp2681
a(S'dealt'
p2682
I3
tp2683
a(S'densley'
p2684
I3
tp2685
a(S'derigible'
p2686
I3
tp2687
a(S'desired'
p2688
I3
tp2689
a(S'destroying'
p2690
I3
tp2691
a(S'determination'
p2692
I3
tp2693
a(S"did'nt"
p2694
I3
tp2695
a(S"dirigibles'"
p2696
I3
tp2697
a(S'disappeared.the'
p2698
I3
tp2699
a(S'discusses'
p2700
I3
tp2701
a(S'dome'
p2702
I3
tp2703
a(S'down.the'
p2704
I3
tp2705
a(S'dropping'
p2706
I3
tp2707
a(S'durable'
p2708
I3
tp2709
a(S'effects'
p2710
I3
tp2711
a(S'electrical'
p2712
I3
tp2713
a(S'element'
p2714
I3
tp2715
a(S'ending'
p2716
I3
tp2717
a(S'endured'
p2718
I3
tp2719
a(S'ensure'
p2720
I3
tp2721
a(S'enter'
p2722
I3
tp2723
a(S'event'
p2724
I3
tp2725
a(S'events'
p2726
I3
tp2727
a(S'exact'
p2728
I3
tp2729
a(S'exist'
p2730
I3
tp2731
a(S'expectations'
p2732
I3
tp2733
a(S'experienced'
p2734
I3
tp2735
a(S'extending'
p2736
I3
tp2737
a(S'extremly'
p2738
I3
tp2739
a(S'face.in'
p2740
I3
tp2741
a(S'faces'
p2742
I3
tp2743
a(S'familiar'
p2744
I3
tp2745
a(S'fastened'
p2746
I3
tp2747
a(S'felt'
p2748
I3
tp2749
a(S'finish'
p2750
I3
tp2751
a(S'flag'
p2752
I3
tp2753
a(S'flaming'
p2754
I3
tp2755
a(S'flaw'
p2756
I3
tp2757
a(S'flaws'
p2758
I3
tp2759
a(S'forbidding'
p2760
I3
tp2761
a(S'fore'
p2762
I3
tp2763
a(S'foriegn'
p2764
I3
tp2765
a(S'forign'
p2766
I3
tp2767
a(S'formed'
p2768
I3
tp2769
a(S'four-term'
p2770
I3
tp2771
a(S'free'
p2772
I3
tp2773
a(S'freely'
p2774
I3
tp2775
a(S'frequently'
p2776
I3
tp2777
a(S'fufill'
p2778
I3
tp2779
a(S'ful'
p2780
I3
tp2781
a(S'fulfilling'
p2782
I3
tp2783
a(S'futuristic'
p2784
I3
tp2785
a(S'gang'
p2786
I3
tp2787
a(S'gusts'
p2788
I3
tp2789
a(S'happen.the'
p2790
I3
tp2791
a(S'hardship'
p2792
I3
tp2793
a(S'harmful'
p2794
I3
tp2795
a(S'headed'
p2796
I3
tp2797
a(S'heard'
p2798
I3
tp2799
a(S'housed'
p2800
I3
tp2801
a(S'hype'
p2802
I3
tp2803
a(S'idea.the'
p2804
I3
tp2805
a(S'ideal'
p2806
I3
tp2807
a(S'illegal.the'
p2808
I3
tp2809
a(S'importantly'
p2810
I3
tp2811
a(S'impracticality'
p2812
I3
tp2813
a(S'include'
p2814
I3
tp2815
a(S'indeed'
p2816
I3
tp2817
a(S'injured'
p2818
I3
tp2819
a(S'instance'
p2820
I3
tp2821
a(S'interfered'
p2822
I3
tp2823
a(S'invention'
p2824
I3
tp2825
a(S'kidding'
p2826
I3
tp2827
a(S'landmark'
p2828
I3
tp2829
a(S'larger'
p2830
I3
tp2831
a(S'lay'
p2832
I3
tp2833
a(S'leading'
p2834
I3
tp2835
a(S'leaving'
p2836
I3
tp2837
a(S'lifes'
p2838
I3
tp2839
a(S'lightweight'
p2840
I3
tp2841
a(S'longer'
p2842
I3
tp2843
a(S'looking'
p2844
I3
tp2845
a(S'loose'
p2846
I3
tp2847
a(S'lose'
p2848
I3
tp2849
a(S'maneuver'
p2850
I3
tp2851
a(S'mast)'
p2852
I3
tp2853
a(S'mast.there'
p2854
I3
tp2855
a(S'mastthe'
p2856
I3
tp2857
a(S'matter'
p2858
I3
tp2859
a(S'matters'
p2860
I3
tp2861
a(S'milles'
p2862
I3
tp2863
a(S'minds'
p2864
I3
tp2865
a(S'moore'
p2866
I3
tp2867
a(S'mount'
p2868
I3
tp2869
a(S'nature;'
p2870
I3
tp2871
a(S'needing'
p2872
I3
tp2873
a(S'needs'
p2874
I3
tp2875
a(S'negative'
p2876
I3
tp2877
a(S'newspaper'
p2878
I3
tp2879
a(S'nice'
p2880
I3
tp2881
a(S'non-american'
p2882
I3
tp2883
a(S'num4'
p2884
I3
tp2885
a(S'objects'
p2886
I3
tp2887
a(S'obsacle'
p2888
I3
tp2889
a(S'obtacle'
p2890
I3
tp2891
a(S'occurring'
p2892
I3
tp2893
a(S'opened'
p2894
I3
tp2895
a(S'operation'
p2896
I3
tp2897
a(S'opinion'
p2898
I3
tp2899
a(S'opposed'
p2900
I3
tp2901
a(S"organization2's"
p2902
I3
tp2903
a(S'ornamental'
p2904
I3
tp2905
a(S'ornamentation'
p2906
I3
tp2907
a(S'otherwise'
p2908
I3
tp2909
a(S'ove'
p2910
I3
tp2911
a(S'papers'
p2912
I3
tp2913
a(S'passangers'
p2914
I3
tp2915
a(S'passenger'
p2916
I3
tp2917
a(S'passing'
p2918
I3
tp2919
a(S'peak'
p2920
I3
tp2921
a(S'people.the'
p2922
I3
tp2923
a(S'peoples'
p2924
I3
tp2925
a(S'performed'
p2926
I3
tp2927
a(S'piece'
p2928
I3
tp2929
a(S'pilot'
p2930
I3
tp2931
a(S'planners'
p2932
I3
tp2933
a(S'plenty'
p2934
I3
tp2935
a(S'points'
p2936
I3
tp2937
a(S'popped'
p2938
I3
tp2939
a(S'poses'
p2940
I3
tp2941
a(S'posing'
p2942
I3
tp2943
a(S'positive'
p2944
I3
tp2945
a(S'powerful'
p2946
I3
tp2947
a(S'predicted'
p2948
I3
tp2949
a(S'problematic'
p2950
I3
tp2951
a(S'problems.in'
p2952
I3
tp2953
a(S'procedure'
p2954
I3
tp2955
a(S'proceed'
p2956
I3
tp2957
a(S'propellers'
p2958
I3
tp2959
a(S'property'
p2960
I3
tp2961
a(S'provide'
p2962
I3
tp2963
a(S'proximity'
p2964
I3
tp2965
a(S'purpose.the'
p2966
I3
tp2967
a(S'read'
p2968
I3
tp2969
a(S'reads'
p2970
I3
tp2971
a(S'reconstruct'
p2972
I3
tp2973
a(S'refule'
p2974
I3
tp2975
a(S'regarding'
p2976
I3
tp2977
a(S'regards'
p2978
I3
tp2979
a(S'regular'
p2980
I3
tp2981
a(S'replaced'
p2982
I3
tp2983
a(S'require'
p2984
I3
tp2985
a(S'revolutionary'
p2986
I3
tp2987
a(S'rise'
p2988
I3
tp2989
a(S'rocket'
p2990
I3
tp2991
a(S'rocket-shaped'
p2992
I3
tp2993
a(S'rooms'
p2994
I3
tp2995
a(S'rough'
p2996
I3
tp2997
a(S'ruled'
p2998
I3
tp2999
a(S'runs'
p3000
I3
tp3001
a(S'services'
p3002
I3
tp3003
a(S'shaped'
p3004
I3
tp3005
a(S'shifts'
p3006
I3
tp3007
a(S'simple'
p3008
I3
tp3009
a(S'sit'
p3010
I3
tp3011
a(S'sky'
p3012
I3
tp3013
a(S'skyscraper'
p3014
I3
tp3015
a(S'somehow'
p3016
I3
tp3017
a(S'someone'
p3018
I3
tp3019
a(S'spending'
p3020
I3
tp3021
a(S'start.the'
p3022
I3
tp3023
a(S'starting'
p3024
I3
tp3025
a(S'staying'
p3026
I3
tp3027
a(S'steps'
p3028
I3
tp3029
a(S'strain'
p3030
I3
tp3031
a(S'struggle'
p3032
I3
tp3033
a(S'substance'
p3034
I3
tp3035
a(S'succeed'
p3036
I3
tp3037
a(S'succesfully'
p3038
I3
tp3039
a(S'suit'
p3040
I3
tp3041
a(S'surpass'
p3042
I3
tp3043
a(S'swivle'
p3044
I3
tp3045
a(S'talk'
p3046
I3
tp3047
a(S'tauranac'
p3048
I3
tp3049
a(S'teather'
p3050
I3
tp3051
a(S'tethering'
p3052
I3
tp3053
a(S'text'
p3054
I3
tp3055
a(S'there.it'
p3056
I3
tp3057
a(S"they'd"
p3058
I3
tp3059
a(S'thirteen'
p3060
I3
tp3061
a(S'through.the'
p3062
I3
tp3063
a(S'tip'
p3064
I3
tp3065
a(S'told'
p3066
I3
tp3067
a(S'tops'
p3068
I3
tp3069
a(S'tourists'
p3070
I3
tp3071
a(S'tragic'
p3072
I3
tp3073
a(S'tremendous'
p3074
I3
tp3075
a(S'truth'
p3076
I3
tp3077
a(S'turned'
p3078
I3
tp3079
a(S'turning'
p3080
I3
tp3081
a(S'turns'
p3082
I3
tp3083
a(S'u'
I3
tp3084
a(S'unless'
p3085
I3
tp3086
a(S'unload'
p3087
I3
tp3088
a(S'unloading'
p3089
I3
tp3090
a(S'unpractical'
p3091
I3
tp3092
a(S'untill'
p3093
I3
tp3094
a(S'used.the'
p3095
I3
tp3096
a(S'vessel'
p3097
I3
tp3098
a(S'violation'
p3099
I3
tp3100
a(S'wasnt'
p3101
I3
tp3102
a(S'waste'
p3103
I3
tp3104
a(S"wern't"
p3105
I3
tp3106
a(S'wide'
p3107
I3
tp3108
a(S'wild'
p3109
I3
tp3110
a(S'winches'
p3111
I3
tp3112
a(S'windows'
p3113
I3
tp3114
a(S'wire'
p3115
I3
tp3116
a(S'wonderful'
p3117
I3
tp3118
a(S'words'
p3119
I3
tp3120
a(S'writes'
p3121
I3
tp3122
a(S'years'
p3123
I3
tp3124
a(S'york."the'
p3125
I3
tp3126
a(S'york.based'
p3127
I3
tp3128
a(S'york.the'
p3129
I3
tp3130
a(S'zone'
p3131
I3
tp3132
a(S'(6)'
p3133
I2
tp3134
a(S'(a'
p3135
I2
tp3136
a(S'(if'
p3137
I2
tp3138
a(S'(which'
p3139
I2
tp3140
a(S'185-foot'
p3141
I2
tp3142
a(S'1931'
p3143
I2
tp3144
a(S'250'
p3145
I2
tp3146
a(S'[be]'
p3147
I2
tp3148
a(S'[they]'
p3149
I2
tp3150
a(S'[which]'
p3151
I2
tp3152
a(S'accomadate'
p3153
I2
tp3154
a(S'accomidate'
p3155
I2
tp3156
a(S'accommidate'
p3157
I2
tp3158
a(S'action'
p3159
I2
tp3160
a(S'addressed'
p3161
I2
tp3162
a(S'adjusted'
p3163
I2
tp3164
a(S'advancing'
p3165
I2
tp3166
a(S'aforementioned'
p3167
I2
tp3168
a(S'ahead'
p3169
I2
tp3170
a(S'airplanes.in'
p3171
I2
tp3172
a(S'allowance'
p3173
I2
tp3174
a(S'allows'
p3175
I2
tp3176
a(S'alter'
p3177
I2
tp3178
a(S'altered'
p3179
I2
tp3180
a(S'altering'
p3181
I2
tp3182
a(S'aluminum'
p3183
I2
tp3184
a(S'ambitious'
p3185
I2
tp3186
a(S'among'
p3187
I2
tp3188
a(S'archetes'
p3189
I2
tp3190
a(S'architecs'
p3191
I2
tp3192
a(S'area.in'
p3193
I2
tp3194
a(S'areas.in'
p3195
I2
tp3196
a(S'areasthe'
p3197
I2
tp3198
a(S"aren't"
p3199
I2
tp3200
a(S'arising'
p3201
I2
tp3202
a(S'arm'
p3203
I2
tp3204
a(S'arond'
p3205
I2
tp3206
a(S'arrangements'
p3207
I2
tp3208
a(S'asked'
p3209
I2
tp3210
a(S'atempting'
p3211
I2
tp3212
a(S'attatched'
p3213
I2
tp3214
a(S'attemting'
p3215
I2
tp3216
a(S'aware'
p3217
I2
tp3218
a(S'ballon'
p3219
I2
tp3220
a(S'baloon'
p3221
I2
tp3222
a(S'basicly'
p3223
I2
tp3224
a(S'bat'
p3225
I2
tp3226
a(S'beat'
p3227
I2
tp3228
a(S'beautiful'
p3229
I2
tp3230
a(S'believe'
p3231
I2
tp3232
a(S'bend'
p3233
I2
tp3234
a(S'besides'
p3235
I2
tp3236
a(S'bilding'
p3237
I2
tp3238
a(S'blinded'
p3239
I2
tp3240
a(S'blindly'
p3241
I2
tp3242
a(S'blows'
p3243
I2
tp3244
a(S'bright'
p3245
I2
tp3246
a(S'bringing'
p3247
I2
tp3248
a(S'broke'
p3249
I2
tp3250
a(S'buiders'
p3251
I2
tp3252
a(S'building.a'
p3253
I2
tp3254
a(S'building.although'
p3255
I2
tp3256
a(S'building.during'
p3257
I2
tp3258
a(S'building.on'
p3259
I2
tp3260
a(S'building.one'
p3261
I2
tp3262
a(S'building.through'
p3263
I2
tp3264
a(S'building.when'
p3265
I2
tp3266
a(S'building]'
p3267
I2
tp3268
a(S'buildingbased'
p3269
I2
tp3270
a(S"buildings'"
p3271
I2
tp3272
a(S'buildings.the'
p3273
I2
tp3274
a(S'buildingthe'
p3275
I2
tp3276
a(S'built.the'
p3277
I2
tp3278
a(S'bunch'
p3279
I2
tp3280
a(S'burning'
p3281
I2
tp3282
a(S'bursting'
p3283
I2
tp3284
a(S'business'
p3285
I2
tp3286
a(S'buy'
p3287
I2
tp3288
a(S'bystanders'
p3289
I2
tp3290
a(S'cant'
p3291
I2
tp3292
a(S'caps1-@caps2'
p3293
I2
tp3294
a(S'caps1.s.b'
p3295
I2
tp3296
a(S'cases'
p3297
I2
tp3298
a(S'causeing'
p3299
I2
tp3300
a(S'chaotic'
p3301
I2
tp3302
a(S'cheap'
p3303
I2
tp3304
a(S'check'
p3305
I2
tp3306
a(S'checked'
p3307
I2
tp3308
a(S'chemical'
p3309
I2
tp3310
a(S'choice'
p3311
I2
tp3312
a(S'choose'
p3313
I2
tp3314
a(S'chrome'
p3315
I2
tp3316
a(S'circle'
p3317
I2
tp3318
a(S'cities.the'
p3319
I2
tp3320
a(S'city.based'
p3321
I2
tp3322
a(S'clad'
p3323
I2
tp3324
a(S'clanging'
p3325
I2
tp3326
a(S'climite'
p3327
I2
tp3328
a(S'coffin'
p3329
I2
tp3330
a(S'combination'
p3331
I2
tp3332
a(S'come.the'
p3333
I2
tp3334
a(S'common'
p3335
I2
tp3336
a(S'completed.the'
p3337
I2
tp3338
a(S'completion'
p3339
I2
tp3340
a(S'complication'
p3341
I2
tp3342
a(S'conceived'
p3343
I2
tp3344
a(S'concluded'
p3345
I2
tp3346
a(S'consist'
p3347
I2
tp3348
a(S'constructers'
p3349
I2
tp3350
a(S'constructor'
p3351
I2
tp3352
a(S'consulting'
p3353
I2
tp3354
a(S'contain'
p3355
I2
tp3356
a(S'contractors'
p3357
I2
tp3358
a(S'controls'
p3359
I2
tp3360
a(S'converted'
p3361
I2
tp3362
a(S'correct'
p3363
I2
tp3364
a(S'costs'
p3365
I2
tp3366
a(S"countrie's"
p3367
I2
tp3368
a(S'crazy'
p3369
I2
tp3370
a(S'creative'
p3371
I2
tp3372
a(S'creators'
p3373
I2
tp3374
a(S'crew'
p3375
I2
tp3376
a(S'critical'
p3377
I2
tp3378
a(S"currents.'"
p3379
I2
tp3380
a(S'dang'
p3381
I2
tp3382
a(S'dangerous.the'
p3383
I2
tp3384
a(S'dangled'
p3385
I2
tp3386
a(S'date2'
p3387
I2
tp3388
a(S'deadly'
p3389
I2
tp3390
a(S'death'
p3391
I2
tp3392
a(S'deaths'
p3393
I2
tp3394
a(S'decides'
p3395
I2
tp3396
a(S'defeated'
p3397
I2
tp3398
a(S'delivered'
p3399
I2
tp3400
a(S'detail'
p3401
I2
tp3402
a(S'detrimental'
p3403
I2
tp3404
a(S'develop'
p3405
I2
tp3406
a(S'developing'
p3407
I2
tp3408
a(S'died'
p3409
I2
tp3410
a(S'differences'
p3411
I2
tp3412
a(S'directly'
p3413
I2
tp3414
a(S'dirigibe'
p3415
I2
tp3416
a(S"dirigibe's"
p3417
I2
tp3418
a(S"dirigibles's"
p3419
I2
tp3420
a(S'dirigibles)'
p3421
I2
tp3422
a(S'dirigibles;'
p3423
I2
tp3424
a(S'disasterous'
p3425
I2
tp3426
a(S'discovery'
p3427
I2
tp3428
a(S'disregarded'
p3429
I2
tp3430
a(S'dissappeared'
p3431
I2
tp3432
a(S'distributed'
p3433
I2
tp3434
a(S'do.the'
p3435
I2
tp3436
a(S'dock.in'
p3437
I2
tp3438
a(S'docs'
p3439
I2
tp3440
a(S'dont'
p3441
I2
tp3442
a(S'double'
p3443
I2
tp3444
a(S'doubt'
p3445
I2
tp3446
a(S'dow'
p3447
I2
tp3448
a(S'downfall'
p3449
I2
tp3450
a(S'downright'
p3451
I2
tp3452
a(S'drastic'
p3453
I2
tp3454
a(S'dream.there'
p3455
I2
tp3456
a(S'dreams'
p3457
I2
tp3458
a(S'drogen'
p3459
I2
tp3460
a(S'durring'
p3461
I2
tp3462
a(S'effectively'
p3463
I2
tp3464
a(S'egineers'
p3465
I2
tp3466
a(S'eighty-sixth'
p3467
I2
tp3468
a(S'elements'
p3469
I2
tp3470
a(S'eliminated'
p3471
I2
tp3472
a(S'encounter'
p3473
I2
tp3474
a(S'encouraged'
p3475
I2
tp3476
a(S'endangered'
p3477
I2
tp3478
a(S'endure'
p3479
I2
tp3480
a(S'enuff'
p3481
I2
tp3482
a(S'environment'
p3483
I2
tp3484
a(S'envisioned'
p3485
I2
tp3486
a(S'excited'
p3487
I2
tp3488
a(S'existed'
p3489
I2
tp3490
a(S'expert'
p3491
I2
tp3492
a(S'faced.there'
p3493
I2
tp3494
a(S'faded'
p3495
I2
tp3496
a(S'faster'
p3497
I2
tp3498
a(S'feasible'
p3499
I2
tp3500
a(S'feat'
p3501
I2
tp3502
a(S'federal'
p3503
I2
tp3504
a(S'feel'
p3505
I2
tp3506
a(S'fill'
p3507
I2
tp3508
a(S'finished.the'
p3509
I2
tp3510
a(S'flamable.in'
p3511
I2
tp3512
a(S'flame'
p3513
I2
tp3514
a(S'flamibility'
p3515
I2
tp3516
a(S'flammable.al'
p3517
I2
tp3518
a(S'flammable.the'
p3519
I2
tp3520
a(S'flew'
p3521
I2
tp3522
a(S'follow'
p3523
I2
tp3524
a(S'followed'
p3525
I2
tp3526
a(S'foolish'
p3527
I2
tp3528
a(S'forbade'
p3529
I2
tp3530
a(S'former'
p3531
I2
tp3532
a(S'forward'
p3533
I2
tp3534
a(S'frame.the'
p3535
I2
tp3536
a(S'frameworks'
p3537
I2
tp3538
a(S'ft)'
p3539
I2
tp3540
a(S'fufilled'
p3541
I2
tp3542
a(S'function'
p3543
I2
tp3544
a(S'funds'
p3545
I2
tp3546
a(S'futile'
p3547
I2
tp3548
a(S'gaining'
p3549
I2
tp3550
a(S'gears'
p3551
I2
tp3552
a(S'gives'
p3553
I2
tp3554
a(S'glassed-in'
p3555
I2
tp3556
a(S'goals'
p3557
I2
tp3558
a(S'gotten'
p3559
I2
tp3560
a(S'grave'
p3561
I2
tp3562
a(S'growing'
p3563
I2
tp3564
a(S'haded'
p3565
I2
tp3566
a(S"hadn't"
p3567
I2
tp3568
a(S'half'
p3569
I2
tp3570
a(S'halted'
p3571
I2
tp3572
a(S'happend'
p3573
I2
tp3574
a(S'happened.the'
p3575
I2
tp3576
a(S'hardly'
p3577
I2
tp3578
a(S'harming'
p3579
I2
tp3580
a(S'hazzard'
p3581
I2
tp3582
a(S'heart'
p3583
I2
tp3584
a(S'heat'
p3585
I2
tp3586
a(S'history'
p3587
I2
tp3588
a(S'hoisted'
p3589
I2
tp3590
a(S'holds'
p3591
I2
tp3592
a(S'holes'
p3593
I2
tp3594
a(S'horrible'
p3595
I2
tp3596
a(S'horrific'
p3597
I2
tp3598
a(S'hot'
p3599
I2
tp3600
a(S'hovering'
p3601
I2
tp3602
a(S'hub'
p3603
I2
tp3604
a(S'hull'
p3605
I2
tp3606
a(S'human'
p3607
I2
tp3608
a(S'humans'
p3609
I2
tp3610
a(S'ignored'
p3611
I2
tp3612
a(S'illegal.based'
p3613
I2
tp3614
a(S'imagine'
p3615
I2
tp3616
a(S'imagined'
p3617
I2
tp3618
a(S'immense'
p3619
I2
tp3620
a(S'imminent'
p3621
I2
tp3622
a(S'impact'
p3623
I2
tp3624
a(S'implying'
p3625
I2
tp3626
a(S'imposible'
p3627
I2
tp3628
a(S'impractical.the'
p3629
I2
tp3630
a(S'impracticle'
p3631
I2
tp3632
a(S'improve'
p3633
I2
tp3634
a(S'improvements'
p3635
I2
tp3636
a(S'incorporate'
p3637
I2
tp3638
a(S'increase'
p3639
I2
tp3640
a(S'incredible'
p3641
I2
tp3642
a(S'inflated'
p3643
I2
tp3644
a(S'initial'
p3645
I2
tp3646
a(S'innovative'
p3647
I2
tp3648
a(S'intentionally'
p3649
I2
tp3650
a(S'intentions'
p3651
I2
tp3652
a(S'introduced'
p3653
I2
tp3654
a(S'invented'
p3655
I2
tp3656
a(S'irrational'
p3657
I2
tp3658
a(S'irving'
p3659
I2
tp3660
a(S'isshues'
p3661
I2
tp3662
a(S'issue;'
p3663
I2
tp3664
a(S'jersey.the'
p3665
I2
tp3666
a(S'jumped'
p3667
I2
tp3668
a(S'key'
p3669
I2
tp3670
a(S'landings'
p3671
I2
tp3672
a(S'leads'
p3673
I2
tp3674
a(S'leave'
p3675
I2
tp3676
a(S'legislation'
p3677
I2
tp3678
a(S'lied'
p3679
I2
tp3680
a(S'lined'
p3681
I2
tp3682
a(S'lines'
p3683
I2
tp3684
a(S'lit'
p3685
I2
tp3686
a(S'live'
p3687
I2
tp3688
a(S'low.in'
p3689
I2
tp3690
a(S'maintain'
p3691
I2
tp3692
a(S'makeing'
p3693
I2
tp3694
a(S"mast.'"
p3695
I2
tp3696
a(S'mast.another'
p3697
I2
tp3698
a(S'mast.based'
p3699
I2
tp3700
a(S'media'
p3701
I2
tp3702
a(S'meet'
p3703
I2
tp3704
a(S'meeting'
p3705
I2
tp3706
a(S'ment'
p3707
I2
tp3708
a(S'minor'
p3709
I2
tp3710
a(S'mishap'
p3711
I2
tp3712
a(S'moderate'
p3713
I2
tp3714
a(S'modifing'
p3715
I2
tp3716
a(S'moorning'
p3717
I2
tp3718
a(S'moreover'
p3719
I2
tp3720
a(S'motion'
p3721
I2
tp3722
a(S'mounted'
p3723
I2
tp3724
a(S'moved'
p3725
I2
tp3726
a(S'movements'
p3727
I2
tp3728
a(S'moves'
p3729
I2
tp3730
a(S'myriad'
p3731
I2
tp3732
a(S'nail'
p3733
I2
tp3734
a(S'narrator'
p3735
I2
tp3736
a(S'needle'
p3737
I2
tp3738
a(S'neighboring'
p3739
I2
tp3740
a(S'newly'
p3741
I2
tp3742
a(S'news'
p3743
I2
tp3744
a(S'niether'
p3745
I2
tp3746
a(S'non-@caps1'
p3747
I2
tp3748
a(S'none'
p3749
I2
tp3750
a(S'notes'
p3751
I2
tp3752
a(S'nowhere'
p3753
I2
tp3754
a(S'num4)'
p3755
I2
tp3756
a(S'ob'
p3757
I2
tp3758
a(S'obsacles'
p3759
I2
tp3760
a(S'obstacal'
p3761
I2
tp3762
a(S'obstacles.there'
p3763
I2
tp3764
a(S'obstecles'
p3765
I2
tp3766
a(S'obsticales'
p3767
I2
tp3768
a(S'obviously'
p3769
I2
tp3770
a(S'office'
p3771
I2
tp3772
a(S'one-thousand'
p3773
I2
tp3774
a(S'ornament'
p3775
I2
tp3776
a(S'ornate'
p3777
I2
tp3778
a(S'others'
p3779
I2
tp3780
a(S'oxygen'
p3781
I2
tp3782
a(S'padestrans'
p3783
I2
tp3784
a(S'paragraphs'
p3785
I2
tp3786
a(S'parts'
p3787
I2
tp3788
a(S'pass'
p3789
I2
tp3790
a(S'peice'
p3791
I2
tp3792
a(S'people.in'
p3793
I2
tp3794
a(S'period'
p3795
I2
tp3796
a(S'permitting'
p3797
I2
tp3798
a(S"person1's"
p3799
I2
tp3800
a(S'physically'
p3801
I2
tp3802
a(S'pilots'
p3803
I2
tp3804
a(S'plank'
p3805
I2
tp3806
a(S'plausible'
p3807
I2
tp3808
a(S'plummeting'
p3809
I2
tp3810
a(S'pointy'
p3811
I2
tp3812
a(S'poorly'
p3813
I2
tp3814
a(S'port'
p3815
I2
tp3816
a(S'possibilities'
p3817
I2
tp3818
a(S'post'
p3819
I2
tp3820
a(S'pound'
p3821
I2
tp3822
a(S'powered'
p3823
I2
tp3824
a(S'practicle'
p3825
I2
tp3826
a(S'precaution'
p3827
I2
tp3828
a(S'predict'
p3829
I2
tp3830
a(S'prexisting'
p3831
I2
tp3832
a(S'price'
p3833
I2
tp3834
a(S'prime'
p3835
I2
tp3836
a(S'proble'
p3837
I2
tp3838
a(S'problem.another'
p3839
I2
tp3840
a(S'proceeded'
p3841
I2
tp3842
a(S'prohibit'
p3843
I2
tp3844
a(S'prohibits'
p3845
I2
tp3846
a(S'project.the'
p3847
I2
tp3848
a(S'proposed'
p3849
I2
tp3850
a(S'proving'
p3851
I2
tp3852
a(S'publics'
p3853
I2
tp3854
a(S'purely'
p3855
I2
tp3856
a(S'purpose.based'
p3857
I2
tp3858
a(S'purpose.in'
p3859
I2
tp3860
a(S'pushed'
p3861
I2
tp3862
a(S'puzzle'
p3863
I2
tp3864
a(S'pyramid'
p3865
I2
tp3866
a(S'quest'
p3867
I2
tp3868
a(S'questioned'
p3869
I2
tp3870
a(S'quick'
p3871
I2
tp3872
a(S'rate'
p3873
I2
tp3874
a(S'reaching'
p3875
I2
tp3876
a(S'reader'
p3877
I2
tp3878
a(S'reality.the'
p3879
I2
tp3880
a(S'realization'
p3881
I2
tp3882
a(S'reasoning'
p3883
I2
tp3884
a(S'recently'
p3885
I2
tp3886
a(S'recognize'
p3887
I2
tp3888
a(S'reconstruction'
p3889
I2
tp3890
a(S'rectify'
p3891
I2
tp3892
a(S'redo'
p3893
I2
tp3894
a(S'reframed'
p3895
I2
tp3896
a(S'regardless'
p3897
I2
tp3898
a(S'reinforced'
p3899
I2
tp3900
a(S'related'
p3901
I2
tp3902
a(S'remain'
p3903
I2
tp3904
a(S'remained'
p3905
I2
tp3906
a(S'remembered'
p3907
I2
tp3908
a(S'remodel'
p3909
I2
tp3910
a(S'reported'
p3911
I2
tp3912
a(S'research'
p3913
I2
tp3914
a(S'resolved'
p3915
I2
tp3916
a(S'restrictions'
p3917
I2
tp3918
a(S'resulted'
p3919
I2
tp3920
a(S'resulting'
p3921
I2
tp3922
a(S'ride'
p3923
I2
tp3924
a(S'rigorous'
p3925
I2
tp3926
a(S'rip'
p3927
I2
tp3928
a(S'ripping'
p3929
I2
tp3930
a(S'risking'
p3931
I2
tp3932
a(S'rooftop'
p3933
I2
tp3934
a(S'ropes'
p3935
I2
tp3936
a(S'running'
p3937
I2
tp3938
a(S'rushed'
p3939
I2
tp3940
a(S'safe.there'
p3941
I2
tp3942
a(S'safer'
p3943
I2
tp3944
a(S'safest'
p3945
I2
tp3946
a(S'safetly'
p3947
I2
tp3948
a(S'section'
p3949
I2
tp3950
a(S'secured'
p3951
I2
tp3952
a(S'securely'
p3953
I2
tp3954
a(S'sent'
p3955
I2
tp3956
a(S'sentence)'
p3957
I2
tp3958
a(S'series'
p3959
I2
tp3960
a(S'seriously'
p3961
I2
tp3962
a(S'severe'
p3963
I2
tp3964
a(S'severity'
p3965
I2
tp3966
a(S'sheer'
p3967
I2
tp3968
a(S'shell.the'
p3969
I2
tp3970
a(S'shifing'
p3971
I2
tp3972
a(S'shipped'
p3973
I2
tp3974
a(S'sides'
p3975
I2
tp3976
a(S'similarly'
p3977
I2
tp3978
a(S'site'
p3979
I2
tp3980
a(S'situations'
p3981
I2
tp3982
a(S'sixty-thousand'
p3983
I2
tp3984
a(S'sized'
p3985
I2
tp3986
a(S'skinny'
p3987
I2
tp3988
a(S'skyline'
p3989
I2
tp3990
a(S'slowly'
p3991
I2
tp3992
a(S'snap'
p3993
I2
tp3994
a(S'solid'
p3995
I2
tp3996
a(S'sort'
p3997
I2
tp3998
a(S'source'
p3999
I2
tp4000
a(S'specific'
p4001
I2
tp4002
a(S'spended'
p4003
I2
tp4004
a(S'spinning'
p4005
I2
tp4006
a(S'spontaneous'
p4007
I2
tp4008
a(S'spotted'
p4009
I2
tp4010
a(S'stages'
p4011
I2
tp4012
a(S'stands'
p4013
I2
tp4014
a(S'stat'
p4015
I2
tp4016
a(S"state's"
p4017
I2
tp4018
a(S'stayed'
p4019
I2
tp4020
a(S'steering'
p4021
I2
tp4022
a(S'stepped-back'
p4023
I2
tp4024
a(S'stoped'
p4025
I2
tp4026
a(S'stories'
p4027
I2
tp4028
a(S'strong.in'
p4029
I2
tp4030
a(S'struck'
p4031
I2
tp4032
a(S"structure's"
p4033
I2
tp4034
a(S'structured'
p4035
I2
tp4036
a(S'succeeded'
p4037
I2
tp4038
a(S'successful.when'
p4039
I2
tp4040
a(S'sucessful'
p4041
I2
tp4042
a(S'suddenly'
p4043
I2
tp4044
a(S'suggest'
p4045
I2
tp4046
a(S'summit'
p4047
I2
tp4048
a(S'supported'
p4049
I2
tp4050
a(S'supporting'
p4051
I2
tp4052
a(S'supports'
p4053
I2
tp4054
a(S'surfaced'
p4055
I2
tp4056
a(S'suspended'
p4057
I2
tp4058
a(S'swirling'
p4059
I2
tp4060
a(S'swivelling'
p4061
I2
tp4062
a(S'systems'
p4063
I2
tp4064
a(S'tale'
p4065
I2
tp4066
a(S'talking'
p4067
I2
tp4068
a(S'technical'
p4069
I2
tp4070
a(S'tere'
p4071
I2
tp4072
a(S'terms'
p4073
I2
tp4074
a(S'theese'
p4075
I2
tp4076
a(S'there.al'
p4077
I2
tp4078
a(S'there.architects'
p4079
I2
tp4080
a(S'this.in'
p4081
I2
tp4082
a(S'thoughts'
p4083
I2
tp4084
a(S'thrash'
p4085
I2
tp4086
a(S'threaten'
p4087
I2
tp4088
a(S'threw'
p4089
I2
tp4090
a(S'throw'
p4091
I2
tp4092
a(S'ticket'
p4093
I2
tp4094
a(S'ticketing'
p4095
I2
tp4096
a(S"today's"
p4097
I2
tp4098
a(S'today.the'
p4099
I2
tp4100
a(S'toss'
p4101
I2
tp4102
a(S'total'
p4103
I2
tp4104
a(S'tougher'
p4105
I2
tp4106
a(S'tourist'
p4107
I2
tp4108
a(S'transfer'
p4109
I2
tp4110
a(S'transferred'
p4111
I2
tp4112
a(S'transform'
p4113
I2
tp4114
a(S'transmitt'
p4115
I2
tp4116
a(S'transported'
p4117
I2
tp4118
a(S'transporting'
p4119
I2
tp4120
a(S'traveling'
p4121
I2
tp4122
a(S'tricky'
p4123
I2
tp4124
a(S'twist'
p4125
I2
tp4126
a(S'type'
p4127
I2
tp4128
a(S'typically'
p4129
I2
tp4130
a(S'u.s.a'
p4131
I2
tp4132
a(S'uncontrolable'
p4133
I2
tp4134
a(S'uncontrolably'
p4135
I2
tp4136
a(S'uncontrollable'
p4137
I2
tp4138
a(S'underneath'
p4139
I2
tp4140
a(S'unit'
p4141
I2
tp4142
a(S'unreasonable'
p4143
I2
tp4144
a(S'unreliable'
p4145
I2
tp4146
a(S'unsafe.the'
p4147
I2
tp4148
a(S'unsteady'
p4149
I2
tp4150
a(S'unsuccessful'
p4151
I2
tp4152
a(S'unsuccessful.the'
p4153
I2
tp4154
a(S'unsuitable'
p4155
I2
tp4156
a(S'unwise'
p4157
I2
tp4158
a(S'urbanized'
p4159
I2
tp4160
a(S'usage'
p4161
I2
tp4162
a(S'various'
p4163
I2
tp4164
a(S'vast'
p4165
I2
tp4166
a(S'vehicle'
p4167
I2
tp4168
a(S'violant'
p4169
I2
tp4170
a(S'violate'
p4171
I2
tp4172
a(S'violen'
p4173
I2
tp4174
a(S'violet'
p4175
I2
tp4176
a(S'volatile'
p4177
I2
tp4178
a(S'wait'
p4179
I2
tp4180
a(S'waiting'
p4181
I2
tp4182
a(S'wasted'
p4183
I2
tp4184
a(S"way's"
p4185
I2
tp4186
a(S'weak'
p4187
I2
tp4188
a(S'weaker'
p4189
I2
tp4190
a(S'weighting'
p4191
I2
tp4192
a(S'weights;'
p4193
I2
tp4194
a(S'well-known'
p4195
I2
tp4196
a(S'whale'
p4197
I2
tp4198
a(S'whether'
p4199
I2
tp4200
a(S'whip'
p4201
I2
tp4202
a(S'whipped'
p4203
I2
tp4204
a(S'wieghts'
p4205
I2
tp4206
a(S'window'
p4207
I2
tp4208
a(S'wins'
p4209
I2
tp4210
a(S'witch'
p4211
I2
tp4212
a(S'women'
p4213
I2
tp4214
a(S"won't"
p4215
I2
tp4216
a(S'wonder'
p4217
I2
tp4218
a(S'worker'
p4219
I2
tp4220
a(S'worldwide'
p4221
I2
tp4222
a(S'worst'
p4223
I2
tp4224
a(S'wouldnt'
p4225
I2
tp4226
a(S'wrapping'
p4227
I2
tp4228
a(S'zepplen'
p4229
I2
tp4230
a(S'zepplin'
p4231
I2
tp4232
a(S'\xb6'
I2
tp4233
a(S'$'
I1
tp4234
a(S"'@caps1'"
p4235
I1
tp4236
a(S"'airships"
p4237
I1
tp4238
a(S"'constantly"
p4239
I1
tp4240
a(S"'hindenburg'"
p4241
I1
tp4242
a(S"'if"
p4243
I1
tp4244
a(S"'one"
p4245
I1
tp4246
a(S"'worth"
p4247
I1
tp4248
a(S'(1,250'
p4249
I1
tp4250
a(S'(@caps3'
p4251
I1
tp4252
a(S'(@num3'
p4253
I1
tp4254
a(S'(@num4)'
p4255
I1
tp4256
a(S'(@organization2)'
p4257
I1
tp4258
a(S'(dirigibles)'
p4259
I1
tp4260
a(S"(don't"
p4261
I1
tp4262
a(S'(especially'
p4263
I1
tp4264
a(S'(four-term'
p4265
I1
tp4266
a(S'(from'
p4267
I1
tp4268
a(S'(highly'
p4269
I1
tp4270
a(S'(hindenburg)'
p4271
I1
tp4272
a(S'(hydrogen)'
p4273
I1
tp4274
a(S'(i.e'
p4275
I1
tp4276
a(S'(lets'
p4277
I1
tp4278
a(S'(like'
p4279
I1
tp4280
a(S'(lines'
p4281
I1
tp4282
a(S'(most'
p4283
I1
tp4284
a(S'(weather)'
p4285
I1
tp4286
a(S"(\xb6's"
p4287
I1
tp4288
a(S'(\xb6@num1)'
p4289
I1
tp4290
a(S'(\xb6@num3)'
p4291
I1
tp4292
a(S'***'
p4293
I1
tp4294
a(S'********'
p4295
I1
tp4296
a(S'-(which'
p4297
I1
tp4298
a(S'-says'
p4299
I1
tp4300
a(S'185'
p4301
I1
tp4302
a(S"1930's.the"
p4303
I1
tp4304
a(S'1937..."these'
p4305
I1
tp4306
a(S'6).in'
p4307
I1
tp4308
a(S'<@num1</@caps1>'
p4309
I1
tp4310
a(S'[@location2]'
p4311
I1
tp4312
a(S'[@organization2'
p4313
I1
tp4314
a(S'[a]'
p4315
I1
tp4316
a(S'[an]'
p4317
I1
tp4318
a(S'[because]'
p4319
I1
tp4320
a(S'[building]'
p4321
I1
tp4322
a(S'[could]'
p4323
I1
tp4324
a(S'[dirigibles]'
p4325
I1
tp4326
a(S'[from]'
p4327
I1
tp4328
a(S'[happened]'
p4329
I1
tp4330
a(S'[harmful'
p4331
I1
tp4332
a(S'[have]'
p4333
I1
tp4334
a(S'[he]'
p4335
I1
tp4336
a(S'[in'
p4337
I1
tp4338
a(S"[it's]"
p4339
I1
tp4340
a(S'[it]'
p4341
I1
tp4342
a(S'[t]he'
p4343
I1
tp4344
a(S'[than]'
p4345
I1
tp4346
a(S'[there]'
p4347
I1
tp4348
a(S'[this'
p4349
I1
tp4350
a(S'[took]'
p4351
I1
tp4352
a(S'abandoned.based'
p4353
I1
tp4354
a(S'abandoning'
p4355
I1
tp4356
a(S'ablaze'
p4357
I1
tp4358
a(S'abolished.there'
p4359
I1
tp4360
a(S'above.the'
p4361
I1
tp4362
a(S'absolute'
p4363
I1
tp4364
a(S'absolutely'
p4365
I1
tp4366
a(S'abuilding'
p4367
I1
tp4368
a(S'acadent'
p4369
I1
tp4370
a(S'accesable'
p4371
I1
tp4372
a(S'access'
p4373
I1
tp4374
a(S'accessible'
p4375
I1
tp4376
a(S'accidental'
p4377
I1
tp4378
a(S'accidently'
p4379
I1
tp4380
a(S'accidents.the'
p4381
I1
tp4382
a(S'accomade'
p4383
I1
tp4384
a(S'accommidation'
p4385
I1
tp4386
a(S'accomplish.based'
p4387
I1
tp4388
a(S'accomplished.when'
p4389
I1
tp4390
a(S'accounted'
p4391
I1
tp4392
a(S'accually'
p4393
I1
tp4394
a(S'accumulated'
p4395
I1
tp4396
a(S'aced'
p4397
I1
tp4398
a(S'achieved.there'
p4399
I1
tp4400
a(S'acomidate'
p4401
I1
tp4402
a(S'acommodate'
p4403
I1
tp4404
a(S'acomplish'
p4405
I1
tp4406
a(S'act'
p4407
I1
tp4408
a(S'activity'
p4409
I1
tp4410
a(S'actulty'
p4411
I1
tp4412
a(S'ad'
p4413
I1
tp4414
a(S'adapt'
p4415
I1
tp4416
a(S'adapting'
p4417
I1
tp4418
a(S'additions'
p4419
I1
tp4420
a(S'ader'
p4421
I1
tp4422
a(S'adjustments'
p4423
I1
tp4424
a(S'administrative'
p4425
I1
tp4426
a(S'admit'
p4427
I1
tp4428
a(S'adress'
p4429
I1
tp4430
a(S'adressed'
p4431
I1
tp4432
a(S'advancement'
p4433
I1
tp4434
a(S'advent'
p4435
I1
tp4436
a(S'adversities'
p4437
I1
tp4438
a(S'aeras'
p4439
I1
tp4440
a(S'aeronautical'
p4441
I1
tp4442
a(S'aesthetically'
p4443
I1
tp4444
a(S'affect.the'
p4445
I1
tp4446
a(S'affraid'
p4447
I1
tp4448
a(S'aflame'
p4449
I1
tp4450
a(S'afterwards'
p4451
I1
tp4452
a(S'again.in'
p4453
I1
tp4454
a(S'agains'
p4455
I1
tp4456
a(S'againts'
p4457
I1
tp4458
a(S'age.the'
p4459
I1
tp4460
a(S'aggresively'
p4461
I1
tp4462
a(S'agianst'
p4463
I1
tp4464
a(S'ago'
p4465
I1
tp4466
a(S'air.it'
p4467
I1
tp4468
a(S'air.this'
p4469
I1
tp4470
a(S'airborne'
p4471
I1
tp4472
a(S"aircraft's"
p4473
I1
tp4474
a(S'airplanes."obstacles'
p4475
I1
tp4476
a(S'airplanes.based'
p4477
I1
tp4478
a(S'airplanes.during'
p4479
I1
tp4480
a(S'airplanes.the'
p4481
I1
tp4482
a(S'airplanes.there'
p4483
I1
tp4484
a(S'airplanes.throughout'
p4485
I1
tp4486
a(S'airplanes.when'
p4487
I1
tp4488
a(S'airships.in'
p4489
I1
tp4490
a(S'alas'
p4491
I1
tp4492
a(S'all.obstacles'
p4493
I1
tp4494
a(S'all.throughout'
p4495
I1
tp4496
a(S'alliviate'
p4497
I1
tp4498
a(S'allowable'
p4499
I1
tp4500
a(S'allowed.in'
p4501
I1
tp4502
a(S'alltitude'
p4503
I1
tp4504
a(S'alltogether'
p4505
I1
tp4506
a(S'allways'
p4507
I1
tp4508
a(S'alow'
p4509
I1
tp4510
a(S'alowed'
p4511
I1
tp4512
a(S'also;'
p4513
I1
tp4514
a(S'altleast'
p4515
I1
tp4516
a(S'altogether'
p4517
I1
tp4518
a(S'altogether.based'
p4519
I1
tp4520
a(S'altogether.the'
p4521
I1
tp4522
a(S'altogether.there'
p4523
I1
tp4524
a(S'ambition'
p4525
I1
tp4526
a(S'ambitions'
p4527
I1
tp4528
a(S'american-used'
p4529
I1
tp4530
a(S'ammount'
p4531
I1
tp4532
a(S'amongst'
p4533
I1
tp4534
a(S'amplified'
p4535
I1
tp4536
a(S'an;'
p4537
I1
tp4538
a(S'an]'
p4539
I1
tp4540
a(S'analized'
p4541
I1
tp4542
a(S'analyze'
p4543
I1
tp4544
a(S'ancher'
p4545
I1
tp4546
a(S'anchors'
p4547
I1
tp4548
a(S'ancker'
p4549
I1
tp4550
a(S'ancor'
p4551
I1
tp4552
a(S'angeles]'
p4553
I1
tp4554
a(S'ankered'
p4555
I1
tp4556
a(S'announce'
p4557
I1
tp4558
a(S'anouther'
p4559
I1
tp4560
a(S'answer'
p4561
I1
tp4562
a(S'anthor'
p4563
I1
tp4564
a(S'anthore'
p4565
I1
tp4566
a(S'anticipated'
p4567
I1
tp4568
a(S'anxious'
p4569
I1
tp4570
a(S'anymore...in'
p4571
I1
tp4572
a(S"anyways.@organization2's"
p4573
I1
tp4574
a(S'anyways.the'
p4575
I1
tp4576
a(S'apparant'
p4577
I1
tp4578
a(S'appear'
p4579
I1
tp4580
a(S'appearance'
p4581
I1
tp4582
a(S'appeared'
p4583
I1
tp4584
a(S'applied'
p4585
I1
tp4586
a(S'apprently'
p4587
I1
tp4588
a(S'approach[ing]'
p4589
I1
tp4590
a(S'approch'
p4591
I1
tp4592
a(S'approval'
p4593
I1
tp4594
a(S'approved'
p4595
I1
tp4596
a(S'aproach'
p4597
I1
tp4598
a(S'archetect'
p4599
I1
tp4600
a(S'archetects'
p4601
I1
tp4602
a(S"architect's"
p4603
I1
tp4604
a(S'architectes'
p4605
I1
tp4606
a(S'architector'
p4607
I1
tp4608
a(S'architects.@caps1'
p4609
I1
tp4610
a(S'architects.there'
p4611
I1
tp4612
a(S'architectural.the'
p4613
I1
tp4614
a(S'are;'
p4615
I1
tp4616
a(S'area".while'
p4617
I1
tp4618
a(S"area's"
p4619
I1
tp4620
a(S'area."@caps1'
p4621
I1
tp4622
a(S'area."in'
p4623
I1
tp4624
a(S'area...".in'
p4625
I1
tp4626
a(S'area.based'
p4627
I1
tp4628
a(S'area.builders'
p4629
I1
tp4630
a(S'area.creating'
p4631
I1
tp4632
a(S'area.there'
p4633
I1
tp4634
a(S'area.when'
p4635
I1
tp4636
a(S"areas'"
p4637
I1
tp4638
a(S'areas."the'
p4639
I1
tp4640
a(S'areas.although'
p4641
I1
tp4642
a(S'areas.another'
p4643
I1
tp4644
a(S'areas.based'
p4645
I1
tp4646
a(S'areas.by'
p4647
I1
tp4648
a(S'areas.some'
p4649
I1
tp4650
a(S'areas.they'
p4651
I1
tp4652
a(S'areas;'
p4653
I1
tp4654
a(S'areasal'
p4655
I1
tp4656
a(S'arguments,confusment'
p4657
I1
tp4658
a(S'arise.the'
p4659
I1
tp4660
a(S'arised'
p4661
I1
tp4662
a(S'arisen'
p4663
I1
tp4664
a(S'arm.based'
p4665
I1
tp4666
a(S'arms'
p4667
I1
tp4668
a(S'around"(@num4)'
p4669
I1
tp4670
a(S'around-a'
p4671
I1
tp4672
a(S'around.although'
p4673
I1
tp4674
a(S'around.builders'
p4675
I1
tp4676
a(S'around.the'
p4677
I1
tp4678
a(S'aroundin'
p4679
I1
tp4680
a(S'aroused'
p4681
I1
tp4682
a(S'arranging'
p4683
I1
tp4684
a(S'as-is'
p4685
I1
tp4686
a(S'aspects'
p4687
I1
tp4688
a(S'aspiration'
p4689
I1
tp4690
a(S'asset'
p4691
I1
tp4692
a(S'astounding'
p4693
I1
tp4694
a(S'aswell'
p4695
I1
tp4696
a(S'at.although'
p4697
I1
tp4698
a(S'atemp'
p4699
I1
tp4700
a(S'atempd'
p4701
I1
tp4702
a(S'atempt'
p4703
I1
tp4704
a(S'atrocity'
p4705
I1
tp4706
a(S'attache'
p4707
I1
tp4708
a(S'attahed'
p4709
I1
tp4710
a(S'attched'
p4711
I1
tp4712
a(S'attemp'
p4713
I1
tp4714
a(S'attemply'
p4715
I1
tp4716
a(S'attemps'
p4717
I1
tp4718
a(S'attempt.in'
p4719
I1
tp4720
a(S'attempt.intended'
p4721
I1
tp4722
a(S'attenting'
p4723
I1
tp4724
a(S'atteptin'
p4725
I1
tp4726
a(S'attitude'
p4727
I1
tp4728
a(S'attop'
p4729
I1
tp4730
a(S'attracting'
p4731
I1
tp4732
a(S'aviation,requires'
p4733
I1
tp4734
a(S'aviator'
p4735
I1
tp4736
a(S'aviators'
p4737
I1
tp4738
a(S'avoid'
p4739
I1
tp4740
a(S'avoidable'
p4741
I1
tp4742
a(S'avoided'
p4743
I1
tp4744
a(S'awalys'
p4745
I1
tp4746
a(S'away.not'
p4747
I1
tp4748
a(S'bacase'
p4749
I1
tp4750
a(S'bacicaly'
p4751
I1
tp4752
a(S'back.these'
p4753
I1
tp4754
a(S'backend'
p4755
I1
tp4756
a(S'bad.as'
p4757
I1
tp4758
a(S'badly'
p4759
I1
tp4760
a(S'baffled'
p4761
I1
tp4762
a(S'balence'
p4763
I1
tp4764
a(S'ball'
p4765
I1
tp4766
a(S'balloon.the'
p4767
I1
tp4768
a(S'balloons.there'
p4769
I1
tp4770
a(S'bargained'
p4771
I1
tp4772
a(S'basic'
p4773
I1
tp4774
a(S'battleship'
p4775
I1
tp4776
a(S'be.the'
p4777
I1
tp4778
a(S'beable'
p4779
I1
tp4780
a(S'beater'
p4781
I1
tp4782
a(S'beating'
p4783
I1
tp4784
a(S'beauty'
p4785
I1
tp4786
a(S'becacse'
p4787
I1
tp4788
a(S'because;'
p4789
I1
tp4790
a(S'becomes'
p4791
I1
tp4792
a(S'befor'
p4793
I1
tp4794
a(S'beforehand'
p4795
I1
tp4796
a(S'befrore'
p4797
I1
tp4798
a(S'beggining'
p4799
I1
tp4800
a(S'begining'
p4801
I1
tp4802
a(S'begun'
p4803
I1
tp4804
a(S'begun.the'
p4805
I1
tp4806
a(S'being;'
p4807
I1
tp4808
a(S'beings'
p4809
I1
tp4810
a(S'belived'
p4811
I1
tp4812
a(S'belonged'
p4813
I1
tp4814
a(S'below."these'
p4815
I1
tp4816
a(S'below.in'
p4817
I1
tp4818
a(S'beneficial'
p4819
I1
tp4820
a(S"benefit's"
p4821
I1
tp4822
a(S'better.the'
p4823
I1
tp4824
a(S'beyond'
p4825
I1
tp4826
a(S'bidding'
p4827
I1
tp4828
a(S'bigest'
p4829
I1
tp4830
a(S'biggist'
p4831
I1
tp4832
a(S'bin'
p4833
I1
tp4834
a(S'biolent'
p4835
I1
tp4836
a(S'bitter'
p4837
I1
tp4838
a(S'biulding'
p4839
I1
tp4840
a(S'biuldings'
p4841
I1
tp4842
a(S'black'
p4843
I1
tp4844
a(S'blast'
p4845
I1
tp4846
a(S'blim'
p4847
I1
tp4848
a(S"blimp's"
p4849
I1
tp4850
a(S'blimp-like'
p4851
I1
tp4852
a(S'blimp.the'
p4853
I1
tp4854
a(S'blimp.while'
p4855
I1
tp4856
a(S'blimps.builders'
p4857
I1
tp4858
a(S'blimps.the'
p4859
I1
tp4860
a(S'blimps.throughout'
p4861
I1
tp4862
a(S'blinding'
p4863
I1
tp4864
a(S'block'
p4865
I1
tp4866
a(S'blocked'
p4867
I1
tp4868
a(S'blocksthe'
p4869
I1
tp4870
a(S'bloks'
p4871
I1
tp4872
a(S'blowup'
p4873
I1
tp4874
a(S'blue'
p4875
I1
tp4876
a(S'book'
p4877
I1
tp4878
a(S'born'
p4879
I1
tp4880
a(S'bother'
p4881
I1
tp4882
a(S'bothered'
p4883
I1
tp4884
a(S'bound'
p4885
I1
tp4886
a(S'brainstorm'
p4887
I1
tp4888
a(S'breach'
p4889
I1
tp4890
a(S'breaching'
p4891
I1
tp4892
a(S'breakthrough'
p4893
I1
tp4894
a(S'brew'
p4895
I1
tp4896
a(S'bring?'
p4897
I1
tp4898
a(S'brings'
p4899
I1
tp4900
a(S'brutal'
p4901
I1
tp4902
a(S'buffet'
p4903
I1
tp4904
a(S'buider'
p4905
I1
tp4906
a(S'buidiers'
p4907
I1
tp4908
a(S'buiding'
p4909
I1
tp4910
a(S'buidings'
p4911
I1
tp4912
a(S'build.the'
p4913
I1
tp4914
a(S'builders.the'
p4915
I1
tp4916
a(S'builders.there'
p4917
I1
tp4918
a(S'builders.this'
p4919
I1
tp4920
a(S'building!in'
p4921
I1
tp4922
a(S'building)'
p4923
I1
tp4924
a(S'building."based'
p4925
I1
tp4926
a(S'building."in'
p4927
I1
tp4928
a(S'building.al'
p4929
I1
tp4930
a(S'building.an'
p4931
I1
tp4932
a(S'building.builders'
p4933
I1
tp4934
a(S'building.construction'
p4935
I1
tp4936
a(S'building.finally'
p4937
I1
tp4938
a(S'building.first'
p4939
I1
tp4940
a(S'building.having'
p4941
I1
tp4942
a(S'building.just'
p4943
I1
tp4944
a(S'building.obstacles'
p4945
I1
tp4946
a(S'building.soon'
p4947
I1
tp4948
a(S'building.their'
p4949
I1
tp4950
a(S'building.while'
p4951
I1
tp4952
a(S'buildingdirigibles'
p4953
I1
tp4954
a(S'buildingduring'
p4955
I1
tp4956
a(S'buildingin'
p4957
I1
tp4958
a(S'buildings.it'
p4959
I1
tp4960
a(S'buildings;'
p4961
I1
tp4962
a(S'buildingwhen'
p4963
I1
tp4964
a(S'builduing'
p4965
I1
tp4966
a(S'builduing.in'
p4967
I1
tp4968
a(S'buildup'
p4969
I1
tp4970
a(S'builers'
p4971
I1
tp4972
a(S'buillders'
p4973
I1
tp4974
a(S'built.one'
p4975
I1
tp4976
a(S'built.there'
p4977
I1
tp4978
a(S'builtone'
p4979
I1
tp4980
a(S'bulding'
p4981
I1
tp4982
a(S'buldings'
p4983
I1
tp4984
a(S'bump'
p4985
I1
tp4986
a(S'bumps'
p4987
I1
tp4988
a(S'bundles'
p4989
I1
tp4990
a(S'buoyant'
p4991
I1
tp4992
a(S'bureaucracy'
p4993
I1
tp4994
a(S'burg'
p4995
I1
tp4996
a(S'bursted'
p4997
I1
tp4998
a(S'busiest'
p4999
I1
tp5000
a(S"businessman's"
p5001
I1
tp5002
a(S'bustling'
p5003
I1
tp5004
a(S'by.although'
p5005
I1
tp5006
a(S'cabled'
p5007
I1
tp5008
a(S'calculate'
p5009
I1
tp5010
a(S'cald'
p5011
I1
tp5012
a(S'call'
p5013
I1
tp5014
a(S'can.you'
p5015
I1
tp5016
a(S'cancelled.in'
p5017
I1
tp5018
a(S'canot'
p5019
I1
tp5020
a(S'capabilities'
p5021
I1
tp5022
a(S'capable'
p5023
I1
tp5024
a(S'capital'
p5025
I1
tp5026
a(S'capitan'
p5027
I1
tp5028
a(S'caple'
p5029
I1
tp5030
a(S"caps1's"
p5031
I1
tp5032
a(S'caps1."in'
p5033
I1
tp5034
a(S'caps1.in'
p5035
I1
tp5036
a(S'caps1.the'
p5037
I1
tp5038
a(S'caps1.y'
p5039
I1
tp5040
a(S'caps1.y.c'
p5041
I1
tp5042
a(S'caps10'
p5043
I1
tp5044
a(S'caps2.in'
p5045
I1
tp5046
a(S'caps2.the'
p5047
I1
tp5048
a(S'caps3.the'
p5049
I1
tp5050
a(S'caps6.the'
p5051
I1
tp5052
a(S'caps9'
p5053
I1
tp5054
a(S'caps9.when'
p5055
I1
tp5056
a(S'captin'
p5057
I1
tp5058
a(S'carrying'
p5059
I1
tp5060
a(S'cars'
p5061
I1
tp5062
a(S'catastrophic!'
p5063
I1
tp5064
a(S'cataustrophic'
p5065
I1
tp5066
a(S'catostrophic'
p5067
I1
tp5068
a(S'catostrophic.the'
p5069
I1
tp5070
a(S'caution'
p5071
I1
tp5072
a(S'cautions'
p5073
I1
tp5074
a(S'cautious'
p5075
I1
tp5076
a(S'cease'
p5077
I1
tp5078
a(S'cech'
p5079
I1
tp5080
a(S'ceetain'
p5081
I1
tp5082
a(S'celebrate'
p5083
I1
tp5084
a(S'cept'
p5085
I1
tp5086
a(S'certin'
p5087
I1
tp5088
a(S'challanges'
p5089
I1
tp5090
a(S'challenged'
p5091
I1
tp5092
a(S'challengers'
p5093
I1
tp5094
a(S'changeing'
p5095
I1
tp5096
a(S'chaos'
p5097
I1
tp5098
a(S'chapter'
p5099
I1
tp5100
a(S'charred'
p5101
I1
tp5102
a(S'chemistry'
p5103
I1
tp5104
a(S'cherry'
p5105
I1
tp5106
a(S'chew'
p5107
I1
tp5108
a(S'children'
p5109
I1
tp5110
a(S'chose'
p5111
I1
tp5112
a(S'chrome-nickle'
p5113
I1
tp5114
a(S'cilvians'
p5115
I1
tp5116
a(S"citie's"
p5117
I1
tp5118
a(S'cities."this'
p5119
I1
tp5120
a(S'cities.him'
p5121
I1
tp5122
a(S'citizens.when'
p5123
I1
tp5124
a(S'city.this'
p5125
I1
tp5126
a(S'city]'
p5127
I1
tp5128
a(S'citydwellers'
p5129
I1
tp5130
a(S'cityin'
p5131
I1
tp5132
a(S'citythe'
p5133
I1
tp5134
a(S'civilization'
p5135
I1
tp5136
a(S'clamps'
p5137
I1
tp5138
a(S'clarifies'
p5139
I1
tp5140
a(S'clever'
p5141
I1
tp5142
a(S'climb'
p5143
I1
tp5144
a(S'close.on'
p5145
I1
tp5146
a(S'closely'
p5147
I1
tp5148
a(S'colapse'
p5149
I1
tp5150
a(S'cold'
p5151
I1
tp5152
a(S'collapes'
p5153
I1
tp5154
a(S'collaps'
p5155
I1
tp5156
a(S'collapse.another'
p5157
I1
tp5158
a(S'collapse.in'
p5159
I1
tp5160
a(S'collapsed'
p5161
I1
tp5162
a(S'collected'
p5163
I1
tp5164
a(S'combat'
p5165
I1
tp5166
a(S'combated'
p5167
I1
tp5168
a(S'comming'
p5169
I1
tp5170
a(S'commodly'
p5171
I1
tp5172
a(S'commonly'
p5173
I1
tp5174
a(S'comparing'
p5175
I1
tp5176
a(S'compensates'
p5177
I1
tp5178
a(S'competive'
p5179
I1
tp5180
a(S'compition'
p5181
I1
tp5182
a(S'compleatly'
p5183
I1
tp5184
a(S'completed.in'
p5185
I1
tp5186
a(S'complicate'
p5187
I1
tp5188
a(S'complicating'
p5189
I1
tp5190
a(S'component'
p5191
I1
tp5192
a(S'composition'
p5193
I1
tp5194
a(S'comprehension'
p5195
I1
tp5196
a(S'con'
p5197
I1
tp5198
a(S'conception'
p5199
I1
tp5200
a(S'concern.in'
p5201
I1
tp5202
a(S'concernin'
p5203
I1
tp5204
a(S'concerns.the'
p5205
I1
tp5206
a(S'concers'
p5207
I1
tp5208
a(S'concidering'
p5209
I1
tp5210
a(S'concieved'
p5211
I1
tp5212
a(S'concluding'
p5213
I1
tp5214
a(S'condition'
p5215
I1
tp5216
a(S'conductor'
p5217
I1
tp5218
a(S'conductors'
p5219
I1
tp5220
a(S'conflicting'
p5221
I1
tp5222
a(S'connects'
p5223
I1
tp5224
a(S'conquered'
p5225
I1
tp5226
a(S'consern'
p5227
I1
tp5228
a(S'consernd'
p5229
I1
tp5230
a(S'conserns'
p5231
I1
tp5232
a(S'considered.based'
p5233
I1
tp5234
a(S'consistantly'
p5235
I1
tp5236
a(S'consited'
p5237
I1
tp5238
a(S'constantely'
p5239
I1
tp5240
a(S'constatly'
p5241
I1
tp5242
a(S'constinously'
p5243
I1
tp5244
a(S'constintly'
p5245
I1
tp5246
a(S'constrousion'
p5247
I1
tp5248
a(S'construct.basically'
p5249
I1
tp5250
a(S'constructed".according'
p5251
I1
tp5252
a(S"constructed.'"
p5253
I1
tp5254
a(S'constructed....the'
p5255
I1
tp5256
a(S'constructed.in'
p5257
I1
tp5258
a(S'constructed.the'
p5259
I1
tp5260
a(S'constructedwhile'
p5261
I1
tp5262
a(S'construction.in'
p5263
I1
tp5264
a(S'consular'
p5265
I1
tp5266
a(S'consulate'
p5267
I1
tp5268
a(S'contact'
p5269
I1
tp5270
a(S'contends'
p5271
I1
tp5272
a(S'contently'
p5273
I1
tp5274
a(S'contents'
p5275
I1
tp5276
a(S'continuously'
p5277
I1
tp5278
a(S'contributing'
p5279
I1
tp5280
a(S'contributor'
p5281
I1
tp5282
a(S'controlled'
p5283
I1
tp5284
a(S'controllers'
p5285
I1
tp5286
a(S'controlling'
p5287
I1
tp5288
a(S'converse'
p5289
I1
tp5290
a(S'cool'
p5291
I1
tp5292
a(S'cooperate'
p5293
I1
tp5294
a(S'corage'
p5295
I1
tp5296
a(S'corents.the'
p5297
I1
tp5298
a(S'cornfield'
p5299
I1
tp5300
a(S'correctaly'
p5301
I1
tp5302
a(S'correctly.there'
p5303
I1
tp5304
a(S"could'nt"
p5305
I1
tp5306
a(S'couldn'
p5307
I1
tp5308
a(S'couldve'
p5309
I1
tp5310
a(S"coun't"
p5311
I1
tp5312
a(S'countless'
p5313
I1
tp5314
a(S'countrys'
p5315
I1
tp5316
a(S'coupled'
p5317
I1
tp5318
a(S'cover'
p5319
I1
tp5320
a(S'covered'
p5321
I1
tp5322
a(S'cracked'
p5323
I1
tp5324
a(S'crafting'
p5325
I1
tp5326
a(S'crash.in'
p5327
I1
tp5328
a(S'crash.the'
p5329
I1
tp5330
a(S'crashes'
p5331
I1
tp5332
a(S'craze'
p5333
I1
tp5334
a(S'created.based'
p5335
I1
tp5336
a(S'creator'
p5337
I1
tp5338
a(S'crisis'
p5339
I1
tp5340
a(S'cross'
p5341
I1
tp5342
a(S'crowd.in'
p5343
I1
tp5344
a(S'crowds'
p5345
I1
tp5346
a(S'crucial'
p5347
I1
tp5348
a(S'crusal'
p5349
I1
tp5350
a(S'crush'
p5351
I1
tp5352
a(S'crushed'
p5353
I1
tp5354
a(S'crushed.the'
p5355
I1
tp5356
a(S'crutial'
p5357
I1
tp5358
a(S'currant'
p5359
I1
tp5360
a(S'currants'
p5361
I1
tp5362
a(S"currents'"
p5363
I1
tp5364
a(S'currents."in'
p5365
I1
tp5366
a(S'currents.in'
p5367
I1
tp5368
a(S'currents.the'
p5369
I1
tp5370
a(S'currents.they'
p5371
I1
tp5372
a(S'customarily'
p5373
I1
tp5374
a(S'cylinder'
p5375
I1
tp5376
a(S'dager'
p5377
I1
tp5378
a(S'dagerous'
p5379
I1
tp5380
a(S'dangel'
p5381
I1
tp5382
a(S'dangeling'
p5383
I1
tp5384
a(S'danger.the'
p5385
I1
tp5386
a(S'danger.there'
p5387
I1
tp5388
a(S'dangerase'
p5389
I1
tp5390
a(S'dangerious'
p5391
I1
tp5392
a(S'dangerous.i'
p5393
I1
tp5394
a(S'dangerous.in'
p5395
I1
tp5396
a(S'dangerous.many'
p5397
I1
tp5398
a(S'dangers.although'
p5399
I1
tp5400
a(S'dangor'
p5401
I1
tp5402
a(S'dangorous'
p5403
I1
tp5404
a(S'daring'
p5405
I1
tp5406
a(S"date2's"
p5407
I1
tp5408
a(S'dated'
p5409
I1
tp5410
a(S'dates'
p5411
I1
tp5412
a(S'dead.in'
p5413
I1
tp5414
a(S'dealed'
p5415
I1
tp5416
a(S'deaths.another'
p5417
I1
tp5418
a(S'debris'
p5419
I1
tp5420
a(S'decide'
p5421
I1
tp5422
a(S'deciding'
p5423
I1
tp5424
a(S'decline'
p5425
I1
tp5426
a(S'decoration'
p5427
I1
tp5428
a(S'decoration.allowing'
p5429
I1
tp5430
a(S'decoration.the'
p5431
I1
tp5432
a(S'decorative'
p5433
I1
tp5434
a(S'dedication'
p5435
I1
tp5436
a(S'deemed'
p5437
I1
tp5438
a(S'deeply'
p5439
I1
tp5440
a(S'definatly'
p5441
I1
tp5442
a(S'definite'
p5443
I1
tp5444
a(S'delayed'
p5445
I1
tp5446
a(S'delema'
p5447
I1
tp5448
a(S'deliever'
p5449
I1
tp5450
a(S'delivering'
p5451
I1
tp5452
a(S'delt'
p5453
I1
tp5454
a(S'demolished'
p5455
I1
tp5456
a(S'demonstrates'
p5457
I1
tp5458
a(S'denied'
p5459
I1
tp5460
a(S'densely-populated'
p5461
I1
tp5462
a(S'densey'
p5463
I1
tp5464
a(S'densiley'
p5465
I1
tp5466
a(S'departure'
p5467
I1
tp5468
a(S'depended'
p5469
I1
tp5470
a(S'depending'
p5471
I1
tp5472
a(S'deregible'
p5473
I1
tp5474
a(S'derilibles'
p5475
I1
tp5476
a(S'desasterous'
p5477
I1
tp5478
a(S'describe'
p5479
I1
tp5480
a(S'describle'
p5481
I1
tp5482
a(S'desgned'
p5483
I1
tp5484
a(S'designer'
p5485
I1
tp5486
a(S'designers.when'
p5487
I1
tp5488
a(S'designings'
p5489
I1
tp5490
a(S'designs'
p5491
I1
tp5492
a(S'desion'
p5493
I1
tp5494
a(S'desk'
p5495
I1
tp5496
a(S'destination'
p5497
I1
tp5498
a(S'detailed'
p5499
I1
tp5500
a(S'details'
p5501
I1
tp5502
a(S'detected'
p5503
I1
tp5504
a(S'devastation'
p5505
I1
tp5506
a(S'developers'
p5507
I1
tp5508
a(S'devestation'
p5509
I1
tp5510
a(S'device'
p5511
I1
tp5512
a(S'devices'
p5513
I1
tp5514
a(S'devise'
p5515
I1
tp5516
a(S'devistating'
p5517
I1
tp5518
a(S'devoted'
p5519
I1
tp5520
a(S'diasastrous'
p5521
I1
tp5522
a(S'did.in'
p5523
I1
tp5524
a(S'dident'
p5525
I1
tp5526
a(S'die.in'
p5527
I1
tp5528
a(S'die.when'
p5529
I1
tp5530
a(S"differen't"
p5531
I1
tp5532
a(S'differently'
p5533
I1
tp5534
a(S'differents'
p5535
I1
tp5536
a(S'differer'
p5537
I1
tp5538
a(S'difficulties.the'
p5539
I1
tp5540
a(S'difficultys'
p5541
I1
tp5542
a(S'difficut'
p5543
I1
tp5544
a(S'diffuclt'
p5545
I1
tp5546
a(S'diigibles'
p5547
I1
tp5548
a(S'dilemma'
p5549
I1
tp5550
a(S'dilemmas'
p5551
I1
tp5552
a(S'diminish.the'
p5553
I1
tp5554
a(S'diminished'
p5555
I1
tp5556
a(S'dingle'
p5557
I1
tp5558
a(S'directional'
p5559
I1
tp5560
a(S'dirgible'
p5561
I1
tp5562
a(S'dirgigible'
p5563
I1
tp5564
a(S'dirible'
p5565
I1
tp5566
a(S'diribles'
p5567
I1
tp5568
a(S'diridgibles'
p5569
I1
tp5570
a(S'dirig'
p5571
I1
tp5572
a(S"dirigable's"
p5573
I1
tp5574
a(S'dirigibels'
p5575
I1
tp5576
a(S'dirigibes'
p5577
I1
tp5578
a(S'dirigible)'
p5579
I1
tp5580
a(S'dirigible.if'
p5581
I1
tp5582
a(S'dirigible.in'
p5583
I1
tp5584
a(S'dirigible.once'
p5585
I1
tp5586
a(S'dirigible.one'
p5587
I1
tp5588
a(S'dirigible.the'
p5589
I1
tp5590
a(S'dirigible]'
p5591
I1
tp5592
a(S'dirigiblein'
p5593
I1
tp5594
a(S'dirigibleis'
p5595
I1
tp5596
a(S'dirigiblel'
p5597
I1
tp5598
a(S"dirigiblel's"
p5599
I1
tp5600
a(S'dirigibles.another'
p5601
I1
tp5602
a(S'dirigibles.based'
p5603
I1
tp5604
a(S'dirigibles.one'
p5605
I1
tp5606
a(S'dirigibles.there'
p5607
I1
tp5608
a(S'dirigibles/blimps'
p5609
I1
tp5610
a(S'dirigiblesupon'
p5611
I1
tp5612
a(S'dirigildes'
p5613
I1
tp5614
a(S'dirigiples'
p5615
I1
tp5616
a(S'diriglbe'
p5617
I1
tp5618
a(S'diriglble'
p5619
I1
tp5620
a(S'diriglie'
p5621
I1
tp5622
a(S'dirilage'
p5623
I1
tp5624
a(S'dirilgables'
p5625
I1
tp5626
a(S'dirrection.the'
p5627
I1
tp5628
a(S'dirt'
p5629
I1
tp5630
a(S'dis-mounting'
p5631
I1
tp5632
a(S'disallowed'
p5633
I1
tp5634
a(S'disappear'
p5635
I1
tp5636
a(S'disappear.in'
p5637
I1
tp5638
a(S'disappearance'
p5639
I1
tp5640
a(S'disappeared".in'
p5641
I1
tp5642
a(S'disappeared.after'
p5643
I1
tp5644
a(S'disappearedduring'
p5645
I1
tp5646
a(S'disarmed'
p5647
I1
tp5648
a(S'disassembled'
p5649
I1
tp5650
a(S'disasterthe'
p5651
I1
tp5652
a(S'disastorous'
p5653
I1
tp5654
a(S'disastrous.based'
p5655
I1
tp5656
a(S'disastrous;'
p5657
I1
tp5658
a(S'disbanded'
p5659
I1
tp5660
a(S'discontinued'
p5661
I1
tp5662
a(S'discouragement'
p5663
I1
tp5664
a(S'discusted'
p5665
I1
tp5666
a(S'disembark'
p5667
I1
tp5668
a(S'disembarking'
p5669
I1
tp5670
a(S'dismissing'
p5671
I1
tp5672
a(S'displayed'
p5673
I1
tp5674
a(S'disregarding'
p5675
I1
tp5676
a(S'disrupt'
p5677
I1
tp5678
a(S'disrupted'
p5679
I1
tp5680
a(S'dissaperance'
p5681
I1
tp5682
a(S'distance'
p5683
I1
tp5684
a(S'distinctive'
p5685
I1
tp5686
a(S'distribution'
p5687
I1
tp5688
a(S'district'
p5689
I1
tp5690
a(S'disuse.when'
p5691
I1
tp5692
a(S'dock.as'
p5693
I1
tp5694
a(S'dock.if'
p5695
I1
tp5696
a(S'dock.there'
p5697
I1
tp5698
a(S'dock.though'
p5699
I1
tp5700
a(S'docked.based'
p5701
I1
tp5702
a(S'docked.the'
p5703
I1
tp5704
a(S'dockin.in'
p5705
I1
tp5706
a(S'docking.when'
p5707
I1
tp5708
a(S'dockings'
p5709
I1
tp5710
a(S"doesn't"
p5711
I1
tp5712
a(S'doesnt'
p5713
I1
tp5714
a(S'doll'
p5715
I1
tp5716
a(S'dollars!'
p5717
I1
tp5718
a(S'dollars.consequently'
p5719
I1
tp5720
a(S'dollars.the'
p5721
I1
tp5722
a(S'dominating'
p5723
I1
tp5724
a(S'done.there'
p5725
I1
tp5726
a(S'doom'
p5727
I1
tp5728
a(S'doomed.the'
p5729
I1
tp5730
a(S'doors'
p5731
I1
tp5732
a(S'doubled'
p5733
I1
tp5734
a(S'doubted'
p5735
I1
tp5736
a(S'down;'
p5737
I1
tp5738
a(S'dowstable'
p5739
I1
tp5740
a(S'dowtown'
p5741
I1
tp5742
a(S'drag'
p5743
I1
tp5744
a(S'dramicaclly'
p5745
I1
tp5746
a(S'draw'
p5747
I1
tp5748
a(S'dream.al'
p5749
I1
tp5750
a(S'dream.the'
p5751
I1
tp5752
a(S'dreams.based'
p5753
I1
tp5754
a(S'dribbles'
p5755
I1
tp5756
a(S'drift'
p5757
I1
tp5758
a(S'drigbles'
p5759
I1
tp5760
a(S'driggibles'
p5761
I1
tp5762
a(S'driigble'
p5763
I1
tp5764
a(S'dringibles'
p5765
I1
tp5766
a(S'dririgible'
p5767
I1
tp5768
a(S'drive'
p5769
I1
tp5770
a(S'droped'
p5771
I1
tp5772
a(S'dropped.in'
p5773
I1
tp5774
a(S'dropped.the'
p5775
I1
tp5776
a(S'dropped.they'
p5777
I1
tp5778
a(S'dumped'
p5779
I1
tp5780
a(S'dunk'
p5781
I1
tp5782
a(S'durgible'
p5783
I1
tp5784
a(S'durgibles'
p5785
I1
tp5786
a(S'durigible'
p5787
I1
tp5788
a(S'duties'
p5789
I1
tp5790
a(S'dwindled'
p5791
I1
tp5792
a(S'eachother'
p5793
I1
tp5794
a(S'ealse'
p5795
I1
tp5796
a(S'earth'
p5797
I1
tp5798
a(S'easier'
p5799
I1
tp5800
a(S'easiest'
p5801
I1
tp5802
a(S'easily.there'
p5803
I1
tp5804
a(S'ecnoliged'
p5805
I1
tp5806
a(S'ecspecially'
p5807
I1
tp5808
a(S'ed'
p5809
I1
tp5810
a(S'edges'
p5811
I1
tp5812
a(S'edit'
p5813
I1
tp5814
a(S'edited'
p5815
I1
tp5816
a(S'edits'
p5817
I1
tp5818
a(S'effective'
p5819
I1
tp5820
a(S'effectivness'
p5821
I1
tp5822
a(S'efficiently'
p5823
I1
tp5824
a(S'eficiently'
p5825
I1
tp5826
a(S'egregious'
p5827
I1
tp5828
a(S'eight'
p5829
I1
tp5830
a(S'eighty-fifth'
p5831
I1
tp5832
a(S'elevations'
p5833
I1
tp5834
a(S'elevator'
p5835
I1
tp5836
a(S'eleven-hundred'
p5837
I1
tp5838
a(S'elsethat'
p5839
I1
tp5840
a(S'emerged'
p5841
I1
tp5842
a(S'emire'
p5843
I1
tp5844
a(S'empile'
p5845
I1
tp5846
a(S'enable'
p5847
I1
tp5848
a(S'enclosed'
p5849
I1
tp5850
a(S'encoutered'
p5851
I1
tp5852
a(S'end.based'
p5853
I1
tp5854
a(S'end.four'
p5855
I1
tp5856
a(S'end.the'
p5857
I1
tp5858
a(S'enemy'
p5859
I1
tp5860
a(S'eneogh'
p5861
I1
tp5862
a(S'enforc'
p5863
I1
tp5864
a(S'enforcement'
p5865
I1
tp5866
a(S'engeier'
p5867
I1
tp5868
a(S'engeineeres'
p5869
I1
tp5870
a(S'engeneers'
p5871
I1
tp5872
a(S'engine'
p5873
I1
tp5874
a(S'engineering'
p5875
I1
tp5876
a(S'enginering'
p5877
I1
tp5878
a(S'enhance'
p5879
I1
tp5880
a(S'enlightened'
p5881
I1
tp5882
a(S'enormously'
p5883
I1
tp5884
a(S'enouh'
p5885
I1
tp5886
a(S'enoungh'
p5887
I1
tp5888
a(S'enthusiasm'
p5889
I1
tp5890
a(S'entirely'
p5891
I1
tp5892
a(S'entirely.in'
p5893
I1
tp5894
a(S'enviroment'
p5895
I1
tp5896
a(S'environmental'
p5897
I1
tp5898
a(S'equal'
p5899
I1
tp5900
a(S'equiment'
p5901
I1
tp5902
a(S'equipp'
p5903
I1
tp5904
a(S'equipted'
p5905
I1
tp5906
a(S'erea'
p5907
I1
tp5908
a(S'erect'
p5909
I1
tp5910
a(S'erected'
p5911
I1
tp5912
a(S'erratically'
p5913
I1
tp5914
a(S'eruption'
p5915
I1
tp5916
a(S'especialy'
p5917
I1
tp5918
a(S'especilly'
p5919
I1
tp5920
a(S'espectaculer.some'
p5921
I1
tp5922
a(S'essential'
p5923
I1
tp5924
a(S'essentially'
p5925
I1
tp5926
a(S'establish'
p5927
I1
tp5928
a(S'established'
p5929
I1
tp5930
a(S'establishes'
p5931
I1
tp5932
a(S'ever-changing'
p5933
I1
tp5934
a(S'ever.the'
p5935
I1
tp5936
a(S'everybody'
p5937
I1
tp5938
a(S'evidence'
p5939
I1
tp5940
a(S'exactly'
p5941
I1
tp5942
a(S'examles'
p5943
I1
tp5944
a(S'exceed'
p5945
I1
tp5946
a(S'exceedingly'
p5947
I1
tp5948
a(S'excerpet'
p5949
I1
tp5950
a(S'excerpts'
p5951
I1
tp5952
a(S'excert'
p5953
I1
tp5954
a(S'excess'
p5955
I1
tp5956
a(S'excitement'
p5957
I1
tp5958
a(S'excuse'
p5959
I1
tp5960
a(S'execute.based'
p5961
I1
tp5962
a(S'exert'
p5963
I1
tp5964
a(S'exhibited'
p5965
I1
tp5966
a(S'exisisting'
p5967
I1
tp5968
a(S'exoskeleton'
p5969
I1
tp5970
a(S'expand'
p5971
I1
tp5972
a(S'expectation'
p5973
I1
tp5974
a(S'expected.al'
p5975
I1
tp5976
a(S'expense'
p5977
I1
tp5978
a(S'expensive.another'
p5979
I1
tp5980
a(S'expertese.in'
p5981
I1
tp5982
a(S'expirament'
p5983
I1
tp5984
a(S'expirences'
p5985
I1
tp5986
a(S'explain'
p5987
I1
tp5988
a(S'explaine'
p5989
I1
tp5990
a(S'explainning'
p5991
I1
tp5992
a(S'explicate'
p5993
I1
tp5994
a(S'expload'
p5995
I1
tp5996
a(S'explodes'
p5997
I1
tp5998
a(S'exploding'
p5999
I1
tp6000
a(S'exsiting'
p6001
I1
tp6002
a(S'exsplains'
p6003
I1
tp6004
a(S'exsplosion'
p6005
I1
tp6006
a(S'extant'
p6007
I1
tp6008
a(S'extended'
p6009
I1
tp6010
a(S'eyes.there'
p6011
I1
tp6012
a(S'fabric.based'
p6013
I1
tp6014
a(S'face.based'
p6015
I1
tp6016
a(S'face.building'
p6017
I1
tp6018
a(S'face.complex'
p6019
I1
tp6020
a(S'faced.it'
p6021
I1
tp6022
a(S'faced.on'
p6023
I1
tp6024
a(S'faced.one'
p6025
I1
tp6026
a(S'faced.when'
p6027
I1
tp6028
a(S'faceddurining'
p6029
I1
tp6030
a(S'facedin'
p6031
I1
tp6032
a(S'facedthe'
p6033
I1
tp6034
a(S'facedthroughout'
p6035
I1
tp6036
a(S'facethere'
p6037
I1
tp6038
a(S'facinating'
p6039
I1
tp6040
a(S'factor.the'
p6041
I1
tp6042
a(S'factores'
p6043
I1
tp6044
a(S'factoring'
p6045
I1
tp6046
a(S'facts'
p6047
I1
tp6048
a(S'fad'
p6049
I1
tp6050
a(S'fail.based'
p6051
I1
tp6052
a(S'fail.in'
p6053
I1
tp6054
a(S'fail.the'
p6055
I1
tp6056
a(S'failed;'
p6057
I1
tp6058
a(S'failedafter'
p6059
I1
tp6060
a(S'failing'
p6061
I1
tp6062
a(S'failling'
p6063
I1
tp6064
a(S'failure.during'
p6065
I1
tp6066
a(S'failure.in'
p6067
I1
tp6068
a(S'failures'
p6069
I1
tp6070
a(S'fairly'
p6071
I1
tp6072
a(S'fallingthe'
p6073
I1
tp6074
a(S'fallowings'
p6075
I1
tp6076
a(S'fammable'
p6077
I1
tp6078
a(S'fantastic'
p6079
I1
tp6080
a(S'farther'
p6081
I1
tp6082
a(S'fascinating'
p6083
I1
tp6084
a(S'fashionable'
p6085
I1
tp6086
a(S'fasten'
p6087
I1
tp6088
a(S'fatalities.the'
p6089
I1
tp6090
a(S'fears'
p6091
I1
tp6092
a(S'feasible.the'
p6093
I1
tp6094
a(S'feat.many'
p6095
I1
tp6096
a(S'feat.the'
p6097
I1
tp6098
a(S'feats'
p6099
I1
tp6100
a(S'feature'
p6101
I1
tp6102
a(S'features'
p6103
I1
tp6104
a(S'february'
p6105
I1
tp6106
a(S'feer'
p6107
I1
tp6108
a(S'fees'
p6109
I1
tp6110
a(S'feet;'
p6111
I1
tp6112
a(S'feilds'
p6113
I1
tp6114
a(S'fetch'
p6115
I1
tp6116
a(S'fetched.based'
p6117
I1
tp6118
a(S'fiasco'
p6119
I1
tp6120
a(S'fiercely'
p6121
I1
tp6122
a(S'fiery'
p6123
I1
tp6124
a(S'fifteen'
p6125
I1
tp6126
a(S'fifthteen'
p6127
I1
tp6128
a(S'fifty-thousand'
p6129
I1
tp6130
a(S'filed'
p6131
I1
tp6132
a(S'filling'
p6133
I1
tp6134
a(S'financial'
p6135
I1
tp6136
a(S'fine'
p6137
I1
tp6138
a(S'finel'
p6139
I1
tp6140
a(S'finishing'
p6141
I1
tp6142
a(S'fire)'
p6143
I1
tp6144
a(S'fireball'
p6145
I1
tp6146
a(S'firework'
p6147
I1
tp6148
a(S'first.the'
p6149
I1
tp6150
a(S'firsts'
p6151
I1
tp6152
a(S'firsty'
p6153
I1
tp6154
a(S'fitting'
p6155
I1
tp6156
a(S'five'
p6157
I1
tp6158
a(S'fix.back'
p6159
I1
tp6160
a(S'fix.on'
p6161
I1
tp6162
a(S'fixable'
p6163
I1
tp6164
a(S'fixed.al'
p6165
I1
tp6166
a(S'fixing'
p6167
I1
tp6168
a(S'flamable".based'
p6169
I1
tp6170
a(S'flamable.the'
p6171
I1
tp6172
a(S'flamlable'
p6173
I1
tp6174
a(S'flammable)'
p6175
I1
tp6176
a(S'flammable...the'
p6177
I1
tp6178
a(S'flammable.builders'
p6179
I1
tp6180
a(S'flammable.when'
p6181
I1
tp6182
a(S'flammable.while'
p6183
I1
tp6184
a(S'flammibility'
p6185
I1
tp6186
a(S'flawed'
p6187
I1
tp6188
a(S'flies'
p6189
I1
tp6190
a(S'flights'
p6191
I1
tp6192
a(S'fling'
p6193
I1
tp6194
a(S'float.the'
p6195
I1
tp6196
a(S'floated'
p6197
I1
tp6198
a(S'flock'
p6199
I1
tp6200
a(S'floor.based'
p6201
I1
tp6202
a(S'floors.based'
p6203
I1
tp6204
a(S'flowed'
p6205
I1
tp6206
a(S'flown'
p6207
I1
tp6208
a(S'fluids'
p6209
I1
tp6210
a(S'flyer'
p6211
I1
tp6212
a(S'flyinging'
p6213
I1
tp6214
a(S'focal'
p6215
I1
tp6216
a(S'focus'
p6217
I1
tp6218
a(S'follows'
p6219
I1
tp6220
a(S'for.first'
p6221
I1
tp6222
a(S'for.the'
p6223
I1
tp6224
a(S'for.to'
p6225
I1
tp6226
a(S'for?'
p6227
I1
tp6228
a(S'forageable'
p6229
I1
tp6230
a(S'forbid'
p6231
I1
tp6232
a(S'forbidded'
p6233
I1
tp6234
a(S'forbids'
p6235
I1
tp6236
a(S'forcefull'
p6237
I1
tp6238
a(S'forein'
p6239
I1
tp6240
a(S'foremost'
p6241
I1
tp6242
a(S'foresaw'
p6243
I1
tp6244
a(S'foresee'
p6245
I1
tp6246
a(S'forever'
p6247
I1
tp6248
a(S'forfill'
p6249
I1
tp6250
a(S'forgeign'
p6251
I1
tp6252
a(S'forgein'
p6253
I1
tp6254
a(S'forget'
p6255
I1
tp6256
a(S'forging'
p6257
I1
tp6258
a(S'forgotten.in'
p6259
I1
tp6260
a(S'forgottenthe'
p6261
I1
tp6262
a(S'fortifying'
p6263
I1
tp6264
a(S"foundation.'"
p6265
I1
tp6266
a(S'foundation...the'
p6267
I1
tp6268
a(S'foundation.some'
p6269
I1
tp6270
a(S'foundation.there'
p6271
I1
tp6272
a(S'four-blocks'
p6273
I1
tp6274
a(S'fourth'
p6275
I1
tp6276
a(S'fragile'
p6277
I1
tp6278
a(S'frame."(paragraph'
p6279
I1
tp6280
a(S'frame.another'
p6281
I1
tp6282
a(S'frame.in'
p6283
I1
tp6284
a(S'frame.lastly'
p6285
I1
tp6286
a(S'frame.safety'
p6287
I1
tp6288
a(S'frame.this'
p6289
I1
tp6290
a(S'frame;'
p6291
I1
tp6292
a(S'framework."another'
p6293
I1
tp6294
a(S'framework."in'
p6295
I1
tp6296
a(S'framework.in'
p6297
I1
tp6298
a(S'framework.lastly'
p6299
I1
tp6300
a(S'framework.some'
p6301
I1
tp6302
a(S'framework.when'
p6303
I1
tp6304
a(S'frameworkarchitects'
p6305
I1
tp6306
a(S'frequent'
p6307
I1
tp6308
a(S'friend'
p6309
I1
tp6310
a(S'frist'
p6311
I1
tp6312
a(S'fro'
p6313
I1
tp6314
a(S'frustrating'
p6315
I1
tp6316
a(S'ft.)'
p6317
I1
tp6318
a(S'fueled'
p6319
I1
tp6320
a(S'fueling'
p6321
I1
tp6322
a(S'fuell'
p6323
I1
tp6324
a(S'fuels'
p6325
I1
tp6326
a(S'fulled'
p6327
I1
tp6328
a(S'fullfilled.dirigibles'
p6329
I1
tp6330
a(S'functional'
p6331
I1
tp6332
a(S'fundamental'
p6333
I1
tp6334
a(S'fundation'
p6335
I1
tp6336
a(S'fused'
p6337
I1
tp6338
a(S'future."the'
p6339
I1
tp6340
a(S'future.builders'
p6341
I1
tp6342
a(S'futureistic'
p6343
I1
tp6344
a(S'game'
p6345
I1
tp6346
a(S'gangplank..."during'
p6347
I1
tp6348
a(S'gas)'
p6349
I1
tp6350
a(S'gaseous-filled'
p6351
I1
tp6352
a(S'gasses'
p6353
I1
tp6354
a(S'gaurenteed'
p6355
I1
tp6356
a(S'gear."@caps1'
p6357
I1
tp6358
a(S'gear."the'
p6359
I1
tp6360
a(S'geatest'
p6361
I1
tp6362
a(S'gen'
p6363
I1
tp6364
a(S'generally'
p6365
I1
tp6366
a(S'genius'
p6367
I1
tp6368
a(S'geographical'
p6369
I1
tp6370
a(S'getin'
p6371
I1
tp6372
a(S'giant-'
p6373
I1
tp6374
a(S'gigantic'
p6375
I1
tp6376
a(S'ginormous'
p6377
I1
tp6378
a(S'giving'
p6379
I1
tp6380
a(S'glassed'
p6381
I1
tp6382
a(S'glimpse'
p6383
I1
tp6384
a(S'global'
p6385
I1
tp6386
a(S'glory.some'
p6387
I1
tp6388
a(S"goal's"
p6389
I1
tp6390
a(S'goal.in'
p6391
I1
tp6392
a(S'goas'
p6393
I1
tp6394
a(S'gondola'
p6395
I1
tp6396
a(S'gonna'
p6397
I1
tp6398
a(S'goods'
p6399
I1
tp6400
a(S'govener'
p6401
I1
tp6402
a(S'govenment'
p6403
I1
tp6404
a(S'governer'
p6405
I1
tp6406
a(S'grand'
p6407
I1
tp6408
a(S'graph'
p6409
I1
tp6410
a(S'great.the'
p6411
I1
tp6412
a(S'greates'
p6413
I1
tp6414
a(S'greats'
p6415
I1
tp6416
a(S'grim'
p6417
I1
tp6418
a(S'ground.there'
p6419
I1
tp6420
a(S'group'
p6421
I1
tp6422
a(S'grow'
p6423
I1
tp6424
a(S'gunna'
p6425
I1
tp6426
a(S'gust'
p6427
I1
tp6428
a(S'handful'
p6429
I1
tp6430
a(S'handled'
p6431
I1
tp6432
a(S'hapened'
p6433
I1
tp6434
a(S'happens'
p6435
I1
tp6436
a(S'happy'
p6437
I1
tp6438
a(S'hardest'
p6439
I1
tp6440
a(S'hardships'
p6441
I1
tp6442
a(S'harmedthe'
p6443
I1
tp6444
a(S'harms'
p6445
I1
tp6446
a(S'harnessing'
p6447
I1
tp6448
a(S'hassle'
p6449
I1
tp6450
a(S'haulled'
p6451
I1
tp6452
a(S'hault.certain'
p6453
I1
tp6454
a(S'have.the'
p6455
I1
tp6456
a(S'haveing'
p6457
I1
tp6458
a(S'havoc'
p6459
I1
tp6460
a(S'hazard!'
p6461
I1
tp6462
a(S'heading'
p6463
I1
tp6464
a(S'heavyweight'
p6465
I1
tp6466
a(S'heed'
p6467
I1
tp6468
a(S'heigh'
p6469
I1
tp6470
a(S'helim'
p6471
I1
tp6472
a(S'helium)'
p6473
I1
tp6474
a(S'helium-which'
p6475
I1
tp6476
a(S'helium;'
p6477
I1
tp6478
a(S'hell'
p6479
I1
tp6480
a(S'helped.the'
p6481
I1
tp6482
a(S'helping'
p6483
I1
tp6484
a(S'helps'
p6485
I1
tp6486
a(S'hiding'
p6487
I1
tp6488
a(S'hidrogen'
p6489
I1
tp6490
a(S'high-altitude'
p6491
I1
tp6492
a(S'high-speed'
p6493
I1
tp6494
a(S'high.overall'
p6495
I1
tp6496
a(S'high.the'
p6497
I1
tp6498
a(S'highley'
p6499
I1
tp6500
a(S'highly-flamable'
p6501
I1
tp6502
a(S'highly-flammable'
p6503
I1
tp6504
a(S'hinden'
p6505
I1
tp6506
a(S"hindenburg's"
p6507
I1
tp6508
a(S'hindenburg)'
p6509
I1
tp6510
a(S'hindenburg-style'
p6511
I1
tp6512
a(S'hindenburg.the'
p6513
I1
tp6514
a(S'hindenburge.while'
p6515
I1
tp6516
a(S'historical'
p6517
I1
tp6518
a(S'hitn'
p6519
I1
tp6520
a(S'hoax'
p6521
I1
tp6522
a(S'hoist'
p6523
I1
tp6524
a(S'hoisting'
p6525
I1
tp6526
a(S'holdn'
p6527
I1
tp6528
a(S'homes'
p6529
I1
tp6530
a(S'hook'
p6531
I1
tp6532
a(S'hooked'
p6533
I1
tp6534
a(S'hoor'
p6535
I1
tp6536
a(S'hoover'
p6537
I1
tp6538
a(S'hoped'
p6539
I1
tp6540
a(S'hopeful'
p6541
I1
tp6542
a(S'hops'
p6543
I1
tp6544
a(S'horribly'
p6545
I1
tp6546
a(S'horrifying'
p6547
I1
tp6548
a(S'horse'
p6549
I1
tp6550
a(S'housing'
p6551
I1
tp6552
a(S'huelium'
p6553
I1
tp6554
a(S'huge;'
p6555
I1
tp6556
a(S'hurt.in'
p6557
I1
tp6558
a(S'hurt.the'
p6559
I1
tp6560
a(S'hydro'
p6561
I1
tp6562
a(S'hydrogen)'
p6563
I1
tp6564
a(S'hydrogen-a'
p6565
I1
tp6566
a(S'hydrogen-filled'
p6567
I1
tp6568
a(S'hydrogen...and'
p6569
I1
tp6570
a(S'hydrogen.one'
p6571
I1
tp6572
a(S'hydrogen;'
p6573
I1
tp6574
a(S'hydrogn'
p6575
I1
tp6576
a(S'hypothetically'
p6577
I1
tp6578
a(S"i'll"
p6579
I1
tp6580
a(S'ibles'
p6581
I1
tp6582
a(S'idea.al'
p6583
I1
tp6584
a(S'idea.although'
p6585
I1
tp6586
a(S'idea.another'
p6587
I1
tp6588
a(S'idea.their'
p6589
I1
tp6590
a(S'idea.there'
p6591
I1
tp6592
a(S'idea.while'
p6593
I1
tp6594
a(S'ideathe'
p6595
I1
tp6596
a(S'identification'
p6597
I1
tp6598
a(S'ignite'
p6599
I1
tp6600
a(S'ignore'
p6601
I1
tp6602
a(S'ignored.the'
p6603
I1
tp6604
a(S'illegal.after'
p6605
I1
tp6606
a(S'illegal.in'
p6607
I1
tp6608
a(S'illegal.on'
p6609
I1
tp6610
a(S'illegal.when'
p6611
I1
tp6612
a(S'illegal?'
p6613
I1
tp6614
a(S'illiogal'
p6615
I1
tp6616
a(S'illuminate'
p6617
I1
tp6618
a(S'illustrates'
p6619
I1
tp6620
a(S'imagination'
p6621
I1
tp6622
a(S'imaginations'
p6623
I1
tp6624
a(S'immediate'
p6625
I1
tp6626
a(S'immediately'
p6627
I1
tp6628
a(S'immenent'
p6629
I1
tp6630
a(S'immpossible'
p6631
I1
tp6632
a(S'impassible'
p6633
I1
tp6634
a(S'impediment'
p6635
I1
tp6636
a(S'implement'
p6637
I1
tp6638
a(S'implies'
p6639
I1
tp6640
a(S'imply'
p6641
I1
tp6642
a(S'imposed'
p6643
I1
tp6644
a(S'imposing'
p6645
I1
tp6646
a(S'impossible.acording'
p6647
I1
tp6648
a(S'impossible.during'
p6649
I1
tp6650
a(S'impossibleduring'
p6651
I1
tp6652
a(S'impossiblethere'
p6653
I1
tp6654
a(S'impposible'
p6655
I1
tp6656
a(S'impractical.there'
p6657
I1
tp6658
a(S'impracticalities'
p6659
I1
tp6660
a(S'impracticalness'
p6661
I1
tp6662
a(S'improbable'
p6663
I1
tp6664
a(S'improvement'
p6665
I1
tp6666
a(S'impulsively'
p6667
I1
tp6668
a(S'inability'
p6669
I1
tp6670
a(S'inadequate'
p6671
I1
tp6672
a(S'incapability'
p6673
I1
tp6674
a(S'inches'
p6675
I1
tp6676
a(S'included;'
p6677
I1
tp6678
a(S'incodent'
p6679
I1
tp6680
a(S'incoming'
p6681
I1
tp6682
a(S'inconceivable'
p6683
I1
tp6684
a(S'inconsistent'
p6685
I1
tp6686
a(S'inconsitent'
p6687
I1
tp6688
a(S'increased'
p6689
I1
tp6690
a(S'increasing'
p6691
I1
tp6692
a(S'inef'
p6693
I1
tp6694
a(S'inefficient'
p6695
I1
tp6696
a(S'inflict'
p6697
I1
tp6698
a(S'inforced'
p6699
I1
tp6700
a(S'information.the'
p6701
I1
tp6702
a(S'informed'
p6703
I1
tp6704
a(S'informs'
p6705
I1
tp6706
a(S"ing's"
p6707
I1
tp6708
a(S'ingeniose'
p6709
I1
tp6710
a(S'inhibit'
p6711
I1
tp6712
a(S'initially'
p6713
I1
tp6714
a(S'initiated'
p6715
I1
tp6716
a(S'injure'
p6717
I1
tp6718
a(S'injuring'
p6719
I1
tp6720
a(S'injury.the'
p6721
I1
tp6722
a(S'inncodent'
p6723
I1
tp6724
a(S'inocent'
p6725
I1
tp6726
a(S'inovation'
p6727
I1
tp6728
a(S'inovative'
p6729
I1
tp6730
a(S'inspections'
p6731
I1
tp6732
a(S'install'
p6733
I1
tp6734
a(S'installing'
p6735
I1
tp6736
a(S'installment'
p6737
I1
tp6738
a(S'insufficient'
p6739
I1
tp6740
a(S'insuring'
p6741
I1
tp6742
a(S'insurmountable'
p6743
I1
tp6744
a(S'intact'
p6745
I1
tp6746
a(S'intake'
p6747
I1
tp6748
a(S'interests'
p6749
I1
tp6750
a(S'interfer'
p6751
I1
tp6752
a(S'interference'
p6753
I1
tp6754
a(S'internationally'
p6755
I1
tp6756
a(S'interning'
p6757
I1
tp6758
a(S'into.the'
p6759
I1
tp6760
a(S'introduction'
p6761
I1
tp6762
a(S'inuf'
p6763
I1
tp6764
a(S'invested'
p6765
I1
tp6766
a(S'investment'
p6767
I1
tp6768
a(S'invincable'
p6769
I1
tp6770
a(S'invole'
p6771
I1
tp6772
a(S'involved.the'
p6773
I1
tp6774
a(S'irradically'
p6775
I1
tp6776
a(S'irrelevant'
p6777
I1
tp6778
a(S'irvan'
p6779
I1
tp6780
a(S'ishuse'
p6781
I1
tp6782
a(S'isnt'
p6783
I1
tp6784
a(S'isshue'
p6785
I1
tp6786
a(S'issue-'
p6787
I1
tp6788
a(S'isue'
p6789
I1
tp6790
a(S"it'd"
p6791
I1
tp6792
a(S'it.according'
p6793
I1
tp6794
a(S'it.builders'
p6795
I1
tp6796
a(S'it.obstacles'
p6797
I1
tp6798
a(S'it.one'
p6799
I1
tp6800
a(S'it.there'
p6801
I1
tp6802
a(S'it.thirdly'
p6803
I1
tp6804
a(S'itbased'
p6805
I1
tp6806
a(S'itself.@caps3'
p6807
I1
tp6808
a(S'itself.in'
p6809
I1
tp6810
a(S'itself.landing'
p6811
I1
tp6812
a(S'itself.the'
p6813
I1
tp6814
a(S'itself;'
p6815
I1
tp6816
a(S'itsself'
p6817
I1
tp6818
a(S'jam'
p6819
I1
tp6820
a(S'jealous'
p6821
I1
tp6822
a(S'jealousy'
p6823
I1
tp6824
a(S'jeopardize'
p6825
I1
tp6826
a(S'jeopardy'
p6827
I1
tp6828
a(S'jersey.based'
p6829
I1
tp6830
a(S'job.acording'
p6831
I1
tp6832
a(S'job.in'
p6833
I1
tp6834
a(S'job.there'
p6835
I1
tp6836
a(S'journey'
p6837
I1
tp6838
a(S'jump'
p6839
I1
tp6840
a(S'justifies'
p6841
I1
tp6842
a(S'keeps'
p6843
I1
tp6844
a(S'kinds'
p6845
I1
tp6846
a(S'kinks'
p6847
I1
tp6848
a(S'knocking'
p6849
I1
tp6850
a(S"know's"
p6851
I1
tp6852
a(S'knows'
p6853
I1
tp6854
a(S'lacked'
p6855
I1
tp6856
a(S'laden'
p6857
I1
tp6858
a(S'lak'
p6859
I1
tp6860
a(S'lakehurts'
p6861
I1
tp6862
a(S'land.the'
p6863
I1
tp6864
a(S'landing.the'
p6865
I1
tp6866
a(S'landing/docking'
p6867
I1
tp6868
a(S'lands'
p6869
I1
tp6870
a(S'largely'
p6871
I1
tp6872
a(S'lastely'
p6873
I1
tp6874
a(S'lastley'
p6875
I1
tp6876
a(S'later.the'
p6877
I1
tp6878
a(S'latest'
p6879
I1
tp6880
a(S"law's"
p6881
I1
tp6882
a(S'law.after'
p6883
I1
tp6884
a(S'law.derigibles'
p6885
I1
tp6886
a(S'law.dirigibles'
p6887
I1
tp6888
a(S'law.first'
p6889
I1
tp6890
a(S'law.some'
p6891
I1
tp6892
a(S'law]'
p6893
I1
tp6894
a(S'lawbreaking'
p6895
I1
tp6896
a(S'laws.there'
p6897
I1
tp6898
a(S'laws.throughout'
p6899
I1
tp6900
a(S'layout'
p6901
I1
tp6902
a(S'leaglity'
p6903
I1
tp6904
a(S'leak'
p6905
I1
tp6906
a(S'leap'
p6907
I1
tp6908
a(S'leap.the'
p6909
I1
tp6910
a(S'learning'
p6911
I1
tp6912
a(S'leasoned'
p6913
I1
tp6914
a(S'leaves'
p6915
I1
tp6916
a(S'legal.al'
p6917
I1
tp6918
a(S'lessen'
p6919
I1
tp6920
a(S'lesson'
p6921
I1
tp6922
a(S'lever'
p6923
I1
tp6924
a(S'lever."in'
p6925
I1
tp6926
a(S'levers.allowing'
p6927
I1
tp6928
a(S'lightning'
p6929
I1
tp6930
a(S'likely.finaly'
p6931
I1
tp6932
a(S'likly'
p6933
I1
tp6934
a(S'limbs'
p6935
I1
tp6936
a(S'limets'
p6937
I1
tp6938
a(S'limit'
p6939
I1
tp6940
a(S'limitations'
p6941
I1
tp6942
a(S'limited'
p6943
I1
tp6944
a(S'ling'
p6945
I1
tp6946
a(S'lingering'
p6947
I1
tp6948
a(S'lium'
p6949
I1
tp6950
a(S'lives.i'
p6951
I1
tp6952
a(S'living'
p6953
I1
tp6954
a(S'loads'
p6955
I1
tp6956
a(S'lobby'
p6957
I1
tp6958
a(S'local'
p6959
I1
tp6960
a(S'location1.a'
p6961
I1
tp6962
a(S'location1.in'
p6963
I1
tp6964
a(S'location1.second'
p6965
I1
tp6966
a(S'location4'
p6967
I1
tp6968
a(S'loft'
p6969
I1
tp6970
a(S'lofty'
p6971
I1
tp6972
a(S'long;'
p6973
I1
tp6974
a(S'lookd'
p6975
I1
tp6976
a(S'looks'
p6977
I1
tp6978
a(S'losses'
p6979
I1
tp6980
a(S'low-but'
p6981
I1
tp6982
a(S'luck.when'
p6983
I1
tp6984
a(S'luckily'
p6985
I1
tp6986
a(S'lucrative'
p6987
I1
tp6988
a(S'lusted'
p6989
I1
tp6990
a(S'l\xc3\xbcsted'
p6991
I1
tp6992
a(S'l\xfcnden'
p6993
I1
tp6994
a(S"l\xfcsted's"
p6995
I1
tp6996
a(S'l\xfcsted,to'
p6997
I1
tp6998
a(S'l\xfcsted.as'
p6999
I1
tp7000
a(S'machine'
p7001
I1
tp7002
a(S'machines'
p7003
I1
tp7004
a(S'mad'
p7005
I1
tp7006
a(S'made/operated'
p7007
I1
tp7008
a(S'magnificent'
p7009
I1
tp7010
a(S'magnified'
p7011
I1
tp7012
a(S'magnitude'
p7013
I1
tp7014
a(S'maintenance'
p7015
I1
tp7016
a(S'majority'
p7017
I1
tp7018
a(S'makeng'
p7019
I1
tp7020
a(S'maker'
p7021
I1
tp7022
a(S'malicious'
p7023
I1
tp7024
a(S'manage'
p7025
I1
tp7026
a(S'manifest'
p7027
I1
tp7028
a(S'manuver'
p7029
I1
tp7030
a(S'many.there'
p7031
I1
tp7032
a(S'map'
p7033
I1
tp7034
a(S'mark'
p7035
I1
tp7036
a(S'mas'
p7037
I1
tp7038
a(S'mask.throughout'
p7039
I1
tp7040
a(S'mast"in'
p7041
I1
tp7042
a(S"mast'"
p7043
I1
tp7044
a(S'mast-before'
p7045
I1
tp7046
a(S'mast.a'
p7047
I1
tp7048
a(S'mast.al'
p7049
I1
tp7050
a(S'mast.also'
p7051
I1
tp7052
a(S'mast.dirigible'
p7053
I1
tp7054
a(S'mast.first'
p7055
I1
tp7056
a(S'mast.however'
p7057
I1
tp7058
a(S'mast.it'
p7059
I1
tp7060
a(S'mast.overall'
p7061
I1
tp7062
a(S'mast.well'
p7063
I1
tp7064
a(S'mast.when'
p7065
I1
tp7066
a(S'mast;'
p7067
I1
tp7068
a(S'mastdirigibles'
p7069
I1
tp7070
a(S'master'
p7071
I1
tp7072
a(S'masterpiece'
p7073
I1
tp7074
a(S'masting'
p7075
I1
tp7076
a(S'match'
p7077
I1
tp7078
a(S'mayjor'
p7079
I1
tp7080
a(S'mechanical'
p7081
I1
tp7082
a(S'meetings'
p7083
I1
tp7084
a(S'menuver'
p7085
I1
tp7086
a(S'mercy'
p7087
I1
tp7088
a(S'mere'
p7089
I1
tp7090
a(S'merely'
p7091
I1
tp7092
a(S'mess'
p7093
I1
tp7094
a(S'mind.based'
p7095
I1
tp7096
a(S'mindblowing'
p7097
I1
tp7098
a(S'minute'
p7099
I1
tp7100
a(S'misfortune'
p7101
I1
tp7102
a(S'mistake'
p7103
I1
tp7104
a(S'mistakes'
p7105
I1
tp7106
a(S'mixed'
p7107
I1
tp7108
a(S'modernation'
p7109
I1
tp7110
a(S'modernize'
p7111
I1
tp7112
a(S'modernizing'
p7113
I1
tp7114
a(S'modernly'
p7115
I1
tp7116
a(S'modes'
p7117
I1
tp7118
a(S'modificautions'
p7119
I1
tp7120
a(S'modifie'
p7121
I1
tp7122
a(S'moment'
p7123
I1
tp7124
a(S'money.in'
p7125
I1
tp7126
a(S'money1)'
p7127
I1
tp7128
a(S'monitored'
p7129
I1
tp7130
a(S'month'
p7131
I1
tp7132
a(S'monts'
p7133
I1
tp7134
a(S'monument'
p7135
I1
tp7136
a(S'monumental'
p7137
I1
tp7138
a(S'moooring'
p7139
I1
tp7140
a(S'moorings'
p7141
I1
tp7142
a(S'more;'
p7143
I1
tp7144
a(S'mored'
p7145
I1
tp7146
a(S'moring'
p7147
I1
tp7148
a(S'motification'
p7149
I1
tp7150
a(S'motified'
p7151
I1
tp7152
a(S'motify'
p7153
I1
tp7154
a(S'move-able'
p7155
I1
tp7156
a(S'moveing'
p7157
I1
tp7158
a(S'much.there'
p7159
I1
tp7160
a(S'multi-@caps4'
p7161
I1
tp7162
a(S'mundane'
p7163
I1
tp7164
a(S'national'
p7165
I1
tp7166
a(S'natur'
p7167
I1
tp7168
a(S'naturally'
p7169
I1
tp7170
a(S'nature"!'
p7171
I1
tp7172
a(S'nature";'
p7173
I1
tp7174
a(S'nature.finally'
p7175
I1
tp7176
a(S'natures'
p7177
I1
tp7178
a(S'navigate'
p7179
I1
tp7180
a(S"navy's"
p7181
I1
tp7182
a(S'neccarasary.those'
p7183
I1
tp7184
a(S'neccssary'
p7185
I1
tp7186
a(S'negatively'
p7187
I1
tp7188
a(S'negatives'
p7189
I1
tp7190
a(S'neglected'
p7191
I1
tp7192
a(S'negligence'
p7193
I1
tp7194
a(S'neiboring'
p7195
I1
tp7196
a(S'nemerous'
p7197
I1
tp7198
a(S'nesciary.another'
p7199
I1
tp7200
a(S'nesescary'
p7201
I1
tp7202
a(S'nessisary'
p7203
I1
tp7204
a(S'nether'
p7205
I1
tp7206
a(S'newfound'
p7207
I1
tp7208
a(S'newspapers.allowing'
p7209
I1
tp7210
a(S'newyork'
p7211
I1
tp7212
a(S'ney'
p7213
I1
tp7214
a(S'nickel'
p7215
I1
tp7216
a(S'nineteen'
p7217
I1
tp7218
a(S'non-existence'
p7219
I1
tp7220
a(S'non-existent'
p7221
I1
tp7222
a(S'non-legal'
p7223
I1
tp7224
a(S'non-u.s'
p7225
I1
tp7226
a(S'nonstop'
p7227
I1
tp7228
a(S'normal'
p7229
I1
tp7230
a(S'not-built'
p7231
I1
tp7232
a(S'nothing.in'
p7233
I1
tp7234
a(S'noticing'
p7235
I1
tp7236
a(S'novel'
p7237
I1
tp7238
a(S'novelty'
p7239
I1
tp7240
a(S'now!the'
p7241
I1
tp7242
a(S"num1'or"
p7243
I1
tp7244
a(S"num1's"
p7245
I1
tp7246
a(S'num1).on'
p7247
I1
tp7248
a(S'num1)the'
p7249
I1
tp7250
a(S'num1.the'
p7251
I1
tp7252
a(S'num1.whenever'
p7253
I1
tp7254
a(S'num2$'
p7255
I1
tp7256
a(S"num2's"
p7257
I1
tp7258
a(S'num2).the'
p7259
I1
tp7260
a(S'num2.)'
p7261
I1
tp7262
a(S'num2.some'
p7263
I1
tp7264
a(S'num2;'
p7265
I1
tp7266
a(S'num3)as'
p7267
I1
tp7268
a(S'num5)'
p7269
I1
tp7270
a(S'numberous'
p7271
I1
tp7272
a(S'oat'
p7273
I1
tp7274
a(S'object;'
p7275
I1
tp7276
a(S'objective'
p7277
I1
tp7278
a(S'obliviousness'
p7279
I1
tp7280
a(S'obscure'
p7281
I1
tp7282
a(S'obscured'
p7283
I1
tp7284
a(S'observatory'
p7285
I1
tp7286
a(S'obsitacl'
p7287
I1
tp7288
a(S'obsitcle'
p7289
I1
tp7290
a(S'obsolete'
p7291
I1
tp7292
a(S'obstable'
p7293
I1
tp7294
a(S'obstables'
p7295
I1
tp7296
a(S'obstace'
p7297
I1
tp7298
a(S'obstacels'
p7299
I1
tp7300
a(S"obstacle's"
p7301
I1
tp7302
a(S'obstacle.the'
p7303
I1
tp7304
a(S'obstacles.based'
p7305
I1
tp7306
a(S'obstacles.some'
p7307
I1
tp7308
a(S'obstacles.while'
p7309
I1
tp7310
a(S'obstacles;'
p7311
I1
tp7312
a(S'obstaclesthe'
p7313
I1
tp7314
a(S'obstacole'
p7315
I1
tp7316
a(S'obstact'
p7317
I1
tp7318
a(S'obstactes'
p7319
I1
tp7320
a(S'obstactle'
p7321
I1
tp7322
a(S'obstactles'
p7323
I1
tp7324
a(S'obstakle'
p7325
I1
tp7326
a(S'obstale'
p7327
I1
tp7328
a(S'obstales'
p7329
I1
tp7330
a(S'obstancle'
p7331
I1
tp7332
a(S'obstanke'
p7333
I1
tp7334
a(S'obstecle'
p7335
I1
tp7336
a(S"obstical's"
p7337
I1
tp7338
a(S'obsticlas'
p7339
I1
tp7340
a(S"obsticle's"
p7341
I1
tp7342
a(S'obstructed'
p7343
I1
tp7344
a(S'obstruction'
p7345
I1
tp7346
a(S'obtecles'
p7347
I1
tp7348
a(S'occasions'
p7349
I1
tp7350
a(S'occuring'
p7351
I1
tp7352
a(S'occurr'
p7353
I1
tp7354
a(S'occurring.you'
p7355
I1
tp7356
a(S'ocured'
p7357
I1
tp7358
a(S'ocuring'
p7359
I1
tp7360
a(S'ofcourse'
p7361
I1
tp7362
a(S'off!as'
p7363
I1
tp7364
a(S'off.in'
p7365
I1
tp7366
a(S'off.nature'
p7367
I1
tp7368
a(S'off.safety'
p7369
I1
tp7370
a(S'off/pick'
p7371
I1
tp7372
a(S'offduring'
p7373
I1
tp7374
a(S'offer'
p7375
I1
tp7376
a(S'on.another'
p7377
I1
tp7378
a(S'on.in'
p7379
I1
tp7380
a(S'on.presently'
p7381
I1
tp7382
a(S'on.the'
p7383
I1
tp7384
a(S'on.while'
p7385
I1
tp7386
a(S'onley'
p7387
I1
tp7388
a(S'onslaught'
p7389
I1
tp7390
a(S'ontoultimately'
p7391
I1
tp7392
a(S'operate'
p7393
I1
tp7394
a(S'operator'
p7395
I1
tp7396
a(S'opinions'
p7397
I1
tp7398
a(S'oppertunity'
p7399
I1
tp7400
a(S'oppinions'
p7401
I1
tp7402
a(S'option'
p7403
I1
tp7404
a(S'options'
p7405
I1
tp7406
a(S'orbit'
p7407
I1
tp7408
a(S'ordinary'
p7409
I1
tp7410
a(S'organization1.in'
p7411
I1
tp7412
a(S'organization5.in'
p7413
I1
tp7414
a(S'ornametation'
p7415
I1
tp7416
a(S'ostentatious'
p7417
I1
tp7418
a(S'othe'
p7419
I1
tp7420
a(S'out-do'
p7421
I1
tp7422
a(S'out.based'
p7423
I1
tp7424
a(S'out.in'
p7425
I1
tp7426
a(S'out.obstacles'
p7427
I1
tp7428
a(S'outdated.there'
p7429
I1
tp7430
a(S'outer'
p7431
I1
tp7432
a(S'outlawing'
p7433
I1
tp7434
a(S'outrageously'
p7435
I1
tp7436
a(S'outweigh'
p7437
I1
tp7438
a(S'over-come'
p7439
I1
tp7440
a(S'over-powering'
p7441
I1
tp7442
a(S'overambitious'
p7443
I1
tp7444
a(S'overcome.during'
p7445
I1
tp7446
a(S'overcome.while'
p7447
I1
tp7448
a(S'overcomeon'
p7449
I1
tp7450
a(S'overcomethe'
p7451
I1
tp7452
a(S'overcoming'
p7453
I1
tp7454
a(S'overhead.the'
p7455
I1
tp7456
a(S'overly'
p7457
I1
tp7458
a(S'overpower'
p7459
I1
tp7460
a(S'override'
p7461
I1
tp7462
a(S'overwhelming'
p7463
I1
tp7464
a(S'owers'
p7465
I1
tp7466
a(S'owner'
p7467
I1
tp7468
a(S"owners'"
p7469
I1
tp7470
a(S'packed'
p7471
I1
tp7472
a(S'pad'
p7473
I1
tp7474
a(S'pages'
p7475
I1
tp7476
a(S'paid'
p7477
I1
tp7478
a(S'pain'
p7479
I1
tp7480
a(S'paper'
p7481
I1
tp7482
a(S'paraphrased'
p7483
I1
tp7484
a(S'parially'
p7485
I1
tp7486
a(S'parked'
p7487
I1
tp7488
a(S'passengers.based'
p7489
I1
tp7490
a(S'passengers;'
p7491
I1
tp7492
a(S'path'
p7493
I1
tp7494
a(S'paved'
p7495
I1
tp7496
a(S'peak.the'
p7497
I1
tp7498
a(S'pedestrans'
p7499
I1
tp7500
a(S'pedestrians)'
p7501
I1
tp7502
a(S'pedestrians.another'
p7503
I1
tp7504
a(S'pedestrians.if'
p7505
I1
tp7506
a(S'pedestrians.the'
p7507
I1
tp7508
a(S'pedetrians'
p7509
I1
tp7510
a(S'peers'
p7511
I1
tp7512
a(S'perfectly'
p7513
I1
tp7514
a(S'periods'
p7515
I1
tp7516
a(S'permit'
p7517
I1
tp7518
a(S'permitted'
p7519
I1
tp7520
a(S'persasures'
p7521
I1
tp7522
a(S'person2'
p7523
I1
tp7524
a(S'perspective'
p7525
I1
tp7526
a(S'pessure'
p7527
I1
tp7528
a(S'pick'
p7529
I1
tp7530
a(S'picked'
p7531
I1
tp7532
a(S'picks'
p7533
I1
tp7534
a(S'pieces'
p7535
I1
tp7536
a(S'piolets'
p7537
I1
tp7538
a(S'pit'
p7539
I1
tp7540
a(S'pivotal'
p7541
I1
tp7542
a(S'place.another'
p7543
I1
tp7544
a(S'place.these'
p7545
I1
tp7546
a(S'plaes'
p7547
I1
tp7548
a(S'plains'
p7549
I1
tp7550
a(S"plan's"
p7551
I1
tp7552
a(S'plan.according'
p7553
I1
tp7554
a(S'plan.many'
p7555
I1
tp7556
a(S'planed'
p7557
I1
tp7558
a(S'planes.the'
p7559
I1
tp7560
a(S'planned.there'
p7561
I1
tp7562
a(S'plataform'
p7563
I1
tp7564
a(S'plate'
p7565
I1
tp7566
a(S'platform.the'
p7567
I1
tp7568
a(S'plaussible'
p7569
I1
tp7570
a(S'play.there'
p7571
I1
tp7572
a(S'playing'
p7573
I1
tp7574
a(S'pleasing'
p7575
I1
tp7576
a(S'plop'
p7577
I1
tp7578
a(S'plument'
p7579
I1
tp7580
a(S'plumet'
p7581
I1
tp7582
a(S'plummet'
p7583
I1
tp7584
a(S'podestrions'
p7585
I1
tp7586
a(S'pointed'
p7587
I1
tp7588
a(S'pointless'
p7589
I1
tp7590
a(S'pole'
p7591
I1
tp7592
a(S'poned'
p7593
I1
tp7594
a(S'poor'
p7595
I1
tp7596
a(S'pooring'
p7597
I1
tp7598
a(S'poot'
p7599
I1
tp7600
a(S'poped'
p7601
I1
tp7602
a(S'popular;'
p7603
I1
tp7604
a(S'popularity'
p7605
I1
tp7606
a(S'populate'
p7607
I1
tp7608
a(S'populated.another'
p7609
I1
tp7610
a(S'positioning'
p7611
I1
tp7612
a(S'possessed'
p7613
I1
tp7614
a(S'possible.based'
p7615
I1
tp7616
a(S'possible.the'
p7617
I1
tp7618
a(S'possible.to'
p7619
I1
tp7620
a(S'postone'
p7621
I1
tp7622
a(S'postpon'
p7623
I1
tp7624
a(S'postponements'
p7625
I1
tp7626
a(S'postponing'
p7627
I1
tp7628
a(S'potential.based'
p7629
I1
tp7630
a(S'potential.in'
p7631
I1
tp7632
a(S'pouncher'
p7633
I1
tp7634
a(S'pounds'
p7635
I1
tp7636
a(S'pouring'
p7637
I1
tp7638
a(S'powering'
p7639
I1
tp7640
a(S'pparent'
p7641
I1
tp7642
a(S'practical"the'
p7643
I1
tp7644
a(S'practical.turning'
p7645
I1
tp7646
a(S'practical.when'
p7647
I1
tp7648
a(S'practical?'
p7649
I1
tp7650
a(S'practicalities'
p7651
I1
tp7652
a(S'practice'
p7653
I1
tp7654
a(S'practicol'
p7655
I1
tp7656
a(S'pre'
p7657
I1
tp7658
a(S'preasure'
p7659
I1
tp7660
a(S'precious'
p7661
I1
tp7662
a(S'predestrains'
p7663
I1
tp7664
a(S'predicte'
p7665
I1
tp7666
a(S'predictions'
p7667
I1
tp7668
a(S'preexisting'
p7669
I1
tp7670
a(S'preparation'
p7671
I1
tp7672
a(S'prepare'
p7673
I1
tp7674
a(S'presence'
p7675
I1
tp7676
a(S'presented.the'
p7677
I1
tp7678
a(S'preshure'
p7679
I1
tp7680
a(S'pressure)'
p7681
I1
tp7682
a(S'presure'
p7683
I1
tp7684
a(S'pretend'
p7685
I1
tp7686
a(S'prevailing.in'
p7687
I1
tp7688
a(S'prevalent'
p7689
I1
tp7690
a(S'prevention'
p7691
I1
tp7692
a(S'preventions'
p7693
I1
tp7694
a(S'previously'
p7695
I1
tp7696
a(S'primary'
p7697
I1
tp7698
a(S'prior'
p7699
I1
tp7700
a(S'proably'
p7701
I1
tp7702
a(S'probable'
p7703
I1
tp7704
a(S'probaly'
p7705
I1
tp7706
a(S'problamatic'
p7707
I1
tp7708
a(S'problem.the'
p7709
I1
tp7710
a(S'problem.while'
p7711
I1
tp7712
a(S'problem/concern'
p7713
I1
tp7714
a(S'problems.another'
p7715
I1
tp7716
a(S'procceded'
p7717
I1
tp7718
a(S'procedures'
p7719
I1
tp7720
a(S'proceed.in'
p7721
I1
tp7722
a(S'proceeding'
p7723
I1
tp7724
a(S'process.the'
p7725
I1
tp7726
a(S'produced'
p7727
I1
tp7728
a(S'product'
p7729
I1
tp7730
a(S'production'
p7731
I1
tp7732
a(S'prof'
p7733
I1
tp7734
a(S'progressed'
p7735
I1
tp7736
a(S'progression'
p7737
I1
tp7738
a(S"project's"
p7739
I1
tp7740
a(S'project.based'
p7741
I1
tp7742
a(S'project.in'
p7743
I1
tp7744
a(S'project.while'
p7745
I1
tp7746
a(S'project;'
p7747
I1
tp7748
a(S'projected'
p7749
I1
tp7750
a(S'promblem'
p7751
I1
tp7752
a(S'prominent'
p7753
I1
tp7754
a(S'promising'
p7755
I1
tp7756
a(S'prompted'
p7757
I1
tp7758
a(S'proof'
p7759
I1
tp7760
a(S'properly.in'
p7761
I1
tp7762
a(S'propostorous'
p7763
I1
tp7764
a(S'pros'
p7765
I1
tp7766
a(S'prospect'
p7767
I1
tp7768
a(S'prototype'
p7769
I1
tp7770
a(S'provided'
p7771
I1
tp7772
a(S'provider.the'
p7773
I1
tp7774
a(S'providing'
p7775
I1
tp7776
a(S'public.based'
p7777
I1
tp7778
a(S'public.the'
p7779
I1
tp7780
a(S'public.they'
p7781
I1
tp7782
a(S'publicly'
p7783
I1
tp7784
a(S'punture'
p7785
I1
tp7786
a(S'purpast'
p7787
I1
tp7788
a(S'purpose."during'
p7789
I1
tp7790
a(S'purpose."there'
p7791
I1
tp7792
a(S'purpose..."there'
p7793
I1
tp7794
a(S'purpose.attempting'
p7795
I1
tp7796
a(S'purpose.competitive'
p7797
I1
tp7798
a(S'purpose.to'
p7799
I1
tp7800
a(S'purposes.the'
p7801
I1
tp7802
a(S'purpouse'
p7803
I1
tp7804
a(S'pursue'
p7805
I1
tp7806
a(S'puts'
p7807
I1
tp7808
a(S'putt'
p7809
I1
tp7810
a(S'quality'
p7811
I1
tp7812
a(S'questions)'
p7813
I1
tp7814
a(S'questionthe'
p7815
I1
tp7816
a(S'quicker'
p7817
I1
tp7818
a(S'quiet'
p7819
I1
tp7820
a(S'quit'
p7821
I1
tp7822
a(S'quits'
p7823
I1
tp7824
a(S'quoating'
p7825
I1
tp7826
a(S'quoted'
p7827
I1
tp7828
a(S'quotes'
p7829
I1
tp7830
a(S'raced'
p7831
I1
tp7832
a(S'rag'
p7833
I1
tp7834
a(S'rage'
p7835
I1
tp7836
a(S'rains'
p7837
I1
tp7838
a(S'raise'
p7839
I1
tp7840
a(S'range'
p7841
I1
tp7842
a(S'ranged'
p7843
I1
tp7844
a(S'ranging'
p7845
I1
tp7846
a(S'rapped'
p7847
I1
tp7848
a(S'rarely'
p7849
I1
tp7850
a(S'rates'
p7851
I1
tp7852
a(S'rational'
p7853
I1
tp7854
a(S're-done'
p7855
I1
tp7856
a(S're-fill'
p7857
I1
tp7858
a(S're-fining'
p7859
I1
tp7860
a(S're-support'
p7861
I1
tp7862
a(S'reached.the'
p7863
I1
tp7864
a(S'react'
p7865
I1
tp7866
a(S'readers'
p7867
I1
tp7868
a(S'readiness'
p7869
I1
tp7870
a(S'reading!'
p7871
I1
tp7872
a(S'ready'
p7873
I1
tp7874
a(S'realised'
p7875
I1
tp7876
a(S'realistic.the'
p7877
I1
tp7878
a(S'reality.in'
p7879
I1
tp7880
a(S'reality.there'
p7881
I1
tp7882
a(S'realize.the'
p7883
I1
tp7884
a(S'realzed'
p7885
I1
tp7886
a(S'rearrange'
p7887
I1
tp7888
a(S'reason/problem'
p7889
I1
tp7890
a(S'reasoning.there'
p7891
I1
tp7892
a(S'reasons.in'
p7893
I1
tp7894
a(S'reasons.what'
p7895
I1
tp7896
a(S'recognized'
p7897
I1
tp7898
a(S'reconsider'
p7899
I1
tp7900
a(S'reconstructing'
p7901
I1
tp7902
a(S'reconstructions'
p7903
I1
tp7904
a(S'record'
p7905
I1
tp7906
a(S'redesigned'
p7907
I1
tp7908
a(S'redesigning'
p7909
I1
tp7910
a(S'rediculous'
p7911
I1
tp7912
a(S'redone'
p7913
I1
tp7914
a(S'reduce'
p7915
I1
tp7916
a(S'reduced'
p7917
I1
tp7918
a(S'reduction'
p7919
I1
tp7920
a(S'refering'
p7921
I1
tp7922
a(S'refill'
p7923
I1
tp7924
a(S'reflect'
p7925
I1
tp7926
a(S'refueling.one'
p7927
I1
tp7928
a(S'refuling'
p7929
I1
tp7930
a(S'refused'
p7931
I1
tp7932
a(S'regarded'
p7933
I1
tp7934
a(S'regulating'
p7935
I1
tp7936
a(S'regulations'
p7937
I1
tp7938
a(S'reinforcing'
p7939
I1
tp7940
a(S'rejected'
p7941
I1
tp7942
a(S'relation'
p7943
I1
tp7944
a(S'relatively'
p7945
I1
tp7946
a(S'released'
p7947
I1
tp7948
a(S'reliable'
p7949
I1
tp7950
a(S'relive'
p7951
I1
tp7952
a(S'relizing'
p7953
I1
tp7954
a(S'relly'
p7955
I1
tp7956
a(S'remedy'
p7957
I1
tp7958
a(S'reminded'
p7959
I1
tp7960
a(S'remote'
p7961
I1
tp7962
a(S'remotely'
p7963
I1
tp7964
a(S'render'
p7965
I1
tp7966
a(S'renevations'
p7967
I1
tp7968
a(S'renevisions'
p7969
I1
tp7970
a(S'rep'
p7971
I1
tp7972
a(S'repair'
p7973
I1
tp7974
a(S'repairing'
p7975
I1
tp7976
a(S'repairs'
p7977
I1
tp7978
a(S'repeat'
p7979
I1
tp7980
a(S'required'
p7981
I1
tp7982
a(S'requirements'
p7983
I1
tp7984
a(S'researched'
p7985
I1
tp7986
a(S'researching'
p7987
I1
tp7988
a(S'residential'
p7989
I1
tp7990
a(S'residents'
p7991
I1
tp7992
a(S'resolt'
p7993
I1
tp7994
a(S'resolve'
p7995
I1
tp7996
a(S'resolved.lastly'
p7997
I1
tp7998
a(S'resons'
p7999
I1
tp8000
a(S'resources'
p8001
I1
tp8002
a(S'responded'
p8003
I1
tp8004
a(S'resting'
p8005
I1
tp8006
a(S'restrict'
p8007
I1
tp8008
a(S'restriction'
p8009
I1
tp8010
a(S'restructuring'
p8011
I1
tp8012
a(S'restruture'
p8013
I1
tp8014
a(S'rethink'
p8015
I1
tp8016
a(S'retired'
p8017
I1
tp8018
a(S'revealing'
p8019
I1
tp8020
a(S'reveals'
p8021
I1
tp8022
a(S'revelation'
p8023
I1
tp8024
a(S'reviewed'
p8025
I1
tp8026
a(S'revolutionize'
p8027
I1
tp8028
a(S'revolutionized'
p8029
I1
tp8030
a(S'rid'
p8031
I1
tp8032
a(S'rienforcing'
p8033
I1
tp8034
a(S'ring'
p8035
I1
tp8036
a(S'ripped'
p8037
I1
tp8038
a(S"risk's"
p8039
I1
tp8040
a(S'risk.a'
p8041
I1
tp8042
a(S'risked'
p8043
I1
tp8044
a(S'risks.the'
p8045
I1
tp8046
a(S'risky.the'
p8047
I1
tp8048
a(S'roaming'
p8049
I1
tp8050
a(S'roaring'
p8051
I1
tp8052
a(S'rocket-shape'
p8053
I1
tp8054
a(S'rode'
p8055
I1
tp8056
a(S'roof".in'
p8057
I1
tp8058
a(S'roof.from'
p8059
I1
tp8060
a(S'roofs'
p8061
I1
tp8062
a(S'rooms.they'
p8063
I1
tp8064
a(S'rose'
p8065
I1
tp8066
a(S'rotating'
p8067
I1
tp8068
a(S'rubbers'
p8069
I1
tp8070
a(S'rudders'
p8071
I1
tp8072
a(S'ruffer'
p8073
I1
tp8074
a(S'ruined'
p8075
I1
tp8076
a(S'rule'
p8077
I1
tp8078
a(S'rules'
p8079
I1
tp8080
a(S'rural'
p8081
I1
tp8082
a(S'rush'
p8083
I1
tp8084
a(S'sad'
p8085
I1
tp8086
a(S'saddly'
p8087
I1
tp8088
a(S'sadly'
p8089
I1
tp8090
a(S'safe".while'
p8091
I1
tp8092
a(S'safe."in'
p8093
I1
tp8094
a(S'safe."when'
p8095
I1
tp8096
a(S'safe.another'
p8097
I1
tp8098
a(S'safe.base'
p8099
I1
tp8100
a(S'safe.based'
p8101
I1
tp8102
a(S'safe.builders'
p8103
I1
tp8104
a(S'safe.due'
p8105
I1
tp8106
a(S'safe.in'
p8107
I1
tp8108
a(S'safe.te'
p8109
I1
tp8110
a(S'safe.when'
p8111
I1
tp8112
a(S'safe;'
p8113
I1
tp8114
a(S'safety.in'
p8115
I1
tp8116
a(S'safety.the'
p8117
I1
tp8118
a(S'safeways'
p8119
I1
tp8120
a(S'safley'
p8121
I1
tp8122
a(S'saflley'
p8123
I1
tp8124
a(S'safly'
p8125
I1
tp8126
a(S'saking'
p8127
I1
tp8128
a(S'salf'
p8129
I1
tp8130
a(S'same.the'
p8131
I1
tp8132
a(S'sanction'
p8133
I1
tp8134
a(S'save'
p8135
I1
tp8136
a(S'saved'
p8137
I1
tp8138
a(S'saved.the'
p8139
I1
tp8140
a(S'sayed'
p8141
I1
tp8142
a(S'scare'
p8143
I1
tp8144
a(S'scared'
p8145
I1
tp8146
a(S'sci-fi'
p8147
I1
tp8148
a(S'scientifically'
p8149
I1
tp8150
a(S'scrap'
p8151
I1
tp8152
a(S'scrapped.based'
p8153
I1
tp8154
a(S'scrapped.the'
p8155
I1
tp8156
a(S'scrapped.there'
p8157
I1
tp8158
a(S'screw'
p8159
I1
tp8160
a(S'sea'
p8161
I1
tp8162
a(S'secret'
p8163
I1
tp8164
a(S'secretly'
p8165
I1
tp8166
a(S'securing'
p8167
I1
tp8168
a(S'securly'
p8169
I1
tp8170
a(S'seemingly'
p8171
I1
tp8172
a(S'seers.based'
p8173
I1
tp8174
a(S'sefty'
p8175
I1
tp8176
a(S'selection'
p8177
I1
tp8178
a(S'self.safty'
p8179
I1
tp8180
a(S'self.the'
p8181
I1
tp8182
a(S'selfs.the'
p8183
I1
tp8184
a(S'selrve'
p8185
I1
tp8186
a(S'sending'
p8187
I1
tp8188
a(S'serves'
p8189
I1
tp8190
a(S'serviced'
p8191
I1
tp8192
a(S'serving'
p8193
I1
tp8194
a(S'settlements'
p8195
I1
tp8196
a(S'severely'
p8197
I1
tp8198
a(S'shaken'
p8199
I1
tp8200
a(S'shall'
p8201
I1
tp8202
a(S'shatter'
p8203
I1
tp8204
a(S'shelved.the'
p8205
I1
tp8206
a(S'shiftyness'
p8207
I1
tp8208
a(S'shinny'
p8209
I1
tp8210
a(S'shiny-aluminum'
p8211
I1
tp8212
a(S"ship's"
p8213
I1
tp8214
a(S'ship.another'
p8215
I1
tp8216
a(S'ships.based'
p8217
I1
tp8218
a(S'shock'
p8219
I1
tp8220
a(S'shocked'
p8221
I1
tp8222
a(S'shorter'
p8223
I1
tp8224
a(S'shortsightedness'
p8225
I1
tp8226
a(S'shot'
p8227
I1
tp8228
a(S"shouldn't"
p8229
I1
tp8230
a(S'shove'
p8231
I1
tp8232
a(S'showed'
p8233
I1
tp8234
a(S'showend'
p8235
I1
tp8236
a(S'showy'
p8237
I1
tp8238
a(S'shp'
p8239
I1
tp8240
a(S'sides?'
p8241
I1
tp8242
a(S'sideways'
p8243
I1
tp8244
a(S'sight'
p8245
I1
tp8246
a(S'sightseers'
p8247
I1
tp8248
a(S'sightseers.new'
p8249
I1
tp8250
a(S'sightseers.the'
p8251
I1
tp8252
a(S'significance'
p8253
I1
tp8254
a(S'significantly'
p8255
I1
tp8256
a(S'simplicity.although'
p8257
I1
tp8258
a(S'simulated'
p8259
I1
tp8260
a(S"sinerio's"
p8261
I1
tp8262
a(S'sisty'
p8263
I1
tp8264
a(S'sits'
p8265
I1
tp8266
a(S'sittoation'
p8267
I1
tp8268
a(S'situation.although'
p8269
I1
tp8270
a(S'six)'
p8271
I1
tp8272
a(S'sixtey'
p8273
I1
tp8274
a(S'skilled'
p8275
I1
tp8276
a(S'skyscrapers'
p8277
I1
tp8278
a(S'skyscrapper'
p8279
I1
tp8280
a(S'sleave'
p8281
I1
tp8282
a(S'sleeve'
p8283
I1
tp8284
a(S'slightest'
p8285
I1
tp8286
a(S'slightly'
p8287
I1
tp8288
a(S'slogan'
p8289
I1
tp8290
a(S'small'
p8291
I1
tp8292
a(S'snag'
p8293
I1
tp8294
a(S'sneaking'
p8295
I1
tp8296
a(S'sneaky'
p8297
I1
tp8298
a(S'snuck'
p8299
I1
tp8300
a(S'so.the'
p8301
I1
tp8302
a(S'society.al'
p8303
I1
tp8304
a(S'society.there'
p8305
I1
tp8306
a(S'soft'
p8307
I1
tp8308
a(S'solely'
p8309
I1
tp8310
a(S'solutions.from'
p8311
I1
tp8312
a(S'solved.the'
p8313
I1
tp8314
a(S'solving'
p8315
I1
tp8316
a(S'somebody'
p8317
I1
tp8318
a(S'somewere'
p8319
I1
tp8320
a(S'somewhat'
p8321
I1
tp8322
a(S'somewhere'
p8323
I1
tp8324
a(S'somthing'
p8325
I1
tp8326
a(S'sorts'
p8327
I1
tp8328
a(S'sought'
p8329
I1
tp8330
a(S'sould'
p8331
I1
tp8332
a(S'spacey'
p8333
I1
tp8334
a(S'sparer'
p8335
I1
tp8336
a(S'spear'
p8337
I1
tp8338
a(S'spearheaded'
p8339
I1
tp8340
a(S'speed.even'
p8341
I1
tp8342
a(S'spike'
p8343
I1
tp8344
a(S'spikey'
p8345
I1
tp8346
a(S'spirling'
p8347
I1
tp8348
a(S'spread'
p8349
I1
tp8350
a(S'stabilized'
p8351
I1
tp8352
a(S'stabilizing'
p8353
I1
tp8354
a(S'stacle'
p8355
I1
tp8356
a(S'stacles'
p8357
I1
tp8358
a(S'stage'
p8359
I1
tp8360
a(S'stalled'
p8361
I1
tp8362
a(S'start.in'
p8363
I1
tp8364
a(S'start;'
p8365
I1
tp8366
a(S'starters'
p8367
I1
tp8368
a(S'state."the'
p8369
I1
tp8370
a(S'state.when'
p8371
I1
tp8372
a(S'stateing'
p8373
I1
tp8374
a(S'station.everyone'
p8375
I1
tp8376
a(S'stationary'
p8377
I1
tp8378
a(S'stationd'
p8379
I1
tp8380
a(S'stays'
p8381
I1
tp8382
a(S'stead'
p8383
I1
tp8384
a(S'steel-frame'
p8385
I1
tp8386
a(S'steelframe'
p8387
I1
tp8388
a(S'stelfame'
p8389
I1
tp8390
a(S'stell'
p8391
I1
tp8392
a(S'stemmed'
p8393
I1
tp8394
a(S'step'
p8395
I1
tp8396
a(S'step-back'
p8397
I1
tp8398
a(S'stepped'
p8399
I1
tp8400
a(S'steps-back'
p8401
I1
tp8402
a(S'stimulating'
p8403
I1
tp8404
a(S'stocking.finally'
p8405
I1
tp8406
a(S'storage'
p8407
I1
tp8408
a(S'storms'
p8409
I1
tp8410
a(S'straightforward'
p8411
I1
tp8412
a(S'strapp'
p8413
I1
tp8414
a(S'strategically'
p8415
I1
tp8416
a(S'straw'
p8417
I1
tp8418
a(S'strees'
p8419
I1
tp8420
a(S'street,"based'
p8421
I1
tp8422
a(S'street.the'
p8423
I1
tp8424
a(S'streghten'
p8425
I1
tp8426
a(S'stregthen'
p8427
I1
tp8428
a(S'stregthing'
p8429
I1
tp8430
a(S'strengthed'
p8431
I1
tp8432
a(S'strengthened.in'
p8433
I1
tp8434
a(S'strengthened.the'
p8435
I1
tp8436
a(S'stres'
p8437
I1
tp8438
a(S'stresses'
p8439
I1
tp8440
a(S'stressing'
p8441
I1
tp8442
a(S'structure;'
p8443
I1
tp8444
a(S'structurein'
p8445
I1
tp8446
a(S'structuring'
p8447
I1
tp8448
a(S'struggles'
p8449
I1
tp8450
a(S'stuck'
p8451
I1
tp8452
a(S'study'
p8453
I1
tp8454
a(S'studying'
p8455
I1
tp8456
a(S'stuff'
p8457
I1
tp8458
a(S'stumble'
p8459
I1
tp8460
a(S'stumbled'
p8461
I1
tp8462
a(S'sturcture'
p8463
I1
tp8464
a(S'stylish'
p8465
I1
tp8466
a(S'substances'
p8467
I1
tp8468
a(S'substantial'
p8469
I1
tp8470
a(S'suburb'
p8471
I1
tp8472
a(S'succefully'
p8473
I1
tp8474
a(S'succesful'
p8475
I1
tp8476
a(S'success.the'
p8477
I1
tp8478
a(S'successful.architects'
p8479
I1
tp8480
a(S'successful.it'
p8481
I1
tp8482
a(S'suceessful'
p8483
I1
tp8484
a(S'sucsessful'
p8485
I1
tp8486
a(S'sufficiently'
p8487
I1
tp8488
a(S'suggested'
p8489
I1
tp8490
a(S'suitcases'
p8491
I1
tp8492
a(S'suited'
p8493
I1
tp8494
a(S'suites'
p8495
I1
tp8496
a(S'summation'
p8497
I1
tp8498
a(S'summed'
p8499
I1
tp8500
a(S'supervision'
p8501
I1
tp8502
a(S'supplies'
p8503
I1
tp8504
a(S'suppost'
p8505
I1
tp8506
a(S'surely'
p8507
I1
tp8508
a(S'surface'
p8509
I1
tp8510
a(S'surging'
p8511
I1
tp8512
a(S'surmounted'
p8513
I1
tp8514
a(S'surmounting'
p8515
I1
tp8516
a(S'surpass.in'
p8517
I1
tp8518
a(S'surrounded'
p8519
I1
tp8520
a(S'surve'
p8521
I1
tp8522
a(S'suscesfuly'
p8523
I1
tp8524
a(S'suspending'
p8525
I1
tp8526
a(S'swayed'
p8527
I1
tp8528
a(S'sways'
p8529
I1
tp8530
a(S'swept'
p8531
I1
tp8532
a(S'swerve'
p8533
I1
tp8534
a(S'sweying'
p8535
I1
tp8536
a(S'swings'
p8537
I1
tp8538
a(S'swireled'
p8539
I1
tp8540
a(S'swireling'
p8541
I1
tp8542
a(S'swirl'
p8543
I1
tp8544
a(S'swirvle'
p8545
I1
tp8546
a(S'switching'
p8547
I1
tp8548
a(S'swival'
p8549
I1
tp8550
a(S'swiveled'
p8551
I1
tp8552
a(S'swivil'
p8553
I1
tp8554
a(S'swivll'
p8555
I1
tp8556
a(S'swivlle'
p8557
I1
tp8558
a(S'swong'
p8559
I1
tp8560
a(S'swung'
p8561
I1
tp8562
a(S'symbolizes'
p8563
I1
tp8564
a(S'symbols'
p8565
I1
tp8566
a(S'tackled.the'
p8567
I1
tp8568
a(S'tactic'
p8569
I1
tp8570
a(S'take.there'
p8571
I1
tp8572
a(S'takeoff'
p8573
I1
tp8574
a(S'takes'
p8575
I1
tp8576
a(S'taksk'
p8577
I1
tp8578
a(S'taler'
p8579
I1
tp8580
a(S'tallest.the'
p8581
I1
tp8582
a(S'tallet'
p8583
I1
tp8584
a(S'tampered'
p8585
I1
tp8586
a(S'tank.the'
p8587
I1
tp8588
a(S'target'
p8589
I1
tp8590
a(S'task;'
p8591
I1
tp8592
a(S'tasks'
p8593
I1
tp8594
a(S'taste'
p8595
I1
tp8596
a(S'taught'
p8597
I1
tp8598
a(S'techical'
p8599
I1
tp8600
a(S'technicall'
p8601
I1
tp8602
a(S'technically'
p8603
I1
tp8604
a(S'technique'
p8605
I1
tp8606
a(S'techniques'
p8607
I1
tp8608
a(S'tedious'
p8609
I1
tp8610
a(S'teeming'
p8611
I1
tp8612
a(S'ten'
p8613
I1
tp8614
a(S'tend'
p8615
I1
tp8616
a(S'term'
p8617
I1
tp8618
a(S'terminal'
p8619
I1
tp8620
a(S'terner'
p8621
I1
tp8622
a(S'tethed'
p8623
I1
tp8624
a(S'tethered.@organization1'
p8625
I1
tp8626
a(S'tethers'
p8627
I1
tp8628
a(S'tethor'
p8629
I1
tp8630
a(S'th'
p8631
I1
tp8632
a(S"tha't"
p8633
I1
tp8634
a(S'thankfully'
p8635
I1
tp8636
a(S'that.al'
p8637
I1
tp8638
a(S'that.based'
p8639
I1
tp8640
a(S'their.in'
p8641
I1
tp8642
a(S'them.the'
p8643
I1
tp8644
a(S'themselfs'
p8645
I1
tp8646
a(S'then-'
p8647
I1
tp8648
a(S'theory.the'
p8649
I1
tp8650
a(S'there"there'
p8651
I1
tp8652
a(S"there's"
p8653
I1
tp8654
a(S'there."most'
p8655
I1
tp8656
a(S'there.according'
p8657
I1
tp8658
a(S'there.although'
p8659
I1
tp8660
a(S'there.based'
p8661
I1
tp8662
a(S'there.by'
p8663
I1
tp8664
a(S'there.for'
p8665
I1
tp8666
a(S'there.obstacles'
p8667
I1
tp8668
a(S'there.when'
p8669
I1
tp8670
a(S'there.while'
p8671
I1
tp8672
a(S'there.work'
p8673
I1
tp8674
a(S'there;'
p8675
I1
tp8676
a(S'there?!'
p8677
I1
tp8678
a(S'theremost'
p8679
I1
tp8680
a(S'therethere'
p8681
I1
tp8682
a(S'thethered'
p8683
I1
tp8684
a(S'thier'
p8685
I1
tp8686
a(S'thing.the'
p8687
I1
tp8688
a(S'things.the'
p8689
I1
tp8690
a(S'thirdly'
p8691
I1
tp8692
a(S'thirteen.first'
p8693
I1
tp8694
a(S"thirtie's"
p8695
I1
tp8696
a(S'thoogh'
p8697
I1
tp8698
a(S'thos'
p8699
I1
tp8700
a(S'thosand'
p8701
I1
tp8702
a(S'thosand-foot'
p8703
I1
tp8704
a(S'thoughout'
p8705
I1
tp8706
a(S'thought.in'
p8707
I1
tp8708
a(S'thoughtout'
p8709
I1
tp8710
a(S'thourgh'
p8711
I1
tp8712
a(S'thousand-'
p8713
I1
tp8714
a(S'thrashing'
p8715
I1
tp8716
a(S'threatening'
p8717
I1
tp8718
a(S'threats'
p8719
I1
tp8720
a(S'threw.the'
p8721
I1
tp8722
a(S'thrilled'
p8723
I1
tp8724
a(S'through;'
p8725
I1
tp8726
a(S'throughthe'
p8727
I1
tp8728
a(S'thrown'
p8729
I1
tp8730
a(S'tickets'
p8731
I1
tp8732
a(S'tightly'
p8733
I1
tp8734
a(S'time-consuming'
p8735
I1
tp8736
a(S'times.the'
p8737
I1
tp8738
a(S'tiring'
p8739
I1
tp8740
a(S'title.the'
p8741
I1
tp8742
a(S'titled'
p8743
I1
tp8744
a(S'tittle'
p8745
I1
tp8746
a(S'today.while'
p8747
I1
tp8748
a(S'todo'
p8749
I1
tp8750
a(S'together.the'
p8751
I1
tp8752
a(S'ton'
p8753
I1
tp8754
a(S'topal'
p8755
I1
tp8756
a(S'topof'
p8757
I1
tp8758
a(S'tossed'
p8759
I1
tp8760
a(S'touch'
p8761
I1
tp8762
a(S'touched'
p8763
I1
tp8764
a(S'toughest'
p8765
I1
tp8766
a(S"tower's"
p8767
I1
tp8768
a(S'towered'
p8769
I1
tp8770
a(S'towering'
p8771
I1
tp8772
a(S'towers'
p8773
I1
tp8774
a(S'tracks'
p8775
I1
tp8776
a(S'trade'
p8777
I1
tp8778
a(S'traditionally'
p8779
I1
tp8780
a(S'traffic'
p8781
I1
tp8782
a(S'trafficking'
p8783
I1
tp8784
a(S'trafic'
p8785
I1
tp8786
a(S'tragedy'
p8787
I1
tp8788
a(S'trageties'
p8789
I1
tp8790
a(S'trajic'
p8791
I1
tp8792
a(S'transmite'
p8793
I1
tp8794
a(S'transmited'
p8795
I1
tp8796
a(S'transportantion'
p8797
I1
tp8798
a(S'transportation.without'
p8799
I1
tp8800
a(S'transportations'
p8801
I1
tp8802
a(S'travel.in'
p8803
I1
tp8804
a(S'travel;'
p8805
I1
tp8806
a(S'traveled'
p8807
I1
tp8808
a(S'travelin'
p8809
I1
tp8810
a(S'traveling.another'
p8811
I1
tp8812
a(S'travelled'
p8813
I1
tp8814
a(S'tremondos'
p8815
I1
tp8816
a(S'trial'
p8817
I1
tp8818
a(S'trials'
p8819
I1
tp8820
a(S'tribulates'
p8821
I1
tp8822
a(S'trick'
p8823
I1
tp8824
a(S'tricks'
p8825
I1
tp8826
a(S'troubling'
p8827
I1
tp8828
a(S'true.ambitious'
p8829
I1
tp8830
a(S'trust'
p8831
I1
tp8832
a(S'tryed'
p8833
I1
tp8834
a(S'tufe'
p8835
I1
tp8836
a(S'turbulent'
p8837
I1
tp8838
a(S'twice'
p8839
I1
tp8840
a(S'twirl'
p8841
I1
tp8842
a(S'two-hundred'
p8843
I1
tp8844
a(S'two.there'
p8845
I1
tp8846
a(S'tycoons'
p8847
I1
tp8848
a(S'tyed'
p8849
I1
tp8850
a(S'types'
p8851
I1
tp8852
a(S'ugly'
p8853
I1
tp8854
a(S'uilding'
p8855
I1
tp8856
a(S'ultimate'
p8857
I1
tp8858
a(S'un'
p8859
I1
tp8860
a(S'un-ideal'
p8861
I1
tp8862
a(S'un-safe'
p8863
I1
tp8864
a(S'un-tied'
p8865
I1
tp8866
a(S'unaware'
p8867
I1
tp8868
a(S'unboard'
p8869
I1
tp8870
a(S'unboarding'
p8871
I1
tp8872
a(S'uncomplete'
p8873
I1
tp8874
a(S'uncontraiable'
p8875
I1
tp8876
a(S'uncontrollably'
p8877
I1
tp8878
a(S'uncontrolled'
p8879
I1
tp8880
a(S'undercontrol'
p8881
I1
tp8882
a(S'undergo'
p8883
I1
tp8884
a(S'underside'
p8885
I1
tp8886
a(S'understand'
p8887
I1
tp8888
a(S'understanding'
p8889
I1
tp8890
a(S'underwent'
p8891
I1
tp8892
a(S'undocked'
p8893
I1
tp8894
a(S'uneasy'
p8895
I1
tp8896
a(S'unexpected'
p8897
I1
tp8898
a(S'unfesable'
p8899
I1
tp8900
a(S'unforeseen'
p8901
I1
tp8902
a(S'unfortunaetly'
p8903
I1
tp8904
a(S'unfortunate'
p8905
I1
tp8906
a(S'unfortunatly'
p8907
I1
tp8908
a(S'unfortuntly'
p8909
I1
tp8910
a(S'unforunantly'
p8911
I1
tp8912
a(S'unhooked'
p8913
I1
tp8914
a(S'unimaginable'
p8915
I1
tp8916
a(S'unitestates'
p8917
I1
tp8918
a(S'unknown'
p8919
I1
tp8920
a(S'unland'
p8921
I1
tp8922
a(S'unlike'
p8923
I1
tp8924
a(S'unliked'
p8925
I1
tp8926
a(S'unloding'
p8927
I1
tp8928
a(S'unnatural'
p8929
I1
tp8930
a(S'unnecessary'
p8931
I1
tp8932
a(S'unnoticed'
p8933
I1
tp8934
a(S'unparallel'
p8935
I1
tp8936
a(S'unpaticent'
p8937
I1
tp8938
a(S'unplausable'
p8939
I1
tp8940
a(S'unpractible'
p8941
I1
tp8942
a(S'unpractical.people'
p8943
I1
tp8944
a(S'unpredictabled'
p8945
I1
tp8946
a(S'unpredictably'
p8947
I1
tp8948
a(S'unpredictible'
p8949
I1
tp8950
a(S'unquestionable'
p8951
I1
tp8952
a(S'unrealistic.al'
p8953
I1
tp8954
a(S'unrealistic.with'
p8955
I1
tp8956
a(S'unrealized'
p8957
I1
tp8958
a(S'unsafe.al'
p8959
I1
tp8960
a(S'unsafe.while'
p8961
I1
tp8962
a(S'unsafety'
p8963
I1
tp8964
a(S'unsafly'
p8965
I1
tp8966
a(S'unscure'
p8967
I1
tp8968
a(S'unsecure'
p8969
I1
tp8970
a(S'unseen'
p8971
I1
tp8972
a(S'unstability'
p8973
I1
tp8974
a(S'unstable.in'
p8975
I1
tp8976
a(S'unsuccess'
p8977
I1
tp8978
a(S'unsuccessful.there'
p8979
I1
tp8980
a(S'unsuccessfully'
p8981
I1
tp8982
a(S'unthoughtof'
p8983
I1
tp8984
a(S'untied'
p8985
I1
tp8986
a(S'untold'
p8987
I1
tp8988
a(S'unturful'
p8989
I1
tp8990
a(S'unusable'
p8991
I1
tp8992
a(S'unused'
p8993
I1
tp8994
a(S'unused.the'
p8995
I1
tp8996
a(S'unwanted'
p8997
I1
tp8998
a(S'up.based'
p8999
I1
tp9000
a(S'up.the'
p9001
I1
tp9002
a(S'up?'
p9003
I1
tp9004
a(S'updrafts'
p9005
I1
tp9006
a(S'upgrade'
p9007
I1
tp9008
a(S'upheld'
p9009
I1
tp9010
a(S'upwards'
p9011
I1
tp9012
a(S'urealistic'
p9013
I1
tp9014
a(S'usable'
p9015
I1
tp9016
a(S'use.and'
p9017
I1
tp9018
a(S'use.when'
p9019
I1
tp9020
a(S'used.al'
p9021
I1
tp9022
a(S'used.based'
p9023
I1
tp9024
a(S'used.when'
p9025
I1
tp9026
a(S'used.while'
p9027
I1
tp9028
a(S'useing'
p9029
I1
tp9030
a(S'useless'
p9031
I1
tp9032
a(S'valves'
p9033
I1
tp9034
a(S'variables'
p9035
I1
tp9036
a(S'variations'
p9037
I1
tp9038
a(S'variety'
p9039
I1
tp9040
a(S'vastly'
p9041
I1
tp9042
a(S'velocities'
p9043
I1
tp9044
a(S'verry'
p9045
I1
tp9046
a(S'verses'
p9047
I1
tp9048
a(S'vessels'
p9049
I1
tp9050
a(S'vicinity'
p9051
I1
tp9052
a(S'view'
p9053
I1
tp9054
a(S'viewpoint'
p9055
I1
tp9056
a(S'vilant'
p9057
I1
tp9058
a(S'vilent'
p9059
I1
tp9060
a(S'violated'
p9061
I1
tp9062
a(S'violating'
p9063
I1
tp9064
a(S'violations'
p9065
I1
tp9066
a(S'virtually'
p9067
I1
tp9068
a(S'viscinity'
p9069
I1
tp9070
a(S'visibly'
p9071
I1
tp9072
a(S'visit'
p9073
I1
tp9074
a(S'visited'
p9075
I1
tp9076
a(S'visiting'
p9077
I1
tp9078
a(S'w/hydrogen'
p9079
I1
tp9080
a(S'w/people'
p9081
I1
tp9082
a(S'waights'
p9083
I1
tp9084
a(S'waist'
p9085
I1
tp9086
a(S'waive'
p9087
I1
tp9088
a(S'wald'
p9089
I1
tp9090
a(S'walked'
p9091
I1
tp9092
a(S'wand'
p9093
I1
tp9094
a(S'ward'
p9095
I1
tp9096
a(S'warned'
p9097
I1
tp9098
a(S'was.there'
p9099
I1
tp9100
a(S'was.to'
p9101
I1
tp9102
a(S'was;'
p9103
I1
tp9104
a(S'waste.in'
p9105
I1
tp9106
a(S'watch'
p9107
I1
tp9108
a(S'watching'
p9109
I1
tp9110
a(S'water'
p9111
I1
tp9112
a(S'waving'
p9113
I1
tp9114
a(S'way;'
p9115
I1
tp9116
a(S'ways.marcia'
p9117
I1
tp9118
a(S'weakness'
p9119
I1
tp9120
a(S'wear'
p9121
I1
tp9122
a(S'weather.many'
p9123
I1
tp9124
a(S'weatherwise'
p9125
I1
tp9126
a(S'weighos'
p9127
I1
tp9128
a(S'weighs'
p9129
I1
tp9130
a(S'weighths'
p9131
I1
tp9132
a(S'weightless'
p9133
I1
tp9134
a(S'weights.in'
p9135
I1
tp9136
a(S'well-liked'
p9137
I1
tp9138
a(S'well.architects'
p9139
I1
tp9140
a(S'well.the'
p9141
I1
tp9142
a(S'well;'
p9143
I1
tp9144
a(S'wells'
p9145
I1
tp9146
a(S'wenches'
p9147
I1
tp9148
a(S'wer'
p9149
I1
tp9150
a(S"wer'e"
p9151
I1
tp9152
a(S'werent'
p9153
I1
tp9154
a(S'wether'
p9155
I1
tp9156
a(S"wha's"
p9157
I1
tp9158
a(S'wheather'
p9159
I1
tp9160
a(S'wher'
p9161
I1
tp9162
a(S'while.based'
p9163
I1
tp9164
a(S'whinch'
p9165
I1
tp9166
a(S'whiping'
p9167
I1
tp9168
a(S'whopping'
p9169
I1
tp9170
a(S'widely'
p9171
I1
tp9172
a(S'wieght'
p9173
I1
tp9174
a(S'wildly'
p9175
I1
tp9176
a(S'wile'
p9177
I1
tp9178
a(S'willing'
p9179
I1
tp9180
a(S'win'
p9181
I1
tp9182
a(S'wind."constructing'
p9183
I1
tp9184
a(S'windows."while'
p9185
I1
tp9186
a(S'winds.blimps'
p9187
I1
tp9188
a(S'winds.other'
p9189
I1
tp9190
a(S'winds.the'
p9191
I1
tp9192
a(S'windstorm'
p9193
I1
tp9194
a(S'winning'
p9195
I1
tp9196
a(S'wiping'
p9197
I1
tp9198
a(S'wirled'
p9199
I1
tp9200
a(S'wish'
p9201
I1
tp9202
a(S'wished'
p9203
I1
tp9204
a(S'wishful'
p9205
I1
tp9206
a(S'with.in'
p9207
I1
tp9208
a(S'with.the'
p9209
I1
tp9210
a(S'with.when'
p9211
I1
tp9212
a(S'withhold'
p9213
I1
tp9214
a(S'witout'
p9215
I1
tp9216
a(S'wold'
p9217
I1
tp9218
a(S'woldent'
p9219
I1
tp9220
a(S'wolud'
p9221
I1
tp9222
a(S'wood'
p9223
I1
tp9224
a(S'wore'
p9225
I1
tp9226
a(S'work.after'
p9227
I1
tp9228
a(S'work.another'
p9229
I1
tp9230
a(S'work.based'
p9231
I1
tp9232
a(S'work.in'
p9233
I1
tp9234
a(S'worked.the'
p9235
I1
tp9236
a(S'worked/talked'
p9237
I1
tp9238
a(S"worker's"
p9239
I1
tp9240
a(S'workers.the'
p9241
I1
tp9242
a(S'working.the'
p9243
I1
tp9244
a(S'workload.the'
p9245
I1
tp9246
a(S'works'
p9247
I1
tp9248
a(S'workthe'
p9249
I1
tp9250
a(S'world.the'
p9251
I1
tp9252
a(S'world;'
p9253
I1
tp9254
a(S'worrie'
p9255
I1
tp9256
a(S'worriying'
p9257
I1
tp9258
a(S'worrys'
p9259
I1
tp9260
a(S'worse.in'
p9261
I1
tp9262
a(S"would'nt"
p9263
I1
tp9264
a(S"would've"
p9265
I1
tp9266
a(S'wounded'
p9267
I1
tp9268
a(S'wrap'
p9269
I1
tp9270
a(S'wraping'
p9271
I1
tp9272
a(S'wrapped'
p9273
I1
tp9274
a(S'wreck'
p9275
I1
tp9276
a(S'writer'
p9277
I1
tp9278
a(S'wrong.the'
p9279
I1
tp9280
a(S'wrote'
p9281
I1
tp9282
a(S'york".however'
p9283
I1
tp9284
a(S'york".the'
p9285
I1
tp9286
a(S'york"some'
p9287
I1
tp9288
a(S'york)'
p9289
I1
tp9290
a(S"york.'"
p9291
I1
tp9292
a(S'york.in'
p9293
I1
tp9294
a(S'york.some'
p9295
I1
tp9296
a(S'york.there'
p9297
I1
tp9298
a(S'york.while'
p9299
I1
tp9300
a(S"you're"
p9301
I1
tp9302
a(S'you.another'
p9303
I1
tp9304
a(S'zeplin'
p9305
I1
tp9306
a.