(lp1
(S'cyclist'
p2
I2029
tp3
a(S'wa'
p4
I1952
tp5
a(S'setting'
p6
I1243
tp7
a(S'water'
p8
I1222
tp9
a(S'hi'
p10
I997
tp11
a(S'thi'
p12
I782
tp13
a(S'feature'
p14
I749
tp15
a(S'affect'
p16
I639
tp17
a(S'road'
p18
I593
tp19
a(S'affected'
p20
I461
tp21
a(S'desert'
p22
I450
tp23
a(S'hot'
p24
I448
tp25
a(S'story'
p26
I433
tp27
a(S'hill'
p28
I399
tp29
a(S'would'
p30
I398
tp31
a(S'also'
p32
I386
tp33
a(S'get'
p34
I383
tp35
a(S'way'
p36
I349
tp37
a(S'could'
p38
I320
tp39
a(S'make'
p40
I310
tp41
a(S'town'
p42
I306
tp43
a(S'going'
p44
I295
tp45
a(S'heat'
p46
I288
tp47
a(S'speed'
p48
I288
tp49
a(S'one'
p50
I284
tp51
a(S'old'
p52
I258
tp53
a(S'many'
p54
I247
tp55
a(S'first'
p56
I241
tp57
a(S'exceed'
p58
I239
tp59
a(S'made'
p60
I226
tp61
a(S'posted'
p62
I225
tp63
a(S'like'
p64
I223
tp65
a(S'terrain'
p66
I217
tp67
a(S'ride'
p68
I213
tp69
a(S'say'
p70
I208
tp71
a(S'california'
p72
I206
tp73
a(S'example'
p74
I200
tp75
a(S'dehydrated'
p76
I197
tp77
a(S'rough'
p78
I184
tp79
a(S'ha'
p80
I180
tp81
a(S'riding'
p82
I179
tp83
a(S'snake'
p84
I173
tp85
a(S'author'
p86
I170
tp87
a(S'building'
p88
I167
tp89
a(S'thing'
p90
I162
tp91
a(S'lack'
p92
I159
tp93
a(S'bike'
p94
I158
tp95
a(S'place'
p96
I157
tp97
a(S'ahead'
p98
I154
tp99
a(S'direction'
p100
I147
tp101
a(S'rolling'
p102
I146
tp103
a(S'go'
p104
I142
tp105
a(S'journey'
p106
I142
tp107
a(S'\x93rough'
p108
I139
tp109
a(S'hope'
p110
I137
tp111
a(S'around'
p112
I136
tp113
a(S'effect'
p114
I135
tp115
a(S'time'
p116
I135
tp117
a(S'feel'
p118
I133
tp119
a(S'short'
p120
I133
tp121
a(S'got'
p122
I132
tp123
a(S'really'
p124
I132
tp125
a(S'sun'
p126
I131
tp127
a(S'even'
p128
I130
tp129
a(S'june'
p130
I129
tp131
a(S'another'
p132
I128
tp133
a(S'caps1'
p134
I128
tp135
a(S'essay'
p136
I128
tp137
a(S'know'
p138
I128
tp139
a(S'men'
p140
I128
tp141
a(S'said'
p142
I127
tp143
a(S'came'
p144
I126
tp145
a(S'yosemite'
p146
I125
tp147
a(S'tired'
p148
I124
tp149
a(S'long'
p150
I121
tp151
a(S'much'
p152
I121
tp153
a(S'people'
p154
I121
tp155
a(S'die'
p156
I120
tp157
a(S'take'
p158
I120
tp159
a(S'energy'
p160
I119
tp161
a(S'show'
p162
I118
tp163
a(S'thirsty'
p164
I117
tp165
a(S'\x93i'
p166
I115
tp167
a(S'lot'
p168
I113
tp169
a(S'see'
p170
I113
tp171
a(S'hard'
p172
I112
tp173
a(S'limit\x94'
p174
I112
tp175
a(S'dry'
p176
I110
tp177
a(S'think'
p178
I110
tp179
a(S'find'
p180
I108
tp181
a(S'keep'
p182
I108
tp183
a(S'state'
p184
I107
tp185
a(S'condition'
p186
I105
tp187
a(S'help'
p188
I105
tp189
a(S'factory'
p190
I104
tp191
a(S'pump'
p192
I103
tp193
a(S'flat'
p194
I102
tp195
a(S'getting'
p196
I100
tp197
a(S'high'
p198
I100
tp199
a(S'juice'
p200
I100
tp201
a(S'thought'
p202
I100
tp203
a(S'didn\x92t'
p204
I98
tp205
a(S'mile'
p206
I97
tp207
a(S'abandoned'
p208
I95
tp209
a(S'bad'
p210
I95
tp211
a(S'day'
p212
I95
tp213
a(S'limit'
p214
I94
tp215
a(S'next'
p216
I94
tp217
a(S'weather'
p218
I94
tp219
a(S'become'
p220
I92
tp221
a(S'drink'
p222
I91
tp223
a(S'man'
p224
I91
tp225
a(S'making'
p226
I90
tp227
a(S'little'
p228
I89
tp229
a(S'ghost'
p230
I87
tp231
a(S'left'
p232
I87
tp233
a(S'num1'
p234
I87
tp235
a(S'good'
p236
I86
tp237
a(S'need'
p238
I86
tp239
a(S'since'
p240
I86
tp241
a(S'change'
p242
I83
tp243
a(S'come'
p244
I83
tp245
a(S'greatly'
p246
I83
tp247
a(S'sign'
p248
I81
tp249
a(S'\x93the'
p250
I81
tp251
a(S'finally'
p252
I80
tp253
a(S'trip'
p254
I80
tp255
a(S'give'
p256
I78
tp257
a(S'harder'
p258
I78
tp259
a(S'joe'
p260
I78
tp261
a(S'\x93do'
p262
I78
tp263
a(S'bottle'
p264
I77
tp265
a(S'dehydration'
p266
I77
tp267
a(S'large'
p268
I77
tp269
a(S'problem'
p270
I77
tp271
a(S'running'
p272
I77
tp273
a(S'lost'
p274
I76
tp275
a(S'almost'
p276
I75
tp277
a(S'sight'
p278
I75
tp279
a(S'end'
p280
I74
tp281
a(S'advice'
p282
I73
tp283
a(S'drop'
p284
I73
tp285
a(S'kurmaskie'
p286
I73
tp287
a(S'found'
p288
I72
tp289
a(S'replaced'
p290
I71
tp291
a(S'saw'
p292
I71
tp293
a(S'text'
p294
I71
tp295
a(S'cool'
p296
I70
tp297
a(S'supply'
p298
I70
tp299
a(S'car'
p300
I69
tp301
a(S'land'
p302
I69
tp303
a(S'path'
p304
I69
tp305
a(S'point'
p306
I69
tp307
a(S'beginning'
p308
I67
tp309
a(S'caused'
p310
I67
tp311
a(S'well'
p312
I67
tp313
a(S'thirst'
p314
I66
tp315
a(S'two'
p316
I66
tp317
a(S'\x93'
I63
tp318
a(S'big'
p319
I62
tp320
a(S'cause'
p321
I62
tp322
a(S'life'
p323
I62
tp324
a(S'might'
p325
I62
tp326
a(S'never'
p327
I62
tp328
a(S'last'
p329
I61
tp330
a(S'park'
p331
I60
tp332
a(S'started'
p333
I60
tp334
a(S'different'
p335
I59
tp336
a(S'sweat'
p337
I59
tp338
a(S'feeling'
p339
I58
tp340
a(S'difficult'
p341
I57
tp342
a(S'traveling'
p343
I57
tp344
a(S'cyclist.the'
p345
I56
tp346
a(S'deserted'
p347
I56
tp348
a(S'trying'
p349
I55
tp350
a(S'use'
p351
I55
tp352
a(S'area'
p353
I54
tp354
a(S'began'
p355
I54
tp356
a(S'middle'
p357
I54
tp358
a(S'mind'
p359
I54
tp360
a(S'still'
p361
I54
tp362
a(S'summer'
p363
I54
tp364
a(S'took'
p365
I54
tp366
a(S'wasn\x92t'
p367
I54
tp368
a(S'fact'
p369
I53
tp370
a(S'grape'
p371
I53
tp372
a(S'stop'
p373
I53
tp374
a(S'lose'
p375
I52
tp376
a(S'national'
p377
I52
tp378
a(S'tell'
p379
I52
tp380
a(S'want'
p381
I52
tp382
a(S'went'
p383
I52
tp384
a(S'battery'
p385
I51
tp386
a(S'seem'
p387
I51
tp388
a(S'felt'
p389
I50
tp390
a(S'mood'
p391
I49
tp392
a(S'nothing'
p393
I49
tp394
a(S'without'
p395
I49
tp396
a(S'gave'
p397
I48
tp398
a(S'put'
p399
I48
tp400
a(S'cycling'
p401
I47
tp402
a(S'map'
p403
I47
tp404
a(S'quote'
p405
I47
tp406
a(S'rusty'
p407
I47
tp408
a(S'bait'
p409
I46
tp410
a(S'determination'
p411
I46
tp412
a(S'heatstroke'
p413
I46
tp414
a(S'start'
p415
I46
tp416
a(S'acro'
p417
I45
tp418
a(S'became'
p419
I45
tp420
a(S'doe'
p421
I45
tp422
a(S'run'
p423
I45
tp424
a(S'body'
p425
I44
tp426
a(S'probably'
p427
I44
tp428
a(S'rode'
p429
I44
tp430
a(S'several'
p431
I44
tp432
a(S'travel'
p433
I44
tp434
a(S'along'
p435
I43
tp436
a(S'couldn\x92t'
p437
I43
tp438
a(S'don\x92t'
p439
I43
tp440
a(S'pretty'
p441
I43
tp442
a(S'ran'
p443
I43
tp444
a(S'effected'
p445
I42
tp446
a(S'fish'
p447
I42
tp448
a(S'num1)'
p449
I42
tp450
a(S'obstacle'
p451
I42
tp452
a(S'tumbleweed'
p453
I42
tp454
a(S'back'
p455
I41
tp456
a(S'begin'
p457
I41
tp458
a(S'conclusion'
p459
I41
tp460
a(S'he\x92'
p461
I41
tp462
a(S'mean'
p463
I41
tp464
a(S'pedal'
p465
I41
tp466
a(S'wouldn\x92t'
p467
I41
tp468
a(S'&'
I40
tp469
a(S'it\x92'
p470
I40
tp471
a(S'temperature'
p472
I40
tp473
a(S'told'
p474
I40
tp475
a(S'crossed'
p476
I39
tp477
a(S'month1'
p478
I39
tp479
a(S'sure'
p480
I39
tp481
a(S'acid'
p482
I38
tp483
a(S'camp'
p484
I38
tp485
a(S'enough'
p486
I38
tp487
a(S'happy'
p488
I38
tp489
a(S'june.\x94'
p490
I38
tp491
a(S'needed'
p492
I38
tp493
a(S'river'
p494
I38
tp495
a(S'\x93flat'
p496
I38
tp497
a(S'able'
p498
I37
tp499
a(S'balance'
p500
I37
tp501
a(S'beating'
p502
I37
tp503
a(S'bird'
p504
I37
tp505
a(S'extremely'
p506
I37
tp507
a(S'pick'
p508
I37
tp509
a(S'trouble'
p510
I37
tp511
a(S'(kurmaskie'
p512
I36
tp513
a(S'biker'
p514
I36
tp515
a(S'continue'
p516
I36
tp517
a(S'low'
p518
I36
tp519
a(S'main'
p520
I36
tp521
a(S'taking'
p522
I36
tp523
a(S'changed'
p524
I35
tp525
a(S'drinking'
p526
I35
tp527
a(S'due'
p528
I35
tp529
a(S'guy'
p530
I35
tp531
a(S'limit,\x94'
p532
I35
tp533
a(S'negative'
p534
I35
tp535
a(S'outside'
p536
I35
tp537
a(S'reader'
p538
I35
tp539
a(S'reason'
p540
I35
tp541
a(S'rider'
p542
I35
tp543
a(S'shop'
p544
I35
tp545
a(S'stroke'
p546
I35
tp547
a(S'work'
p548
I35
tp549
a(S''
I34
tp550
a(S'bumpy'
p551
I34
tp552
a(S'contained'
p553
I34
tp554
a(S'dessert'
p555
I34
tp556
a(S'determined'
p557
I34
tp558
a(S'growing'
p559
I34
tp560
a(S'shed'
p561
I34
tp562
a(S'structure'
p563
I34
tp564
a(S'alot'
p565
I33
tp566
a(S'arrived'
p567
I33
tp568
a(S'beat'
p569
I33
tp570
a(S'confidence'
p571
I33
tp572
a(S'confident'
p573
I33
tp574
a(S'face'
p575
I33
tp576
a(S'le'
p577
I33
tp578
a(S'look'
p579
I33
tp580
a(S'must'
p581
I33
tp582
a(S'noticed'
p583
I33
tp584
a(S'read'
p585
I33
tp586
a(S'strength'
p587
I33
tp588
a(S'wrong'
p589
I33
tp590
a(S'character'
p591
I32
tp592
a(S'describe'
p593
I32
tp594
a(S'doesn\x92t'
p595
I32
tp596
a(S'however'
p597
I32
tp598
a(S'paragraph'
p599
I32
tp600
a(S'part'
p601
I32
tp602
a(S'pine'
p603
I32
tp604
a(S'ridiculously'
p605
I32
tp606
a(S'worse'
p607
I32
tp608
a(S'cyclist\x92'
p609
I31
tp610
a(S'dangerou'
p611
I31
tp612
a(S'destination'
p613
I31
tp614
a(S'factor'
p615
I31
tp616
a(S'morning'
p617
I31
tp618
a(S'store'
p619
I31
tp620
a(S'alone'
p621
I30
tp622
a(S'biking'
p623
I30
tp624
a(S'drank'
p625
I30
tp626
a(S'easy'
p627
I30
tp628
a(S'faced'
p629
I30
tp630
a(S'faster'
p631
I30
tp632
a(S'followed'
p633
I30
tp634
a(S'great'
p635
I30
tp636
a(S'kept'
p637
I30
tp638
a(S'realization'
p639
I30
tp640
a(S'\x93a'
p641
I30
tp642
a(S'anything'
p643
I29
tp644
a(S'believe'
p645
I29
tp646
a(S'carter'
p647
I29
tp648
a(S'civilization'
p649
I29
tp650
a(S'doubt'
p651
I29
tp652
a(S'hilly'
p653
I29
tp654
a(S'past'
p655
I29
tp656
a(S'something'
p657
I29
tp658
a(S'surrounding'
p659
I29
tp660
a(S'tried'
p661
I29
tp662
a(S'climate'
p663
I28
tp664
a(S'every'
p665
I28
tp666
a(S'goe'
p667
I28
tp668
a(S'hundred'
p669
I28
tp670
a(S'mouth'
p671
I28
tp672
a(S'person'
p673
I28
tp674
a(S'quickly'
p675
I28
tp676
a(S'reached'
p677
I28
tp678
a(S'soon'
p679
I28
tp680
a(S'strong'
p681
I28
tp682
a(S'tough'
p683
I28
tp684
a(S'upon'
p685
I28
tp686
a(S'away'
p687
I27
tp688
a(S'changing'
p689
I27
tp690
a(S'deal'
p691
I27
tp692
a(S'everything'
p693
I27
tp694
a(S'far'
p695
I27
tp696
a(S'fast'
p697
I27
tp698
a(S'later'
p699
I27
tp700
a(S'limit.\x94'
p701
I27
tp702
a(S'matter'
p703
I27
tp704
a(S'seeing'
p705
I27
tp706
a(S'sense'
p707
I27
tp708
a(S'tantalizing'
p709
I27
tp710
a(S'year'
p711
I27
tp712
a(S'affecting'
p713
I26
tp714
a(S'alway'
p715
I26
tp716
a(S'becoming'
p717
I26
tp718
a(S'given'
p719
I26
tp720
a(S'huge'
p721
I26
tp722
a(S'knew'
p723
I26
tp724
a(S'pavement'
p725
I26
tp726
a(S'right'
p727
I26
tp728
a(S'set'
p729
I26
tp730
a(S'used'
p731
I26
tp732
a(S'welch\x92'
p733
I26
tp734
a(S'\x94'
I26
tp735
a(S'ahead\x94'
p736
I25
tp737
a(S'degree'
p738
I25
tp739
a(S'empty'
p740
I25
tp741
a(S'especially'
p742
I25
tp743
a(S'explain'
p744
I25
tp745
a(S'haven\x92t'
p746
I25
tp747
a(S'june\x94'
p748
I25
tp749
a(S'majority'
p750
I25
tp751
a(S'regularly'
p752
I25
tp753
a(S'saying'
p754
I25
tp755
a(S'shortcut'
p756
I25
tp757
a(S'sometime'
p758
I25
tp759
a(S'stone'
p760
I25
tp761
a(S'survive'
p762
I25
tp763
a(S'travelling'
p764
I25
tp765
a(S'\x93town\x94'
p766
I25
tp767
a(S'boy'
p768
I24
tp769
a(S'caps2'
p770
I24
tp771
a(S'crippling'
p772
I24
tp773
a(S'dried'
p774
I24
tp775
a(S'encounter'
p776
I24
tp777
a(S'front'
p778
I24
tp779
a(S'hills.\x94'
p780
I24
tp781
a(S'hit'
p782
I24
tp783
a(S'information'
p784
I24
tp785
a(S'kind'
p786
I24
tp787
a(S'lastly'
p788
I24
tp789
a(S'leg'
p790
I24
tp791
a(S'limited'
p792
I24
tp793
a(S'mph'
p794
I24
tp795
a(S'nice'
p796
I24
tp797
a(S'physical'
p798
I24
tp799
a(S'porche'
p800
I24
tp801
a(S'reache'
p802
I24
tp803
a(S'ring'
p804
I24
tp805
a(S'rushing'
p806
I24
tp807
a(S'scared'
p808
I24
tp809
a(S'shade'
p810
I24
tp811
a(S'situation'
p812
I24
tp813
a(S'somewhere'
p814
I24
tp815
a(S'though'
p816
I24
tp817
a(S'turn'
p818
I24
tp819
a(S'worried'
p820
I24
tp821
a(S'best'
p822
I23
tp823
a(S'better'
p824
I23
tp825
a(S'dehydrate'
p826
I23
tp827
a(S'died'
p828
I23
tp829
a(S'head'
p830
I23
tp831
a(S'hitting'
p832
I23
tp833
a(S'narrator'
p834
I23
tp835
a(S'pebble'
p836
I23
tp837
a(S'picture'
p838
I23
tp839
a(S'scenery'
p840
I23
tp841
a(S'thinking'
p842
I23
tp843
a(S'working'
p844
I23
tp845
a(S'\x93there'
p846
I23
tp847
a(S'???'
p848
I22
tp849
a(S'fear'
p850
I22
tp851
a(S'important'
p852
I22
tp853
a(S'instead'
p854
I22
tp855
a(S'mirage'
p856
I22
tp857
a(S'nowhere'
p858
I22
tp859
a(S'positive'
p860
I22
tp861
a(S'reach'
p862
I22
tp863
a(S'smooth'
p864
I22
tp865
a(S'throughout'
p866
I22
tp867
a(S'water.the'
p868
I22
tp869
a(S'amount'
p870
I21
tp871
a(S'ask'
p872
I21
tp873
a(S'cut'
p874
I21
tp875
a(S'cycle'
p876
I21
tp877
a(S'exhausted'
p878
I21
tp879
a(S'extreme'
p880
I21
tp881
a(S'gorgeou'
p882
I21
tp883
a(S'him.the'
p884
I21
tp885
a(S'hour'
p886
I21
tp887
a(S'longer'
p888
I21
tp889
a(S'major'
p890
I21
tp891
a(S'near'
p892
I21
tp893
a(S'route'
p894
I21
tp895
a(S'seemed'
p896
I21
tp897
a(S'tasted'
p898
I21
tp899
a(S'try'
p900
I21
tp901
a(S'u'
I21
tp902
a(S'weed'
p903
I21
tp904
a(S'\x93thi'
p905
I21
tp906
a(S'12'
p907
I20
tp908
a(S'circled'
p909
I20
tp910
a(S'excited'
p911
I20
tp912
a(S'experience'
p913
I20
tp914
a(S'eye'
p915
I20
tp916
a(S'ground'
p917
I20
tp918
a(S'handle'
p919
I20
tp920
a(S'hopele'
p921
I20
tp922
a(S'let'
p923
I20
tp924
a(S'losing'
p925
I20
tp926
a(S'neighborhood'
p927
I20
tp928
a(S'older'
p929
I20
tp930
a(S'physically'
p931
I20
tp932
a(S'porch'
p933
I20
tp934
a(S'ramshackle'
p935
I20
tp936
a(S'second'
p937
I20
tp938
a(S'seen'
p939
I20
tp940
a(S'sip'
p941
I20
tp942
a(S'talking'
p943
I20
tp944
a(S'that\x92'
p945
I20
tp946
a(S'tree'
p947
I20
tp948
a(S'wanted'
p949
I20
tp950
a(S'whole'
p951
I20
tp952
a(S'attitude'
p953
I19
tp954
a(S'causing'
p955
I19
tp956
a(S'corral'
p957
I19
tp958
a(S'eased'
p959
I19
tp960
a(S'giving'
p961
I19
tp962
a(S'harsh'
p963
I19
tp964
a(S'landscape'
p965
I19
tp966
a(S'lead'
p967
I19
tp968
a(S'location1'
p969
I19
tp970
a(S'mental'
p971
I19
tp972
a(S'mentally'
p973
I19
tp974
a(S'num2'
p975
I19
tp976
a(S'passed'
p977
I19
tp978
a(S'play'
p979
I19
tp980
a(S'real'
p981
I19
tp982
a(S'relieved'
p983
I19
tp984
a(S'spot'
p985
I19
tp986
a(S'substance'
p987
I19
tp988
a(S'written'
p989
I19
tp990
a(S'blocked'
p991
I18
tp992
a(S'bump'
p993
I18
tp994
a(S'desperate'
p995
I18
tp996
a(S'environment'
p997
I18
tp998
a(S'eventually'
p999
I18
tp1000
a(S'fine'
p1001
I18
tp1002
a(S'hand'
p1003
I18
tp1004
a(S'hills\x94'
p1005
I18
tp1006
a(S'pedaling'
p1007
I18
tp1008
a(S'reading'
p1009
I18
tp1010
a(S'someone'
p1011
I18
tp1012
a(S'spirit'
p1013
I18
tp1014
a(S'sweating'
p1015
I18
tp1016
a(S'timer'
p1017
I18
tp1018
a(S'toward'
p1019
I18
tp1020
a(S'young'
p1021
I18
tp1022
a(S'55'
p1023
I17
tp1024
a(S'??'
p1025
I17
tp1026
a(S'already'
p1027
I17
tp1028
a(S'asked'
p1029
I17
tp1030
a(S'bit'
p1031
I17
tp1032
a(S'can\x92t'
p1033
I17
tp1034
a(S'challenge'
p1035
I17
tp1036
a(S'cold'
p1037
I17
tp1038
a(S'coming'
p1039
I17
tp1040
a(S'confine'
p1041
I17
tp1042
a(S'death'
p1043
I17
tp1044
a(S'despair'
p1045
I17
tp1046
a(S'hotter'
p1047
I17
tp1048
a(S'hurt'
p1049
I17
tp1050
a(S'idea'
p1051
I17
tp1052
a(S'new'
p1053
I17
tp1054
a(S'realize'
p1055
I17
tp1056
a(S'refreshing'
p1057
I17
tp1058
a(S'rest'
p1059
I17
tp1060
a(S'sips.\x94'
p1061
I17
tp1062
a(S'slow'
p1063
I17
tp1064
a(S'small'
p1065
I17
tp1066
a(S'starting'
p1067
I17
tp1068
a(S'sucking'
p1069
I17
tp1070
a(S'talk'
p1071
I17
tp1072
a(S'therefore'
p1073
I17
tp1074
a(S'traditional'
p1075
I17
tp1076
a(S'turned'
p1077
I17
tp1078
a(S'word'
p1079
I17
tp1080
a(S'world'
p1081
I17
tp1082
a(S'\x93ghost'
p1083
I17
tp1084
a(S'animal'
p1085
I16
tp1086
a(S'conserve'
p1087
I16
tp1088
a(S'easily'
p1089
I16
tp1090
a(S'ever'
p1091
I16
tp1092
a(S'gla'
p1093
I16
tp1094
a(S'led'
p1095
I16
tp1096
a(S'listen'
p1097
I16
tp1098
a(S'listened'
p1099
I16
tp1100
a(S'negatively'
p1101
I16
tp1102
a(S'person1'
p1103
I16
tp1104
a(S'relief'
p1105
I16
tp1106
a(S'rock'
p1107
I16
tp1108
a(S'sad'
p1109
I16
tp1110
a(S'toll'
p1111
I16
tp1112
a(S'\x93it'
p1113
I16
tp1114
a(S'\x93wide'
p1115
I16
tp1116
a(S'add'
p1117
I15
tp1118
a(S'barely'
p1119
I15
tp1120
a(S'brackish'
p1121
I15
tp1122
a(S'couple'
p1123
I15
tp1124
a(S'danger'
p1125
I15
tp1126
a(S'either'
p1127
I15
tp1128
a(S'fit'
p1129
I15
tp1130
a(S'flavor'
p1131
I15
tp1132
a(S'highway'
p1133
I15
tp1134
a(S'instance'
p1135
I15
tp1136
a(S'move'
p1137
I15
tp1138
a(S'notice'
p1139
I15
tp1140
a(S'realized'
p1141
I15
tp1142
a(S'slowed'
p1143
I15
tp1144
a(S'slowly'
p1145
I15
tp1146
a(S'thriving'
p1147
I15
tp1148
a(S'weak'
p1149
I15
tp1150
a(S'\x96'
I15
tp1151
a(S'accept'
p1152
I14
tp1153
a(S'adventure'
p1154
I14
tp1155
a(S'anyone'
p1156
I14
tp1157
a(S'definition'
p1158
I14
tp1159
a(S'described'
p1160
I14
tp1161
a(S'distance'
p1162
I14
tp1163
a(S'early'
p1164
I14
tp1165
a(S'ended'
p1166
I14
tp1167
a(S'finding'
p1168
I14
tp1169
a(S'happen'
p1170
I14
tp1171
a(S'learned'
p1172
I14
tp1173
a(S'looked'
p1174
I14
tp1175
a(S'maybe'
p1176
I14
tp1177
a(S'order'
p1178
I14
tp1179
a(S'passage'
p1180
I14
tp1181
a(S'rusted'
p1182
I14
tp1183
a(S'sand'
p1184
I14
tp1185
a(S'shirt'
p1186
I14
tp1187
a(S'showing'
p1188
I14
tp1189
a(S'speaker'
p1190
I14
tp1191
a(S'survival'
p1192
I14
tp1193
a(S'tumble'
p1194
I14
tp1195
a(S'wiped'
p1196
I14
tp1197
a(S'ability'
p1198
I13
tp1199
a(S'clean.\x94'
p1200
I13
tp1201
a(S'conflict'
p1202
I13
tp1203
a(S'cruel'
p1204
I13
tp1205
a(S'date1'
p1206
I13
tp1207
a(S'depleting'
p1208
I13
tp1209
a(S'hold'
p1210
I13
tp1211
a(S'house'
p1212
I13
tp1213
a(S'knowing'
p1214
I13
tp1215
a(S'living'
p1216
I13
tp1217
a(S'looking'
p1218
I13
tp1219
a(S'name'
p1220
I13
tp1221
a(S'nature'
p1222
I13
tp1223
a(S'old-timer'
p1224
I13
tp1225
a(S'passe'
p1226
I13
tp1227
a(S'rather'
p1228
I13
tp1229
a(S'refill'
p1230
I13
tp1231
a(S'role'
p1232
I13
tp1233
a(S'side'
p1234
I13
tp1235
a(S'source'
p1236
I13
tp1237
a(S'stay'
p1238
I13
tp1239
a(S'taken'
p1240
I13
tp1241
a(S'town\x94'
p1242
I13
tp1243
a(S'type'
p1244
I13
tp1245
a(S'wilber\x92'
p1246
I13
tp1247
a(S'worry'
p1248
I13
tp1249
a(S'yet'
p1250
I13
tp1251
a(S'\x93one'
p1252
I13
tp1253
a(S'\x93short'
p1254
I13
tp1255
a(S'(@num1)'
p1256
I12
tp1257
a(S'although'
p1258
I12
tp1259
a(S'anywhere'
p1260
I12
tp1261
a(S'bicycle'
p1262
I12
tp1263
a(S'clean'
p1264
I12
tp1265
a(S'close'
p1266
I12
tp1267
a(S'cyclist.in'
p1268
I12
tp1269
a(S'date'
p1270
I12
tp1271
a(S'diamond'
p1272
I12
tp1273
a(S'easier'
p1274
I12
tp1275
a(S'element'
p1276
I12
tp1277
a(S'fishing'
p1278
I12
tp1279
a(S'fork'
p1280
I12
tp1281
a(S'forty'
p1282
I12
tp1283
a(S'hadn\x92t'
p1284
I12
tp1285
a(S'he/she'
p1286
I12
tp1287
a(S'helped'
p1288
I12
tp1289
a(S'horrible'
p1290
I12
tp1291
a(S'impact'
p1292
I12
tp1293
a(S'ironic'
p1294
I12
tp1295
a(S'i\x92d'
p1296
I12
tp1297
a(S'l'
I12
tp1298
a(S'likely'
p1299
I12
tp1300
a(S'mountain'
p1301
I12
tp1302
a(S'obviously'
p1303
I12
tp1304
a(S'overcome'
p1305
I12
tp1306
a(S'pouring'
p1307
I12
tp1308
a(S'pumped'
p1309
I12
tp1310
a(S'push'
p1311
I12
tp1312
a(S'rocky'
p1313
I12
tp1314
a(S'self'
p1315
I12
tp1316
a(S'smile'
p1317
I12
tp1318
a(S'stated'
p1319
I12
tp1320
a(S'stick'
p1321
I12
tp1322
a(S'story.the'
p1323
I12
tp1324
a(S'telling'
p1325
I12
tp1326
a(S'town.\x94'
p1327
I12
tp1328
a(S'water-depleting'
p1329
I12
tp1330
a(S'windy'
p1331
I12
tp1332
a(S'write'
p1333
I12
tp1334
a(S'\x93gary'
p1335
I12
tp1336
a(S'(kurmaskie)'
p1337
I11
tp1338
a(S'air'
p1339
I11
tp1340
a(S'bathroom'
p1341
I11
tp1342
a(S'behind'
p1343
I11
tp1344
a(S'clearly'
p1345
I11
tp1346
a(S'completely'
p1347
I11
tp1348
a(S'decade'
p1349
I11
tp1350
a(S'effort'
p1351
I11
tp1352
a(S'fall'
p1353
I11
tp1354
a(S'follow'
p1355
I11
tp1356
a(S'food'
p1357
I11
tp1358
a(S'gone'
p1359
I11
tp1360
a(S'happened'
p1361
I11
tp1362
a(S'hopelessne'
p1363
I11
tp1364
a(S'hydrated'
p1365
I11
tp1366
a(S'isn\x92t'
p1367
I11
tp1368
a(S'knee'
p1369
I11
tp1370
a(S'lamest'
p1371
I11
tp1372
a(S'moved'
p1373
I11
tp1374
a(S'narration'
p1375
I11
tp1376
a(S'nearly'
p1377
I11
tp1378
a(S'nobody'
p1379
I11
tp1380
a(S'none'
p1381
I11
tp1382
a(S'often'
p1383
I11
tp1384
a(S'open'
p1385
I11
tp1386
a(S'pa'
p1387
I11
tp1388
a(S'prove'
p1389
I11
tp1390
a(S'save'
p1391
I11
tp1392
a(S'sentence'
p1393
I11
tp1394
a(S'shape'
p1395
I11
tp1396
a(S'sound'
p1397
I11
tp1398
a(S'statement'
p1399
I11
tp1400
a(S'strain'
p1401
I11
tp1402
a(S'struggle'
p1403
I11
tp1404
a(S'stuck'
p1405
I11
tp1406
a(S'support'
p1407
I11
tp1408
a(S'taste'
p1409
I11
tp1410
a(S'troubling'
p1411
I11
tp1412
a(S'using'
p1413
I11
tp1414
a(S'usually'
p1415
I11
tp1416
a(S'\x93at'
p1417
I11
tp1418
a(S'alive'
p1419
I10
tp1420
a(S'angry'
p1421
I10
tp1422
a(S'anymore'
p1423
I10
tp1424
a(S'arrive'
p1425
I10
tp1426
a(S'begining'
p1427
I10
tp1428
a(S'believed'
p1429
I10
tp1430
a(S'biggest'
p1431
I10
tp1432
a(S'bottling'
p1433
I10
tp1434
a(S'bring'
p1435
I10
tp1436
a(S'case'
p1437
I10
tp1438
a(S'challenging'
p1439
I10
tp1440
a(S'chance'
p1441
I10
tp1442
a(S'considering'
p1443
I10
tp1444
a(S'cro'
p1445
I10
tp1446
a(S"cyclist'"
p1447
I10
tp1448
a(S'decided'
p1449
I10
tp1450
a(S'degrees.\x94'
p1451
I10
tp1452
a(S'dehydrating'
p1453
I10
tp1454
a(S'didnt'
p1455
I10
tp1456
a(S'else'
p1457
I10
tp1458
a(S'frustrated'
p1459
I10
tp1460
a(S'gary'
p1461
I10
tp1462
a(S'kind.\x94'
p1463
I10
tp1464
a(S'laugh'
p1465
I10
tp1466
a(S'month'
p1467
I10
tp1468
a(S'moving'
p1469
I10
tp1470
a(S'oozed'
p1471
I10
tp1472
a(S'organization1'
p1473
I10
tp1474
a(S'played'
p1475
I10
tp1476
a(S'plenty'
p1477
I10
tp1478
a(S'poisonou'
p1479
I10
tp1480
a(S'ready'
p1481
I10
tp1482
a(S'showed'
p1483
I10
tp1484
a(S'state.\x94'
p1485
I10
tp1486
a(S'suck'
p1487
I10
tp1488
a(S'tar'
p1489
I10
tp1490
a(S'three'
p1491
I10
tp1492
a(S'tiring'
p1493
I10
tp1494
a(S'wide'
p1495
I10
tp1496
a(S'\x93old'
p1497
I10
tp1498
a(S'\x93shortcut\x94'
p1499
I10
tp1500
a(S'\x93with'
p1501
I10
tp1502
a(S'-'
I9
tp1503
a(S'acid.\x94'
p1504
I9
tp1505
a(S'care'
p1506
I9
tp1507
a(S'certain'
p1508
I9
tp1509
a(S'discouraged'
p1510
I9
tp1511
a(S'encountered'
p1512
I9
tp1513
a(S'endure'
p1514
I9
tp1515
a(S'entire'
p1516
I9
tp1517
a(S'final'
p1518
I9
tp1519
a(S'forest'
p1520
I9
tp1521
a(S'gotten'
p1522
I9
tp1523
a(S'hardship'
p1524
I9
tp1525
a(S'he\x92d'
p1526
I9
tp1527
a(S'humid'
p1528
I9
tp1529
a(S'kind\x94'
p1530
I9
tp1531
a(S'kurmaskie\x92'
p1532
I9
tp1533
a(S'leaving'
p1534
I9
tp1535
a(S'lodi'
p1536
I9
tp1537
a(S'lower'
p1538
I9
tp1539
a(S'me.\x94'
p1540
I9
tp1541
a(S'office.\x94'
p1542
I9
tp1543
a(S'office\x94'
p1544
I9
tp1545
a(S'pain'
p1546
I9
tp1547
a(S'passing'
p1548
I9
tp1549
a(S'present'
p1550
I9
tp1551
a(S'shouldn\x92t'
p1552
I9
tp1553
a(S'spit'
p1554
I9
tp1555
a(S'tarlike'
p1556
I9
tp1557
a(S'third'
p1558
I9
tp1559
a(S'troubled'
p1560
I9
tp1561
a(S'trust'
p1562
I9
tp1563
a(S'twenty'
p1564
I9
tp1565
a(S'upset'
p1566
I9
tp1567
a(S'view'
p1568
I9
tp1569
a(S'warm'
p1570
I9
tp1571
a(S'weren\x92t'
p1572
I9
tp1573
a(S'\x93and'
p1574
I9
tp1575
a(S'\x93not'
p1576
I9
tp1577
a(S'\x93over'
p1578
I9
tp1579
a(S'abandon'
p1580
I8
tp1581
a(S'barren'
p1582
I8
tp1583
a(S'black'
p1584
I8
tp1585
a(S'checked'
p1586
I8
tp1587
a(S'climb'
p1588
I8
tp1589
a(S'collection'
p1590
I8
tp1591
a(S'cooler'
p1592
I8
tp1593
a(S'crazy'
p1594
I8
tp1595
a(S'cycleist'
p1596
I8
tp1597
a(S'decide'
p1598
I8
tp1599
a(S'description'
p1600
I8
tp1601
a(S'disappointed'
p1602
I8
tp1603
a(S'doubtful'
p1604
I8
tp1605
a(S'down\x94'
p1606
I8
tp1607
a(S'drive'
p1608
I8
tp1609
a(S'emotionally'
p1610
I8
tp1611
a(S'event'
p1612
I8
tp1613
a(S'except'
p1614
I8
tp1615
a(S'experienced'
p1616
I8
tp1617
a(S'filled'
p1618
I8
tp1619
a(S'fresh'
p1620
I8
tp1621
a(S'full'
p1622
I8
tp1623
a(S'group'
p1624
I8
tp1625
a(S'hill.\x94'
p1626
I8
tp1627
a(S'hills,\x94'
p1628
I8
tp1629
a(S'home'
p1630
I8
tp1631
a(S'horizon'
p1632
I8
tp1633
a(S'human'
p1634
I8
tp1635
a(S'hung'
p1636
I8
tp1637
a(S'intense'
p1638
I8
tp1639
a(S'issue'
p1640
I8
tp1641
a(S'i\x92m'
p1642
I8
tp1643
a(S'killed'
p1644
I8
tp1645
a(S'leave'
p1646
I8
tp1647
a(S'lesson'
p1648
I8
tp1649
a(S'line'
p1650
I8
tp1651
a(S'listening'
p1652
I8
tp1653
a(S'live'
p1654
I8
tp1655
a(S'lo'
p1656
I8
tp1657
a(S'lonely'
p1658
I8
tp1659
a(S'luckily'
p1660
I8
tp1661
a(S'mad'
p1662
I8
tp1663
a(S'mention'
p1664
I8
tp1665
a(S'met'
p1666
I8
tp1667
a(S'mule'
p1668
I8
tp1669
a(S'page'
p1670
I8
tp1671
a(S'plu'
p1672
I8
tp1673
a(S'possibly'
p1674
I8
tp1675
a(S'quite'
p1676
I8
tp1677
a(S'reaching'
p1678
I8
tp1679
a(S'safe'
p1680
I8
tp1681
a(S'saved'
p1682
I8
tp1683
a(S'scorching'
p1684
I8
tp1685
a(S'section'
p1686
I8
tp1687
a(S'setting.the'
p1688
I8
tp1689
a(S'simply'
p1690
I8
tp1691
a(S'stopped'
p1692
I8
tp1693
a(S'suffer'
p1694
I8
tp1695
a(S'supplie'
p1696
I8
tp1697
a(S'walk'
p1698
I8
tp1699
a(S'wear'
p1700
I8
tp1701
a(S'worn'
p1702
I8
tp1703
a(S'ye'
p1704
I8
tp1705
a(S'\x93@caps1'
p1706
I8
tp1707
a(S'+'
I7
tp1708
a(S'actually'
p1709
I7
tp1710
a(S'added'
p1711
I7
tp1712
a(S'adding'
p1713
I7
tp1714
a(S'aware'
p1715
I7
tp1716
a(S'basically'
p1717
I7
tp1718
a(S'brain'
p1719
I7
tp1720
a(S'campground'
p1721
I7
tp1722
a(S'camp\x94'
p1723
I7
tp1724
a(S'cannot'
p1725
I7
tp1726
a(S'clear'
p1727
I7
tp1728
a(S'control'
p1729
I7
tp1730
a(S'created'
p1731
I7
tp1732
a(S'cycled'
p1733
I7
tp1734
a(S'cyclsit'
p1735
I7
tp1736
a(S'describing'
p1737
I7
tp1738
a(S"didn't"
p1739
I7
tp1740
a(S'difficulty'
p1741
I7
tp1742
a(S'dirt'
p1743
I7
tp1744
a(S'earlier'
p1745
I7
tp1746
a(S'elevation'
p1747
I7
tp1748
a(S'exhaustion'
p1749
I7
tp1750
a(S'face.\x94'
p1751
I7
tp1752
a(S'following'
p1753
I7
tp1754
a(S'forever'
p1755
I7
tp1756
a(S'furthermore'
p1757
I7
tp1758
a(S'gentlemen'
p1759
I7
tp1760
a(S'goal'
p1761
I7
tp1762
a(S'hardly'
p1763
I7
tp1764
a(S"he'"
p1765
I7
tp1766
a(S'humidity'
p1767
I7
tp1768
a(S'image'
p1769
I7
tp1770
a(S'include'
p1771
I7
tp1772
a(S'journey.the'
p1773
I7
tp1774
a(S'jumped'
p1775
I7
tp1776
a(S'knowledge'
p1777
I7
tp1778
a(S'level'
p1779
I7
tp1780
a(S'location2'
p1781
I7
tp1782
a(S'luck'
p1783
I7
tp1784
a(S'map.the'
p1785
I7
tp1786
a(S'meaning'
p1787
I7
tp1788
a(S'mostly'
p1789
I7
tp1790
a(S'office'
p1791
I7
tp1792
a(S'panic'
p1793
I7
tp1794
a(S'piece'
p1795
I7
tp1796
a(S'rate'
p1797
I7
tp1798
a(S'relax'
p1799
I7
tp1800
a(S'sick'
p1801
I7
tp1802
a(S'similar'
p1803
I7
tp1804
a(S'sink'
p1805
I7
tp1806
a(S'site'
p1807
I7
tp1808
a(S'slower'
p1809
I7
tp1810
a(S'snake\x94'
p1811
I7
tp1812
a(S'snow'
p1813
I7
tp1814
a(S'sorry'
p1815
I7
tp1816
a(S'steep'
p1817
I7
tp1818
a(S'straight'
p1819
I7
tp1820
a(S'strongly'
p1821
I7
tp1822
a(S'sunny'
p1823
I7
tp1824
a(S'survived'
p1825
I7
tp1826
a(S'sweaty'
p1827
I7
tp1828
a(S'tire'
p1829
I7
tp1830
a(S'tone'
p1831
I7
tp1832
a(S'twist'
p1833
I7
tp1834
a(S'wild'
p1835
I7
tp1836
a(S'\x93i\x92d'
p1837
I7
tp1838
a(S'\x93never'
p1839
I7
tp1840
a(S'\x93sometime'
p1841
I7
tp1842
a(S'\x93tumbleweed'
p1843
I7
tp1844
a(S'addition'
p1845
I6
tp1846
a(S'aspect'
p1847
I6
tp1848
a(S'author\x92'
p1849
I6
tp1850
a(S'believing'
p1851
I6
tp1852
a(S'bend'
p1853
I6
tp1854
a(S'breeze'
p1855
I6
tp1856
a(S'brought'
p1857
I6
tp1858
a(S'burst'
p1859
I6
tp1860
a(S'calm'
p1861
I6
tp1862
a(S'careful'
p1863
I6
tp1864
a(S'carry'
p1865
I6
tp1866
a(S'choice'
p1867
I6
tp1868
a(S'contributed'
p1869
I6
tp1870
a(S'cruel.\x94'
p1871
I6
tp1872
a(S'cruel\x94'
p1873
I6
tp1874
a(S'dead'
p1875
I6
tp1876
a(S'desolate'
p1877
I6
tp1878
a(S'desperation'
p1879
I6
tp1880
a(S'desserted'
p1881
I6
tp1882
a(S'deteriorating'
p1883
I6
tp1884
a(S'dieing'
p1885
I6
tp1886
a(S'done'
p1887
I6
tp1888
a(S'dryne'
p1889
I6
tp1890
a(S'eat'
p1891
I6
tp1892
a(S'eighteen'
p1893
I6
tp1894
a(S'elderly'
p1895
I6
tp1896
a(S'enjoyable'
p1897
I6
tp1898
a(S'enjoyed'
p1899
I6
tp1900
a(S'evening'
p1901
I6
tp1902
a(S'expected'
p1903
I6
tp1904
a(S'explaining'
p1905
I6
tp1906
a(S'focu'
p1907
I6
tp1908
a(S'forced'
p1909
I6
tp1910
a(S'free'
p1911
I6
tp1912
a(S'gonna'
p1913
I6
tp1914
a(S'greeted'
p1915
I6
tp1916
a(S'heard'
p1917
I6
tp1918
a(S'heatstroke.\x94'
p1919
I6
tp1920
a(S'hill\x94'
p1921
I6
tp1922
a(S'hoping'
p1923
I6
tp1924
a(S'imagine'
p1925
I6
tp1926
a(S'including'
p1927
I6
tp1928
a(S'inner'
p1929
I6
tp1930
a(S'kill'
p1931
I6
tp1932
a(S'known'
p1933
I6
tp1934
a(S'location'
p1935
I6
tp1936
a(S'lodge'
p1937
I6
tp1938
a(S'man\x92'
p1939
I6
tp1940
a(S'minute'
p1941
I6
tp1942
a(S'modern'
p1943
I6
tp1944
a(S'nearby'
p1945
I6
tp1946
a(S'num2)'
p1947
I6
tp1948
a(S'offered'
p1949
I6
tp1950
a(S'plan'
p1951
I6
tp1952
a(S'plant'
p1953
I6
tp1954
a(S'poor'
p1955
I6
tp1956
a(S'possibility'
p1957
I6
tp1958
a(S'prepared'
p1959
I6
tp1960
a(S'rain'
p1961
I6
tp1962
a(S'response'
p1963
I6
tp1964
a(S'secondly'
p1965
I6
tp1966
a(S'solo'
p1967
I6
tp1968
a(S'sort'
p1969
I6
tp1970
a(S'stuff'
p1971
I6
tp1972
a(S'suggest'
p1973
I6
tp1974
a(S'tall'
p1975
I6
tp1976
a(S'task'
p1977
I6
tp1978
a(S'test'
p1979
I6
tp1980
a(S'top'
p1981
I6
tp1982
a(S'trail'
p1983
I6
tp1984
a(S'trick'
p1985
I6
tp1986
a(S'trie'
p1987
I6
tp1988
a(S'truly'
p1989
I6
tp1990
a(S'uncomfortable'
p1991
I6
tp1992
a(S"wasn't"
p1993
I6
tp1994
a(S'welche'
p1995
I6
tp1996
a(S'wich'
p1997
I6
tp1998
a(S'winding'
p1999
I6
tp2000
a(S'would\x92ve'
p2001
I6
tp2002
a(S'\x93high'
p2003
I6
tp2004
a(S'\x93that'
p2005
I6
tp2006
a(S'\x93traveling'
p2007
I6
tp2008
a(S'\x93trying'
p2009
I6
tp2010
a(S"''i"
p2011
I5
tp2012
a(S'[his]'
p2013
I5
tp2014
a(S'abanded'
p2015
I5
tp2016
a(S'act'
p2017
I5
tp2018
a(S'activity'
p2019
I5
tp2020
a(S'advise'
p2021
I5
tp2022
a(S'ahead;'
p2023
I5
tp2024
a(S'allowing'
p2025
I5
tp2026
a(S'atleast'
p2027
I5
tp2028
a(S'b/c'
p2029
I5
tp2030
a(S'beautiful'
p2031
I5
tp2032
a(S'biked'
p2033
I5
tp2034
a(S'breaking'
p2035
I5
tp2036
a(S'bright'
p2037
I5
tp2038
a(S'buy'
p2039
I5
tp2040
a(S'call'
p2041
I5
tp2042
a(S'cant'
p2043
I5
tp2044
a(S'comfortable'
p2045
I5
tp2046
a(S'complete'
p2047
I5
tp2048
a(S'continued'
p2049
I5
tp2050
a(S'courage'
p2051
I5
tp2052
a(S'creature'
p2053
I5
tp2054
a(S'cyclistthe'
p2055
I5
tp2056
a(S'deadly'
p2057
I5
tp2058
a(S'deeply'
p2059
I5
tp2060
a(S'definitely'
p2061
I5
tp2062
a(S'dehidrated'
p2063
I5
tp2064
a(S'dehydration.the'
p2065
I5
tp2066
a(S'determine'
p2067
I5
tp2068
a(S'diamondback'
p2069
I5
tp2070
a(S'directly'
p2071
I5
tp2072
a(S'down.\x94'
p2073
I5
tp2074
a(S'dying'
p2075
I5
tp2076
a(S'effecting'
p2077
I5
tp2078
a(S'emotion'
p2079
I5
tp2080
a(S'entry'
p2081
I5
tp2082
a(S'etc'
p2083
I5
tp2084
a(S'everywhere'
p2085
I5
tp2086
a(S'exactly'
p2087
I5
tp2088
a(S'false'
p2089
I5
tp2090
a(S'finish'
p2091
I5
tp2092
a(S'folk'
p2093
I5
tp2094
a(S'force'
p2095
I5
tp2096
a(S'frightened'
p2097
I5
tp2098
a(S'gaining'
p2099
I5
tp2100
a(S'health'
p2101
I5
tp2102
a(S'heatstroke\x94'
p2103
I5
tp2104
a(S'inside'
p2105
I5
tp2106
a(S'insight'
p2107
I5
tp2108
a(S'isolation'
p2109
I5
tp2110
a(S'it.\x94'
p2111
I5
tp2112
a(S'job'
p2113
I5
tp2114
a(S'liquid'
p2115
I5
tp2116
a(S'meant'
p2117
I5
tp2118
a(S'mentioned'
p2119
I5
tp2120
a(S'men\x92'
p2121
I5
tp2122
a(S'muscle'
p2123
I5
tp2124
a(S'num3)'
p2125
I5
tp2126
a(S'obsticle'
p2127
I5
tp2128
a(S'opinion'
p2129
I5
tp2130
a(S'outdated'
p2131
I5
tp2132
a(S'outdoor'
p2133
I5
tp2134
a(S'overall'
p2135
I5
tp2136
a(S'per'
p2137
I5
tp2138
a(S'period'
p2139
I5
tp2140
a(S'pg'
p2141
I5
tp2142
a(S'pipe'
p2143
I5
tp2144
a(S'possible'
p2145
I5
tp2146
a(S'pushing'
p2147
I5
tp2148
a(S'quicker'
p2149
I5
tp2150
a(S'realy'
p2151
I5
tp2152
a(S'refreshed'
p2153
I5
tp2154
a(S'relaxed'
p2155
I5
tp2156
a(S'relived'
p2157
I5
tp2158
a(S'remind'
p2159
I5
tp2160
a(S'reservoir'
p2161
I5
tp2162
a(S'reveal'
p2163
I5
tp2164
a(S'ride.the'
p2165
I5
tp2166
a(S'rideing'
p2167
I5
tp2168
a(S'roughne'
p2169
I5
tp2170
a(S'search'
p2171
I5
tp2172
a(S'seriou'
p2173
I5
tp2174
a(S'seriously'
p2175
I5
tp2176
a(S'shown'
p2177
I5
tp2178
a(S'sips\x94'
p2179
I5
tp2180
a(S'speeding'
p2181
I5
tp2182
a(S'stre'
p2183
I5
tp2184
a(S'supply.the'
p2185
I5
tp2186
a(S'thier'
p2187
I5
tp2188
a(S'throat'
p2189
I5
tp2190
a(S'tip'
p2191
I5
tp2192
a(S'together'
p2193
I5
tp2194
a(S'tougher'
p2195
I5
tp2196
a(S'true'
p2197
I5
tp2198
a(S'way.the'
p2199
I5
tp2200
a(S'whether'
p2201
I5
tp2202
a(S'wildlife'
p2203
I5
tp2204
a(S'wind'
p2205
I5
tp2206
a(S'witch'
p2207
I5
tp2208
a(S'worst'
p2209
I5
tp2210
a(S"wouldn't"
p2211
I5
tp2212
a(S'you\x92re'
p2213
I5
tp2214
a(S'\x93no'
p2215
I5
tp2216
a(S'\x93old-timer'
p2217
I5
tp2218
a(S'\x93ramshackle'
p2219
I5
tp2220
a(S'\x93water'
p2221
I5
tp2222
a(S'\x93when'
p2223
I5
tp2224
a(S'(@num2)'
p2225
I4
tp2226
a(S'(@person1)'
p2227
I4
tp2228
a(S'?'
I4
tp2229
a(S'abondoned'
p2230
I4
tp2231
a(S'according'
p2232
I4
tp2233
a(S'anger'
p2234
I4
tp2235
a(S'anybody'
p2236
I4
tp2237
a(S'appear'
p2238
I4
tp2239
a(S'arid'
p2240
I4
tp2241
a(S'avoid'
p2242
I4
tp2243
a(S'awful'
p2244
I4
tp2245
a(S'based'
p2246
I4
tp2247
a(S'bigger'
p2248
I4
tp2249
a(S'bikerider'
p2250
I4
tp2251
a(S'bitten'
p2252
I4
tp2253
a(S'blackish'
p2254
I4
tp2255
a(S'blasted'
p2256
I4
tp2257
a(S'blocking'
p2258
I4
tp2259
a(S'boost'
p2260
I4
tp2261
a(S'break'
p2262
I4
tp2263
a(S'bumby'
p2264
I4
tp2265
a(S'bunch'
p2266
I4
tp2267
a(S'burning'
p2268
I4
tp2269
a(S'busine'
p2270
I4
tp2271
a(S'called'
p2272
I4
tp2273
a(S'chuckled'
p2274
I4
tp2275
a(S'closer'
p2276
I4
tp2277
a(S'consciousne'
p2278
I4
tp2279
a(S'contain'
p2280
I4
tp2281
a(S'contribute'
p2282
I4
tp2283
a(S'course'
p2284
I4
tp2285
a(S'covered'
p2286
I4
tp2287
a(S'create'
p2288
I4
tp2289
a(S'cut\x94'
p2290
I4
tp2291
a(S'cyclest'
p2292
I4
tp2293
a(S'definetly'
p2294
I4
tp2295
a(S'depend'
p2296
I4
tp2297
a(S'depending'
p2298
I4
tp2299
a(S'depleted'
p2300
I4
tp2301
a(S'desert-like'
p2302
I4
tp2303
a(S'desparate'
p2304
I4
tp2305
a(S'did.the'
p2306
I4
tp2307
a(S'directions.the'
p2308
I4
tp2309
a(S'disappointment'
p2310
I4
tp2311
a(S'discouraging'
p2312
I4
tp2313
a(S'dont'
p2314
I4
tp2315
a(S'dream'
p2316
I4
tp2317
a(S'driving'
p2318
I4
tp2319
a(S'drunk'
p2320
I4
tp2321
a(S'eager'
p2322
I4
tp2323
a(S'emptine'
p2324
I4
tp2325
a(S'end.the'
p2326
I4
tp2327
a(S'enter'
p2328
I4
tp2329
a(S'evening.\x94'
p2330
I4
tp2331
a(S'everyone'
p2332
I4
tp2333
a(S'expressed'
p2334
I4
tp2335
a(S'extra'
p2336
I4
tp2337
a(S'facing'
p2338
I4
tp2339
a(S'factorie'
p2340
I4
tp2341
a(S'farther'
p2342
I4
tp2343
a(S'fatal'
p2344
I4
tp2345
a(S'fill'
p2346
I4
tp2347
a(S'fluid'
p2348
I4
tp2349
a(S'forward'
p2350
I4
tp2351
a(S'gear'
p2352
I4
tp2353
a(S'greatest'
p2354
I4
tp2355
a(S'half'
p2356
I4
tp2357
a(S'harder.the'
p2358
I4
tp2359
a(S'hardest'
p2360
I4
tp2361
a(S'harm'
p2362
I4
tp2363
a(S'hasn\x92t'
p2364
I4
tp2365
a(S'heatsroke'
p2366
I4
tp2367
a(S'helping'
p2368
I4
tp2369
a(S'him.in'
p2370
I4
tp2371
a(S'himself.the'
p2372
I4
tp2373
a(S'his/her'
p2374
I4
tp2375
a(S'hopeful'
p2376
I4
tp2377
a(S'hope\x94'
p2378
I4
tp2379
a(S'humor'
p2380
I4
tp2381
a(S'impacted'
p2382
I4
tp2383
a(S'implied'
p2384
I4
tp2385
a(S'in.the'
p2386
I4
tp2387
a(S'included'
p2388
I4
tp2389
a(S'increased'
p2390
I4
tp2391
a(S'interesting'
p2392
I4
tp2393
a(S'irony'
p2394
I4
tp2395
a(S'it.the'
p2396
I4
tp2397
a(S'keeping'
p2398
I4
tp2399
a(S'ki'
p2400
I4
tp2401
a(S'learn'
p2402
I4
tp2403
a(S'least'
p2404
I4
tp2405
a(S'lie'
p2406
I4
tp2407
a(S'lifele'
p2408
I4
tp2409
a(S'lucky'
p2410
I4
tp2411
a(S'maneuvered'
p2412
I4
tp2413
a(S'manuver'
p2414
I4
tp2415
a(S'meet'
p2416
I4
tp2417
a(S'mentally.the'
p2418
I4
tp2419
a(S'me\x94'
p2420
I4
tp2421
a(S'mid'
p2422
I4
tp2423
a(S'miserable'
p2424
I4
tp2425
a(S'mistake'
p2426
I4
tp2427
a(S'nervou'
p2428
I4
tp2429
a(S'normal'
p2430
I4
tp2431
a(S'normally'
p2432
I4
tp2433
a(S'note'
p2434
I4
tp2435
a(S'num3'
p2436
I4
tp2437
a(S'obviou'
p2438
I4
tp2439
a(S'offer'
p2440
I4
tp2441
a(S'on.the'
p2442
I4
tp2443
a(S'overcame'
p2444
I4
tp2445
a(S'performance'
p2446
I4
tp2447
a(S'person2'
p2448
I4
tp2449
a(S'power'
p2450
I4
tp2451
a(S'promised'
p2452
I4
tp2453
a(S'pull'
p2454
I4
tp2455
a(S'pushed'
p2456
I4
tp2457
a(S'question'
p2458
I4
tp2459
a(S'reflect'
p2460
I4
tp2461
a(S'relate'
p2462
I4
tp2463
a(S'remember'
p2464
I4
tp2465
a(S'replenish'
p2466
I4
tp2467
a(S'road.the'
p2468
I4
tp2469
a(S'rougher'
p2470
I4
tp2471
a(S'sandblasted'
p2472
I4
tp2473
a(S'seek'
p2474
I4
tp2475
a(S'serenity'
p2476
I4
tp2477
a(S'shut'
p2478
I4
tp2479
a(S'sigh'
p2480
I4
tp2481
a(S'slowing'
p2482
I4
tp2483
a(S'smart'
p2484
I4
tp2485
a(S'stand'
p2486
I4
tp2487
a(S'strenuou'
p2488
I4
tp2489
a(S'stretch'
p2490
I4
tp2491
a(S'stronger'
p2492
I4
tp2493
a(S'struggled'
p2494
I4
tp2495
a(S'succe'
p2496
I4
tp2497
a(S'supposed'
p2498
I4
tp2499
a(S'ten'
p2500
I4
tp2501
a(S'tested'
p2502
I4
tp2503
a(S'there\x92'
p2504
I4
tp2505
a(S'thirstier'
p2506
I4
tp2507
a(S'through.the'
p2508
I4
tp2509
a(S'thu'
p2510
I4
tp2511
a(S'toiled'
p2512
I4
tp2513
a(S'traveled'
p2514
I4
tp2515
a(S'troubling\x94'
p2516
I4
tp2517
a(S'trusted'
p2518
I4
tp2519
a(S'turning'
p2520
I4
tp2521
a(S'unknown'
p2522
I4
tp2523
a(S'unle'
p2524
I4
tp2525
a(S'unsure'
p2526
I4
tp2527
a(S'untill'
p2528
I4
tp2529
a(S'vast'
p2530
I4
tp2531
a(S'wanting'
p2532
I4
tp2533
a(S'wasnt'
p2534
I4
tp2535
a(S'watch'
p2536
I4
tp2537
a(S'ways.the'
p2538
I4
tp2539
a(S"welch'"
p2540
I4
tp2541
a(S'wilber'
p2542
I4
tp2543
a(S'wisdom'
p2544
I4
tp2545
a(S'won\x92t'
p2546
I4
tp2547
a(S'wore'
p2548
I4
tp2549
a(S'worked'
p2550
I4
tp2551
a(S'wrote'
p2552
I4
tp2553
a(S'yosemite.\x94'
p2554
I4
tp2555
a(S'\x91do'
p2556
I4
tp2557
a(S'\x93about'
p2558
I4
tp2559
a(S'\x93battery'
p2560
I4
tp2561
a(S'\x93in'
p2562
I4
tp2563
a(S'\x93rode'
p2564
I4
tp2565
a(S'\x93somewhere'
p2566
I4
tp2567
a(S'\x93then'
p2568
I4
tp2569
a(S'\x93towns\x94'
p2570
I4
tp2571
a(S')'
I3
tp2572
a(S'absence'
p2573
I3
tp2574
a(S'accomplish'
p2575
I3
tp2576
a(S'action'
p2577
I3
tp2578
a(S'active'
p2579
I3
tp2580
a(S'ad'
p2581
I3
tp2582
a(S'additionally'
p2583
I3
tp2584
a(S'afraid'
p2585
I3
tp2586
a(S'ago'
p2587
I3
tp2588
a(S'ahead.\x94'
p2589
I3
tp2590
a(S'alike'
p2591
I3
tp2592
a(S'ammount'
p2593
I3
tp2594
a(S'apart'
p2595
I3
tp2596
a(S'appeared'
p2597
I3
tp2598
a(S"aren't"
p2599
I3
tp2600
a(S'aren\x92t'
p2601
I3
tp2602
a(S'background'
p2603
I3
tp2604
a(S'bad.the'
p2605
I3
tp2606
a(S'badly'
p2607
I3
tp2608
a(S'bait.\x94'
p2609
I3
tp2610
a(S'bare'
p2611
I3
tp2612
a(S'belive'
p2613
I3
tp2614
a(S'bicyclist'
p2615
I3
tp2616
a(S'blame'
p2617
I3
tp2618
a(S'boiling'
p2619
I3
tp2620
a(S'book'
p2621
I3
tp2622
a(S'brain.\x94'
p2623
I3
tp2624
a(S'brave'
p2625
I3
tp2626
a(S'breezy'
p2627
I3
tp2628
a(S'brutal'
p2629
I3
tp2630
a(S'bulding'
p2631
I3
tp2632
a(S'california\x94'
p2633
I3
tp2634
a(S'camp-if'
p2635
I3
tp2636
a(S'caps3'
p2637
I3
tp2638
a(S'caught'
p2639
I3
tp2640
a(S'caution'
p2641
I3
tp2642
a(S'challenged'
p2643
I3
tp2644
a(S'change.\x94'
p2645
I3
tp2646
a(S'characteristic'
p2647
I3
tp2648
a(S'chuckle'
p2649
I3
tp2650
a(S'circulate'
p2651
I3
tp2652
a(S'city'
p2653
I3
tp2654
a(S'clean\x94'
p2655
I3
tp2656
a(S'clue'
p2657
I3
tp2658
a(S'collapse'
p2659
I3
tp2660
a(S'combine'
p2661
I3
tp2662
a(S'concern'
p2663
I3
tp2664
a(S'confusion'
p2665
I3
tp2666
a(S'connection'
p2667
I3
tp2668
a(S'constant'
p2669
I3
tp2670
a(S'constantly'
p2671
I3
tp2672
a(S'content'
p2673
I3
tp2674
a(S'country'
p2675
I3
tp2676
a(S'cycalist'
p2677
I3
tp2678
a(S'cyclist.there'
p2679
I3
tp2680
a(S'dark'
p2681
I3
tp2682
a(S'decision'
p2683
I3
tp2684
a(S'decrease'
p2685
I3
tp2686
a(S'deeper'
p2687
I3
tp2688
a(S'definatly'
p2689
I3
tp2690
a(S'dehydrated.in'
p2691
I3
tp2692
a(S'dehydrated.the'
p2693
I3
tp2694
a(S'depressed'
p2695
I3
tp2696
a(S'despite'
p2697
I3
tp2698
a(S'destination.the'
p2699
I3
tp2700
a(S'detail'
p2701
I3
tp2702
a(S'diary'
p2703
I3
tp2704
a(S'disappoint'
p2705
I3
tp2706
a(S'dismay'
p2707
I3
tp2708
a(S'dissapointment'
p2709
I3
tp2710
a(S'distraught'
p2711
I3
tp2712
a(S'do.the'
p2713
I3
tp2714
a(S"doesn't"
p2715
I3
tp2716
a(S'doubting'
p2717
I3
tp2718
a(S'downhill'
p2719
I3
tp2720
a(S'dramatically'
p2721
I3
tp2722
a(S'drinkable'
p2723
I3
tp2724
a(S'dropped'
p2725
I3
tp2726
a(S'drying'
p2727
I3
tp2728
a(S'dwindling'
p2729
I3
tp2730
a(S'eating'
p2731
I3
tp2732
a(S'emotional'
p2733
I3
tp2734
a(S'endle'
p2735
I3
tp2736
a(S'energy.the'
p2737
I3
tp2738
a(S'enjoy'
p2739
I3
tp2740
a(S'entered'
p2741
I3
tp2742
a(S'entirely'
p2743
I3
tp2744
a(S'enviroment'
p2745
I3
tp2746
a(S'escape'
p2747
I3
tp2748
a(S'establishment'
p2749
I3
tp2750
a(S'exclaim'
p2751
I3
tp2752
a(S'exert'
p2753
I3
tp2754
a(S'expecting'
p2755
I3
tp2756
a(S'expensive'
p2757
I3
tp2758
a(S'extremly'
p2759
I3
tp2760
a(S'faucet'
p2761
I3
tp2762
a(S'figure'
p2763
I3
tp2764
a(S'fine.the'
p2765
I3
tp2766
a(S'fine.\x94'
p2767
I3
tp2768
a(S'fist'
p2769
I3
tp2770
a(S'flavored'
p2771
I3
tp2772
a(S'foolish'
p2773
I3
tp2774
a(S'forget'
p2775
I3
tp2776
a(S'form'
p2777
I3
tp2778
a(S'four'
p2779
I3
tp2780
a(S'frequently'
p2781
I3
tp2782
a(S'friendly'
p2783
I3
tp2784
a(S'future'
p2785
I3
tp2786
a(S'giant'
p2787
I3
tp2788
a(S'gra'
p2789
I3
tp2790
a(S'grew'
p2791
I3
tp2792
a(S'hang'
p2793
I3
tp2794
a(S'happine'
p2795
I3
tp2796
a(S'havent'
p2797
I3
tp2798
a(S'hazard'
p2799
I3
tp2800
a(S'head.\x94'
p2801
I3
tp2802
a(S'headed'
p2803
I3
tp2804
a(S'heading'
p2805
I3
tp2806
a(S'healthy'
p2807
I3
tp2808
a(S'heart'
p2809
I3
tp2810
a(S'heat.the'
p2811
I3
tp2812
a(S'heated'
p2813
I3
tp2814
a(S'he\x92ll'
p2815
I3
tp2816
a(S'hills'
p2817
I3
tp2818
a(S'hinder'
p2819
I3
tp2820
a(S'hole'
p2821
I3
tp2822
a(S'hope.\x94'
p2823
I3
tp2824
a(S'hottest'
p2825
I3
tp2826
a(S'immediately'
p2827
I3
tp2828
a(S'importance'
p2829
I3
tp2830
a(S'increase'
p2831
I3
tp2832
a(S'intended'
p2833
I3
tp2834
a(S'inthe'
p2835
I3
tp2836
a(S'ironically'
p2837
I3
tp2838
a(S'it.in'
p2839
I3
tp2840
a(S'journey.in'
p2841
I3
tp2842
a(S'journeythe'
p2843
I3
tp2844
a(S'journy'
p2845
I3
tp2846
a(S'jump'
p2847
I3
tp2848
a(S'june,\x94'
p2849
I3
tp2850
a(S'june\x94(kurmaskie)'
p2851
I3
tp2852
a(S'kurmaskie)'
p2853
I3
tp2854
a(S'landmark'
p2855
I3
tp2856
a(S'late'
p2857
I3
tp2858
a(S'launched'
p2859
I3
tp2860
a(S'leading'
p2861
I3
tp2862
a(S'literally'
p2863
I3
tp2864
a(S'lived'
p2865
I3
tp2866
a(S'lively'
p2867
I3
tp2868
a(S'located'
p2869
I3
tp2870
a(S'loose'
p2871
I3
tp2872
a(S'majorly'
p2873
I3
tp2874
a(S'maneuver'
p2875
I3
tp2876
a(S'mark'
p2877
I3
tp2878
a(S'mently'
p2879
I3
tp2880
a(S'messed'
p2881
I3
tp2882
a(S'mild'
p2883
I3
tp2884
a(S'mindset'
p2885
I3
tp2886
a(S'mood.the'
p2887
I3
tp2888
a(S'mountainou'
p2889
I3
tp2890
a(S'mountian'
p2891
I3
tp2892
a(S'mouth\x94'
p2893
I3
tp2894
a(S'movie'
p2895
I3
tp2896
a(S'mph\x94'
p2897
I3
tp2898
a(S'much.the'
p2899
I3
tp2900
a(S'mule.\x94'
p2901
I3
tp2902
a(S'myself.\x94'
p2903
I3
tp2904
a(S'narrarator'
p2905
I3
tp2906
a(S'nasty'
p2907
I3
tp2908
a(S'natural'
p2909
I3
tp2910
a(S'negativly'
p2911
I3
tp2912
a(S'noone'
p2913
I3
tp2914
a(S'num1.\x94'
p2915
I3
tp2916
a(S'optimistic'
p2917
I3
tp2918
a(S'original'
p2919
I3
tp2920
a(S'out.the'
p2921
I3
tp2922
a(S'outlook'
p2923
I3
tp2924
a(S'overjoyed'
p2925
I3
tp2926
a(S'overwhelming'
p2927
I3
tp2928
a(S'owner'
p2929
I3
tp2930
a(S'pace'
p2931
I3
tp2932
a(S'park.the'
p2933
I3
tp2934
a(S'park.\x94'
p2935
I3
tp2936
a(S'peaceful'
p2937
I3
tp2938
a(S'peddle'
p2939
I3
tp2940
a(S'peddling'
p2941
I3
tp2942
a(S'people.the'
p2943
I3
tp2944
a(S'perfect'
p2945
I3
tp2946
a(S'persevered'
p2947
I3
tp2948
a(S'person\x92'
p2949
I3
tp2950
a(S'place.the'
p2951
I3
tp2952
a(S'placed'
p2953
I3
tp2954
a(S'planned'
p2955
I3
tp2956
a(S'pourch'
p2957
I3
tp2958
a(S'prior'
p2959
I3
tp2960
a(S'provide'
p2961
I3
tp2962
a(S'provision'
p2963
I3
tp2964
a(S'pumping'
p2965
I3
tp2966
a(S'putting'
p2967
I3
tp2968
a(S'quality'
p2969
I3
tp2970
a(S'quest'
p2971
I3
tp2972
a(S'race'
p2973
I3
tp2974
a(S'rapidly'
p2975
I3
tp2976
a(S'rattle'
p2977
I3
tp2978
a(S'rattled'
p2979
I3
tp2980
a(S'realizing'
p2981
I3
tp2982
a(S'refer'
p2983
I3
tp2984
a(S'regained'
p2985
I3
tp2986
a(S'region'
p2987
I3
tp2988
a(S'related'
p2989
I3
tp2990
a(S'remote'
p2991
I3
tp2992
a(S'replenished'
p2993
I3
tp2994
a(S'represent'
p2995
I3
tp2996
a(S'required'
p2997
I3
tp2998
a(S'reserve'
p2999
I3
tp3000
a(S'resource'
p3001
I3
tp3002
a(S'ridding'
p3003
I3
tp3004
a(S'rise'
p3005
I3
tp3006
a(S'risk'
p3007
I3
tp3008
a(S'road\x94'
p3009
I3
tp3010
a(S'rounding'
p3011
I3
tp3012
a(S'ruff'
p3013
I3
tp3014
a(S'rugged'
p3015
I3
tp3016
a(S'rundown'
p3017
I3
tp3018
a(S'satisfied'
p3019
I3
tp3020
a(S'says\x94'
p3021
I3
tp3022
a(S'scare'
p3023
I3
tp3024
a(S'sence'
p3025
I3
tp3026
a(S'serve'
p3027
I3
tp3028
a(S'setback'
p3029
I3
tp3030
a(S'settings'
p3031
I3
tp3032
a(S'sharp'
p3033
I3
tp3034
a(S'shelter'
p3035
I3
tp3036
a(S'shortage'
p3037
I3
tp3038
a(S'single'
p3039
I3
tp3040
a(S'sitting'
p3041
I3
tp3042
a(S'slice'
p3043
I3
tp3044
a(S'slippery'
p3045
I3
tp3046
a(S'snake.\x94'
p3047
I3
tp3048
a(S'sport'
p3049
I3
tp3050
a(S'stage'
p3051
I3
tp3052
a(S'state\x94'
p3053
I3
tp3054
a(S'stoped'
p3055
I3
tp3056
a(S'stranger'
p3057
I3
tp3058
a(S'stream'
p3059
I3
tp3060
a(S'stroke.in'
p3061
I3
tp3062
a(S'sucked'
p3063
I3
tp3064
a(S'swallow'
p3065
I3
tp3066
a(S'sweet'
p3067
I3
tp3068
a(S'sworn'
p3069
I3
tp3070
a(S'tackle'
p3071
I3
tp3072
a(S'tasting'
p3073
I3
tp3074
a(S'tentalizing'
p3075
I3
tp3076
a(S'terain'
p3077
I3
tp3078
a(S'them.\x94'
p3079
I3
tp3080
a(S'thirsty.the'
p3081
I3
tp3082
a(S'threat'
p3083
I3
tp3084
a(S'threatening'
p3085
I3
tp3086
a(S'threw'
p3087
I3
tp3088
a(S'throught'
p3089
I3
tp3090
a(S'timers\x94'
p3091
I3
tp3092
a(S'tiredne'
p3093
I3
tp3094
a(S'tool'
p3095
I3
tp3096
a(S'torture'
p3097
I3
tp3098
a(S'towns\x94'
p3099
I3
tp3100
a(S'track'
p3101
I3
tp3102
a(S'travling'
p3103
I3
tp3104
a(S'trip.the'
p3105
I3
tp3106
a(S'tune'
p3107
I3
tp3108
a(S'unconfident'
p3109
I3
tp3110
a(S'unexpected'
p3111
I3
tp3112
a(S'uphill'
p3113
I3
tp3114
a(S'urge'
p3115
I3
tp3116
a(S'usual'
p3117
I3
tp3118
a(S'vermont'
p3119
I3
tp3120
a(S'walking'
p3121
I3
tp3122
a(S'war'
p3123
I3
tp3124
a(S'war.\x94'
p3125
I3
tp3126
a(S'wasted'
p3127
I3
tp3128
a(S'water.in'
p3129
I3
tp3130
a(S'water\x94'
p3131
I3
tp3132
a(S'watter'
p3133
I3
tp3134
a(S'weary'
p3135
I3
tp3136
a(S'welch'
p3137
I3
tp3138
a(S'well.the'
p3139
I3
tp3140
a(S'we\x92re'
p3141
I3
tp3142
a(S'wise'
p3143
I3
tp3144
a(S'wood'
p3145
I3
tp3146
a(S'worse.the'
p3147
I3
tp3148
a(S'writer'
p3149
I3
tp3150
a(S'yosemite.the'
p3151
I3
tp3152
a(S'youth'
p3153
I3
tp3154
a(S'\x93cool'
p3155
I3
tp3156
a(S'\x93had'
p3157
I3
tp3158
a(S'\x93he'
p3159
I3
tp3160
a(S'\x93thing'
p3161
I3
tp3162
a(S'\x93through'
p3163
I3
tp3164
a(S'\x93travelling'
p3165
I3
tp3166
a(S'\x93welch\x92'
p3167
I3
tp3168
a(S'\x94i'
p3169
I3
tp3170
a(S"''at"
p3171
I2
tp3172
a(S'(@caps1'
p3173
I2
tp3174
a(S'(@caps1)'
p3175
I2
tp3176
a(S'(pg'
p3177
I2
tp3178
a(S'/'
I2
tp3179
a(S'/she'
p3180
I2
tp3181
a(S'abandonment'
p3182
I2
tp3183
a(S'abilitie'
p3184
I2
tp3185
a(S'abonded'
p3186
I2
tp3187
a(S'absolutely'
p3188
I2
tp3189
a(S'abut'
p3190
I2
tp3191
a(S'accepting'
p3192
I2
tp3193
a(S'accident'
p3194
I2
tp3195
a(S'accurate'
p3196
I2
tp3197
a(S'acid\x94'
p3198
I2
tp3199
a(S'acknowledge'
p3200
I2
tp3201
a(S'acknowledged'
p3202
I2
tp3203
a(S'advantage'
p3204
I2
tp3205
a(S'affection'
p3206
I2
tp3207
a(S'afternoon'
p3208
I2
tp3209
a(S'again.the'
p3210
I2
tp3211
a(S'againg'
p3212
I2
tp3213
a(S'aged'
p3214
I2
tp3215
a(S'ahead,\x94'
p3216
I2
tp3217
a(S'ahead:do'
p3218
I2
tp3219
a(S'aid'
p3220
I2
tp3221
a(S'allowed'
p3222
I2
tp3223
a(S'amazing'
p3224
I2
tp3225
a(S'amused'
p3226
I2
tp3227
a(S'animals.the'
p3228
I2
tp3229
a(S'annoyance'
p3230
I2
tp3231
a(S'anothe'
p3232
I2
tp3233
a(S'anyway'
p3234
I2
tp3235
a(S'apon'
p3236
I2
tp3237
a(S'approach'
p3238
I2
tp3239
a(S'arriving'
p3240
I2
tp3241
a(S'asking'
p3242
I2
tp3243
a(S'assistance'
p3244
I2
tp3245
a(S'assured'
p3246
I2
tp3247
a(S'attempt'
p3248
I2
tp3249
a(S'average'
p3250
I2
tp3251
a(S'awhile'
p3252
I2
tp3253
a(S'back-blocked'
p3254
I2
tp3255
a(S'bag'
p3256
I2
tp3257
a(S'bar'
p3258
I2
tp3259
a(S'barley'
p3260
I2
tp3261
a(S'baron'
p3262
I2
tp3263
a(S'battle'
p3264
I2
tp3265
a(S'bearing'
p3266
I2
tp3267
a(S'beaten'
p3268
I2
tp3269
a(S'beauty'
p3270
I2
tp3271
a(S'becuse'
p3272
I2
tp3273
a(S'begging'
p3274
I2
tp3275
a(S'begun'
p3276
I2
tp3277
a(S'bet'
p3278
I2
tp3279
a(S'bet!\x94'
p3280
I2
tp3281
a(S'better.the'
p3282
I2
tp3283
a(S'bick'
p3284
I2
tp3285
a(S'bike.the'
p3286
I2
tp3287
a(S'billboard'
p3288
I2
tp3289
a(S'bite'
p3290
I2
tp3291
a(S'blazing'
p3292
I2
tp3293
a(S'blistering'
p3294
I2
tp3295
a(S'block'
p3296
I2
tp3297
a(S'blue'
p3298
I2
tp3299
a(S'bought'
p3300
I2
tp3301
a(S'breathing'
p3302
I2
tp3303
a(S'brink'
p3304
I2
tp3305
a(S'broke'
p3306
I2
tp3307
a(S'broken'
p3308
I2
tp3309
a(S'build'
p3310
I2
tp3311
a(S'buliding'
p3312
I2
tp3313
a(S'california.\x94'
p3314
I2
tp3315
a(S'calling'
p3316
I2
tp3317
a(S'caps1\x92s'
p3318
I2
tp3319
a(S'cased'
p3320
I2
tp3321
a(S'changing.\x94'
p3322
I2
tp3323
a(S'circumstance'
p3324
I2
tp3325
a(S'claim'
p3326
I2
tp3327
a(S'claimed'
p3328
I2
tp3329
a(S'climax'
p3330
I2
tp3331
a(S'climbed'
p3332
I2
tp3333
a(S'climbing'
p3334
I2
tp3335
a(S'closed'
p3336
I2
tp3337
a(S'clothe'
p3338
I2
tp3339
a(S'codgers\x94'
p3340
I2
tp3341
a(S'color'
p3342
I2
tp3343
a(S'comb'
p3344
I2
tp3345
a(S'comfort'
p3346
I2
tp3347
a(S'common'
p3348
I2
tp3349
a(S'company'
p3350
I2
tp3351
a(S'concentrate'
p3352
I2
tp3353
a(S'conclude'
p3354
I2
tp3355
a(S'confused'
p3356
I2
tp3357
a(S'conquer'
p3358
I2
tp3359
a(S'conserving'
p3360
I2
tp3361
a(S'correct'
p3362
I2
tp3363
a(S"couldn't"
p3364
I2
tp3365
a(S'could\x92ve'
p3366
I2
tp3367
a(S'crash'
p3368
I2
tp3369
a(S'crested'
p3370
I2
tp3371
a(S'crossing'
p3372
I2
tp3373
a(S'crucial'
p3374
I2
tp3375
a(S'cruel,\x94'
p3376
I2
tp3377
a(S'crushed'
p3378
I2
tp3379
a(S'curry'
p3380
I2
tp3381
a(S'cycling.the'
p3382
I2
tp3383
a(S'cyclist.many'
p3384
I2
tp3385
a(S'cyclistin'
p3386
I2
tp3387
a(S'cyclists\x92'
p3388
I2
tp3389
a(S'dangerously'
p3390
I2
tp3391
a(S'de'
p3392
I2
tp3393
a(S'deciding'
p3394
I2
tp3395
a(S'decreased'
p3396
I2
tp3397
a(S'defination'
p3398
I2
tp3399
a(S'degrees\x94'
p3400
I2
tp3401
a(S'dehidrate'
p3402
I2
tp3403
a(S'dehidration'
p3404
I2
tp3405
a(S'dehydratied'
p3406
I2
tp3407
a(S'delayed'
p3408
I2
tp3409
a(S'depleating'
p3410
I2
tp3411
a(S'deplete'
p3412
I2
tp3413
a(S'depressing'
p3414
I2
tp3415
a(S'desolation'
p3416
I2
tp3417
a(S'destroyed'
p3418
I2
tp3419
a(S'devastated'
p3420
I2
tp3421
a(S'develop'
p3422
I2
tp3423
a(S'di'
p3424
I2
tp3425
a(S'didn`t'
p3426
I2
tp3427
a(S'die.\x94'
p3428
I2
tp3429
a(S'died.the'
p3430
I2
tp3431
a(S'diferent'
p3432
I2
tp3433
a(S'difference'
p3434
I2
tp3435
a(S'difficult.in'
p3436
I2
tp3437
a(S'directed'
p3438
I2
tp3439
a(S'directions.in'
p3440
I2
tp3441
a(S'dirty'
p3442
I2
tp3443
a(S'discomfort'
p3444
I2
tp3445
a(S'discourage'
p3446
I2
tp3447
a(S'discribe'
p3448
I2
tp3449
a(S'diserted'
p3450
I2
tp3451
a(S'disturbed'
p3452
I2
tp3453
a(S'doubtfull'
p3454
I2
tp3455
a(S'dow'
p3456
I2
tp3457
a(S'down,\x94'
p3458
I2
tp3459
a(S'drain'
p3460
I2
tp3461
a(S'dre'
p3462
I2
tp3463
a(S'dreadful'
p3464
I2
tp3465
a(S'dreary'
p3466
I2
tp3467
a(S'drieing'
p3468
I2
tp3469
a(S'drier'
p3470
I2
tp3471
a(S'drink.the'
p3472
I2
tp3473
a(S'dropping'
p3474
I2
tp3475
a(S'dust'
p3476
I2
tp3477
a(S'dusty'
p3478
I2
tp3479
a(S'dyhydration'
p3480
I2
tp3481
a(S'early-'
p3482
I2
tp3483
a(S'ease'
p3484
I2
tp3485
a(S'eassy'
p3486
I2
tp3487
a(S'eccentric'
p3488
I2
tp3489
a(S'elder'
p3490
I2
tp3491
a(S'elsewhere'
p3492
I2
tp3493
a(S'emphasize'
p3494
I2
tp3495
a(S'encouraged'
p3496
I2
tp3497
a(S'encouter'
p3498
I2
tp3499
a(S'endurance'
p3500
I2
tp3501
a(S'endured'
p3502
I2
tp3503
a(S'energetic'
p3504
I2
tp3505
a(S'enery'
p3506
I2
tp3507
a(S'enthusiastic'
p3508
I2
tp3509
a(S'environmental'
p3510
I2
tp3511
a(S'equipment'
p3512
I2
tp3513
a(S'essay.the'
p3514
I2
tp3515
a(S'evening\x94'
p3516
I2
tp3517
a(S'eventhough'
p3518
I2
tp3519
a(S'everytime'
p3520
I2
tp3521
a(S'example.\x94'
p3522
I2
tp3523
a(S'excited\x94'
p3524
I2
tp3525
a(S'exeed'
p3526
I2
tp3527
a(S'exercise'
p3528
I2
tp3529
a(S'exhasted'
p3530
I2
tp3531
a(S'exhaust'
p3532
I2
tp3533
a(S'expedition'
p3534
I2
tp3535
a(S'experence'
p3536
I2
tp3537
a(S'experiencing'
p3538
I2
tp3539
a(S'explained'
p3540
I2
tp3541
a(S'expressing'
p3542
I2
tp3543
a(S'exspecially'
p3544
I2
tp3545
a(S'f'
I2
tp3546
a(S'face\x94'
p3547
I2
tp3548
a(S'factory\x94'
p3549
I2
tp3550
a(S'failed'
p3551
I2
tp3552
a(S'faint'
p3553
I2
tp3554
a(S'falling'
p3555
I2
tp3556
a(S'familiar'
p3557
I2
tp3558
a(S'fatigue'
p3559
I2
tp3560
a(S'fearful'
p3561
I2
tp3562
a(S'features'
p3563
I2
tp3564
a(S'features.the'
p3565
I2
tp3566
a(S'feauture'
p3567
I2
tp3568
a(S'fell'
p3569
I2
tp3570
a(S'fighting'
p3571
I2
tp3572
a(S'finishing'
p3573
I2
tp3574
a(S'fock'
p3575
I2
tp3576
a(S'focused'
p3577
I2
tp3578
a(S'follwed'
p3579
I2
tp3580
a(S'fortunately'
p3581
I2
tp3582
a(S'freely'
p3583
I2
tp3584
a(S'frightening'
p3585
I2
tp3586
a(S'fromthe'
p3587
I2
tp3588
a(S'frustrate'
p3589
I2
tp3590
a(S'functioning'
p3591
I2
tp3592
a(S'furthered'
p3593
I2
tp3594
a(S'futher'
p3595
I2
tp3596
a(S'future.the'
p3597
I2
tp3598
a(S'game'
p3599
I2
tp3600
a(S'gathered'
p3601
I2
tp3602
a(S'gentleman'
p3603
I2
tp3604
a(S'glad'
p3605
I2
tp3606
a(S'glimpse'
p3607
I2
tp3608
a(S'goin'
p3609
I2
tp3610
a(S'going.the'
p3611
I2
tp3612
a(S'gradually'
p3613
I2
tp3614
a(S'greatlly'
p3615
I2
tp3616
a(S'greatly.in'
p3617
I2
tp3618
a(S'green'
p3619
I2
tp3620
a(S'grow'
p3621
I2
tp3622
a(S'gue'
p3623
I2
tp3624
a(S'halfway'
p3625
I2
tp3626
a(S'haw'
p3627
I2
tp3628
a(S'hear'
p3629
I2
tp3630
a(S'heat.in'
p3631
I2
tp3632
a(S'heath'
p3633
I2
tp3634
a(S'heating'
p3635
I2
tp3636
a(S'helpful'
p3637
I2
tp3638
a(S'helple'
p3639
I2
tp3640
a(S'hill.the'
p3641
I2
tp3642
a(S'hills-all'
p3643
I2
tp3644
a(S'him.setting'
p3645
I2
tp3646
a(S'hindered'
p3647
I2
tp3648
a(S'ho'
p3649
I2
tp3650
a(S'honey'
p3651
I2
tp3652
a(S'hope.the'
p3653
I2
tp3654
a(S'hople'
p3655
I2
tp3656
a(S'host'
p3657
I2
tp3658
a(S'hott'
p3659
I2
tp3660
a(S'humanity'
p3661
I2
tp3662
a(S'hungry'
p3663
I2
tp3664
a(S'hurting'
p3665
I2
tp3666
a(S'hydration'
p3667
I2
tp3668
a(S"i'd"
p3669
I2
tp3670
a(S'im'
p3671
I2
tp3672
a(S'imagery'
p3673
I2
tp3674
a(S'immense'
p3675
I2
tp3676
a(S'implie'
p3677
I2
tp3678
a(S'impossible'
p3679
I2
tp3680
a(S'inability'
p3681
I2
tp3682
a(S'indifferent'
p3683
I2
tp3684
a(S'inevitable'
p3685
I2
tp3686
a(S'inferred'
p3687
I2
tp3688
a(S'info'
p3689
I2
tp3690
a(S'infrastructure'
p3691
I2
tp3692
a(S'infront'
p3693
I2
tp3694
a(S'inorder'
p3695
I2
tp3696
a(S'instinct'
p3697
I2
tp3698
a(S'intensive'
p3699
I2
tp3700
a(S'intimidating'
p3701
I2
tp3702
a(S'intitled'
p3703
I2
tp3704
a(S'inward'
p3705
I2
tp3706
a(S'item'
p3707
I2
tp3708
a(S'jouney'
p3709
I2
tp3710
a(S'joyful'
p3711
I2
tp3712
a(S'juice\x94'
p3713
I2
tp3714
a(S'keen'
p3715
I2
tp3716
a(S'kick'
p3717
I2
tp3718
a(S'killing'
p3719
I2
tp3720
a(S'kne'
p3721
I2
tp3722
a(S'lake'
p3723
I2
tp3724
a(S'landed'
p3725
I2
tp3726
a(S'larger'
p3727
I2
tp3728
a(S'lasted'
p3729
I2
tp3730
a(S'life.the'
p3731
I2
tp3732
a(S'lifted'
p3733
I2
tp3734
a(S'light'
p3735
I2
tp3736
a(S"limit''"
p3737
I2
tp3738
a(S'ling'
p3739
I2
tp3740
a(S'load'
p3741
I2
tp3742
a(S'local'
p3743
I2
tp3744
a(S'loosing'
p3745
I2
tp3746
a(S'love'
p3747
I2
tp3748
a(S'mainly'
p3749
I2
tp3750
a(S'makeing'
p3751
I2
tp3752
a(S'managed'
p3753
I2
tp3754
a(S'me,\x94'
p3755
I2
tp3756
a(S'men.the'
p3757
I2
tp3758
a(S'ment'
p3759
I2
tp3760
a(S'men\x94'
p3761
I2
tp3762
a(S'mep'
p3763
I2
tp3764
a(S'mere'
p3765
I2
tp3766
a(S'metaphor'
p3767
I2
tp3768
a(S'miles'
p3769
I2
tp3770
a(S'mirage.\x94'
p3771
I2
tp3772
a(S'mirage\x94'
p3773
I2
tp3774
a(S'mocking'
p3775
I2
tp3776
a(S'mode'
p3777
I2
tp3778
a(S'motivation'
p3779
I2
tp3780
a(S'mouth,\x94'
p3781
I2
tp3782
a(S'mouth.\x94'
p3783
I2
tp3784
a(S'mph,\x94'
p3785
I2
tp3786
a(S'muster'
p3787
I2
tp3788
a(S'must\x92ve'
p3789
I2
tp3790
a(S'narrator\x92'
p3791
I2
tp3792
a(S'naturally'
p3793
I2
tp3794
a(S'navigate'
p3795
I2
tp3796
a(S'nearest'
p3797
I2
tp3798
a(S'needing'
p3799
I2
tp3800
a(S'nightmare'
p3801
I2
tp3802
a(S'nothingne'
p3803
I2
tp3804
a(S'noticed.\x94'
p3805
I2
tp3806
a(S'now.the'
p3807
I2
tp3808
a(S'number'
p3809
I2
tp3810
a(S'o'
I2
tp3811
a(S'occasional'
p3812
I2
tp3813
a(S'ok'
p3814
I2
tp3815
a(S'on\x94'
p3816
I2
tp3817
a(S'opposed'
p3818
I2
tp3819
a(S'optical'
p3820
I2
tp3821
a(S'optimism'
p3822
I2
tp3823
a(S'out-dated'
p3824
I2
tp3825
a(S'out.\x94'
p3826
I2
tp3827
a(S'outcome'
p3828
I2
tp3829
a(S'overheated'
p3830
I2
tp3831
a(S'packed'
p3832
I2
tp3833
a(S'paid'
p3834
I2
tp3835
a(S'painful'
p3836
I2
tp3837
a(S'panicing'
p3838
I2
tp3839
a(S'panickly'
p3840
I2
tp3841
a(S'parched'
p3842
I2
tp3843
a(S'park.there'
p3844
I2
tp3845
a(S'partly'
p3846
I2
tp3847
a(S'path.\x94'
p3848
I2
tp3849
a(S'path\x94'
p3850
I2
tp3851
a(S'paved'
p3852
I2
tp3853
a(S'pavement.\x94'
p3854
I2
tp3855
a(S'peanut'
p3856
I2
tp3857
a(S'pedaled'
p3858
I2
tp3859
a(S'pedeling'
p3860
I2
tp3861
a(S'performence'
p3862
I2
tp3863
a(S'perseverance'
p3864
I2
tp3865
a(S'person1\x92'
p3866
I2
tp3867
a(S'personally'
p3868
I2
tp3869
a(S'phase'
p3870
I2
tp3871
a(S'phrase'
p3872
I2
tp3873
a(S'phyisicly'
p3874
I2
tp3875
a(S'picked'
p3876
I2
tp3877
a(S'planning'
p3878
I2
tp3879
a(S'plant.\x94'
p3880
I2
tp3881
a(S'plant\x94'
p3882
I2
tp3883
a(S'plot'
p3884
I2
tp3885
a(S'pop'
p3886
I2
tp3887
a(S'populated'
p3888
I2
tp3889
a(S'population'
p3890
I2
tp3891
a(S'position'
p3892
I2
tp3893
a(S'possitive'
p3894
I2
tp3895
a(S'post'
p3896
I2
tp3897
a(S'potentially'
p3898
I2
tp3899
a(S'pounding'
p3900
I2
tp3901
a(S'preciou'
p3902
I2
tp3903
a(S'predict'
p3904
I2
tp3905
a(S'presented'
p3906
I2
tp3907
a(S'pressed'
p3908
I2
tp3909
a(S'pressure'
p3910
I2
tp3911
a(S'prety'
p3912
I2
tp3913
a(S'prevent'
p3914
I2
tp3915
a(S'probaly'
p3916
I2
tp3917
a(S'produce'
p3918
I2
tp3919
a(S'progressed'
p3920
I2
tp3921
a(S'proper'
p3922
I2
tp3923
a(S'protagonist'
p3924
I2
tp3925
a(S'pumps\x94'
p3926
I2
tp3927
a(S'quench'
p3928
I2
tp3929
a(S'quickley'
p3930
I2
tp3931
a(S'quoted'
p3932
I2
tp3933
a(S'rainy'
p3934
I2
tp3935
a(S'ram'
p3936
I2
tp3937
a(S'ration'
p3938
I2
tp3939
a(S'react'
p3940
I2
tp3941
a(S'received'
p3942
I2
tp3943
a(S'recieve'
p3944
I2
tp3945
a(S'rediculously'
p3946
I2
tp3947
a(S'reduced'
p3948
I2
tp3949
a(S'reference'
p3950
I2
tp3951
a(S'refreshment'
p3952
I2
tp3953
a(S'regain'
p3954
I2
tp3955
a(S'regret'
p3956
I2
tp3957
a(S'regularly\x94'
p3958
I2
tp3959
a(S'relaxing'
p3960
I2
tp3961
a(S'relentle'
p3962
I2
tp3963
a(S'relied'
p3964
I2
tp3965
a(S'relieved.the'
p3966
I2
tp3967
a(S'remain'
p3968
I2
tp3969
a(S'reminded'
p3970
I2
tp3971
a(S'reminding'
p3972
I2
tp3973
a(S'removed'
p3974
I2
tp3975
a(S'resorted'
p3976
I2
tp3977
a(S'restock'
p3978
I2
tp3979
a(S'returned'
p3980
I2
tp3981
a(S'rid'
p3982
I2
tp3983
a(S'ride.in'
p3984
I2
tp3985
a(S'road.in'
p3986
I2
tp3987
a(S'roadway'
p3988
I2
tp3989
a(S'rod'
p3990
I2
tp3991
a(S'roll'
p3992
I2
tp3993
a(S'round'
p3994
I2
tp3995
a(S'ruin'
p3996
I2
tp3997
a(S'ruined'
p3998
I2
tp3999
a(S'runs'
p4000
I2
tp4001
a(S'safely'
p4002
I2
tp4003
a(S'saliva'
p4004
I2
tp4005
a(S'sandy'
p4006
I2
tp4007
a(S'sarcastic'
p4008
I2
tp4009
a(S'sat'
p4010
I2
tp4011
a(S'scary'
p4012
I2
tp4013
a(S'scenary'
p4014
I2
tp4015
a(S'scene'
p4016
I2
tp4017
a(S'screaming'
p4018
I2
tp4019
a(S'searche'
p4020
I2
tp4021
a(S'see\x92'
p4022
I2
tp4023
a(S'self-pitty'
p4024
I2
tp4025
a(S'sent'
p4026
I2
tp4027
a(S'setting.in'
p4028
I2
tp4029
a(S'setting\x92'
p4030
I2
tp4031
a(S'shake'
p4032
I2
tp4033
a(S'shiny'
p4034
I2
tp4035
a(S'shirt.\x94'
p4036
I2
tp4037
a(S'shirt\x94'
p4038
I2
tp4039
a(S'shop.the'
p4040
I2
tp4041
a(S'short-cut'
p4042
I2
tp4043
a(S'shortne'
p4044
I2
tp4045
a(S'simple'
p4046
I2
tp4047
a(S'sink.\x94'
p4048
I2
tp4049
a(S'sir!'
p4050
I2
tp4051
a(S'situation.in'
p4052
I2
tp4053
a(S'skill'
p4054
I2
tp4055
a(S'skin'
p4056
I2
tp4057
a(S'sky'
p4058
I2
tp4059
a(S'sleep'
p4060
I2
tp4061
a(S'slightly'
p4062
I2
tp4063
a(S'slip'
p4064
I2
tp4065
a(S'snake-'
p4066
I2
tp4067
a(S'somebody'
p4068
I2
tp4069
a(S'sore'
p4070
I2
tp4071
a(S'sorrounding'
p4072
I2
tp4073
a(S'soul'
p4074
I2
tp4075
a(S'sounded'
p4076
I2
tp4077
a(S'space'
p4078
I2
tp4079
a(S'speaker\x92'
p4080
I2
tp4081
a(S'speed.the'
p4082
I2
tp4083
a(S'spend'
p4084
I2
tp4085
a(S'standard'
p4086
I2
tp4087
a(S'stayed'
p4088
I2
tp4089
a(S'sticking'
p4090
I2
tp4091
a(S'stock'
p4092
I2
tp4093
a(S'story.in'
p4094
I2
tp4095
a(S'strat'
p4096
I2
tp4097
a(S'street'
p4098
I2
tp4099
a(S'stresse'
p4100
I2
tp4101
a(S'striving'
p4102
I2
tp4103
a(S'stroke.the'
p4104
I2
tp4105
a(S'struck'
p4106
I2
tp4107
a(S'stumble'
p4108
I2
tp4109
a(S'stumbled'
p4110
I2
tp4111
a(S'succeed'
p4112
I2
tp4113
a(S'suffering.the'
p4114
I2
tp4115
a(S'summer.the'
p4116
I2
tp4117
a(S'summer\x92'
p4118
I2
tp4119
a(S'supported'
p4120
I2
tp4121
a(S'surronding'
p4122
I2
tp4123
a(S'surrounded'
p4124
I2
tp4125
a(S'survive.the'
p4126
I2
tp4127
a(S'survives.in'
p4128
I2
tp4129
a(S'surviving'
p4130
I2
tp4131
a(S'sush'
p4132
I2
tp4133
a(S'symbol'
p4134
I2
tp4135
a(S'tack'
p4136
I2
tp4137
a(S'talked'
p4138
I2
tp4139
a(S'tast'
p4140
I2
tp4141
a(S'taunted'
p4142
I2
tp4143
a(S'te'
p4144
I2
tp4145
a(S'teache'
p4146
I2
tp4147
a(S'teasing'
p4148
I2
tp4149
a(S'temp'
p4150
I2
tp4151
a(S'tempature'
p4152
I2
tp4153
a(S'terrifying'
p4154
I2
tp4155
a(S'thankful'
p4156
I2
tp4157
a(S'them.the'
p4158
I2
tp4159
a(S'theme'
p4160
I2
tp4161
a(S'them\x94'
p4162
I2
tp4163
a(S'ther'
p4164
I2
tp4165
a(S'there.the'
p4166
I2
tp4167
a(S'therefor'
p4168
I2
tp4169
a(S'they\x92re'
p4170
I2
tp4171
a(S'thrist'
p4172
I2
tp4173
a(S'throat.\x94'
p4174
I2
tp4175
a(S'throat\x94'
p4176
I2
tp4177
a(S'throug'
p4178
I2
tp4179
a(S'throwing'
p4180
I2
tp4181
a(S'tiered'
p4182
I2
tp4183
a(S'till'
p4184
I2
tp4185
a(S'time-'
p4186
I2
tp4187
a(S'time-say'
p4188
I2
tp4189
a(S'time\x94'
p4190
I2
tp4191
a(S'tired.the'
p4192
I2
tp4193
a(S'torn'
p4194
I2
tp4195
a(S'traveler'
p4196
I2
tp4197
a(S'tremendously'
p4198
I2
tp4199
a(S'tripthe'
p4200
I2
tp4201
a(S'triumph'
p4202
I2
tp4203
a(S'troubling.\x94'
p4204
I2
tp4205
a(S'trusting'
p4206
I2
tp4207
a(S'tumple'
p4208
I2
tp4209
a(S'twice'
p4210
I2
tp4211
a(S'twist\x94'
p4212
I2
tp4213
a(S'unbearable'
p4214
I2
tp4215
a(S'uneasy'
p4216
I2
tp4217
a(S'unfit'
p4218
I2
tp4219
a(S'unfortunate'
p4220
I2
tp4221
a(S'unwanted'
p4222
I2
tp4223
a(S'variety'
p4224
I2
tp4225
a(S'verbal'
p4226
I2
tp4227
a(S'view\x94'
p4228
I2
tp4229
a(S'vision'
p4230
I2
tp4231
a(S'vowed'
p4232
I2
tp4233
a(S'wait'
p4234
I2
tp4235
a(S'war-'
p4236
I2
tp4237
a(S'wate'
p4238
I2
tp4239
a(S'water-'
p4240
I2
tp4241
a(S'waterthe'
p4242
I2
tp4243
a(S'wave'
p4244
I2
tp4245
a(S'way.in'
p4246
I2
tp4247
a(S'weakening'
p4248
I2
tp4249
a(S'whatever'
p4250
I2
tp4251
a(S'what\x92'
p4252
I2
tp4253
a(S'wheather'
p4254
I2
tp4255
a(S'who\x92'
p4256
I2
tp4257
a(S'wi'
p4258
I2
tp4259
a(S'willing'
p4260
I2
tp4261
a(S'win'
p4262
I2
tp4263
a(S'winter'
p4264
I2
tp4265
a(S'within'
p4266
I2
tp4267
a(S'wonder'
p4268
I2
tp4269
a(S'wonderful'
p4270
I2
tp4271
a(S'wont'
p4272
I2
tp4273
a(S'worrie'
p4274
I2
tp4275
a(S'worser'
p4276
I2
tp4277
a(S'wouldnt'
p4278
I2
tp4279
a(S'wound'
p4280
I2
tp4281
a(S'writing'
p4282
I2
tp4283
a(S'wrong.the'
p4284
I2
tp4285
a(S'years.the'
p4286
I2
tp4287
a(S'yosemite\x92'
p4288
I2
tp4289
a(S'\x91rough'
p4290
I2
tp4291
a(S'\x91short'
p4292
I2
tp4293
a(S'\x91the'
p4294
I2
tp4295
a(S'\x91town\x92'
p4296
I2
tp4297
a(S'\x93(joe'
p4298
I2
tp4299
a(S'\x93.i'
p4300
I2
tp4301
a(S'\x93@caps2'
p4302
I2
tp4303
a(S'\x93by'
p4304
I2
tp4305
a(S'\x93chuckled'
p4306
I2
tp4307
a(S'\x93desert'
p4308
I2
tp4309
a(S'\x93drank'
p4310
I2
tp4311
a(S'\x93drop'
p4312
I2
tp4313
a(S'\x93gathered'
p4314
I2
tp4315
a(S'\x93going'
p4316
I2
tp4317
a(S'\x93haven\x92t'
p4318
I2
tp4319
a(S'\x93if'
p4320
I2
tp4321
a(S'\x93l'
p4322
I2
tp4323
a(S'\x93like'
p4324
I2
tp4325
a(S'\x93long'
p4326
I2
tp4327
a(S'\x93ridiculously'
p4328
I2
tp4329
a(S'\x93rolling'
p4330
I2
tp4331
a(S'\x93serenity'
p4332
I2
tp4333
a(S'\x93several'
p4334
I2
tp4335
a(S'\x93wa'
p4336
I2
tp4337
a(S'\x93ye'
p4338
I2
tp4339
a(S'!!'
p4340
I1
tp4341
a(S'$'
I1
tp4342
a(S"''...arrived"
p4343
I1
tp4344
a(S"''a"
p4345
I1
tp4346
a(S"''about"
p4347
I1
tp4348
a(S"''flatroad"
p4349
I1
tp4350
a(S"''one"
p4351
I1
tp4352
a(S"''over"
p4353
I1
tp4354
a(S"''rough"
p4355
I1
tp4356
a(S"''sometime"
p4357
I1
tp4358
a(S"''that"
p4359
I1
tp4360
a(S"''the"
p4361
I1
tp4362
a(S"''thi"
p4363
I1
tp4364
a(S"''town.''"
p4365
I1
tp4366
a(S"''when"
p4367
I1
tp4368
a(S"'@organization2'"
p4369
I1
tp4370
a(S"'since"
p4371
I1
tp4372
a(S'(@caps1).\x94'
p4373
I1
tp4374
a(S'(@num1.)'
p4375
I1
tp4376
a(S'(@num2'
p4377
I1
tp4378
a(S'(@num2.)'
p4379
I1
tp4380
a(S'(a'
p4381
I1
tp4382
a(S'(abandoned'
p4383
I1
tp4384
a(S'(his)'
p4385
I1
tp4386
a(S'(i'
p4387
I1
tp4388
a(S'(ister)'
p4389
I1
tp4390
a(S'(joe'
p4391
I1
tp4392
a(S'(just'
p4393
I1
tp4394
a(S'(kurmakie'
p4395
I1
tp4396
a(S'(of'
p4397
I1
tp4398
a(S'(the'
p4399
I1
tp4400
a(S'(when'
p4401
I1
tp4402
a(S';'
I1
tp4403
a(S';do'
p4404
I1
tp4405
a(S'??.????'
p4406
I1
tp4407
a(S'???(not'
p4408
I1
tp4409
a(S'???.the'
p4410
I1
tp4411
a(S'???.there'
p4412
I1
tp4413
a(S'???good'
p4414
I1
tp4415
a(S'???in'
p4416
I1
tp4417
a(S'???of'
p4418
I1
tp4419
a(S'[and]'
p4420
I1
tp4421
a(S'[he]'
p4422
I1
tp4423
a(S'[him]'
p4424
I1
tp4425
a(S'a,\x93ridiculously'
p4426
I1
tp4427
a(S'a.k.a'
p4428
I1
tp4429
a(S'aase'
p4430
I1
tp4431
a(S'abadond'
p4432
I1
tp4433
a(S'abait'
p4434
I1
tp4435
a(S'abandond'
p4436
I1
tp4437
a(S'abandone'
p4438
I1
tp4439
a(S'abandoned,it'
p4440
I1
tp4441
a(S'abandoned.the'
p4442
I1
tp4443
a(S'abandured'
p4444
I1
tp4445
a(S'abanodoned'
p4446
I1
tp4447
a(S'abbandon'
p4448
I1
tp4449
a(S'abig'
p4450
I1
tp4451
a(S'abilitiesin'
p4452
I1
tp4453
a(S'ablut'
p4454
I1
tp4455
a(S'abondered'
p4456
I1
tp4457
a(S'abondored'
p4458
I1
tp4459
a(S'abounded'
p4460
I1
tp4461
a(S'about.i'
p4462
I1
tp4463
a(S'abundance'
p4464
I1
tp4465
a(S'abundanded'
p4466
I1
tp4467
a(S'accepted'
p4468
I1
tp4469
a(S'accomplishing'
p4470
I1
tp4471
a(S'accoutered'
p4472
I1
tp4473
a(S'acctully'
p4474
I1
tp4475
a(S'ache;'
p4476
I1
tp4477
a(S'achieve'
p4478
I1
tp4479
a(S'achieving'
p4480
I1
tp4481
a(S'aciccted'
p4482
I1
tp4483
a(S'acid,\x94'
p4484
I1
tp4485
a(S'acid.\x92\x92'
p4486
I1
tp4487
a(S'acne.the'
p4488
I1
tp4489
a(S'across.the'
p4490
I1
tp4491
a(S'acse'
p4492
I1
tp4493
a(S'actaire.in'
p4494
I1
tp4495
a(S'actual'
p4496
I1
tp4497
a(S'acually'
p4498
I1
tp4499
a(S'acused'
p4500
I1
tp4501
a(S'adaodone'
p4502
I1
tp4503
a(S'adaodoned.the'
p4504
I1
tp4505
a(S'additional'
p4506
I1
tp4507
a(S'adequate'
p4508
I1
tp4509
a(S'adiamond'
p4510
I1
tp4511
a(S'adjust'
p4512
I1
tp4513
a(S'advance'
p4514
I1
tp4515
a(S'adventure.in'
p4516
I1
tp4517
a(S'adventure.the'
p4518
I1
tp4519
a(S'adventure\x94'
p4520
I1
tp4521
a(S'adventurou'
p4522
I1
tp4523
a(S'adversely'
p4524
I1
tp4525
a(S'adversitie'
p4526
I1
tp4527
a(S'adversity.the'
p4528
I1
tp4529
a(S'advertised'
p4530
I1
tp4531
a(S'advertising'
p4532
I1
tp4533
a(S'adviced'
p4534
I1
tp4535
a(S'afect'
p4536
I1
tp4537
a(S'afected'
p4538
I1
tp4539
a(S'afeted'
p4540
I1
tp4541
a(S'affeced'
p4542
I1
tp4543
a(S'affect.the'
p4544
I1
tp4545
a(S'affecte'
p4546
I1
tp4547
a(S'affective'
p4548
I1
tp4549
a(S'affective.the'
p4550
I1
tp4551
a(S'affectively'
p4552
I1
tp4553
a(S'affecton'
p4554
I1
tp4555
a(S'affects.a'
p4556
I1
tp4557
a(S'affeted'
p4558
I1
tp4559
a(S'affore'
p4560
I1
tp4561
a(S'afftected'
p4562
I1
tp4563
a(S'afterward'
p4564
I1
tp4565
a(S'again.because'
p4566
I1
tp4567
a(S'again.feature'
p4568
I1
tp4569
a(S'again.i'
p4570
I1
tp4571
a(S'again.in'
p4572
I1
tp4573
a(S'again.there'
p4574
I1
tp4575
a(S'againin'
p4576
I1
tp4577
a(S'agarsear'
p4578
I1
tp4579
a(S'age'
p4580
I1
tp4581
a(S'agility'
p4582
I1
tp4583
a(S'agrees.in'
p4584
I1
tp4585
a(S'ahead!'
p4586
I1
tp4587
a(S'ahead.in'
p4588
I1
tp4589
a(S'ahead.\x94the'
p4590
I1
tp4591
a(S'ahead;do'
p4592
I1
tp4593
a(S'aiding'
p4594
I1
tp4595
a(S'aint'
p4596
I1
tp4597
a(S'air.the'
p4598
I1
tp4599
a(S'al'
p4600
I1
tp4601
a(S'alarming'
p4602
I1
tp4603
a(S'alaska'
p4604
I1
tp4605
a(S'alergic'
p4606
I1
tp4607
a(S'alittle.in'
p4608
I1
tp4609
a(S'alive.the'
p4610
I1
tp4611
a(S'all-'
p4612
I1
tp4613
a(S'all.the'
p4614
I1
tp4615
a(S'allow'
p4616
I1
tp4617
a(S'along.the'
p4618
I1
tp4619
a(S'alot.the'
p4620
I1
tp4621
a(S'aloud'
p4622
I1
tp4623
a(S'alright'
p4624
I1
tp4625
a(S'alright".thi'
p4626
I1
tp4627
a(S'altitude'
p4628
I1
tp4629
a(S'altogether'
p4630
I1
tp4631
a(S'amajor'
p4632
I1
tp4633
a(S'ami'
p4634
I1
tp4635
a(S'amusement'
p4636
I1
tp4637
a(S'analyzing'
p4638
I1
tp4639
a(S'andin'
p4640
I1
tp4641
a(S'angre'
p4642
I1
tp4643
a(S'angred'
p4644
I1
tp4645
a(S'animated'
p4646
I1
tp4647
a(S'another.there'
p4648
I1
tp4649
a(S'answer'
p4650
I1
tp4651
a(S'answerin'
p4652
I1
tp4653
a(S'anther'
p4654
I1
tp4655
a(S'anxiety'
p4656
I1
tp4657
a(S'anxiousne'
p4658
I1
tp4659
a(S'any;'
p4660
I1
tp4661
a(S'anymore.there'
p4662
I1
tp4663
a(S'anything!'
p4664
I1
tp4665
a(S'anything.the'
p4666
I1
tp4667
a(S'anything.thi'
p4668
I1
tp4669
a(S'anytime'
p4670
I1
tp4671
a(S'anywere'
p4672
I1
tp4673
a(S'anywhere.the'
p4674
I1
tp4675
a(S'apart.the'
p4676
I1
tp4677
a(S'apirean'
p4678
I1
tp4679
a(S'aplist'
p4680
I1
tp4681
a(S'apointed'
p4682
I1
tp4683
a(S'apparent'
p4684
I1
tp4685
a(S'appealing'
p4686
I1
tp4687
a(S'appert'
p4688
I1
tp4689
a(S'applaud'
p4690
I1
tp4691
a(S'appreciate'
p4692
I1
tp4693
a(S'appropriate'
p4694
I1
tp4695
a(S'approved'
p4696
I1
tp4697
a(S'apropreit'
p4698
I1
tp4699
a(S'aqusting'
p4700
I1
tp4701
a(S'arctic'
p4702
I1
tp4703
a(S'are.in'
p4704
I1
tp4705
a(S'are.that'
p4706
I1
tp4707
a(S'area.being'
p4708
I1
tp4709
a(S'area.in'
p4710
I1
tp4711
a(S'ared'
p4712
I1
tp4713
a(S'aridity'
p4714
I1
tp4715
a(S'arise'
p4716
I1
tp4717
a(S'arising'
p4718
I1
tp4719
a(S'arizona'
p4720
I1
tp4721
a(S'aroun'
p4722
I1
tp4723
a(S'around.the'
p4724
I1
tp4725
a(S'aroung'
p4726
I1
tp4727
a(S'arrest'
p4728
I1
tp4729
a(S'arround'
p4730
I1
tp4731
a(S'as;'
p4732
I1
tp4733
a(S'aske'
p4734
I1
tp4735
a(S'assurance'
p4736
I1
tp4737
a(S'ater'
p4738
I1
tp4739
a(S'athe'
p4740
I1
tp4741
a(S'athletic'
p4742
I1
tp4743
a(S'atm.\x94'
p4744
I1
tp4745
a(S'atmosphere'
p4746
I1
tp4747
a(S'attack'
p4748
I1
tp4749
a(S'attacked'
p4750
I1
tp4751
a(S'attempted'
p4752
I1
tp4753
a(S'attention'
p4754
I1
tp4755
a(S'atthat'
p4756
I1
tp4757
a(S'attitude.in'
p4758
I1
tp4759
a(S'attiude.the'
p4760
I1
tp4761
a(S'author.in'
p4762
I1
tp4763
a(S'author.\x93do'
p4764
I1
tp4765
a(S'author/cyclist'
p4766
I1
tp4767
a(S'authour'
p4768
I1
tp4769
a(S'automatically'
p4770
I1
tp4771
a(S'available'
p4772
I1
tp4773
a(S'avoided.the'
p4774
I1
tp4775
a(S'avoiding'
p4776
I1
tp4777
a(S'awaiting'
p4778
I1
tp4779
a(S'awarene'
p4780
I1
tp4781
a(S'bacame'
p4782
I1
tp4783
a(S'back-beaked'
p4784
I1
tp4785
a(S'back.the'
p4786
I1
tp4787
a(S'backin'
p4788
I1
tp4789
a(S'back\x94'
p4790
I1
tp4791
a(S'back\x96bloked'
p4792
I1
tp4793
a(S'bairly'
p4794
I1
tp4795
a(S'baite'
p4796
I1
tp4797
a(S'baitshop'
p4798
I1
tp4799
a(S'bake'
p4800
I1
tp4801
a(S'baked'
p4802
I1
tp4803
a(S'balanc'
p4804
I1
tp4805
a(S'balancing'
p4806
I1
tp4807
a(S'ball'
p4808
I1
tp4809
a(S'band'
p4810
I1
tp4811
a(S'bandoned'
p4812
I1
tp4813
a(S'baren'
p4814
I1
tp4815
a(S'barin'
p4816
I1
tp4817
a(S'barrenne'
p4818
I1
tp4819
a(S'barst'
p4820
I1
tp4821
a(S'basketball'
p4822
I1
tp4823
a(S'bate'
p4824
I1
tp4825
a(S'batey'
p4826
I1
tp4827
a(S'bathroom\x94'
p4828
I1
tp4829
a(S'batteryacid'
p4830
I1
tp4831
a(S'bay'
p4832
I1
tp4833
a(S'be.[temperature]the'
p4834
I1
tp4835
a(S'be.certin'
p4836
I1
tp4837
a(S'be.in'
p4838
I1
tp4839
a(S'be.the'
p4840
I1
tp4841
a(S'beam'
p4842
I1
tp4843
a(S'beaming'
p4844
I1
tp4845
a(S'beat-up'
p4846
I1
tp4847
a(S'beatdown...\x94'
p4848
I1
tp4849
a(S'beaty'
p4850
I1
tp4851
a(S'becau'
p4852
I1
tp4853
a(S'becaused'
p4854
I1
tp4855
a(S'becom'
p4856
I1
tp4857
a(S'beggining'
p4858
I1
tp4859
a(S'begginning'
p4860
I1
tp4861
a(S'beging'
p4862
I1
tp4863
a(S'beginining'
p4864
I1
tp4865
a(S'behave'
p4866
I1
tp4867
a(S'behavior'
p4868
I1
tp4869
a(S'beneath'
p4870
I1
tp4871
a(S'beneficial'
p4872
I1
tp4873
a(S'bent'
p4874
I1
tp4875
a(S'berough'
p4876
I1
tp4877
a(S'beside'
p4878
I1
tp4879
a(S'best.the'
p4880
I1
tp4881
a(S'bet."the'
p4882
I1
tp4883
a(S'bet\x94'
p4884
I1
tp4885
a(S'beyond'
p4886
I1
tp4887
a(S'biclist.the'
p4888
I1
tp4889
a(S'bicycle.the'
p4890
I1
tp4891
a(S'bicycling'
p4892
I1
tp4893
a(S'bike!'
p4894
I1
tp4895
a(S'bike,which'
p4896
I1
tp4897
a(S'bike-ride.the'
p4898
I1
tp4899
a(S'bike.in'
p4900
I1
tp4901
a(S'biker.the'
p4902
I1
tp4903
a(S'bikeride'
p4904
I1
tp4905
a(S'bike\x92'
p4906
I1
tp4907
a(S'bilaver'
p4908
I1
tp4909
a(S'bin'
p4910
I1
tp4911
a(S'biter'
p4912
I1
tp4913
a(S'bitter'
p4914
I1
tp4915
a(S'bitting'
p4916
I1
tp4917
a(S'biva'
p4918
I1
tp4919
a(S'bland'
p4920
I1
tp4921
a(S'blazen'
p4922
I1
tp4923
a(S'bleak'
p4924
I1
tp4925
a(S'blessing'
p4926
I1
tp4927
a(S'blizzard'
p4928
I1
tp4929
a(S'blow'
p4930
I1
tp4931
a(S'board'
p4932
I1
tp4933
a(S'boby'
p4934
I1
tp4935
a(S'bodie'
p4936
I1
tp4937
a(S'body.i'
p4938
I1
tp4939
a(S'bolt'
p4940
I1
tp4941
a(S'bone'
p4942
I1
tp4943
a(S'booming'
p4944
I1
tp4945
a(S'boosted'
p4946
I1
tp4947
a(S'boring'
p4948
I1
tp4949
a(S'bot'
p4950
I1
tp4951
a(S'bothe'
p4952
I1
tp4953
a(S'bother'
p4954
I1
tp4955
a(S'bothered'
p4956
I1
tp4957
a(S'bothering'
p4958
I1
tp4959
a(S'bottles'
p4960
I1
tp4961
a(S'boulder'
p4962
I1
tp4963
a(S'bounce'
p4964
I1
tp4965
a(S'bound'
p4966
I1
tp4967
a(S'boundary'
p4968
I1
tp4969
a(S'box'
p4970
I1
tp4971
a(S'brake'
p4972
I1
tp4973
a(S'braking'
p4974
I1
tp4975
a(S'brakish'
p4976
I1
tp4977
a(S'brang'
p4978
I1
tp4979
a(S'braved'
p4980
I1
tp4981
a(S'breakway'
p4982
I1
tp4983
a(S'breath'
p4984
I1
tp4985
a(S'brief'
p4986
I1
tp4987
a(S'bright.the'
p4988
I1
tp4989
a(S'brilliant'
p4990
I1
tp4991
a(S'bringing'
p4992
I1
tp4993
a(S'brown'
p4994
I1
tp4995
a(S'bud'
p4996
I1
tp4997
a(S'building-abandoned'
p4998
I1
tp4999
a(S'building/town'
p5000
I1
tp5001
a(S'buildings'
p5002
I1
tp5003
a(S'builiding;'
p5004
I1
tp5005
a(S'bulling'
p5006
I1
tp5007
a(S'bum.the'
p5008
I1
tp5009
a(S'bumpily'
p5010
I1
tp5011
a(S'bumps,\x94'
p5012
I1
tp5013
a(S'bumpsy'
p5014
I1
tp5015
a(S'burned'
p5016
I1
tp5017
a(S'burrow'
p5018
I1
tp5019
a(S'busting'
p5020
I1
tp5021
a(S'bustling'
p5022
I1
tp5023
a(S'busy'
p5024
I1
tp5025
a(S'butduring'
p5026
I1
tp5027
a(S'butt'
p5028
I1
tp5029
a(S'by.the'
p5030
I1
tp5031
a(S'bycle'
p5032
I1
tp5033
a(S'caation'
p5034
I1
tp5035
a(S'cald'
p5036
I1
tp5037
a(S'caldnt'
p5038
I1
tp5039
a(S'caldn\x92t'
p5040
I1
tp5041
a(S'califonia'
p5042
I1
tp5043
a(S'california.the'
p5044
I1
tp5045
a(S'californian'
p5046
I1
tp5047
a(S'callada'
p5048
I1
tp5049
a(S'calmer'
p5050
I1
tp5051
a(S'calming'
p5052
I1
tp5053
a(S'calorie'
p5054
I1
tp5055
a(S'calter'
p5056
I1
tp5057
a(S'calve'
p5058
I1
tp5059
a(S'camel'
p5060
I1
tp5061
a(S"camp''"
p5062
I1
tp5063
a(S'camp,\x94'
p5064
I1
tp5065
a(S'camp.the'
p5066
I1
tp5067
a(S'camp.thi'
p5068
I1
tp5069
a(S'camp.\x94'
p5070
I1
tp5071
a(S'campsite'
p5072
I1
tp5073
a(S'canal'
p5074
I1
tp5075
a(S'candy'
p5076
I1
tp5077
a(S'canging'
p5078
I1
tp5079
a(S'caps1.the'
p5080
I1
tp5081
a(S'caps1;'
p5082
I1
tp5083
a(S'caps1\x92'
p5084
I1
tp5085
a(S'caps1\x94'
p5086
I1
tp5087
a(S'caps2).\x94'
p5088
I1
tp5089
a(S'caps2\x92'
p5090
I1
tp5091
a(S'caps4'
p5092
I1
tp5093
a(S'car.the'
p5094
I1
tp5095
a(S'care.the'
p5096
I1
tp5097
a(S'cared'
p5098
I1
tp5099
a(S'carefree'
p5100
I1
tp5101
a(S'carefully'
p5102
I1
tp5103
a(S'carrol'
p5104
I1
tp5105
a(S'cat'
p5106
I1
tp5107
a(S'catch'
p5108
I1
tp5109
a(S'cation'
p5110
I1
tp5111
a(S'cationly'
p5112
I1
tp5113
a(S'catu'
p5114
I1
tp5115
a(S'catylist'
p5116
I1
tp5117
a(S'cauese'
p5118
I1
tp5119
a(S'cautiousin'
p5120
I1
tp5121
a(S'cautiously'
p5122
I1
tp5123
a(S'cautrou'
p5124
I1
tp5125
a(S'ceased'
p5126
I1
tp5127
a(S'center!'
p5128
I1
tp5129
a(S'certainly'
p5130
I1
tp5131
a(S'certin'
p5132
I1
tp5133
a(S'chain'
p5134
I1
tp5135
a(S'challenge;'
p5136
I1
tp5137
a(S'challenging.the'
p5138
I1
tp5139
a(S'changing\x93'
p5140
I1
tp5141
a(S'character\x92'
p5142
I1
tp5143
a(S'charge'
p5144
I1
tp5145
a(S'chased'
p5146
I1
tp5147
a(S'checking'
p5148
I1
tp5149
a(S'cheerfully'
p5150
I1
tp5151
a(S'cheery'
p5152
I1
tp5153
a(S'cherry'
p5154
I1
tp5155
a(S'chest'
p5156
I1
tp5157
a(S'child'
p5158
I1
tp5159
a(S'choke'
p5160
I1
tp5161
a(S'choked'
p5162
I1
tp5163
a(S'choosing'
p5164
I1
tp5165
a(S'chosen'
p5166
I1
tp5167
a(S'chrested'
p5168
I1
tp5169
a(S'chronic'
p5170
I1
tp5171
a(S'chuckeled'
p5172
I1
tp5173
a(S'churchill'
p5174
I1
tp5175
a(S'cicle'
p5176
I1
tp5177
a(S'cimate'
p5178
I1
tp5179
a(S'circling'
p5180
I1
tp5181
a(S'circulate.\x94'
p5182
I1
tp5183
a(S'circulate\x94'
p5184
I1
tp5185
a(S'civilisation'
p5186
I1
tp5187
a(S'claiming'
p5188
I1
tp5189
a(S'clan'
p5190
I1
tp5191
a(S'clean)'
p5192
I1
tp5193
a(S'clean,\x94'
p5194
I1
tp5195
a(S"clean.''"
p5196
I1
tp5197
a(S'clean.i'
p5198
I1
tp5199
a(S'clean.\x94when'
p5200
I1
tp5201
a(S'clearlier'
p5202
I1
tp5203
a(S'cleary'
p5204
I1
tp5205
a(S'clinched'
p5206
I1
tp5207
a(S'clist'
p5208
I1
tp5209
a(S'cloe'
p5210
I1
tp5211
a(S'closet'
p5212
I1
tp5213
a(S'closing'
p5214
I1
tp5215
a(S'cloud.there'
p5216
I1
tp5217
a(S'clyclist'
p5218
I1
tp5219
a(S'coast'
p5220
I1
tp5221
a(S'coaster'
p5222
I1
tp5223
a(S'cockish'
p5224
I1
tp5225
a(S'codi'
p5226
I1
tp5227
a(S'coggers\x94'
p5228
I1
tp5229
a(S'coheratly'
p5230
I1
tp5231
a(S'cold,clean'
p5232
I1
tp5233
a(S'collapsed'
p5234
I1
tp5235
a(S'collide'
p5236
I1
tp5237
a(S'colorful'
p5238
I1
tp5239
a(S'colud'
p5240
I1
tp5241
a(S'colun'
p5242
I1
tp5243
a(S'combined'
p5244
I1
tp5245
a(S'comesto'
p5246
I1
tp5247
a(S'comethe'
p5248
I1
tp5249
a(S'comlain'
p5250
I1
tp5251
a(S'communicate'
p5252
I1
tp5253
a(S'comp!'
p5254
I1
tp5255
a(S'compare'
p5256
I1
tp5257
a(S'completing'
p5258
I1
tp5259
a(S'completion'
p5260
I1
tp5261
a(S'complicating'
p5262
I1
tp5263
a(S'concentrated'
p5264
I1
tp5265
a(S'concerned'
p5266
I1
tp5267
a(S'concerve'
p5268
I1
tp5269
a(S'conclusion.the'
p5270
I1
tp5271
a(S'conclution'
p5272
I1
tp5273
a(S'concumption'
p5274
I1
tp5275
a(S'condision'
p5276
I1
tp5277
a(S"condition'"
p5278
I1
tp5279
a(S'condition.the'
p5280
I1
tp5281
a(S'conditions.anyone'
p5282
I1
tp5283
a(S'conditions.the'
p5284
I1
tp5285
a(S'condition\x92'
p5286
I1
tp5287
a(S'conditon'
p5288
I1
tp5289
a(S'confict'
p5290
I1
tp5291
a(S'confiden'
p5292
I1
tp5293
a(S'confidenc'
p5294
I1
tp5295
a(S'confidence.in'
p5296
I1
tp5297
a(S'confidence;'
p5298
I1
tp5299
a(S'confidenceit'
p5300
I1
tp5301
a(S'confident.heat'
p5302
I1
tp5303
a(S'confidentin'
p5304
I1
tp5305
a(S'confidently'
p5306
I1
tp5307
a(S'confiendce'
p5308
I1
tp5309
a(S'confined'
p5310
I1
tp5311
a(S'confinse'
p5312
I1
tp5313
a(S'confirm'
p5314
I1
tp5315
a(S'conflicting'
p5316
I1
tp5317
a(S'conflicts.the'
p5318
I1
tp5319
a(S'confront'
p5320
I1
tp5321
a(S'confronted'
p5322
I1
tp5323
a(S'confusing'
p5324
I1
tp5325
a(S'conlusio'
p5326
I1
tp5327
a(S'connected'
p5328
I1
tp5329
a(S'conscionous.the'
p5330
I1
tp5331
a(S'conserved'
p5332
I1
tp5333
a(S'conseve'
p5334
I1
tp5335
a(S'consider'
p5336
I1
tp5337
a(S'considered'
p5338
I1
tp5339
a(S'consist'
p5340
I1
tp5341
a(S'consisted'
p5342
I1
tp5343
a(S'consistent'
p5344
I1
tp5345
a(S'constintly'
p5346
I1
tp5347
a(S'consulting'
p5348
I1
tp5349
a(S'consumable'
p5350
I1
tp5351
a(S'consume'
p5352
I1
tp5353
a(S'consuming'
p5354
I1
tp5355
a(S'consumption'
p5356
I1
tp5357
a(S'contact'
p5358
I1
tp5359
a(S'containe'
p5360
I1
tp5361
a(S'containing'
p5362
I1
tp5363
a(S'conthe'
p5364
I1
tp5365
a(S'continually'
p5366
I1
tp5367
a(S'continuesly'
p5368
I1
tp5369
a(S'continuing'
p5370
I1
tp5371
a(S'contour'
p5372
I1
tp5373
a(S'contributing'
p5374
I1
tp5375
a(S'control.steep'
p5376
I1
tp5377
a(S'controlled'
p5378
I1
tp5379
a(S'conversation'
p5380
I1
tp5381
a(S'conversing'
p5382
I1
tp5383
a(S'convince'
p5384
I1
tp5385
a(S'cool.\x94'
p5386
I1
tp5387
a(S'cooled'
p5388
I1
tp5389
a(S'coolest'
p5390
I1
tp5391
a(S'cooling'
p5392
I1
tp5393
a(S'cooperate'
p5394
I1
tp5395
a(S'cope'
p5396
I1
tp5397
a(S'coping'
p5398
I1
tp5399
a(S'cople'
p5400
I1
tp5401
a(S'coral'
p5402
I1
tp5403
a(S'corali'
p5404
I1
tp5405
a(S'cord'
p5406
I1
tp5407
a(S'corrall\x94'
p5408
I1
tp5409
a(S'correalate'
p5410
I1
tp5411
a(S'correct.the'
p5412
I1
tp5413
a(S'correctly'
p5414
I1
tp5415
a(S'corrol'
p5416
I1
tp5417
a(S'cosine'
p5418
I1
tp5419
a(S'cost'
p5420
I1
tp5421
a(S'cotager'
p5422
I1
tp5423
a(S'could.in'
p5424
I1
tp5425
a(S'couldn`t'
p5426
I1
tp5427
a(S'could\x92nt'
p5428
I1
tp5429
a(S'could\x92t'
p5430
I1
tp5431
a(S'count'
p5432
I1
tp5433
a(S'countrie'
p5434
I1
tp5435
a(S'countryside'
p5436
I1
tp5437
a(S'counts.\x94'
p5438
I1
tp5439
a(S'coupled'
p5440
I1
tp5441
a(S'courageou'
p5442
I1
tp5443
a(S'couragiou'
p5444
I1
tp5445
a(S'course)'
p5446
I1
tp5447
a(S'cover'
p5448
I1
tp5449
a(S'covering'
p5450
I1
tp5451
a(S'cowed'
p5452
I1
tp5453
a(S'crashe'
p5454
I1
tp5455
a(S'crashing'
p5456
I1
tp5457
a(S'credited'
p5458
I1
tp5459
a(S'creep'
p5460
I1
tp5461
a(S'creeping'
p5462
I1
tp5463
a(S'cried'
p5464
I1
tp5465
a(S'crippiling'
p5466
I1
tp5467
a(S'cripppling'
p5468
I1
tp5469
a(S'critter'
p5470
I1
tp5471
a(S'crosse'
p5472
I1
tp5473
a(S'crppling'
p5474
I1
tp5475
a(S'crucel'
p5476
I1
tp5477
a(S"cruel.''"
p5478
I1
tp5479
a(S'cruel.in'
p5480
I1
tp5481
a(S'cruel.\x94he'
p5482
I1
tp5483
a(S'crueler'
p5484
I1
tp5485
a(S'crush'
p5486
I1
tp5487
a(S'cue'
p5488
I1
tp5489
a(S'cup'
p5490
I1
tp5491
a(S'curb'
p5492
I1
tp5493
a(S'current'
p5494
I1
tp5495
a(S'currently'
p5496
I1
tp5497
a(S'curved'
p5498
I1
tp5499
a(S'cut.\x94'
p5500
I1
tp5501
a(S'cut\x92'
p5502
I1
tp5503
a(S'cy'
p5504
I1
tp5505
a(S'cycclist'
p5506
I1
tp5507
a(S'cycilist'
p5508
I1
tp5509
a(S'cycilists.the'
p5510
I1
tp5511
a(S'cyclcist'
p5512
I1
tp5513
a(S'cycleist\x92'
p5514
I1
tp5515
a(S'cyclest.a'
p5516
I1
tp5517
a(S'cyclest.the'
p5518
I1
tp5519
a(S'cycle\x92'
p5520
I1
tp5521
a(S'cyclilst'
p5522
I1
tp5523
a(S'cycling)'
p5524
I1
tp5525
a(S'cyclisst'
p5526
I1
tp5527
a(S'cyclist(which'
p5528
I1
tp5529
a(S'cyclist)'
p5530
I1
tp5531
a(S'cyclist.@caps1'
p5532
I1
tp5533
a(S'cyclist.a'
p5534
I1
tp5535
a(S'cyclist.at'
p5536
I1
tp5537
a(S'cyclist.each'
p5538
I1
tp5539
a(S'cyclist.he'
p5540
I1
tp5541
a(S'cyclist.hot'
p5542
I1
tp5543
a(S'cyclist.i'
p5544
I1
tp5545
a(S'cyclist.it'
p5546
I1
tp5547
a(S'cyclist.nature'
p5548
I1
tp5549
a(S'cyclist.one'
p5550
I1
tp5551
a(S'cyclist.setting'
p5552
I1
tp5553
a(S'cyclist.some'
p5554
I1
tp5555
a(S'cyclist.that'
p5556
I1
tp5557
a(S'cyclist.when'
p5558
I1
tp5559
a(S'cyclistcycling'
p5560
I1
tp5561
a(S'cyclisti'
p5562
I1
tp5563
a(S'cyclists.a'
p5564
I1
tp5565
a(S'cyclists.in'
p5566
I1
tp5567
a(S'cyclists.the'
p5568
I1
tp5569
a(S'cyclit'
p5570
I1
tp5571
a(S'cycllist'
p5572
I1
tp5573
a(S'cyclsit.how'
p5574
I1
tp5575
a(S'cylceist'
p5576
I1
tp5577
a(S'cylist'
p5578
I1
tp5579
a(S'd'
I1
tp5580
a(S'damaged'
p5581
I1
tp5582
a(S'damper'
p5583
I1
tp5584
a(S'dance'
p5585
I1
tp5586
a(S'danger.a'
p5587
I1
tp5588
a(S'danger?'
p5589
I1
tp5590
a(S'dangerous.a'
p5591
I1
tp5592
a(S'dangerous.the'
p5593
I1
tp5594
a(S'dangerousne'
p5595
I1
tp5596
a(S'dangou'
p5597
I1
tp5598
a(S'date.\x93@caps1'
p5599
I1
tp5600
a(S'date2'
p5601
I1
tp5602
a(S'datted.the'
p5603
I1
tp5604
a(S'daunting'
p5605
I1
tp5606
a(S'daylight'
p5607
I1
tp5608
a(S'day\x94'
p5609
I1
tp5610
a(S'dead,either'
p5611
I1
tp5612
a(S'dead.the'
p5613
I1
tp5614
a(S'deal.the'
p5615
I1
tp5616
a(S'dealing'
p5617
I1
tp5618
a(S'death.i'
p5619
I1
tp5620
a(S'death.in'
p5621
I1
tp5622
a(S'debri'
p5623
I1
tp5624
a(S'decades\x94'
p5625
I1
tp5626
a(S'decimated'
p5627
I1
tp5628
a(S'decive'
p5629
I1
tp5630
a(S'declared'
p5631
I1
tp5632
a(S'decline'
p5633
I1
tp5634
a(S'decreased.he'
p5635
I1
tp5636
a(S'dedication'
p5637
I1
tp5638
a(S'deep'
p5639
I1
tp5640
a(S'definately'
p5641
I1
tp5642
a(S'definite'
p5643
I1
tp5644
a(S'definuntly'
p5645
I1
tp5646
a(S'defying'
p5647
I1
tp5648
a(S'degers\x94'
p5649
I1
tp5650
a(S'degrees"(kurmaskie'
p5651
I1
tp5652
a(S'degrees,\x94'
p5653
I1
tp5654
a(S'degrees...it'
p5655
I1
tp5656
a(S'dehedrated'
p5657
I1
tp5658
a(S'dehidarted'
p5659
I1
tp5660
a(S'dehiderate'
p5661
I1
tp5662
a(S'dehiderated'
p5663
I1
tp5664
a(S'dehightrated'
p5665
I1
tp5666
a(S'dehirrated.the'
p5667
I1
tp5668
a(S'dehydrated,or'
p5669
I1
tp5670
a(S'dehydrated,passout'
p5671
I1
tp5672
a(S'dehydrated;'
p5673
I1
tp5674
a(S'dehydratiog'
p5675
I1
tp5676
a(S'dehydration.on'
p5677
I1
tp5678
a(S'dehygration'
p5679
I1
tp5680
a(S'dehyjradid.throughout'
p5681
I1
tp5682
a(S'delicacy'
p5683
I1
tp5684
a(S'delighted'
p5685
I1
tp5686
a(S'delinou'
p5687
I1
tp5688
a(S'deliriousne'
p5689
I1
tp5690
a(S'deliver'
p5691
I1
tp5692
a(S'demon'
p5693
I1
tp5694
a(S'demonsrtrating'
p5695
I1
tp5696
a(S'denyarated'
p5697
I1
tp5698
a(S'dep'
p5699
I1
tp5700
a(S'dependent'
p5701
I1
tp5702
a(S'depicted'
p5703
I1
tp5704
a(S'deplet'
p5705
I1
tp5706
a(S'depletion'
p5707
I1
tp5708
a(S'depre'
p5709
I1
tp5710
a(S'depressing.the'
p5711
I1
tp5712
a(S'depression'
p5713
I1
tp5714
a(S'deprive'
p5715
I1
tp5716
a(S'deprived'
p5717
I1
tp5718
a(S'depriving'
p5719
I1
tp5720
a(S'descriptions.setting'
p5721
I1
tp5722
a(S'desearted'
p5723
I1
tp5724
a(S'desented'
p5725
I1
tp5726
a(S'deseret'
p5727
I1
tp5728
a(S'desert,\x94'
p5729
I1
tp5730
a(S'desert-'
p5731
I1
tp5732
a(S'desert.in'
p5733
I1
tp5734
a(S'desert.the'
p5735
I1
tp5736
a(S'desertd'
p5737
I1
tp5738
a(S'deserted.though'
p5739
I1
tp5740
a(S'desertin'
p5741
I1
tp5742
a(S'deserts-all'
p5743
I1
tp5744
a(S'deserts.the'
p5745
I1
tp5746
a(S'desertthe'
p5747
I1
tp5748
a(S'desert\x92'
p5749
I1
tp5750
a(S'deserve'
p5751
I1
tp5752
a(S'desireted'
p5753
I1
tp5754
a(S"desn't"
p5755
I1
tp5756
a(S'desolet'
p5757
I1
tp5758
a(S'desolute'
p5759
I1
tp5760
a(S'despair.the'
p5761
I1
tp5762
a(S'despairing'
p5763
I1
tp5764
a(S'despare'
p5765
I1
tp5766
a(S'desperatly'
p5767
I1
tp5768
a(S'despersion'
p5769
I1
tp5770
a(S'despirate'
p5771
I1
tp5772
a(S'desribe'
p5773
I1
tp5774
a(S'desteart'
p5775
I1
tp5776
a(S'destination.for'
p5777
I1
tp5778
a(S'destined'
p5779
I1
tp5780
a(S'destonation'
p5781
I1
tp5782
a(S'detailed'
p5783
I1
tp5784
a(S'details.in'
p5785
I1
tp5786
a(S'detened'
p5787
I1
tp5788
a(S'determained'
p5789
I1
tp5790
a(S'determand'
p5791
I1
tp5792
a(S'determination,you'
p5793
I1
tp5794
a(S'determind'
p5795
I1
tp5796
a(S'determining'
p5797
I1
tp5798
a(S'deterred'
p5799
I1
tp5800
a(S'detour'
p5801
I1
tp5802
a(S'devastating'
p5803
I1
tp5804
a(S'devastatingduring'
p5805
I1
tp5806
a(S'device'
p5807
I1
tp5808
a(S'devold'
p5809
I1
tp5810
a(S'deyhdrated'
p5811
I1
tp5812
a(S'dezert'
p5813
I1
tp5814
a(S'diamondback-'
p5815
I1
tp5816
a(S'diamondback\x94'
p5817
I1
tp5818
a(S'diamondbrock'
p5819
I1
tp5820
a(S'diamondbuck-blooked'
p5821
I1
tp5822
a(S'dicride'
p5823
I1
tp5824
a(S'dicrided'
p5825
I1
tp5826
a(S'dictate'
p5827
I1
tp5828
a(S'did)'
p5829
I1
tp5830
a(S"didnn't"
p5831
I1
tp5832
a(S'die.in'
p5833
I1
tp5834
a(S'die.the'
p5835
I1
tp5836
a(S'die.there'
p5837
I1
tp5838
a(S'die.when'
p5839
I1
tp5840
a(S'die.\x93at'
p5841
I1
tp5842
a(S'died.in'
p5843
I1
tp5844
a(S'diel'
p5845
I1
tp5846
a(S'dieng'
p5847
I1
tp5848
a(S'dierection'
p5849
I1
tp5850
a(S'die\x94'
p5851
I1
tp5852
a(S'diferen'
p5853
I1
tp5854
a(S'different.he'
p5855
I1
tp5856
a(S'differently'
p5857
I1
tp5858
a(S'differing'
p5859
I1
tp5860
a(S'difficult.the'
p5861
I1
tp5862
a(S'difficut'
p5863
I1
tp5864
a(S'diffrent'
p5865
I1
tp5866
a(S'difical'
p5867
I1
tp5868
a(S'difificulty'
p5869
I1
tp5870
a(S'difinition'
p5871
I1
tp5872
a(S'diformed'
p5873
I1
tp5874
a(S'dig'
p5875
I1
tp5876
a(S'dihydration'
p5877
I1
tp5878
a(S'dileriou'
p5879
I1
tp5880
a(S'dilute'
p5881
I1
tp5882
a(S'diminished'
p5883
I1
tp5884
a(S'diminishing'
p5885
I1
tp5886
a(S'dimond'
p5887
I1
tp5888
a(S'dinking'
p5889
I1
tp5890
a(S'dipleted'
p5891
I1
tp5892
a(S'dirachion'
p5893
I1
tp5894
a(S'dire'
p5895
I1
tp5896
a(S'direcion'
p5897
I1
tp5898
a(S'direct'
p5899
I1
tp5900
a(S'directin'
p5901
I1
tp5902
a(S'direction.some'
p5903
I1
tp5904
a(S'direction.the'
p5905
I1
tp5906
a(S'direction.\x94'
p5907
I1
tp5908
a(S'directions'
p5909
I1
tp5910
a(S'directions.if'
p5911
I1
tp5912
a(S'diredne'
p5913
I1
tp5914
a(S'dirk'
p5915
I1
tp5916
a(S'disadvantage'
p5917
I1
tp5918
a(S'disapointment'
p5919
I1
tp5920
a(S'disappointing'
p5921
I1
tp5922
a(S'disaster.the'
p5923
I1
tp5924
a(S'discauraged'
p5925
I1
tp5926
a(S'discouragement'
p5927
I1
tp5928
a(S'discoured'
p5929
I1
tp5930
a(S'discribed'
p5931
I1
tp5932
a(S'discribing'
p5933
I1
tp5934
a(S'discride'
p5935
I1
tp5936
a(S'disfernded'
p5937
I1
tp5938
a(S'disgust'
p5939
I1
tp5940
a(S'disgusting'
p5941
I1
tp5942
a(S'dismi'
p5943
I1
tp5944
a(S'disoriented'
p5945
I1
tp5946
a(S'dispair'
p5947
I1
tp5948
a(S'dispare'
p5949
I1
tp5950
a(S'displeasure'
p5951
I1
tp5952
a(S'disprate'
p5953
I1
tp5954
a(S'dissapointed'
p5955
I1
tp5956
a(S'dissappoint'
p5957
I1
tp5958
a(S'dissetling'
p5959
I1
tp5960
a(S'distant'
p5961
I1
tp5962
a(S'distination'
p5963
I1
tp5964
a(S'distinct'
p5965
I1
tp5966
a(S'distorted'
p5967
I1
tp5968
a(S'distracted'
p5969
I1
tp5970
a(S'distraction'
p5971
I1
tp5972
a(S'distration'
p5973
I1
tp5974
a(S'distre'
p5975
I1
tp5976
a(S'distrought'
p5977
I1
tp5978
a(S'diying.in'
p5979
I1
tp5980
a(S'dizzy'
p5981
I1
tp5982
a(S'do.there'
p5983
I1
tp5984
a(S"does'nt"
p5985
I1
tp5986
a(S"doesn'twnt"
p5987
I1
tp5988
a(S'doesn,t'
p5989
I1
tp5990
a(S'doesnt'
p5991
I1
tp5992
a(S'dog'
p5993
I1
tp5994
a(S'doger'
p5995
I1
tp5996
a(S'domper'
p5997
I1
tp5998
a(S"don't"
p5999
I1
tp6000
a(S'don`t'
p6001
I1
tp6002
a(S'door'
p6003
I1
tp6004
a(S'dosent'
p6005
I1
tp6006
a(S'dosen\x92t'
p6007
I1
tp6008
a(S'double'
p6009
I1
tp6010
a(S'doubted'
p6011
I1
tp6012
a(S'doun'
p6013
I1
tp6014
a(S'dout'
p6015
I1
tp6016
a(S'down...wide'
p6017
I1
tp6018
a(S'down.feature'
p6019
I1
tp6020
a(S'down.i'
p6021
I1
tp6022
a(S'down.in'
p6023
I1
tp6024
a(S'down.many'
p6025
I1
tp6026
a(S'down.the'
p6027
I1
tp6028
a(S'down.there'
p6029
I1
tp6030
a(S'downin'
p6031
I1
tp6032
a(S'down\x94(kurmaskie'
p6033
I1
tp6034
a(S'drag'
p6035
I1
tp6036
a(S'drained'
p6037
I1
tp6038
a(S'draining'
p6039
I1
tp6040
a(S'drain\x92'
p6041
I1
tp6042
a(S'dramatically.the'
p6043
I1
tp6044
a(S'dramaticaly'
p6045
I1
tp6046
a(S'draper'
p6047
I1
tp6048
a(S'drashed'
p6049
I1
tp6050
a(S'drastic'
p6051
I1
tp6052
a(S'drastically.in'
p6053
I1
tp6054
a(S'drawn'
p6055
I1
tp6056
a(S'dray'
p6057
I1
tp6058
a(S'dreaded'
p6059
I1
tp6060
a(S'drie'
p6061
I1
tp6062
a(S'driead'
p6063
I1
tp6064
a(S'drink;'
p6065
I1
tp6066
a(S'drinkthe'
p6067
I1
tp6068
a(S'drippen'
p6069
I1
tp6070
a(S'driven'
p6071
I1
tp6072
a(S'driver'
p6073
I1
tp6074
a(S'drops,".distance'
p6075
I1
tp6076
a(S'dry.like'
p6077
I1
tp6078
a(S'dry.second'
p6079
I1
tp6080
a(S'dude'
p6081
I1
tp6082
a(S'dumped'
p6083
I1
tp6084
a(S'dwelling'
p6085
I1
tp6086
a(S'dyhdration'
p6087
I1
tp6088
a(S'dyhrate'
p6089
I1
tp6090
a(S'dying)'
p6091
I1
tp6092
a(S'dying.the'
p6093
I1
tp6094
a(S'e'
I1
tp6095
a(S'ealier.\x94'
p6096
I1
tp6097
a(S'ear'
p6098
I1
tp6099
a(S'earb'
p6100
I1
tp6101
a(S'earlier-had'
p6102
I1
tp6103
a(S'earlier.\x94'
p6104
I1
tp6105
a(S'early-summer'
p6106
I1
tp6107
a(S'earthley'
p6108
I1
tp6109
a(S'easier.many'
p6110
I1
tp6111
a(S'easlier'
p6112
I1
tp6113
a(S'easly'
p6114
I1
tp6115
a(S'ebbed'
p6116
I1
tp6117
a(S'effective'
p6118
I1
tp6119
a(S'effectthe'
p6120
I1
tp6121
a(S'elaborate'
p6122
I1
tp6123
a(S'elated'
p6124
I1
tp6125
a(S'eldrerly'
p6126
I1
tp6127
a(S'elements.the'
p6128
I1
tp6129
a(S'elgo'
p6130
I1
tp6131
a(S'eliterat'
p6132
I1
tp6133
a(S'emphasi'
p6134
I1
tp6135
a(S'emphasizing'
p6136
I1
tp6137
a(S'empressed'
p6138
I1
tp6139
a(S'emptied'
p6140
I1
tp6141
a(S'emptying'
p6142
I1
tp6143
a(S'enable'
p6144
I1
tp6145
a(S'encounterd'
p6146
I1
tp6147
a(S'encountered.the'
p6148
I1
tp6149
a(S'encouragement'
p6150
I1
tp6151
a(S'encouraging'
p6152
I1
tp6153
a(S'end.in'
p6154
I1
tp6155
a(S'end.snake'
p6156
I1
tp6157
a(S'ending'
p6158
I1
tp6159
a(S'endlessly'
p6160
I1
tp6161
a(S'enduranc'
p6162
I1
tp6163
a(S'endurance.the'
p6164
I1
tp6165
a(S'endure.the'
p6166
I1
tp6167
a(S'enemie'
p6168
I1
tp6169
a(S'energised'
p6170
I1
tp6171
a(S'energized'
p6172
I1
tp6173
a(S'energy.these'
p6174
I1
tp6175
a(S'enformation'
p6176
I1
tp6177
a(S'enhance'
p6178
I1
tp6179
a(S'enhancing'
p6180
I1
tp6181
a(S'enjoying'
p6182
I1
tp6183
a(S'enjoyment'
p6184
I1
tp6185
a(S'enogth'
p6186
I1
tp6187
a(S'enormou'
p6188
I1
tp6189
a(S'enough.the'
p6190
I1
tp6191
a(S'enough.\x94'
p6192
I1
tp6193
a(S'epidemic.the'
p6194
I1
tp6195
a(S'equally'
p6196
I1
tp6197
a(S'equip'
p6198
I1
tp6199
a(S'er'
p6200
I1
tp6201
a(S'erected'
p6202
I1
tp6203
a(S'ergancy'
p6204
I1
tp6205
a(S'eseance'
p6206
I1
tp6207
a(S'essay/'
p6208
I1
tp6209
a(S'established'
p6210
I1
tp6211
a(S'esteem'
p6212
I1
tp6213
a(S'etc.during'
p6214
I1
tp6215
a(S'ething'
p6216
I1
tp6217
a(S'evaporated'
p6218
I1
tp6219
a(S'evergreen'
p6220
I1
tp6221
a(S'everyday'
p6222
I1
tp6223
a(S'everything.the'
p6224
I1
tp6225
a(S'evey'
p6226
I1
tp6227
a(S'evidence'
p6228
I1
tp6229
a(S'evidenced'
p6230
I1
tp6231
a(S'evident'
p6232
I1
tp6233
a(S'evil'
p6234
I1
tp6235
a(S'ex'
p6236
I1
tp6237
a(S'exact'
p6238
I1
tp6239
a(S'exaction'
p6240
I1
tp6241
a(S'exagerate'
p6242
I1
tp6243
a(S'exaggerate'
p6244
I1
tp6245
a(S'exaggrate'
p6246
I1
tp6247
a(S'example,temperatare'
p6248
I1
tp6249
a(S'example;'
p6250
I1
tp6251
a(S'examples.in'
p6252
I1
tp6253
a(S'exasperated'
p6254
I1
tp6255
a(S'exauhsted'
p6256
I1
tp6257
a(S'exauhstion'
p6258
I1
tp6259
a(S'exauhtion'
p6260
I1
tp6261
a(S'exausition.the'
p6262
I1
tp6263
a(S'exaustion'
p6264
I1
tp6265
a(S'exaustion.there'
p6266
I1
tp6267
a(S'exce'
p6268
I1
tp6269
a(S'excedingly'
p6270
I1
tp6271
a(S'excessive'
p6272
I1
tp6273
a(S'exchanged'
p6274
I1
tp6275
a(S'excited.\x94'
p6276
I1
tp6277
a(S'excitement'
p6278
I1
tp6279
a(S'exciting'
p6280
I1
tp6281
a(S'excution'
p6282
I1
tp6283
a(S'exercising'
p6284
I1
tp6285
a(S'exhausted\x94'
p6286
I1
tp6287
a(S'exhausting'
p6288
I1
tp6289
a(S'exhausting,never'
p6290
I1
tp6291
a(S'exhaustion.in'
p6292
I1
tp6293
a(S'exhaustion.the'
p6294
I1
tp6295
a(S'exhuberate'
p6296
I1
tp6297
a(S'exist'
p6298
I1
tp6299
a(S'existed'
p6300
I1
tp6301
a(S'exited'
p6302
I1
tp6303
a(S'exlained'
p6304
I1
tp6305
a(S'exospodent'
p6306
I1
tp6307
a(S'exostied'
p6308
I1
tp6309
a(S'exoustion'
p6310
I1
tp6311
a(S'expearenced.i'
p6312
I1
tp6313
a(S'expecially'
p6314
I1
tp6315
a(S'expect'
p6316
I1
tp6317
a(S'expense'
p6318
I1
tp6319
a(S'experience.when'
p6320
I1
tp6321
a(S'expert'
p6322
I1
tp6323
a(S'expierence'
p6324
I1
tp6325
a(S'expirenced'
p6326
I1
tp6327
a(S'explaning'
p6328
I1
tp6329
a(S'explenced'
p6330
I1
tp6331
a(S'exposed'
p6332
I1
tp6333
a(S'exposure'
p6334
I1
tp6335
a(S'expresse'
p6336
I1
tp6337
a(S'exsempl'
p6338
I1
tp6339
a(S'exsercising'
p6340
I1
tp6341
a(S'exsisted.in'
p6342
I1
tp6343
a(S'exsostion\x94'
p6344
I1
tp6345
a(S'exsusaing'
p6346
I1
tp6347
a(S'extend'
p6348
I1
tp6349
a(S'extended'
p6350
I1
tp6351
a(S'extension'
p6352
I1
tp6353
a(S'extreamly'
p6354
I1
tp6355
a(S'extrem'
p6356
I1
tp6357
a(S"face.''"
p6358
I1
tp6359
a(S'faceing'
p6360
I1
tp6361
a(S'facility'
p6362
I1
tp6363
a(S'factal'
p6364
I1
tp6365
a(S'factor;'
p6366
I1
tp6367
a(S'factory.\x94'
p6368
I1
tp6369
a(S'factory.\x94ironic'
p6370
I1
tp6371
a(S'factory;'
p6372
I1
tp6373
a(S'factry.it'
p6374
I1
tp6375
a(S'factt'
p6376
I1
tp6377
a(S'fading'
p6378
I1
tp6379
a(S'fading.\x94'
p6380
I1
tp6381
a(S'faeture'
p6382
I1
tp6383
a(S'failure'
p6384
I1
tp6385
a(S'fainted'
p6386
I1
tp6387
a(S'fairly'
p6388
I1
tp6389
a(S'fait'
p6390
I1
tp6391
a(S'faling'
p6392
I1
tp6393
a(S'fall.the'
p6394
I1
tp6395
a(S'fallen'
p6396
I1
tp6397
a(S'falt'
p6398
I1
tp6399
a(S'family'
p6400
I1
tp6401
a(S'far.many'
p6402
I1
tp6403
a(S'fast.the'
p6404
I1
tp6405
a(S'faster.the'
p6406
I1
tp6407
a(S'father'
p6408
I1
tp6409
a(S'fatigued'
p6410
I1
tp6411
a(S'fature'
p6412
I1
tp6413
a(S'fault'
p6414
I1
tp6415
a(S'faulty'
p6416
I1
tp6417
a(S'fauret'
p6418
I1
tp6419
a(S'favor'
p6420
I1
tp6421
a(S'favor.in'
p6422
I1
tp6423
a(S'favorite'
p6424
I1
tp6425
a(S'feared'
p6426
I1
tp6427
a(S'fearing'
p6428
I1
tp6429
a(S'featur'
p6430
I1
tp6431
a(S"feature'"
p6432
I1
tp6433
a(S'feature\x92'
p6434
I1
tp6435
a(S'featuring'
p6436
I1
tp6437
a(S'fechmisburg'
p6438
I1
tp6439
a(S'feeling.in'
p6440
I1
tp6441
a(S'feelings.the'
p6442
I1
tp6443
a(S'feelso'
p6444
I1
tp6445
a(S'feet'
p6446
I1
tp6447
a(S'feeting'
p6448
I1
tp6449
a(S'feling'
p6450
I1
tp6451
a(S'fella'
p6452
I1
tp6453
a(S'felling'
p6454
I1
tp6455
a(S'fellow'
p6456
I1
tp6457
a(S'felt.well'
p6458
I1
tp6459
a(S'ff'
p6460
I1
tp6461
a(S'fierce'
p6462
I1
tp6463
a(S'fifth'
p6464
I1
tp6465
a(S'fifty'
p6466
I1
tp6467
a(S'fifty-five'
p6468
I1
tp6469
a(S'figured'
p6470
I1
tp6471
a(S'finale'
p6472
I1
tp6473
a(S'findswater'
p6474
I1
tp6475
a(S'fine,\x94'
p6476
I1
tp6477
a(S'fine.during'
p6478
I1
tp6479
a(S'fine.in'
p6480
I1
tp6481
a(S'fined'
p6482
I1
tp6483
a(S'finish.in'
p6484
I1
tp6485
a(S'finish.the'
p6486
I1
tp6487
a(S'finished'
p6488
I1
tp6489
a(S'finnaly'
p6490
I1
tp6491
a(S'firstly'
p6492
I1
tp6493
a(S'fish-if'
p6494
I1
tp6495
a(S'fisrt'
p6496
I1
tp6497
a(S'five'
p6498
I1
tp6499
a(S'fixing'
p6500
I1
tp6501
a(S'flatland'
p6502
I1
tp6503
a(S'flip'
p6504
I1
tp6505
a(S'flood'
p6506
I1
tp6507
a(S'flowed'
p6508
I1
tp6509
a(S'flower'
p6510
I1
tp6511
a(S'flowing'
p6512
I1
tp6513
a(S'fluent'
p6514
I1
tp6515
a(S'flustrated'
p6516
I1
tp6517
a(S'foctary'
p6518
I1
tp6519
a(S'folke'
p6520
I1
tp6521
a(S'folluwed'
p6522
I1
tp6523
a(S'food.at'
p6524
I1
tp6525
a(S'fool'
p6526
I1
tp6527
a(S'for.\x94'
p6528
I1
tp6529
a(S'forcing'
p6530
I1
tp6531
a(S'forested'
p6532
I1
tp6533
a(S'forexample'
p6534
I1
tp6535
a(S'forlorn'
p6536
I1
tp6537
a(S'format'
p6538
I1
tp6539
a(S'formed'
p6540
I1
tp6541
a(S'forsaken'
p6542
I1
tp6543
a(S'fort'
p6544
I1
tp6545
a(S'forth'
p6546
I1
tp6547
a(S'forwad'
p6548
I1
tp6549
a(S'foul'
p6550
I1
tp6551
a(S'fountain'
p6552
I1
tp6553
a(S'fourth'
p6554
I1
tp6555
a(S'fourther'
p6556
I1
tp6557
a(S'fourty'
p6558
I1
tp6559
a(S'foward'
p6560
I1
tp6561
a(S'fowk'
p6562
I1
tp6563
a(S'freezing'
p6564
I1
tp6565
a(S'freshen'
p6566
I1
tp6567
a(S'fret'
p6568
I1
tp6569
a(S'friend'
p6570
I1
tp6571
a(S'frighten'
p6572
I1
tp6573
a(S'frind'
p6574
I1
tp6575
a(S'frist'
p6576
I1
tp6577
a(S'frol'
p6578
I1
tp6579
a(S'frot'
p6580
I1
tp6581
a(S'fruit'
p6582
I1
tp6583
a(S'frustating'
p6584
I1
tp6585
a(S'frustration'
p6586
I1
tp6587
a(S'fuier'
p6588
I1
tp6589
a(S'fun'
p6590
I1
tp6591
a(S'function'
p6592
I1
tp6593
a(S'funny'
p6594
I1
tp6595
a(S'future.during'
p6596
I1
tp6597
a(S'future.\x94'
p6598
I1
tp6599
a(S'ga'
p6600
I1
tp6601
a(S'gain'
p6602
I1
tp6603
a(S'gart'
p6604
I1
tp6605
a(S'gated'
p6606
I1
tp6607
a(S'gather'
p6608
I1
tp6609
a(S'gazing'
p6610
I1
tp6611
a(S'gbost'
p6612
I1
tp6613
a(S'gears.\x94'
p6614
I1
tp6615
a(S'gear\x94'
p6616
I1
tp6617
a(S'general'
p6618
I1
tp6619
a(S'generally'
p6620
I1
tp6621
a(S'gentle'
p6622
I1
tp6623
a(S'gently'
p6624
I1
tp6625
a(S"get'"
p6626
I1
tp6627
a(S'getin'
p6628
I1
tp6629
a(S'geting'
p6630
I1
tp6631
a(S'gets'
p6632
I1
tp6633
a(S'gett'
p6634
I1
tp6635
a(S'ghost-town'
p6636
I1
tp6637
a(S'ghoust'
p6638
I1
tp6639
a(S'gian'
p6640
I1
tp6641
a(S'ginaupupthe'
p6642
I1
tp6643
a(S'git'
p6644
I1
tp6645
a(S'glitche'
p6646
I1
tp6647
a(S'gloomy'
p6648
I1
tp6649
a(S"go'"
p6650
I1
tp6651
a(S'go.in'
p6652
I1
tp6653
a(S'go.the'
p6654
I1
tp6655
a(S'goal.the'
p6656
I1
tp6657
a(S'goet'
p6658
I1
tp6659
a(S'goin.the'
p6660
I1
tp6661
a(S'goregou'
p6662
I1
tp6663
a(S'gorgeouse'
p6664
I1
tp6665
a(S'gorgerou'
p6666
I1
tp6667
a(S'gorgou'
p6668
I1
tp6669
a(S'gorqea'
p6670
I1
tp6671
a(S'gosh'
p6672
I1
tp6673
a(S'goten'
p6674
I1
tp6675
a(S'goup'
p6676
I1
tp6677
a(S'grading'
p6678
I1
tp6679
a(S'grate'
p6680
I1
tp6681
a(S'grave'
p6682
I1
tp6683
a(S'gravel'
p6684
I1
tp6685
a(S'gravity'
p6686
I1
tp6687
a(S'greater'
p6688
I1
tp6689
a(S'greatful'
p6690
I1
tp6691
a(S'greatly.i'
p6692
I1
tp6693
a(S'grim'
p6694
I1
tp6695
a(S'growth'
p6696
I1
tp6697
a(S'gruding'
p6698
I1
tp6699
a(S'guest'
p6700
I1
tp6701
a(S'guiding'
p6702
I1
tp6703
a(S'gulp'
p6704
I1
tp6705
a(S'gun'
p6706
I1
tp6707
a(S'gunk'
p6708
I1
tp6709
a(S'gust'
p6710
I1
tp6711
a(S'gut'
p6712
I1
tp6713
a(S'guys.the'
p6714
I1
tp6715
a(S'guzzling'
p6716
I1
tp6717
a(S'h'
I1
tp6718
a(S'hab'
p6719
I1
tp6720
a(S'had.the'
p6721
I1
tp6722
a(S'haden\x92t'
p6723
I1
tp6724
a(S"hadn't"
p6725
I1
tp6726
a(S'hadnt'
p6727
I1
tp6728
a(S'hae'
p6729
I1
tp6730
a(S'haede'
p6731
I1
tp6732
a(S'hail'
p6733
I1
tp6734
a(S'hair'
p6735
I1
tp6736
a(S'hald'
p6737
I1
tp6738
a(S'hallucination'
p6739
I1
tp6740
a(S'handed'
p6741
I1
tp6742
a(S'handing'
p6743
I1
tp6744
a(S'hands.the'
p6745
I1
tp6746
a(S'happen.the'
p6747
I1
tp6748
a(S'happen.you'
p6749
I1
tp6750
a(S'happend'
p6751
I1
tp6752
a(S'happening'
p6753
I1
tp6754
a(S'happens.if'
p6755
I1
tp6756
a(S'happier'
p6757
I1
tp6758
a(S'happsy!'
p6759
I1
tp6760
a(S'happsythe'
p6761
I1
tp6762
a(S'hapy'
p6763
I1
tp6764
a(S'hard.in'
p6765
I1
tp6766
a(S'hard.the'
p6767
I1
tp6768
a(S'harded'
p6769
I1
tp6770
a(S'harden'
p6771
I1
tp6772
a(S'hardships.the'
p6773
I1
tp6774
a(S'hardy'
p6775
I1
tp6776
a(S'harmed'
p6777
I1
tp6778
a(S'harzardou'
p6779
I1
tp6780
a(S'hate'
p6781
I1
tp6782
a(S'haunting'
p6783
I1
tp6784
a(S'haurst'
p6785
I1
tp6786
a(S'haved'
p6787
I1
tp6788
a(S'hav\x92nt'
p6789
I1
tp6790
a(S'hazardou'
p6791
I1
tp6792
a(S'he.the'
p6793
I1
tp6794
a(S'he?'
p6795
I1
tp6796
a(S'head,\x94'
p6797
I1
tp6798
a(S"head.''"
p6799
I1
tp6800
a(S'heartsroke'
p6801
I1
tp6802
a(S'heartstroke'
p6803
I1
tp6804
a(S'heat;'
p6805
I1
tp6806
a(S'heatstake'
p6807
I1
tp6808
a(S'heatstore'
p6809
I1
tp6810
a(S'heatstroke,\x94'
p6811
I1
tp6812
a(S'heatstroke...\x94'
p6813
I1
tp6814
a(S'heatstroke.\x94the'
p6815
I1
tp6816
a(S'heighten'
p6817
I1
tp6818
a(S'hein'
p6819
I1
tp6820
a(S'held'
p6821
I1
tp6822
a(S'helmet'
p6823
I1
tp6824
a(S'help.the'
p6825
I1
tp6826
a(S'helper'
p6827
I1
tp6828
a(S'helplessne'
p6829
I1
tp6830
a(S'hence'
p6831
I1
tp6832
a(S'herb'
p6833
I1
tp6834
a(S'here.any'
p6835
I1
tp6836
a(S'hgh'
p6837
I1
tp6838
a(S'hidden'
p6839
I1
tp6840
a(S'highdrated'
p6841
I1
tp6842
a(S'higher'
p6843
I1
tp6844
a(S'highly'
p6845
I1
tp6846
a(S'hil'
p6847
I1
tp6848
a(S'hill,\x94'
p6849
I1
tp6850
a(S'hill-and'
p6851
I1
tp6852
a(S"hill.''"
p6853
I1
tp6854
a(S'hill...\x94'
p6855
I1
tp6856
a(S'hill.many'
p6857
I1
tp6858
a(S'hills.\x94the'
p6859
I1
tp6860
a(S'hills\x94(kurmaskie'
p6861
I1
tp6862
a(S"hils.''"
p6863
I1
tp6864
a(S'him.i'
p6865
I1
tp6866
a(S'him.on'
p6867
I1
tp6868
a(S'him.that'
p6869
I1
tp6870
a(S'him.there'
p6871
I1
tp6872
a(S'him.varia'
p6873
I1
tp6874
a(S'him.when'
p6875
I1
tp6876
a(S'him.with'
p6877
I1
tp6878
a(S'him/her'
p6879
I1
tp6880
a(S'him/her.the'
p6881
I1
tp6882
a(S'him;'
p6883
I1
tp6884
a(S'hime'
p6885
I1
tp6886
a(S'himout'
p6887
I1
tp6888
a(S'himself\x94'
p6889
I1
tp6890
a(S'himslef'
p6891
I1
tp6892
a(S'himthe'
p6893
I1
tp6894
a(S'hindering'
p6895
I1
tp6896
a(S'hing'
p6897
I1
tp6898
a(S'hint'
p6899
I1
tp6900
a(S'hinting'
p6901
I1
tp6902
a(S'hit\x94'
p6903
I1
tp6904
a(S'hm'
p6905
I1
tp6906
a(S'hobble'
p6907
I1
tp6908
a(S'home.the'
p6909
I1
tp6910
a(S'homele'
p6911
I1
tp6912
a(S'homthese'
p6913
I1
tp6914
a(S'hon'
p6915
I1
tp6916
a(S'honeycomb'
p6917
I1
tp6918
a(S'hoped'
p6919
I1
tp6920
a(S'hopeful.the'
p6921
I1
tp6922
a(S'hopelee'
p6923
I1
tp6924
a(S'hopelessly'
p6925
I1
tp6926
a(S'hopelessness.the'
p6927
I1
tp6928
a(S'hopeless\x94'
p6929
I1
tp6930
a(S'hopelssly'
p6931
I1
tp6932
a(S'hopfull'
p6933
I1
tp6934
a(S'hoplessness.the'
p6935
I1
tp6936
a(S'horable'
p6937
I1
tp6938
a(S'horizon/hill'
p6939
I1
tp6940
a(S'horizon\x94'
p6941
I1
tp6942
a(S'horrid'
p6943
I1
tp6944
a(S'horrific.flat'
p6945
I1
tp6946
a(S'horrifying'
p6947
I1
tp6948
a(S'hort'
p6949
I1
tp6950
a(S'hostile'
p6951
I1
tp6952
a(S'hot!'
p6953
I1
tp6954
a(S'hot,gro'
p6955
I1
tp6956
a(S'hot,tired'
p6957
I1
tp6958
a(S'hot.many'
p6959
I1
tp6960
a(S'hotel'
p6961
I1
tp6962
a(S'hoter'
p6963
I1
tp6964
a(S'hotlike'
p6965
I1
tp6966
a(S'hotne'
p6967
I1
tp6968
a(S'hotnes'
p6969
I1
tp6970
a(S'hotter-'
p6971
I1
tp6972
a(S'hottne'
p6973
I1
tp6974
a(S'houever'
p6975
I1
tp6976
a(S'hourly'
p6977
I1
tp6978
a(S'hours\x94'
p6979
I1
tp6980
a(S'howl'
p6981
I1
tp6982
a(S'hr'
p6983
I1
tp6984
a(S'hte'
p6985
I1
tp6986
a(S'humble'
p6987
I1
tp6988
a(S'hummid'
p6989
I1
tp6990
a(S'humorou'
p6991
I1
tp6992
a(S'hunger'
p6993
I1
tp6994
a(S'hurried'
p6995
I1
tp6996
a(S'hurry'
p6997
I1
tp6998
a(S'huting'
p6999
I1
tp7000
a(S'hydrate'
p7001
I1
tp7002
a(S'hydrating'
p7003
I1
tp7004
a(S'hyperbole'
p7005
I1
tp7006
a(S'hypo'
p7007
I1
tp7008
a(S'ia'
p7009
I1
tp7010
a(S'icy'
p7011
I1
tp7012
a(S'idea.thi'
p7013
I1
tp7014
a(S'ideal'
p7015
I1
tp7016
a(S'identify'
p7017
I1
tp7018
a(S'ife'
p7019
I1
tp7020
a(S'ignore'
p7021
I1
tp7022
a(S'ignoring'
p7023
I1
tp7024
a(S'illusion'
p7025
I1
tp7026
a(S'illusionalistic'
p7027
I1
tp7028
a(S'imaginate'
p7029
I1
tp7030
a(S'imagining'
p7031
I1
tp7032
a(S'imagton'
p7033
I1
tp7034
a(S'immediate'
p7035
I1
tp7036
a(S'impare'
p7037
I1
tp7038
a(S'impared'
p7039
I1
tp7040
a(S'impatient'
p7041
I1
tp7042
a(S'impatientre'
p7043
I1
tp7044
a(S'implying'
p7045
I1
tp7046
a(S'import'
p7047
I1
tp7048
a(S'importantly'
p7049
I1
tp7050
a(S'impossible.the'
p7051
I1
tp7052
a(S'impression'
p7053
I1
tp7054
a(S'in,\x94do'
p7055
I1
tp7056
a(S'in.early'
p7057
I1
tp7058
a(S'in.well'
p7059
I1
tp7060
a(S'in???'
p7061
I1
tp7062
a(S'inadequet'
p7063
I1
tp7064
a(S'incase'
p7065
I1
tp7066
a(S'inche'
p7067
I1
tp7068
a(S'incline'
p7069
I1
tp7070
a(S'inconclusion'
p7071
I1
tp7072
a(S'inconsistancy'
p7073
I1
tp7074
a(S'inconsistant'
p7075
I1
tp7076
a(S'incorrect'
p7077
I1
tp7078
a(S'incounter'
p7079
I1
tp7080
a(S'incountered'
p7081
I1
tp7082
a(S'increasing'
p7083
I1
tp7084
a(S'increasingly'
p7085
I1
tp7086
a(S'incredibly'
p7087
I1
tp7088
a(S'independent.the'
p7089
I1
tp7090
a(S'indespair'
p7091
I1
tp7092
a(S'individual'
p7093
I1
tp7094
a(S'industriated'
p7095
I1
tp7096
a(S'infe'
p7097
I1
tp7098
a(S'inferal'
p7099
I1
tp7100
a(S'infereal'
p7101
I1
tp7102
a(S'infested'
p7103
I1
tp7104
a(S'inflated'
p7105
I1
tp7106
a(S'influence'
p7107
I1
tp7108
a(S'influental'
p7109
I1
tp7110
a(S'influential'
p7111
I1
tp7112
a(S'inforce'
p7113
I1
tp7114
a(S'inform'
p7115
I1
tp7116
a(S'informed'
p7117
I1
tp7118
a(S'inhabined'
p7119
I1
tp7120
a(S'inhabited'
p7121
I1
tp7122
a(S'inhance'
p7123
I1
tp7124
a(S'initially'
p7125
I1
tp7126
a(S'injure'
p7127
I1
tp7128
a(S'injured'
p7129
I1
tp7130
a(S'insane'
p7131
I1
tp7132
a(S'inspiration'
p7133
I1
tp7134
a(S'inspire'
p7135
I1
tp7136
a(S'instence'
p7137
I1
tp7138
a(S'instruction'
p7139
I1
tp7140
a(S'insufficient'
p7141
I1
tp7142
a(S'insuring'
p7143
I1
tp7144
a(S'intefering'
p7145
I1
tp7146
a(S'intensely'
p7147
I1
tp7148
a(S'intensity'
p7149
I1
tp7150
a(S'intention.the'
p7151
I1
tp7152
a(S'interenting'
p7153
I1
tp7154
a(S'interfered'
p7155
I1
tp7156
a(S'intimidate'
p7157
I1
tp7158
a(S'into?!\x94'
p7159
I1
tp7160
a(S'inusuable;'
p7161
I1
tp7162
a(S'invalidated'
p7163
I1
tp7164
a(S'involve'
p7165
I1
tp7166
a(S'involved'
p7167
I1
tp7168
a(S'in\x94'
p7169
I1
tp7170
a(S'ird'
p7171
I1
tp7172
a(S'ironical'
p7173
I1
tp7174
a(S'ironics,he'
p7175
I1
tp7176
a(S'irratable'
p7177
I1
tp7178
a(S'irresponsible.the'
p7179
I1
tp7180
a(S'irrisistable'
p7181
I1
tp7182
a(S'irritaed'
p7183
I1
tp7184
a(S'irritated'
p7185
I1
tp7186
a(S'is,\x94'
p7187
I1
tp7188
a(S'is.the'
p7189
I1
tp7190
a(S'is.when'
p7191
I1
tp7192
a(S'isnt'
p7193
I1
tp7194
a(S'iso'
p7195
I1
tp7196
a(S'isolated'
p7197
I1
tp7198
a(S'ispiring'
p7199
I1
tp7200
a(S"it'"
p7201
I1
tp7202
a(S'it,and'
p7203
I1
tp7204
a(S'it-had'
p7205
I1
tp7206
a(S'it...i'
p7207
I1
tp7208
a(S'it.there'
p7209
I1
tp7210
a(S'it?!'
p7211
I1
tp7212
a(S'it?????????'
p7213
I1
tp7214
a(S'it`'
p7215
I1
tp7216
a(S'italso'
p7217
I1
tp7218
a(S'it\x91'
p7219
I1
tp7220
a(S'it\x93'
p7221
I1
tp7222
a(S'i\x92ll'
p7223
I1
tp7224
a(S'i\x92ve'
p7225
I1
tp7226
a(S'jagged'
p7227
I1
tp7228
a(S'jarthe'
p7229
I1
tp7230
a(S'jaunt.\x94'
p7231
I1
tp7232
a(S'jerny'
p7233
I1
tp7234
a(S'jogging'
p7235
I1
tp7236
a(S'joke'
p7237
I1
tp7238
a(S'journey.a'
p7239
I1
tp7240
a(S'journey.with'
p7241
I1
tp7242
a(S'journey?'
p7243
I1
tp7244
a(S'journied'
p7245
I1
tp7246
a(S'joy'
p7247
I1
tp7248
a(S'judgement'
p7249
I1
tp7250
a(S'judging'
p7251
I1
tp7252
a(S'judjment'
p7253
I1
tp7254
a(S'jug'
p7255
I1
tp7256
a(S'juice,thi'
p7257
I1
tp7258
a(S'jumped.the'
p7259
I1
tp7260
a(S'jumping'
p7261
I1
tp7262
a(S'june."(kurmaskie'
p7263
I1
tp7264
a(S"june.''"
p7265
I1
tp7266
a(S'june.a'
p7267
I1
tp7268
a(S'june.the'
p7269
I1
tp7270
a(S'june.their'
p7271
I1
tp7272
a(S'june.\x93'
p7273
I1
tp7274
a(S'june\x94(kurmaskie'
p7275
I1
tp7276
a(S'key'
p7277
I1
tp7278
a(S'kicked'
p7279
I1
tp7280
a(S'kiiled'
p7281
I1
tp7282
a(S'kind,\x94'
p7283
I1
tp7284
a(S'kind.\x94in'
p7285
I1
tp7286
a(S'kinda'
p7287
I1
tp7288
a(S'kurmaksie,greatly'
p7289
I1
tp7290
a(S'kurmaskie\x94'
p7291
I1
tp7292
a(S'la'
p7293
I1
tp7294
a(S'labe'
p7295
I1
tp7296
a(S'lacking'
p7297
I1
tp7298
a(S'lact'
p7299
I1
tp7300
a(S'lading'
p7301
I1
tp7302
a(S'laffect'
p7303
I1
tp7304
a(S'lament'
p7305
I1
tp7306
a(S'land.\x94'
p7307
I1
tp7308
a(S'land;in'
p7309
I1
tp7310
a(S'lane'
p7311
I1
tp7312
a(S'largest'
p7313
I1
tp7314
a(S'large\x94'
p7315
I1
tp7316
a(S'larse'
p7317
I1
tp7318
a(S'lasely'
p7319
I1
tp7320
a(S'laster'
p7321
I1
tp7322
a(S'laugh.\x94'
p7323
I1
tp7324
a(S'laughed'
p7325
I1
tp7326
a(S'law'
p7327
I1
tp7328
a(S'lay'
p7329
I1
tp7330
a(S'lea'
p7331
I1
tp7332
a(S'leaf'
p7333
I1
tp7334
a(S'leaking'
p7335
I1
tp7336
a(S'leane'
p7337
I1
tp7338
a(S'learning'
p7339
I1
tp7340
a(S'learntedat'
p7341
I1
tp7342
a(S'leasing'
p7343
I1
tp7344
a(S'leason'
p7345
I1
tp7346
a(S'lecatracy'
p7347
I1
tp7348
a(S'left.the'
p7349
I1
tp7350
a(S'legible'
p7351
I1
tp7352
a(S'lent'
p7353
I1
tp7354
a(S'lern'
p7355
I1
tp7356
a(S'lersury'
p7357
I1
tp7358
a(S'lesort'
p7359
I1
tp7360
a(S'lessen'
p7361
I1
tp7362
a(S'lession'
p7363
I1
tp7364
a(S'lesson.the'
p7365
I1
tp7366
a(S'lest'
p7367
I1
tp7368
a(S'lesy'
p7369
I1
tp7370
a(S'letting'
p7371
I1
tp7372
a(S'leval'
p7373
I1
tp7374
a(S'levels.the'
p7375
I1
tp7376
a(S'lf'
p7377
I1
tp7378
a(S'liesurly'
p7379
I1
tp7380
a(S'lif'
p7381
I1
tp7382
a(S'life.during'
p7383
I1
tp7384
a(S'life.to'
p7385
I1
tp7386
a(S'life;'
p7387
I1
tp7388
a(S'lifethe'
p7389
I1
tp7390
a(S'liked'
p7391
I1
tp7392
a(S'lil'
p7393
I1
tp7394
a(S'limb'
p7395
I1
tp7396
a(S"limit,''"
p7397
I1
tp7398
a(S'limit."the'
p7399
I1
tp7400
a(S'limit.\x94the'
p7401
I1
tp7402
a(S'limit.\x94thi'
p7403
I1
tp7404
a(S'limit.\xe2\x80\x9d'
p7405
I1
tp7406
a(S'limiting'
p7407
I1
tp7408
a(S'limits,\x94'
p7409
I1
tp7410
a(S'limits\x94'
p7411
I1
tp7412
a(S'limit\x94(joe'
p7413
I1
tp7414
a(S'limit\x94by'
p7415
I1
tp7416
a(S'link'
p7417
I1
tp7418
a(S'lisined'
p7419
I1
tp7420
a(S'list'
p7421
I1
tp7422
a(S'listing'
p7423
I1
tp7424
a(S'listned'
p7425
I1
tp7426
a(S'lit'
p7427
I1
tp7428
a(S'literay'
p7429
I1
tp7430
a(S'littlest'
p7431
I1
tp7432
a(S'live.at'
p7433
I1
tp7434
a(S'lizard'
p7435
I1
tp7436
a(S'll'
p7437
I1
tp7438
a(S'location3'
p7439
I1
tp7440
a(S'lock'
p7441
I1
tp7442
a(S'lodged'
p7443
I1
tp7444
a(S'logically'
p7445
I1
tp7446
a(S'lon'
p7447
I1
tp7448
a(S'lone'
p7449
I1
tp7450
a(S'lonelene'
p7451
I1
tp7452
a(S'lonelier'
p7453
I1
tp7454
a(S'lonelyne'
p7455
I1
tp7456
a(S'lonliene'
p7457
I1
tp7458
a(S'lossing'
p7459
I1
tp7460
a(S'lost-all'
p7461
I1
tp7462
a(S'lot.several'
p7463
I1
tp7464
a(S'lot.well'
p7465
I1
tp7466
a(S'lotof'
p7467
I1
tp7468
a(S'louage'
p7469
I1
tp7470
a(S'lough.\x94'
p7471
I1
tp7472
a(S'lover'
p7473
I1
tp7474
a(S'luckly'
p7475
I1
tp7476
a(S'lucky.the'
p7477
I1
tp7478
a(S'luer'
p7479
I1
tp7480
a(S'lugubviou'
p7481
I1
tp7482
a(S'lunch'
p7483
I1
tp7484
a(S'lung'
p7485
I1
tp7486
a(S'luxuriou'
p7487
I1
tp7488
a(S'lyand'
p7489
I1
tp7490
a(S'lying'
p7491
I1
tp7492
a(S'mabey'
p7493
I1
tp7494
a(S'mach'
p7495
I1
tp7496
a(S'madon'
p7497
I1
tp7498
a(S'maid'
p7499
I1
tp7500
a(S'mail'
p7501
I1
tp7502
a(S'maintain'
p7503
I1
tp7504
a(S'maintaining'
p7505
I1
tp7506
a(S'majory'
p7507
I1
tp7508
a(S"make'"
p7509
I1
tp7510
a(S'malice'
p7511
I1
tp7512
a(S'man-made'
p7513
I1
tp7514
a(S'man.there'
p7515
I1
tp7516
a(S'managementthi'
p7517
I1
tp7518
a(S'maneuvering'
p7519
I1
tp7520
a(S'manevuered'
p7521
I1
tp7522
a(S'manner'
p7523
I1
tp7524
a(S'manouvered'
p7525
I1
tp7526
a(S'manuever'
p7527
I1
tp7528
a(S'manyway'
p7529
I1
tp7530
a(S'map,\x94'
p7531
I1
tp7532
a(S"map.''i"
p7533
I1
tp7534
a(S'map.many'
p7535
I1
tp7536
a(S'mapped'
p7537
I1
tp7538
a(S'mapping'
p7539
I1
tp7540
a(S'map\x94'
p7541
I1
tp7542
a(S'marathon'
p7543
I1
tp7544
a(S'marked'
p7545
I1
tp7546
a(S'massive'
p7547
I1
tp7548
a(S'mat'
p7549
I1
tp7550
a(S'match'
p7551
I1
tp7552
a(S'material'
p7553
I1
tp7554
a(S'materialize'
p7555
I1
tp7556
a(S'matters.in'
p7557
I1
tp7558
a(S'maximum'
p7559
I1
tp7560
a(S'me.in'
p7561
I1
tp7562
a(S'me.\x93'
p7563
I1
tp7564
a(S'me.\x94(kurmaskie'
p7565
I1
tp7566
a(S'me.\x94the'
p7567
I1
tp7568
a(S'mear'
p7569
I1
tp7570
a(S'mediocre'
p7571
I1
tp7572
a(S'meeting'
p7573
I1
tp7574
a(S'meloncholy'
p7575
I1
tp7576
a(S'meneuver'
p7577
I1
tp7578
a(S'merry'
p7579
I1
tp7580
a(S'meschy'
p7581
I1
tp7582
a(S'mesem'
p7583
I1
tp7584
a(S'message'
p7585
I1
tp7586
a(S'messe'
p7587
I1
tp7588
a(S'messing'
p7589
I1
tp7590
a(S'metaphorically'
p7591
I1
tp7592
a(S'method'
p7593
I1
tp7594
a(S'metion'
p7595
I1
tp7596
a(S'midwest'
p7597
I1
tp7598
a(S'milessome'
p7599
I1
tp7600
a(S'milker'
p7601
I1
tp7602
a(S'mimic'
p7603
I1
tp7604
a(S'mind.in'
p7605
I1
tp7606
a(S'mind;'
p7607
I1
tp7608
a(S'miniture'
p7609
I1
tp7610
a(S'minor'
p7611
I1
tp7612
a(S'minut'
p7613
I1
tp7614
a(S'mirage.when'
p7615
I1
tp7616
a(S'mirage;'
p7617
I1
tp7618
a(S'mirge.\x94'
p7619
I1
tp7620
a(S'mirrage,\x94'
p7621
I1
tp7622
a(S'misery'
p7623
I1
tp7624
a(S'misfortune'
p7625
I1
tp7626
a(S'misleadingthe'
p7627
I1
tp7628
a(S'misled'
p7629
I1
tp7630
a(S'mistaken'
p7631
I1
tp7632
a(S'mle'
p7633
I1
tp7634
a(S'mo'
p7635
I1
tp7636
a(S'model'
p7637
I1
tp7638
a(S'moist'
p7639
I1
tp7640
a(S'moisture'
p7641
I1
tp7642
a(S'moment'
p7643
I1
tp7644
a(S'moment.the'
p7645
I1
tp7646
a(S'money'
p7647
I1
tp7648
a(S'mooble'
p7649
I1
tp7650
a(S'mood.after'
p7651
I1
tp7652
a(S'moods.in'
p7653
I1
tp7654
a(S'moral'
p7655
I1
tp7656
a(S'more.whether'
p7657
I1
tp7658
a(S'more.\x94'
p7659
I1
tp7660
a(S'morning...with'
p7661
I1
tp7662
a(S'morph'
p7663
I1
tp7664
a(S'most.the'
p7665
I1
tp7666
a(S'mostly.the'
p7667
I1
tp7668
a(S'moth'
p7669
I1
tp7670
a(S'mother'
p7671
I1
tp7672
a(S'motor'
p7673
I1
tp7674
a(S'motorcycle'
p7675
I1
tp7676
a(S'motuising'
p7677
I1
tp7678
a(S'mountianou'
p7679
I1
tp7680
a(S'mountin'
p7681
I1
tp7682
a(S'mouth.the'
p7683
I1
tp7684
a(S'mouth\x94(kurmaskie).the'
p7685
I1
tp7686
a(S'move.an'
p7687
I1
tp7688
a(S'movement'
p7689
I1
tp7690
a(S'much.rolling'
p7691
I1
tp7692
a(S"mule''"
p7693
I1
tp7694
a(S'musky'
p7695
I1
tp7696
a(S'mute'
p7697
I1
tp7698
a(S'na'
p7699
I1
tp7700
a(S'nagging'
p7701
I1
tp7702
a(S'nam'
p7703
I1
tp7704
a(S'name.\x94'
p7705
I1
tp7706
a(S'namely'
p7707
I1
tp7708
a(S'naraer'
p7709
I1
tp7710
a(S'narritive'
p7711
I1
tp7712
a(S'narrorator'
p7713
I1
tp7714
a(S'narrow'
p7715
I1
tp7716
a(S'native'
p7717
I1
tp7718
a(S'nautiou'
p7719
I1
tp7720
a(S'navigated'
p7721
I1
tp7722
a(S'nd'
p7723
I1
tp7724
a(S'nde'
p7725
I1
tp7726
a(S'ne'
p7727
I1
tp7728
a(S'nearer'
p7729
I1
tp7730
a(S'neat'
p7731
I1
tp7732
a(S'neat,lack'
p7733
I1
tp7734
a(S'neccesary'
p7735
I1
tp7736
a(S'necessity'
p7737
I1
tp7738
a(S'neck'
p7739
I1
tp7740
a(S'needs)'
p7741
I1
tp7742
a(S'needs.in'
p7743
I1
tp7744
a(S'neer'
p7745
I1
tp7746
a(S'neighbar'
p7747
I1
tp7748
a(S'neighbor'
p7749
I1
tp7750
a(S'neighbourhood'
p7751
I1
tp7752
a(S'nething'
p7753
I1
tp7754
a(S'netting'
p7755
I1
tp7756
a(S'neurotic'
p7757
I1
tp7758
a(S'next.the'
p7759
I1
tp7760
a(S'night'
p7761
I1
tp7762
a(S'nite'
p7763
I1
tp7764
a(S'nitting'
p7765
I1
tp7766
a(S'no-brairer'
p7767
I1
tp7768
a(S'no-one'
p7769
I1
tp7770
a(S'no-where'
p7771
I1
tp7772
a(S'no.in'
p7773
I1
tp7774
a(S'no.the'
p7775
I1
tp7776
a(S'no???'
p7777
I1
tp7778
a(S'non'
p7779
I1
tp7780
a(S'non-paved'
p7781
I1
tp7782
a(S'nonstop'
p7783
I1
tp7784
a(S'normaly'
p7785
I1
tp7786
a(S'nort'
p7787
I1
tp7788
a(S'northern'
p7789
I1
tp7790
a(S'not.in'
p7791
I1
tp7792
a(S'not.the'
p7793
I1
tp7794
a(S'nothing.do'
p7795
I1
tp7796
a(S'nothing.the'
p7797
I1
tp7798
a(S'nothing.thi'
p7799
I1
tp7800
a(S'noticable'
p7801
I1
tp7802
a(S'noticeable'
p7803
I1
tp7804
a(S'noticed,\x94'
p7805
I1
tp7806
a(S'noticing'
p7807
I1
tp7808
a(S'noting'
p7809
I1
tp7810
a(S'notthe'
p7811
I1
tp7812
a(S'nottice'
p7813
I1
tp7814
a(S'noune'
p7815
I1
tp7816
a(S'nouroushment'
p7817
I1
tp7818
a(S'nowhea'
p7819
I1
tp7820
a(S'nthi'
p7821
I1
tp7822
a(S'num1).the'
p7823
I1
tp7824
a(S'num1,were'
p7825
I1
tp7826
a(S'num1,\x94'
p7827
I1
tp7828
a(S'num1.also'
p7829
I1
tp7830
a(S'num1\x92@caps1.the'
p7831
I1
tp7832
a(S'num1\xb0'
p7833
I1
tp7834
a(S'num2)\x94'
p7835
I1
tp7836
a(S'num2.in'
p7837
I1
tp7838
a(S'num2.\x94almost'
p7839
I1
tp7840
a(S'num2\x94'
p7841
I1
tp7842
a(S'num3.\x94'
p7843
I1
tp7844
a(S'num4'
p7845
I1
tp7846
a(S'num5'
p7847
I1
tp7848
a(S'num7'
p7849
I1
tp7850
a(S'numerou'
p7851
I1
tp7852
a(S'n\x92t'
p7853
I1
tp7854
a(S'oasi'
p7855
I1
tp7856
a(S'objective'
p7857
I1
tp7858
a(S'obligation'
p7859
I1
tp7860
a(S'obnonely'
p7861
I1
tp7862
a(S'obstical'
p7863
I1
tp7864
a(S'obsticale'
p7865
I1
tp7866
a(S'obstraction'
p7867
I1
tp7868
a(S'obtain'
p7869
I1
tp7870
a(S'obtaining'
p7871
I1
tp7872
a(S'occasion'
p7873
I1
tp7874
a(S'occupied'
p7875
I1
tp7876
a(S'occured'
p7877
I1
tp7878
a(S'occurred'
p7879
I1
tp7880
a(S'ocean'
p7881
I1
tp7882
a(S'ocha'
p7883
I1
tp7884
a(S'od'
p7885
I1
tp7886
a(S'odd'
p7887
I1
tp7888
a(S'of.there'
p7889
I1
tp7890
a(S'ofa'
p7891
I1
tp7892
a(S'office)'
p7893
I1
tp7894
a(S'office,\x94'
p7895
I1
tp7896
a(S'office.i'
p7897
I1
tp7898
a(S'office.the'
p7899
I1
tp7900
a(S'office.\x94(kurmaskie'
p7901
I1
tp7902
a(S'office\x94i'
p7903
I1
tp7904
a(S'offing\x94'
p7905
I1
tp7906
a(S'ofter'
p7907
I1
tp7908
a(S'okay'
p7909
I1
tp7910
a(S'olcasly'
p7911
I1
tp7912
a(S'old-'
p7913
I1
tp7914
a(S'old-folk'
p7915
I1
tp7916
a(S'oldest'
p7917
I1
tp7918
a(S'oldmen'
p7919
I1
tp7920
a(S'oldtimer'
p7921
I1
tp7922
a(S'old\x92'
p7923
I1
tp7924
a(S'oledrar'
p7925
I1
tp7926
a(S'olwing'
p7927
I1
tp7928
a(S'on('
p7929
I1
tp7930
a(S'on,\x94'
p7931
I1
tp7932
a(S'on.at'
p7933
I1
tp7934
a(S'on.\x94'
p7935
I1
tp7936
a(S'one.iin'
p7937
I1
tp7938
a(S'onelong'
p7939
I1
tp7940
a(S'ones'
p7941
I1
tp7942
a(S'ong'
p7943
I1
tp7944
a(S'onpiling'
p7945
I1
tp7946
a(S'onwards)in'
p7947
I1
tp7948
a(S'ooed'
p7949
I1
tp7950
a(S'ooey'
p7951
I1
tp7952
a(S'oozing'
p7953
I1
tp7954
a(S'op'
p7955
I1
tp7956
a(S'opened'
p7957
I1
tp7958
a(S'operate'
p7959
I1
tp7960
a(S'opposing'
p7961
I1
tp7962
a(S'opt'
p7963
I1
tp7964
a(S'optimistic.there'
p7965
I1
tp7966
a(S'optionistic.the'
p7967
I1
tp7968
a(S'ordeal'
p7969
I1
tp7970
a(S'organ'
p7971
I1
tp7972
a(S'organization2'
p7973
I1
tp7974
a(S'othe'
p7975
I1
tp7976
a(S'others.the'
p7977
I1
tp7978
a(S'out.feature'
p7979
I1
tp7980
a(S'out.in'
p7981
I1
tp7982
a(S'out.snake'
p7983
I1
tp7984
a(S'out;'
p7985
I1
tp7986
a(S'outand'
p7987
I1
tp7988
a(S'outcast'
p7989
I1
tp7990
a(S'outcome,if'
p7991
I1
tp7992
a(S'outing'
p7993
I1
tp7994
a(S'outrage'
p7995
I1
tp7996
a(S'overall.the'
p7997
I1
tp7998
a(S'overjoyed!'
p7999
I1
tp8000
a(S'overly'
p8001
I1
tp8002
a(S'overpowering'
p8003
I1
tp8004
a(S'overtime'
p8005
I1
tp8006
a(S'overwhelmed'
p8007
I1
tp8008
a(S'own.the'
p8009
I1
tp8010
a(S'owning'
p8011
I1
tp8012
a(S'pack'
p8013
I1
tp8014
a(S'painfully'
p8015
I1
tp8016
a(S'paint'
p8017
I1
tp8018
a(S'palce'
p8019
I1
tp8020
a(S'pang'
p8021
I1
tp8022
a(S'panice'
p8023
I1
tp8024
a(S'paniced'
p8025
I1
tp8026
a(S'panicked'
p8027
I1
tp8028
a(S'panicked;'
p8029
I1
tp8030
a(S'parably'
p8031
I1
tp8032
a(S'paranoid'
p8033
I1
tp8034
a(S'parche'
p8035
I1
tp8036
a(S'parentasi'
p8037
I1
tp8038
a(S'pargraph\x94'
p8039
I1
tp8040
a(S'park.during'
p8041
I1
tp8042
a(S'park.in'
p8043
I1
tp8044
a(S'park\x94'
p8045
I1
tp8046
a(S'parse'
p8047
I1
tp8048
a(S'part.the'
p8049
I1
tp8050
a(S'partially'
p8051
I1
tp8052
a(S'particular'
p8053
I1
tp8054
a(S'party'
p8055
I1
tp8056
a(S'pased'
p8057
I1
tp8058
a(S'pass-out'
p8059
I1
tp8060
a(S'past!'
p8061
I1
tp8062
a(S'past,trying'
p8063
I1
tp8064
a(S'past.\x94'
p8065
I1
tp8066
a(S'pasted'
p8067
I1
tp8068
a(S'path..\x94'
p8069
I1
tp8070
a(S'path\x93'
p8071
I1
tp8072
a(S'patience'
p8073
I1
tp8074
a(S'pay'
p8075
I1
tp8076
a(S'payed'
p8077
I1
tp8078
a(S'peace'
p8079
I1
tp8080
a(S'peacefulne'
p8081
I1
tp8082
a(S'peadiling'
p8083
I1
tp8084
a(S'pebbte'
p8085
I1
tp8086
a(S'peck'
p8087
I1
tp8088
a(S'pedai'
p8089
I1
tp8090
a(S'pedal.the'
p8091
I1
tp8092
a(S'pedde'
p8093
I1
tp8094
a(S'peddl'
p8095
I1
tp8096
a(S'peddled'
p8097
I1
tp8098
a(S'pedeled'
p8099
I1
tp8100
a(S'pedling'
p8101
I1
tp8102
a(S'peek'
p8103
I1
tp8104
a(S'peen'
p8105
I1
tp8106
a(S'peldder'
p8107
I1
tp8108
a(S'peole'
p8109
I1
tp8110
a(S'peopl'
p8111
I1
tp8112
a(S'people!'
p8113
I1
tp8114
a(S'people.in'
p8115
I1
tp8116
a(S'people.there'
p8117
I1
tp8118
a(S'perche'
p8119
I1
tp8120
a(S'percieved'
p8121
I1
tp8122
a(S'perfectly'
p8123
I1
tp8124
a(S'perform'
p8125
I1
tp8126
a(S'perhap'
p8127
I1
tp8128
a(S'persaveering'
p8129
I1
tp8130
a(S'perserver'
p8131
I1
tp8132
a(S'perserverd'
p8133
I1
tp8134
a(S'perservere'
p8135
I1
tp8136
a(S'perservered'
p8137
I1
tp8138
a(S'persevere'
p8139
I1
tp8140
a(S'persisted'
p8141
I1
tp8142
a(S'person.the'
p8143
I1
tp8144
a(S'perspective'
p8145
I1
tp8146
a(S'perspore,causing'
p8147
I1
tp8148
a(S'persuaded'
p8149
I1
tp8150
a(S'persueing'
p8151
I1
tp8152
a(S'pert'
p8153
I1
tp8154
a(S'pessamistic'
p8155
I1
tp8156
a(S'pessimism.eventually'
p8157
I1
tp8158
a(S'pessimist'
p8159
I1
tp8160
a(S'petaled'
p8161
I1
tp8162
a(S'petalling'
p8163
I1
tp8164
a(S'photo'
p8165
I1
tp8166
a(S'physicall'
p8167
I1
tp8168
a(S'physically.in'
p8169
I1
tp8170
a(S'physically.weather'
p8171
I1
tp8172
a(S'physicly'
p8173
I1
tp8174
a(S'picking'
p8175
I1
tp8176
a(S'pictured'
p8177
I1
tp8178
a(S'pined'
p8179
I1
tp8180
a(S'pines\x94'
p8181
I1
tp8182
a(S'piney'
p8183
I1
tp8184
a(S'piping'
p8185
I1
tp8186
a(S'pire'
p8187
I1
tp8188
a(S'pitty'
p8189
I1
tp8190
a(S'piture'
p8191
I1
tp8192
a(S'pla'
p8193
I1
tp8194
a(S'placesin'
p8195
I1
tp8196
a(S'plagued'
p8197
I1
tp8198
a(S'plain'
p8199
I1
tp8200
a(S'plane'
p8201
I1
tp8202
a(S"plant.''"
p8203
I1
tp8204
a(S'plase'
p8205
I1
tp8206
a(S'play.he'
p8207
I1
tp8208
a(S'please'
p8209
I1
tp8210
a(S'pleasurable'
p8211
I1
tp8212
a(S'pluk'
p8213
I1
tp8214
a(S'pluse'
p8215
I1
tp8216
a(S'poarch.there'
p8217
I1
tp8218
a(S'poiche'
p8219
I1
tp8220
a(S'point,tumbleweed'
p8221
I1
tp8222
a(S'point.it'
p8223
I1
tp8224
a(S'pointed'
p8225
I1
tp8226
a(S'pointing'
p8227
I1
tp8228
a(S'pointle'
p8229
I1
tp8230
a(S'poisione'
p8231
I1
tp8232
a(S'poisnou'
p8233
I1
tp8234
a(S'poison'
p8235
I1
tp8236
a(S'poison.first'
p8237
I1
tp8238
a(S'poisone'
p8239
I1
tp8240
a(S'polution'
p8241
I1
tp8242
a(S'pond'
p8243
I1
tp8244
a(S'pop.the'
p8245
I1
tp8246
a(S'popular'
p8247
I1
tp8248
a(S'porblem'
p8249
I1
tp8250
a(S'porch.in'
p8251
I1
tp8252
a(S'porched'
p8253
I1
tp8254
a(S'porcher'
p8255
I1
tp8256
a(S'portrayed'
p8257
I1
tp8258
a(S'portrin'
p8259
I1
tp8260
a(S'portron'
p8261
I1
tp8262
a(S'pose'
p8263
I1
tp8264
a(S'posed'
p8265
I1
tp8266
a(S'posion'
p8267
I1
tp8268
a(S'positively'
p8269
I1
tp8270
a(S'positivly'
p8271
I1
tp8272
a(S'possesion'
p8273
I1
tp8274
a(S'possibley'
p8275
I1
tp8276
a(S'postal'
p8277
I1
tp8278
a(S'poster'
p8279
I1
tp8280
a(S'potentialy'
p8281
I1
tp8282
a(S'pothole'
p8283
I1
tp8284
a(S'pour'
p8285
I1
tp8286
a(S'poured'
p8287
I1
tp8288
a(S'pourng'
p8289
I1
tp8290
a(S'power/efficiency'
p8291
I1
tp8292
a(S'powerle'
p8293
I1
tp8294
a(S'powing'
p8295
I1
tp8296
a(S'poy'
p8297
I1
tp8298
a(S'practice'
p8299
I1
tp8300
a(S'praise'
p8301
I1
tp8302
a(S'prasority'
p8303
I1
tp8304
a(S'pray'
p8305
I1
tp8306
a(S'precariou'
p8307
I1
tp8308
a(S'precaution'
p8309
I1
tp8310
a(S'preclaminatly'
p8311
I1
tp8312
a(S'predominant'
p8313
I1
tp8314
a(S'preparation'
p8315
I1
tp8316
a(S'prepare'
p8317
I1
tp8318
a(S'president'
p8319
I1
tp8320
a(S'presumed'
p8321
I1
tp8322
a(S'pretense'
p8323
I1
tp8324
a(S'prevelent'
p8325
I1
tp8326
a(S'preview'
p8327
I1
tp8328
a(S'previou'
p8329
I1
tp8330
a(S'previously'
p8331
I1
tp8332
a(S'pride'
p8333
I1
tp8334
a(S'prit'
p8335
I1
tp8336
a(S'pritty'
p8337
I1
tp8338
a(S'probablly'
p8339
I1
tp8340
a(S'probably.the'
p8341
I1
tp8342
a(S'problem.how'
p8343
I1
tp8344
a(S'problems.the'
p8345
I1
tp8346
a(S'probly'
p8347
I1
tp8348
a(S'prodlem'
p8349
I1
tp8350
a(S'professional'
p8351
I1
tp8352
a(S'progre'
p8353
I1
tp8354
a(S'progresse'
p8355
I1
tp8356
a(S'prolly'
p8357
I1
tp8358
a(S'promise'
p8359
I1
tp8360
a(S'prone'
p8361
I1
tp8362
a(S'properly'
p8363
I1
tp8364
a(S'prosperou'
p8365
I1
tp8366
a(S'protection'
p8367
I1
tp8368
a(S'proud'
p8369
I1
tp8370
a(S'proved'
p8371
I1
tp8372
a(S'proven'
p8373
I1
tp8374
a(S'provided'
p8375
I1
tp8376
a(S'provoking'
p8377
I1
tp8378
a(S'prowl'
p8379
I1
tp8380
a(S'puffy'
p8381
I1
tp8382
a(S'pulled'
p8383
I1
tp8384
a(S'pump,\x94'
p8385
I1
tp8386
a(S'pumps,\x94'
p8387
I1
tp8388
a(S'pump\x92'
p8389
I1
tp8390
a(S'punishment'
p8391
I1
tp8392
a(S'pur'
p8393
I1
tp8394
a(S'purchess,hce'
p8395
I1
tp8396
a(S'pushe'
p8397
I1
tp8398
a(S'puzzled'
p8399
I1
tp8400
a(S'quaint'
p8401
I1
tp8402
a(S'quenched'
p8403
I1
tp8404
a(S'quest-like'
p8405
I1
tp8406
a(S'quick'
p8407
I1
tp8408
a(S'quickest'
p8409
I1
tp8410
a(S'quickly.\x94'
p8411
I1
tp8412
a(S'quickne'
p8413
I1
tp8414
a(S'quinch'
p8415
I1
tp8416
a(S'race.some'
p8417
I1
tp8418
a(S'radio'
p8419
I1
tp8420
a(S'rafh'
p8421
I1
tp8422
a(S'ragady'
p8423
I1
tp8424
a(S'rage'
p8425
I1
tp8426
a(S'raining'
p8427
I1
tp8428
a(S'raised'
p8429
I1
tp8430
a(S'raised.the'
p8431
I1
tp8432
a(S'raising'
p8433
I1
tp8434
a(S'ramshack'
p8435
I1
tp8436
a(S'ramshacke'
p8437
I1
tp8438
a(S'ramshackie'
p8439
I1
tp8440
a(S'ramshackled'
p8441
I1
tp8442
a(S'ramshackleshed'
p8443
I1
tp8444
a(S'ramshacle'
p8445
I1
tp8446
a(S'ramshockle'
p8447
I1
tp8448
a(S'randing'
p8449
I1
tp8450
a(S'rasted'
p8451
I1
tp8452
a(S'rationing'
p8453
I1
tp8454
a(S'rattlesnake'
p8455
I1
tp8456
a(S'raugher'
p8457
I1
tp8458
a(S'reacher'
p8459
I1
tp8460
a(S'reacted'
p8461
I1
tp8462
a(S'reaction'
p8463
I1
tp8464
a(S'reader\x92'
p8465
I1
tp8466
a(S'reading,\x94'
p8467
I1
tp8468
a(S'read\x94'
p8469
I1
tp8470
a(S'realeoved'
p8471
I1
tp8472
a(S'realice'
p8473
I1
tp8474
a(S'realiced'
p8475
I1
tp8476
a(S'realistic'
p8477
I1
tp8478
a(S'reality'
p8479
I1
tp8480
a(S'realived'
p8481
I1
tp8482
a(S'realivingly'
p8483
I1
tp8484
a(S'realling'
p8485
I1
tp8486
a(S'realyed'
p8487
I1
tp8488
a(S'reasoning'
p8489
I1
tp8490
a(S'reassurance'
p8491
I1
tp8492
a(S'reassured'
p8493
I1
tp8494
a(S'reassuring'
p8495
I1
tp8496
a(S'reasurance'
p8497
I1
tp8498
a(S'reboost'
p8499
I1
tp8500
a(S'recall'
p8501
I1
tp8502
a(S'recalled'
p8503
I1
tp8504
a(S'receive'
p8505
I1
tp8506
a(S'receiving'
p8507
I1
tp8508
a(S'recieved'
p8509
I1
tp8510
a(S'recover'
p8511
I1
tp8512
a(S'recteved'
p8513
I1
tp8514
a(S'recycle'
p8515
I1
tp8516
a(S'red'
p8517
I1
tp8518
a(S'redicuiou'
p8519
I1
tp8520
a(S'redicuiouthe'
p8521
I1
tp8522
a(S'reduce'
p8523
I1
tp8524
a(S'reek'
p8525
I1
tp8526
a(S'refering'
p8527
I1
tp8528
a(S'refilling'
p8529
I1
tp8530
a(S'reflected'
p8531
I1
tp8532
a(S'refreashed'
p8533
I1
tp8534
a(S'refreashing'
p8535
I1
tp8536
a(S'refresh'
p8537
I1
tp8538
a(S'refreshe'
p8539
I1
tp8540
a(S'refudge'
p8541
I1
tp8542
a(S'refuel'
p8543
I1
tp8544
a(S'refueled'
p8545
I1
tp8546
a(S'refuse'
p8547
I1
tp8548
a(S'refused'
p8549
I1
tp8550
a(S'reganed'
p8551
I1
tp8552
a(S'regretted'
p8553
I1
tp8554
a(S'reguarly'
p8555
I1
tp8556
a(S'regular'
p8557
I1
tp8558
a(S'regularly,\x94'
p8559
I1
tp8560
a(S'regularly.\x94'
p8561
I1
tp8562
a(S'regularlyand'
p8563
I1
tp8564
a(S'regularly\x93'
p8565
I1
tp8566
a(S'regulary'
p8567
I1
tp8568
a(S'rehydrate'
p8569
I1
tp8570
a(S'rehydrate.at'
p8571
I1
tp8572
a(S'rehydrated'
p8573
I1
tp8574
a(S'reining'
p8575
I1
tp8576
a(S'relaxation'
p8577
I1
tp8578
a(S'relaxe'
p8579
I1
tp8580
a(S'release'
p8581
I1
tp8582
a(S'releaxed'
p8583
I1
tp8584
a(S'relie'
p8585
I1
tp8586
a(S'relief.in'
p8587
I1
tp8588
a(S'reliefed'
p8589
I1
tp8590
a(S'relif'
p8591
I1
tp8592
a(S'relifed'
p8593
I1
tp8594
a(S'relise'
p8595
I1
tp8596
a(S'relization'
p8597
I1
tp8598
a(S'relize'
p8599
I1
tp8600
a(S'reloaded'
p8601
I1
tp8602
a(S'relouded'
p8603
I1
tp8604
a(S'rely'
p8605
I1
tp8606
a(S'relylittic'
p8607
I1
tp8608
a(S'remained'
p8609
I1
tp8610
a(S'remembered'
p8611
I1
tp8612
a(S'remined'
p8613
I1
tp8614
a(S'remotne'
p8615
I1
tp8616
a(S'renew'
p8617
I1
tp8618
a(S'renewed'
p8619
I1
tp8620
a(S'repalced'
p8621
I1
tp8622
a(S'repeatedly'
p8623
I1
tp8624
a(S'replace'
p8625
I1
tp8626
a(S'replenishing'
p8627
I1
tp8628
a(S'replerilshed'
p8629
I1
tp8630
a(S'requested'
p8631
I1
tp8632
a(S'require'
p8633
I1
tp8634
a(S'resemble'
p8635
I1
tp8636
a(S'resembled'
p8637
I1
tp8638
a(S'resentment'
p8639
I1
tp8640
a(S'reserveir'
p8641
I1
tp8642
a(S'resevoir'
p8643
I1
tp8644
a(S'resigned'
p8645
I1
tp8646
a(S'resolution'
p8647
I1
tp8648
a(S'resort'
p8649
I1
tp8650
a(S'responese'
p8651
I1
tp8652
a(S'restaurant'
p8653
I1
tp8654
a(S'restocked'
p8655
I1
tp8656
a(S'restored'
p8657
I1
tp8658
a(S'restroom'
p8659
I1
tp8660
a(S'result'
p8661
I1
tp8662
a(S'resulted'
p8663
I1
tp8664
a(S'retain'
p8665
I1
tp8666
a(S'retarded'
p8667
I1
tp8668
a(S'retention'
p8669
I1
tp8670
a(S'rethink'
p8671
I1
tp8672
a(S'return'
p8673
I1
tp8674
a(S'returned.the'
p8675
I1
tp8676
a(S'reward'
p8677
I1
tp8678
a(S'rewarded'
p8679
I1
tp8680
a(S'rework'
p8681
I1
tp8682
a(S'rickety'
p8683
I1
tp8684
a(S'ride.every'
p8685
I1
tp8686
a(S'ride.\x93do'
p8687
I1
tp8688
a(S'ride;'
p8689
I1
tp8690
a(S'rideeasy'
p8691
I1
tp8692
a(S'rider\x92'
p8693
I1
tp8694
a(S'rides.different'
p8695
I1
tp8696
a(S'rideto'
p8697
I1
tp8698
a(S'ridicuosly'
p8699
I1
tp8700
a(S'ridicuously'
p8701
I1
tp8702
a(S'ridin'
p8703
I1
tp8704
a(S'riding,\x94'
p8705
I1
tp8706
a(S'ridy'
p8707
I1
tp8708
a(S'right,but'
p8709
I1
tp8710
a(S'right,had'
p8711
I1
tp8712
a(S'rightthe'
p8713
I1
tp8714
a(S'rigorou'
p8715
I1
tp8716
a(S'riht'
p8717
I1
tp8718
a(S'rippling'
p8719
I1
tp8720
a(S'rising'
p8721
I1
tp8722
a(S'risking'
p8723
I1
tp8724
a(S'risky'
p8725
I1
tp8726
a(S'risle'
p8727
I1
tp8728
a(S'rivers\x94...he'
p8729
I1
tp8730
a(S'road.during'
p8731
I1
tp8732
a(S'road.heat'
p8733
I1
tp8734
a(S'road.when'
p8735
I1
tp8736
a(S'road:do'
p8737
I1
tp8738
a(S'road;'
p8739
I1
tp8740
a(S'roads'
p8741
I1
tp8742
a(S'roads.the'
p8743
I1
tp8744
a(S'roads.thi'
p8745
I1
tp8746
a(S'roadwa'
p8747
I1
tp8748
a(S'road\x92'
p8749
I1
tp8750
a(S'roling'
p8751
I1
tp8752
a(S'rollar'
p8753
I1
tp8754
a(S'romd'
p8755
I1
tp8756
a(S'rond'
p8757
I1
tp8758
a(S'rood'
p8759
I1
tp8760
a(S'rope'
p8761
I1
tp8762
a(S'rote'
p8763
I1
tp8764
a(S'roud'
p8765
I1
tp8766
a(S'rougher.at'
p8767
I1
tp8768
a(S'rought'
p8769
I1
tp8770
a(S'rounded'
p8771
I1
tp8772
a(S'rout'
p8773
I1
tp8774
a(S'row'
p8775
I1
tp8776
a(S'ruffin'
p8777
I1
tp8778
a(S'rum'
p8779
I1
tp8780
a(S'rumshackle'
p8781
I1
tp8782
a(S'run-down'
p8783
I1
tp8784
a(S'run.the'
p8785
I1
tp8786
a(S'runningout'
p8787
I1
tp8788
a(S'rush'
p8789
I1
tp8790
a(S'rusty-bumpy'
p8791
I1
tp8792
a(S'sadist'
p8793
I1
tp8794
a(S'sadistic'
p8795
I1
tp8796
a(S'sadly'
p8797
I1
tp8798
a(S'safe.the'
p8799
I1
tp8800
a(S'safty'
p8801
I1
tp8802
a(S"said''"
p8803
I1
tp8804
a(S'said.he'
p8805
I1
tp8806
a(S'said.in'
p8807
I1
tp8808
a(S'saids.the'
p8809
I1
tp8810
a(S'said\x94'
p8811
I1
tp8812
a(S'sailing'
p8813
I1
tp8814
a(S'sald'
p8815
I1
tp8816
a(S'salt'
p8817
I1
tp8818
a(S'salvation'
p8819
I1
tp8820
a(S'sammertime'
p8821
I1
tp8822
a(S'sane'
p8823
I1
tp8824
a(S'sanity'
p8825
I1
tp8826
a(S'sank'
p8827
I1
tp8828
a(S'sarive.the'
p8829
I1
tp8830
a(S'satiricle'
p8831
I1
tp8832
a(S'satisfaction'
p8833
I1
tp8834
a(S'satisfy'
p8835
I1
tp8836
a(S'satisfying'
p8837
I1
tp8838
a(S'saved.some'
p8839
I1
tp8840
a(S'saving'
p8841
I1
tp8842
a(S'savior!'
p8843
I1
tp8844
a(S'sawe'
p8845
I1
tp8846
a(S'sayin'
p8847
I1
tp8848
a(S'says'
p8849
I1
tp8850
a(S'says,"somewhere'
p8851
I1
tp8852
a(S'says,\x93it'
p8853
I1
tp8854
a(S'says,\x94'
p8855
I1
tp8856
a(S'says,\x94in'
p8857
I1
tp8858
a(S'says.\x93the'
p8859
I1
tp8860
a(S'says.\x94'
p8861
I1
tp8862
a(S'saysown'
p8863
I1
tp8864
a(S'scarce'
p8865
I1
tp8866
a(S'scarcity'
p8867
I1
tp8868
a(S'scery'
p8869
I1
tp8870
a(S'school\x92'
p8871
I1
tp8872
a(S'scketle'
p8873
I1
tp8874
a(S'scorcing'
p8875
I1
tp8876
a(S'scorging'
p8877
I1
tp8878
a(S'scortching'
p8879
I1
tp8880
a(S'screw'
p8881
I1
tp8882
a(S'scroaching'
p8883
I1
tp8884
a(S'se'
p8885
I1
tp8886
a(S'seal'
p8887
I1
tp8888
a(S'searched'
p8889
I1
tp8890
a(S'seclusion'
p8891
I1
tp8892
a(S'secont'
p8893
I1
tp8894
a(S'secured'
p8895
I1
tp8896
a(S'security'
p8897
I1
tp8898
a(S'sedring'
p8899
I1
tp8900
a(S'seeming'
p8901
I1
tp8902
a(S'seen.\x94'
p8903
I1
tp8904
a(S'seen\x94'
p8905
I1
tp8906
a(S'sees'
p8907
I1
tp8908
a(S'selection'
p8909
I1
tp8910
a(S'self,\x94'
p8911
I1
tp8912
a(S'self-'
p8913
I1
tp8914
a(S'self-control'
p8915
I1
tp8916
a(S'self.the'
p8917
I1
tp8918
a(S'self\x96determination'
p8919
I1
tp8920
a(S'selling'
p8921
I1
tp8922
a(S'semi'
p8923
I1
tp8924
a(S'send'
p8925
I1
tp8926
a(S'sending'
p8927
I1
tp8928
a(S'senerie'
p8929
I1
tp8930
a(S'senery'
p8931
I1
tp8932
a(S'sensation'
p8933
I1
tp8934
a(S'seranety'
p8935
I1
tp8936
a(S'serene'
p8937
I1
tp8938
a(S'serre'
p8939
I1
tp8940
a(S'service'
p8941
I1
tp8942
a(S'setent'
p8943
I1
tp8944
a(S'seting'
p8945
I1
tp8946
a(S'setling'
p8947
I1
tp8948
a(S'settin'
p8949
I1
tp8950
a(S"setting'"
p8951
I1
tp8952
a(S'setting,and'
p8953
I1
tp8954
a(S'setting-related'
p8955
I1
tp8956
a(S'setting.because'
p8957
I1
tp8958
a(S'setting.everything'
p8959
I1
tp8960
a(S'setting.heat'
p8961
I1
tp8962
a(S'setting.i'
p8963
I1
tp8964
a(S'settings.the'
p8965
I1
tp8966
a(S'settingshe'
p8967
I1
tp8968
a(S'settingthe'
p8969
I1
tp8970
a(S'settlement'
p8971
I1
tp8972
a(S'settnig'
p8973
I1
tp8974
a(S'severall'
p8975
I1
tp8976
a(S'severe'
p8977
I1
tp8978
a(S'severely'
p8979
I1
tp8980
a(S'severly'
p8981
I1
tp8982
a(S'sffect'
p8983
I1
tp8984
a(S'shackle'
p8985
I1
tp8986
a(S'shackled'
p8987
I1
tp8988
a(S'shade-all'
p8989
I1
tp8990
a(S'shady'
p8991
I1
tp8992
a(S'shake,\x94'
p8993
I1
tp8994
a(S'shake.\x94'
p8995
I1
tp8996
a(S'shape.the'
p8997
I1
tp8998
a(S'shaped'
p8999
I1
tp9000
a(S'shard'
p9001
I1
tp9002
a(S'she/he'
p9003
I1
tp9004
a(S'shed...\x94'
p9005
I1
tp9006
a(S'shed.\x94'
p9007
I1
tp9008
a(S'shed.\x94@caps1'
p9009
I1
tp9010
a(S'shed[s]'
p9011
I1
tp9012
a(S'shed\x92'
p9013
I1
tp9014
a(S'shed\x94'
p9015
I1
tp9016
a(S'shep'
p9017
I1
tp9018
a(S'shile'
p9019
I1
tp9020
a(S'shining'
p9021
I1
tp9022
a(S'shirt,\x94'
p9023
I1
tp9024
a(S'shirt."the'
p9025
I1
tp9026
a(S'shirt.\x94there'
p9027
I1
tp9028
a(S'shocking'
p9029
I1
tp9030
a(S'shoe'
p9031
I1
tp9032
a(S'shold'
p9033
I1
tp9034
a(S'shoot'
p9035
I1
tp9036
a(S'shopped'
p9037
I1
tp9038
a(S'shore'
p9039
I1
tp9040
a(S'shortcut\x94'
p9041
I1
tp9042
a(S'shot'
p9043
I1
tp9044
a(S'shoud'
p9045
I1
tp9046
a(S'shoutcut'
p9047
I1
tp9048
a(S'shuold'
p9049
I1
tp9050
a(S'sicoc'
p9051
I1
tp9052
a(S'side-over'
p9053
I1
tp9054
a(S'side.the'
p9055
I1
tp9056
a(S'siga'
p9057
I1
tp9058
a(S'sight.the'
p9059
I1
tp9060
a(S'sight.\x94'
p9061
I1
tp9062
a(S'sights\x94'
p9063
I1
tp9064
a(S'sign.the'
p9065
I1
tp9066
a(S'significance'
p9067
I1
tp9068
a(S'significant'
p9069
I1
tp9070
a(S'significantly'
p9071
I1
tp9072
a(S'signifigant'
p9073
I1
tp9074
a(S'siked'
p9075
I1
tp9076
a(S'silly'
p9077
I1
tp9078
a(S'simplist'
p9079
I1
tp9080
a(S'sin'
p9081
I1
tp9082
a(S'sine'
p9083
I1
tp9084
a(S'sing'
p9085
I1
tp9086
a(S'singn'
p9087
I1
tp9088
a(S'sink.in'
p9089
I1
tp9090
a(S'sink;'
p9091
I1
tp9092
a(S'sink\x94'
p9093
I1
tp9094
a(S'sinle.\x94'
p9095
I1
tp9096
a(S'sips,\x94'
p9097
I1
tp9098
a(S'sir'
p9099
I1
tp9100
a(S'sit'
p9101
I1
tp9102
a(S'situation.the'
p9103
I1
tp9104
a(S'sixty'
p9105
I1
tp9106
a(S'size'
p9107
I1
tp9108
a(S'skilled'
p9109
I1
tp9110
a(S'skilt'
p9111
I1
tp9112
a(S'skirt'
p9113
I1
tp9114
a(S'skrewed'
p9115
I1
tp9116
a(S'slept'
p9117
I1
tp9118
a(S'slic'
p9119
I1
tp9120
a(S'slight'
p9121
I1
tp9122
a(S'slope'
p9123
I1
tp9124
a(S'slowe'
p9125
I1
tp9126
a(S'sludge'
p9127
I1
tp9128
a(S'sluggish'
p9129
I1
tp9130
a(S'slumped'
p9131
I1
tp9132
a(S'smile.\x94'
p9133
I1
tp9134
a(S'smile\x94'
p9135
I1
tp9136
a(S'smile\x94according'
p9137
I1
tp9138
a(S'smiling'
p9139
I1
tp9140
a(S'smoggy'
p9141
I1
tp9142
a(S'smoky'
p9143
I1
tp9144
a(S'smoot'
p9145
I1
tp9146
a(S'smothne'
p9147
I1
tp9148
a(S'snack'
p9149
I1
tp9150
a(S'snak'
p9151
I1
tp9152
a(S'snake,\x94'
p9153
I1
tp9154
a(S'snake-it'
p9155
I1
tp9156
a(S"snake.''"
p9157
I1
tp9158
a(S'snakes,and'
p9159
I1
tp9160
a(S'snakes.it'
p9161
I1
tp9162
a(S'snakes\x94'
p9163
I1
tp9164
a(S'sneak'
p9165
I1
tp9166
a(S'snowing'
p9167
I1
tp9168
a(S'so-'
p9169
I1
tp9170
a(S'so-called'
p9171
I1
tp9172
a(S'so.in'
p9173
I1
tp9174
a(S'soaking'
p9175
I1
tp9176
a(S'soccer'
p9177
I1
tp9178
a(S'soda'
p9179
I1
tp9180
a(S'soil'
p9181
I1
tp9182
a(S'sold'
p9183
I1
tp9184
a(S'solid'
p9185
I1
tp9186
a(S'soluation'
p9187
I1
tp9188
a(S'solution.the'
p9189
I1
tp9190
a(S'solve'
p9191
I1
tp9192
a(S'somehow'
p9193
I1
tp9194
a(S'somelane'
p9195
I1
tp9196
a(S'someone.many'
p9197
I1
tp9198
a(S'somewahat'
p9199
I1
tp9200
a(S'somewhat'
p9201
I1
tp9202
a(S'son'
p9203
I1
tp9204
a(S'song'
p9205
I1
tp9206
a(S'sooooooooooooo'
p9207
I1
tp9208
a(S'soothing'
p9209
I1
tp9210
a(S'sopped'
p9211
I1
tp9212
a(S'sopping'
p9213
I1
tp9214
a(S'sorching'
p9215
I1
tp9216
a(S'sorr'
p9217
I1
tp9218
a(S'sorts\x94'
p9219
I1
tp9220
a(S'souding'
p9221
I1
tp9222
a(S'sounding'
p9223
I1
tp9224
a(S'sour'
p9225
I1
tp9226
a(S'source.\x94the'
p9227
I1
tp9228
a(S'souther'
p9229
I1
tp9230
a(S'sow'
p9231
I1
tp9232
a(S'spare'
p9233
I1
tp9234
a(S'spark'
p9235
I1
tp9236
a(S'spasked'
p9237
I1
tp9238
a(S'speak'
p9239
I1
tp9240
a(S'specific'
p9241
I1
tp9242
a(S'spectaculiar'
p9243
I1
tp9244
a(S'sped'
p9245
I1
tp9246
a(S'spedd'
p9247
I1
tp9248
a(S'speed.\x94'
p9249
I1
tp9250
a(S'speeed'
p9251
I1
tp9252
a(S'spell'
p9253
I1
tp9254
a(S'spent'
p9255
I1
tp9256
a(S'spirit"(@num1)'
p9257
I1
tp9258
a(S'spirit.\x94'
p9259
I1
tp9260
a(S'spirit\x94'
p9261
I1
tp9262
a(S'spoiled'
p9263
I1
tp9264
a(S'spotted'
p9265
I1
tp9266
a(S'spring'
p9267
I1
tp9268
a(S'sreach'
p9269
I1
tp9270
a(S'sructure'
p9271
I1
tp9272
a(S'stable'
p9273
I1
tp9274
a(S'stack'
p9275
I1
tp9276
a(S'staggered'
p9277
I1
tp9278
a(S'stamena'
p9279
I1
tp9280
a(S'stamina'
p9281
I1
tp9282
a(S'standing'
p9283
I1
tp9284
a(S'starter'
p9285
I1
tp9286
a(S'starving'
p9287
I1
tp9288
a(S'stat'
p9289
I1
tp9290
a(S'state.in'
p9291
I1
tp9292
a(S'state.the'
p9293
I1
tp9294
a(S'stated,\x94'
p9295
I1
tp9296
a(S'states,"water'
p9297
I1
tp9298
a(S'states,the'
p9299
I1
tp9300
a(S'states,\x93the'
p9301
I1
tp9302
a(S'state\x94(@caps1'
p9303
I1
tp9304
a(S'stating'
p9305
I1
tp9306
a(S'station'
p9307
I1
tp9308
a(S'staying'
p9309
I1
tp9310
a(S'staying.rough'
p9311
I1
tp9312
a(S'steal'
p9313
I1
tp9314
a(S'steepne'
p9315
I1
tp9316
a(S'steryotypically'
p9317
I1
tp9318
a(S'stey'
p9319
I1
tp9320
a(S'sticky'
p9321
I1
tp9322
a(S'stirved'
p9323
I1
tp9324
a(S'stll'
p9325
I1
tp9326
a(S'stoff'
p9327
I1
tp9328
a(S'stopat'
p9329
I1
tp9330
a(S'stoping'
p9331
I1
tp9332
a(S'stopping'
p9333
I1
tp9334
a(S'stop\x92'
p9335
I1
tp9336
a(S'storie'
p9337
I1
tp9338
a(S'stories.the'
p9339
I1
tp9340
a(S'story"do'
p9341
I1
tp9342
a(S'story,\x94'
p9343
I1
tp9344
a(S'story.i'
p9345
I1
tp9346
a(S'story.setting'
p9347
I1
tp9348
a(S'story;'
p9349
I1
tp9350
a(S'storythe'
p9351
I1
tp9352
a(S'stoy'
p9353
I1
tp9354
a(S'strained'
p9355
I1
tp9356
a(S'strainful'
p9357
I1
tp9358
a(S'strand'
p9359
I1
tp9360
a(S'strange'
p9361
I1
tp9362
a(S'strangers.\x94'
p9363
I1
tp9364
a(S'straw'
p9365
I1
tp9366
a(S'streaming'
p9367
I1
tp9368
a(S'strech'
p9369
I1
tp9370
a(S'streetsign'
p9371
I1
tp9372
a(S'stregth'
p9373
I1
tp9374
a(S'strenght'
p9375
I1
tp9376
a(S'strength.the'
p9377
I1
tp9378
a(S'strength.\x94'
p9379
I1
tp9380
a(S'strength\x94'
p9381
I1
tp9382
a(S'stress.the'
p9383
I1
tp9384
a(S'stressed'
p9385
I1
tp9386
a(S'stressing'
p9387
I1
tp9388
a(S'strest'
p9389
I1
tp9390
a(S'stretche'
p9391
I1
tp9392
a(S'stricken'
p9393
I1
tp9394
a(S'strike'
p9395
I1
tp9396
a(S'strock'
p9397
I1
tp9398
a(S'stroke...laugh.\x94'
p9399
I1
tp9400
a(S'stroke.\x94the'
p9401
I1
tp9402
a(S'stroke\x94'
p9403
I1
tp9404
a(S'strong.in'
p9405
I1
tp9406
a(S'stronger.the'
p9407
I1
tp9408
a(S'strote'
p9409
I1
tp9410
a(S'strraing'
p9411
I1
tp9412
a(S'struggle.in'
p9413
I1
tp9414
a(S'stumbel'
p9415
I1
tp9416
a(S'stupid'
p9417
I1
tp9418
a(S'sub'
p9419
I1
tp9420
a(S'subburb'
p9421
I1
tp9422
a(S'subconsciously'
p9423
I1
tp9424
a(S'subject'
p9425
I1
tp9426
a(S'substain'
p9427
I1
tp9428
a(S'substantitially'
p9429
I1
tp9430
a(S'succeeded'
p9431
I1
tp9432
a(S'succeeding'
p9433
I1
tp9434
a(S'success.the'
p9435
I1
tp9436
a(S'successful'
p9437
I1
tp9438
a(S'suceeded'
p9439
I1
tp9440
a(S'suckenc-stone'
p9441
I1
tp9442
a(S'sudden'
p9443
I1
tp9444
a(S'suddenly'
p9445
I1
tp9446
a(S'suffering'
p9447
I1
tp9448
a(S'suggesting'
p9449
I1
tp9450
a(S'summary'
p9451
I1
tp9452
a(S'summer-'
p9453
I1
tp9454
a(S'summertime'
p9455
I1
tp9456
a(S'sun.in'
p9457
I1
tp9458
a(S'sunburn'
p9459
I1
tp9460
a(S'sunset'
p9461
I1
tp9462
a(S'sun\x94'
p9463
I1
tp9464
a(S'suposely'
p9465
I1
tp9466
a(S'supple'
p9467
I1
tp9468
a(S'supposedly'
p9469
I1
tp9470
a(S'surged'
p9471
I1
tp9472
a(S'surprised'
p9473
I1
tp9474
a(S'surranding'
p9475
I1
tp9476
a(S'surrouding'
p9477
I1
tp9478
a(S'surround'
p9479
I1
tp9480
a(S'survival.the'
p9481
I1
tp9482
a(S'surviving.the'
p9483
I1
tp9484
a(S'survivor'
p9485
I1
tp9486
a(S'suspect'
p9487
I1
tp9488
a(S'swallowed'
p9489
I1
tp9490
a(S'swallowing'
p9491
I1
tp9492
a(S'swampland'
p9493
I1
tp9494
a(S'swear'
p9495
I1
tp9496
a(S'sweety'
p9497
I1
tp9498
a(S'sweltering'
p9499
I1
tp9500
a(S'swore'
p9501
I1
tp9502
a(S'swreating'
p9503
I1
tp9504
a(S'symptom'
p9505
I1
tp9506
a(S'tainted'
p9507
I1
tp9508
a(S'talk\x92'
p9509
I1
tp9510
a(S'tambleweed'
p9511
I1
tp9512
a(S'tamest'
p9513
I1
tp9514
a(S'tantalize'
p9515
I1
tp9516
a(S'tantallizg'
p9517
I1
tp9518
a(S'tantallizing'
p9519
I1
tp9520
a(S'tantilizing'
p9521
I1
tp9522
a(S'tap'
p9523
I1
tp9524
a(S'target'
p9525
I1
tp9526
a(S'tarren'
p9527
I1
tp9528
a(S'taunt'
p9529
I1
tp9530
a(S'taunting'
p9531
I1
tp9532
a(S'tay'
p9533
I1
tp9534
a(S'teach'
p9535
I1
tp9536
a(S'tean'
p9537
I1
tp9538
a(S'tear'
p9539
I1
tp9540
a(S'tease'
p9541
I1
tp9542
a(S'technology'
p9543
I1
tp9544
a(S'teenager'
p9545
I1
tp9546
a(S'temperature.in'
p9547
I1
tp9548
a(S'tempeter'
p9549
I1
tp9550
a(S'tempt'
p9551
I1
tp9552
a(S'tempted'
p9553
I1
tp9554
a(S'tempting'
p9555
I1
tp9556
a(S'tempture'
p9557
I1
tp9558
a(S'tempure'
p9559
I1
tp9560
a(S'tend'
p9561
I1
tp9562
a(S'tender'
p9563
I1
tp9564
a(S'tensely'
p9565
I1
tp9566
a(S'tents'
p9567
I1
tp9568
a(S'terair'
p9569
I1
tp9570
a(S'term'
p9571
I1
tp9572
a(S'terrail'
p9573
I1
tp9574
a(S'terrain.excitement'
p9575
I1
tp9576
a(S'terrain.the'
p9577
I1
tp9578
a(S'terraine'
p9579
I1
tp9580
a(S'terran'
p9581
I1
tp9582
a(S'terrian'
p9583
I1
tp9584
a(S'terrible'
p9585
I1
tp9586
a(S'terrified'
p9587
I1
tp9588
a(S'text"i'
p9589
I1
tp9590
a(S'th'
p9591
I1
tp9592
a(S'thank'
p9593
I1
tp9594
a(S'thanked'
p9595
I1
tp9596
a(S'thankful.the'
p9597
I1
tp9598
a(S'that!\x94'
p9599
I1
tp9600
a(S'that.in'
p9601
I1
tp9602
a(S'thathe'
p9603
I1
tp9604
a(S'thatin'
p9605
I1
tp9606
a(S"the'"
p9607
I1
tp9608
a(S'the???'
p9609
I1
tp9610
a(S'theer'
p9611
I1
tp9612
a(S'theirjudgement'
p9613
I1
tp9614
a(S'them,\x94'
p9615
I1
tp9616
a(S'themselve'
p9617
I1
tp9618
a(S'then..leave'
p9619
I1
tp9620
a(S'there!'
p9621
I1
tp9622
a(S'there.in'
p9623
I1
tp9624
a(S'there?\x94'
p9625
I1
tp9626
a(S'thereafter'
p9627
I1
tp9628
a(S'therefour'
p9629
I1
tp9630
a(S'therewhen'
p9631
I1
tp9632
a(S'there\x92d'
p9633
I1
tp9634
a(S'thermia'
p9635
I1
tp9636
a(S'thesetting'
p9637
I1
tp9638
a(S"they're"
p9639
I1
tp9640
a(S'theyre'
p9641
I1
tp9642
a(S'they\x92d'
p9643
I1
tp9644
a(S'they\x92ll'
p9645
I1
tp9646
a(S'thickest'
p9647
I1
tp9648
a(S'thined'
p9649
I1
tp9650
a(S'thing.in'
p9651
I1
tp9652
a(S'things'
p9653
I1
tp9654
a(S'things.the'
p9655
I1
tp9656
a(S'thinning'
p9657
I1
tp9658
a(S'thirdly'
p9659
I1
tp9660
a(S'thirst,\x94'
p9661
I1
tp9662
a(S'thirst.\x94'
p9663
I1
tp9664
a(S'thirstie'
p9665
I1
tp9666
a(S'thirstier.the'
p9667
I1
tp9668
a(S'thirsty,and'
p9669
I1
tp9670
a(S'thirsty.in'
p9671
I1
tp9672
a(S'thirsty;'
p9673
I1
tp9674
a(S'thirst\x94'
p9675
I1
tp9676
a(S'thirteen'
p9677
I1
tp9678
a(S'thirtier'
p9679
I1
tp9680
a(S'thirty'
p9681
I1
tp9682
a(S'thisa'
p9683
I1
tp9684
a(S'thiving'
p9685
I1
tp9686
a(S'thot'
p9687
I1
tp9688
a(S'thoug'
p9689
I1
tp9690
a(S'though.the'
p9691
I1
tp9692
a(S'thought.the'
p9693
I1
tp9694
a(S'thoughts'
p9695
I1
tp9696
a(S'thout'
p9697
I1
tp9698
a(S'thr'
p9699
I1
tp9700
a(S'thre'
p9701
I1
tp9702
a(S'threatened'
p9703
I1
tp9704
a(S'threating'
p9705
I1
tp9706
a(S'thribiy'
p9707
I1
tp9708
a(S'thrister'
p9709
I1
tp9710
a(S'thristy'
p9711
I1
tp9712
a(S'thrist\x94'
p9713
I1
tp9714
a(S'throat\x94(@num1).the'
p9715
I1
tp9716
a(S'through-out'
p9717
I1
tp9718
a(S'through.one'
p9719
I1
tp9720
a(S'through;'
p9721
I1
tp9722
a(S'throw'
p9723
I1
tp9724
a(S'thrown'
p9725
I1
tp9726
a(S'thug'
p9727
I1
tp9728
a(S'ticed'
p9729
I1
tp9730
a(S'tiering'
p9731
I1
tp9732
a(S'til'
p9733
I1
tp9734
a(S'tilling'
p9735
I1
tp9736
a(S'time-sat'
p9737
I1
tp9738
a(S'time.since'
p9739
I1
tp9740
a(S'time.\x94'
p9741
I1
tp9742
a(S'time;'
p9743
I1
tp9744
a(S'timein'
p9745
I1
tp9746
a(S'times.they'
p9747
I1
tp9748
a(S'time\x92'
p9749
I1
tp9750
a(S'timid'
p9751
I1
tp9752
a(S'tine'
p9753
I1
tp9754
a(S'tined'
p9755
I1
tp9756
a(S'tired,the'
p9757
I1
tp9758
a(S'tiredin'
p9759
I1
tp9760
a(S'tiresa'
p9761
I1
tp9762
a(S'tiresome'
p9763
I1
tp9764
a(S'titled'
p9765
I1
tp9766
a(S'tiv'
p9767
I1
tp9768
a(S'ti\x92'
p9769
I1
tp9770
a(S'to!'
p9771
I1
tp9772
a(S'to,hi'
p9773
I1
tp9774
a(S'to.the'
p9775
I1
tp9776
a(S'to;to'
p9777
I1
tp9778
a(S'tock'
p9779
I1
tp9780
a(S'today'
p9781
I1
tp9782
a(S'todi'
p9783
I1
tp9784
a(S'toil'
p9785
I1
tp9786
a(S'toiledon\x94'
p9787
I1
tp9788
a(S'toke'
p9789
I1
tp9790
a(S'tole'
p9791
I1
tp9792
a(S'tollon'
p9793
I1
tp9794
a(S'tontalizing'
p9795
I1
tp9796
a(S'topof'
p9797
I1
tp9798
a(S'tormenting'
p9799
I1
tp9800
a(S'torturou'
p9801
I1
tp9802
a(S'toslice'
p9803
I1
tp9804
a(S'tostick'
p9805
I1
tp9806
a(S'tot'
p9807
I1
tp9808
a(S'total'
p9809
I1
tp9810
a(S'totally'
p9811
I1
tp9812
a(S'totalt'
p9813
I1
tp9814
a(S'totaly'
p9815
I1
tp9816
a(S'tothe'
p9817
I1
tp9818
a(S'totzy'
p9819
I1
tp9820
a(S'touch'
p9821
I1
tp9822
a(S'touenting'
p9823
I1
tp9824
a(S'tough.the'
p9825
I1
tp9826
a(S'toughest'
p9827
I1
tp9828
a(S'tought'
p9829
I1
tp9830
a(S'touring'
p9831
I1
tp9832
a(S'tourtement'
p9833
I1
tp9834
a(S'town"and'
p9835
I1
tp9836
a(S"town'"
p9837
I1
tp9838
a(S"town''...it"
p9839
I1
tp9840
a(S'town,\x94'
p9841
I1
tp9842
a(S"town.''thi"
p9843
I1
tp9844
a(S'town.on'
p9845
I1
tp9846
a(S'town.the'
p9847
I1
tp9848
a(S'town.\x94an'
p9849
I1
tp9850
a(S'townin'
p9851
I1
tp9852
a(S'townno'
p9853
I1
tp9854
a(S'town\x94.the'
p9855
I1
tp9856
a(S'toxic'
p9857
I1
tp9858
a(S'tp'
p9859
I1
tp9860
a(S'tradition'
p9861
I1
tp9862
a(S'traffic'
p9863
I1
tp9864
a(S'train'
p9865
I1
tp9866
a(S'trait'
p9867
I1
tp9868
a(S'tramatizing'
p9869
I1
tp9870
a(S'transportation'
p9871
I1
tp9872
a(S'trapped'
p9873
I1
tp9874
a(S'trash'
p9875
I1
tp9876
a(S'trational'
p9877
I1
tp9878
a(S'trave'
p9879
I1
tp9880
a(S'traveller'
p9881
I1
tp9882
a(S'travels,"i'
p9883
I1
tp9884
a(S'travelthe'
p9885
I1
tp9886
a(S'traver'
p9887
I1
tp9888
a(S'travled'
p9889
I1
tp9890
a(S'treachorou'
p9891
I1
tp9892
a(S'treain'
p9893
I1
tp9894
a(S'treck'
p9895
I1
tp9896
a(S'trek'
p9897
I1
tp9898
a(S'tremendously.the'
p9899
I1
tp9900
a(S'trial'
p9901
I1
tp9902
a(S'trick.the'
p9903
I1
tp9904
a(S'triggered'
p9905
I1
tp9906
a(S'trouble.hot'
p9907
I1
tp9908
a(S'troubleing,\x94'
p9909
I1
tp9910
a(S'troubling...\x94'
p9911
I1
tp9912
a(S'troubling.\x94he'
p9913
I1
tp9914
a(S'trough'
p9915
I1
tp9916
a(S'trowoling\x94'
p9917
I1
tp9918
a(S'truck'
p9919
I1
tp9920
a(S'trudge'
p9921
I1
tp9922
a(S'trustworthy'
p9923
I1
tp9924
a(S'trusty'
p9925
I1
tp9926
a(S'trying,\x94'
p9927
I1
tp9928
a(S'trying.the'
p9929
I1
tp9930
a(S'try\x92'
p9931
I1
tp9932
a(S'tumberweed'
p9933
I1
tp9934
a(S'tumbleweeds\x94'
p9935
I1
tp9936
a(S'twist.\x94in'
p9937
I1
tp9938
a(S'two-hundred'
p9939
I1
tp9940
a(S'tying'
p9941
I1
tp9942
a(S'tyring'
p9943
I1
tp9944
a(S'ugly'
p9945
I1
tp9946
a(S'ulcoming'
p9947
I1
tp9948
a(S'ultimate'
p9949
I1
tp9950
a(S'un'
p9951
I1
tp9952
a(S'unable'
p9953
I1
tp9954
a(S'unaware'
p9955
I1
tp9956
a(S'unbearable.in'
p9957
I1
tp9958
a(S'unbelievable'
p9959
I1
tp9960
a(S'uncaring'
p9961
I1
tp9962
a(S'unclean'
p9963
I1
tp9964
a(S'uncocleible'
p9965
I1
tp9966
a(S'unconsciou'
p9967
I1
tp9968
a(S'undergoing'
p9969
I1
tp9970
a(S'understand'
p9971
I1
tp9972
a(S'undrinkable'
p9973
I1
tp9974
a(S'unease'
p9975
I1
tp9976
a(S'uneven'
p9977
I1
tp9978
a(S'unfamiliar'
p9979
I1
tp9980
a(S'unfocu'
p9981
I1
tp9982
a(S'unfortonatly'
p9983
I1
tp9984
a(S'unfortunately'
p9985
I1
tp9986
a(S'uninhabited'
p9987
I1
tp9988
a(S'unlike'
p9989
I1
tp9990
a(S'unmarked'
p9991
I1
tp9992
a(S'unmercifully'
p9993
I1
tp9994
a(S'unnerved'
p9995
I1
tp9996
a(S'unpleasant'
p9997
I1
tp9998
a(S'unpleasantly'
p9999
I1
tp10000
a(S'unreliable'
p10001
I1
tp10002
a(S'unsafe'
p10003
I1
tp10004
a(S'unstable'
p10005
I1
tp10006
a(S'unsteady'
p10007
I1
tp10008
a(S'unuseful'
p10009
I1
tp10010
a(S'unuseland'
p10011
I1
tp10012
a(S'up-hill'
p10013
I1
tp10014
a(S'upbeat'
p10015
I1
tp10016
a(S'upheat'
p10017
I1
tp10018
a(S'uplifting'
p10019
I1
tp10020
a(S'upthe'
p10021
I1
tp10022
a(S'urbanized'
p10023
I1
tp10024
a(S'urging'
p10025
I1
tp10026
a(S'useable.\x94'
p10027
I1
tp10028
a(S'useful'
p10029
I1
tp10030
a(S'usualier'
p10031
I1
tp10032
a(S'utterly'
p10033
I1
tp10034
a(S'v.'
p10035
I1
tp10036
a(S'vacation'
p10037
I1
tp10038
a(S'vacation.thi'
p10039
I1
tp10040
a(S'vague'
p10041
I1
tp10042
a(S'valuable'
p10043
I1
tp10044
a(S'variou'
p10045
I1
tp10046
a(S'vegetation'
p10047
I1
tp10048
a(S'velche'
p10049
I1
tp10050
a(S'venomou'
p10051
I1
tp10052
a(S'verry'
p10053
I1
tp10054
a(S'version'
p10055
I1
tp10056
a(S'victimized'
p10057
I1
tp10058
a(S'vie'
p10059
I1
tp10060
a(S'view!'
p10061
I1
tp10062
a(S'view.\x94'
p10063
I1
tp10064
a(S'viewing'
p10065
I1
tp10066
a(S'viewpoint'
p10067
I1
tp10068
a(S'views.\x94'
p10069
I1
tp10070
a(S'vigorou'
p10071
I1
tp10072
a(S'violent'
p10073
I1
tp10074
a(S'visited'
p10075
I1
tp10076
a(S'visual'
p10077
I1
tp10078
a(S'vivid'
p10079
I1
tp10080
a(S'vividly'
p10081
I1
tp10082
a(S'vocubulary'
p10083
I1
tp10084
a(S'volcanoe'
p10085
I1
tp10086
a(S'waa'
p10087
I1
tp10088
a(S'wading'
p10089
I1
tp10090
a(S'waiter'
p10091
I1
tp10092
a(S'waiting'
p10093
I1
tp10094
a(S'wake'
p10095
I1
tp10096
a(S'wald'
p10097
I1
tp10098
a(S'wall'
p10099
I1
tp10100
a(S'war-but'
p10101
I1
tp10102
a(S'ware'
p10103
I1
tp10104
a(S'warmer'
p10105
I1
tp10106
a(S'warming'
p10107
I1
tp10108
a(S'warmth'
p10109
I1
tp10110
a(S'wary'
p10111
I1
tp10112
a(S'war\x92'
p10113
I1
tp10114
a(S'was.a'
p10115
I1
tp10116
a(S'was.the'
p10117
I1
tp10118
a(S'was.well'
p10119
I1
tp10120
a(S'wasen\x92t'
p10121
I1
tp10122
a(S'wasn`t'
p10123
I1
tp10124
a(S'was\x94'
p10125
I1
tp10126
a(S'wat'
p10127
I1
tp10128
a(S'water,and'
p10129
I1
tp10130
a(S'water,\x93the'
p10131
I1
tp10132
a(S'water-deleting'
p10133
I1
tp10134
a(S'water."in'
p10135
I1
tp10136
a(S'water.a'
p10137
I1
tp10138
a(S'water.poor'
p10139
I1
tp10140
a(S'water.thi'
p10141
I1
tp10142
a(S'water.to'
p10143
I1
tp10144
a(S'water.\x94'
p10145
I1
tp10146
a(S'water;'
p10147
I1
tp10148
a(S'waterat'
p10149
I1
tp10150
a(S'waterbottle'
p10151
I1
tp10152
a(S'waterdepleting'
p10153
I1
tp10154
a(S'waterflow'
p10155
I1
tp10156
a(S'waveng'
p10157
I1
tp10158
a(S'way,which'
p10159
I1
tp10160
a(S'way.due'
p10161
I1
tp10162
a(S'way.it'
p10163
I1
tp10164
a(S'way;'
p10165
I1
tp10166
a(S'wayin'
p10167
I1
tp10168
a(S'ways.for'
p10169
I1
tp10170
a(S'ways.he'
p10171
I1
tp10172
a(S'ways.if'
p10173
I1
tp10174
a(S'ways.in'
p10175
I1
tp10176
a(S'waythere'
p10177
I1
tp10178
a(S'weakened'
p10179
I1
tp10180
a(S'weaker'
p10181
I1
tp10182
a(S'weakne'
p10183
I1
tp10184
a(S'wearing'
p10185
I1
tp10186
a(S'weatheri'
p10187
I1
tp10188
a(S'week'
p10189
I1
tp10190
a(S'weigh'
p10191
I1
tp10192
a(S'weird'
p10193
I1
tp10194
a(S'welch\x91'
p10195
I1
tp10196
a(S'welch\x92s'
p10197
I1
tp10198
a(S'welcoming'
p10199
I1
tp10200
a(S'well.knew'
p10201
I1
tp10202
a(S'well.\x94'
p10203
I1
tp10204
a(S'went.in'
p10205
I1
tp10206
a(S'wer'
p10207
I1
tp10208
a(S'were.it'
p10209
I1
tp10210
a(S'were.the'
p10211
I1
tp10212
a(S'werry'
p10213
I1
tp10214
a(S'wesstern'
p10215
I1
tp10216
a(S'west'
p10217
I1
tp10218
a(S'wet'
p10219
I1
tp10220
a(S'wether'
p10221
I1
tp10222
a(S'we\x92ve'
p10223
I1
tp10224
a(S'wheater'
p10225
I1
tp10226
a(S'wheel'
p10227
I1
tp10228
a(S'whelche'
p10229
I1
tp10230
a(S'whenever'
p10231
I1
tp10232
a(S'whetther'
p10233
I1
tp10234
a(S'while.the'
p10235
I1
tp10236
a(S'whinedy'
p10237
I1
tp10238
a(S'whipped'
p10239
I1
tp10240
a(S'white'
p10241
I1
tp10242
a(S'wicked'
p10243
I1
tp10244
a(S'wid'
p10245
I1
tp10246
a(S'wilbell'
p10247
I1
tp10248
a(S"wilber'"
p10249
I1
tp10250
a(S"wilber's"
p10251
I1
tp10252
a(S'will-power'
p10253
I1
tp10254
a(S'will.the'
p10255
I1
tp10256
a(S'willed'
p10257
I1
tp10258
a(S'win.the'
p10259
I1
tp10260
a(S'winday'
p10261
I1
tp10262
a(S'winded'
p10263
I1
tp10264
a(S'wind\x92'
p10265
I1
tp10266
a(S'winston'
p10267
I1
tp10268
a(S'wiping'
p10269
I1
tp10270
a(S'wirte'
p10271
I1
tp10272
a(S'wise.the'
p10273
I1
tp10274
a(S'wised'
p10275
I1
tp10276
a(S'wisely'
p10277
I1
tp10278
a(S'wish'
p10279
I1
tp10280
a(S'wishe'
p10281
I1
tp10282
a(S'wished'
p10283
I1
tp10284
a(S'wishing'
p10285
I1
tp10286
a(S'wisly'
p10287
I1
tp10288
a(S'wit'
p10289
I1
tp10290
a(S'with;'
p10291
I1
tp10292
a(S'wither'
p10293
I1
tp10294
a(S'wn'
p10295
I1
tp10296
a(S'wo'
p10297
I1
tp10298
a(S'wobbling'
p10299
I1
tp10300
a(S'woke'
p10301
I1
tp10302
a(S'wold'
p10303
I1
tp10304
a(S'woman'
p10305
I1
tp10306
a(S"won't"
p10307
I1
tp10308
a(S'woohoo!'
p10309
I1
tp10310
a(S'words,\x93sometime'
p10311
I1
tp10312
a(S'words,\x93thi'
p10313
I1
tp10314
a(S'work.the'
p10315
I1
tp10316
a(S'working,the'
p10317
I1
tp10318
a(S'worned'
p10319
I1
tp10320
a(S'wornout'
p10321
I1
tp10322
a(S'worried,but'
p10323
I1
tp10324
a(S'worried/'
p10325
I1
tp10326
a(S'worrying'
p10327
I1
tp10328
a(S'worse!the'
p10329
I1
tp10330
a(S'worse-'
p10331
I1
tp10332
a(S'worsed'
p10333
I1
tp10334
a(S'worth'
p10335
I1
tp10336
a(S"woudn't"
p10337
I1
tp10338
a(S'woudn\x92t'
p10339
I1
tp10340
a(S'wouldint'
p10341
I1
tp10342
a(S'wrideing'
p10343
I1
tp10344
a(S'writer\x92'
p10345
I1
tp10346
a(S'wrong.in'
p10347
I1
tp10348
a(S'wt'
p10349
I1
tp10350
a(S'wuold'
p10351
I1
tp10352
a(S'ya'
p10353
I1
tp10354
a(S'years.some'
p10355
I1
tp10356
a(S'years.there'
p10357
I1
tp10358
a(S'years;'
p10359
I1
tp10360
a(S'yo'
p10361
I1
tp10362
a(S'yosemite...\x94'
p10363
I1
tp10364
a(S'yosemite.in'
p10365
I1
tp10366
a(S'yosemite.when'
p10367
I1
tp10368
a(S'yosemite\x94'
p10369
I1
tp10370
a(S'yosomite'
p10371
I1
tp10372
a(S'yoth'
p10373
I1
tp10374
a(S'you.durring'
p10375
I1
tp10376
a(S'you.the'
p10377
I1
tp10378
a(S'youg'
p10379
I1
tp10380
a(S'younger'
p10381
I1
tp10382
a(S'your-self'
p10383
I1
tp10384
a(S'you\x92ll'
p10385
I1
tp10386
a(S'yuuth,\x94'
p10387
I1
tp10388
a(S'zoo'
p10389
I1
tp10390
a(S'\x91'
I1
tp10391
a(S'\x91because'
p10392
I1
tp10393
a(S'\x91heatstroke\x92'
p10394
I1
tp10395
a(S'\x91ramshackle'
p10396
I1
tp10397
a(S'\x91shack'
p10398
I1
tp10399
a(S'\x91summer'
p10400
I1
tp10401
a(S'\x91t'
p10402
I1
tp10403
a(S'\x91town.\x92'
p10404
I1
tp10405
a(S'\x91towns\x92'
p10406
I1
tp10407
a(S'\x93(@num1)'
p10408
I1
tp10409
a(S'\x93(kurmaskie'
p10410
I1
tp10411
a(S'\x93(kurmaskie)'
p10412
I1
tp10413
a(S'\x93...i'
p10414
I1
tp10415
a(S'\x93...it'
p10416
I1
tp10417
a(S'\x93...sight'
p10418
I1
tp10419
a(S'\x93..and'
p10420
I1
tp10421
a(S'\x93@caps1\x92t'
p10422
I1
tp10423
a(S'\x93@caps1\x94'
p10424
I1
tp10425
a(S'\x93@num1'
p10426
I1
tp10427
a(S'\x93[he]'
p10428
I1
tp10429
a(S'\x93affect'
p10430
I1
tp10431
a(S'\x93after'
p10432
I1
tp10433
a(S'\x93an'
p10434
I1
tp10435
a(S'\x93arrived'
p10436
I1
tp10437
a(S'\x93baren'
p10438
I1
tp10439
a(S'\x93because'
p10440
I1
tp10441
a(S'\x93behind\x94'
p10442
I1
tp10443
a(S'\x93brackish'
p10444
I1
tp10445
a(S'\x93building-abandoned'
p10446
I1
tp10447
a(S'\x93burning'
p10448
I1
tp10449
a(S'\x93but'
p10450
I1
tp10451
a(S'\x93california'
p10452
I1
tp10453
a(S'\x93codgens\x94'
p10454
I1
tp10455
a(S'\x93codgers\x94'
p10456
I1
tp10457
a(S'\x93crippling'
p10458
I1
tp10459
a(S'\x93crippling\x94'
p10460
I1
tp10461
a(S'\x93denyoved'
p10462
I1
tp10463
a(S'\x93denyoyed\x94'
p10464
I1
tp10465
a(S'\x93diamond'
p10466
I1
tp10467
a(S'\x93dimond'
p10468
I1
tp10469
a(S'\x93doing'
p10470
I1
tp10471
a(S'\x93don\x92t'
p10472
I1
tp10473
a(S'\x93d\x94'
p10474
I1
tp10475
a(S'\x93easy'
p10476
I1
tp10477
a(S'\x93gentlemen\x94'
p10478
I1
tp10479
a(S'\x93gost'
p10480
I1
tp10481
a(S'\x93got'
p10482
I1
tp10483
a(S'\x93grape'
p10484
I1
tp10485
a(S'\x93have'
p10486
I1
tp10487
a(S'\x93heat'
p10488
I1
tp10489
a(S'\x93helped\x94'
p10490
I1
tp10491
a(S'\x93helping\x94'
p10492
I1
tp10493
a(S'\x93hi'
p10494
I1
tp10495
a(S'\x93hitting\x93'
p10496
I1
tp10497
a(S'\x93hope'
p10498
I1
tp10499
a(S'\x93hung'
p10500
I1
tp10501
a(S'\x93inner'
p10502
I1
tp10503
a(S'\x93into'
p10504
I1
tp10505
a(S'\x93ironic'
p10506
I1
tp10507
a(S'\x93i\x92m'
p10508
I1
tp10509
a(S'\x93i\x94'
p10510
I1
tp10511
a(S'\x93know'
p10512
I1
tp10513
a(S'\x93large'
p10514
I1
tp10515
a(S'\x93life'
p10516
I1
tp10517
a(S'\x93long\x94'
p10518
I1
tp10519
a(S'\x93looked'
p10520
I1
tp10521
a(S'\x93losing'
p10522
I1
tp10523
a(S'\x93manuevered\x94'
p10524
I1
tp10525
a(S'\x93might'
p10526
I1
tp10527
a(S'\x93modern'
p10528
I1
tp10529
a(S'\x93modernized\x94'
p10530
I1
tp10531
a(S'\x93my'
p10532
I1
tp10533
a(S'\x93nothing'
p10534
I1
tp10535
a(S'\x93old-timers.\x94'
p10536
I1
tp10537
a(S'\x93only'
p10538
I1
tp10539
a(S'\x93rattled'
p10540
I1
tp10541
a(S'\x93rediculously'
p10542
I1
tp10543
a(S'\x93roughin'
p10544
I1
tp10545
a(S'\x93run-down\x94'
p10546
I1
tp10547
a(S'\x93rusted'
p10548
I1
tp10549
a(S'\x93sandblasted'
p10550
I1
tp10551
a(S'\x93saved\x94'
p10552
I1
tp10553
a(S'\x93set'
p10554
I1
tp10555
a(S'\x93she'
p10556
I1
tp10557
a(S'\x93short-cut.\x94'
p10558
I1
tp10559
a(S'\x93slice'
p10560
I1
tp10561
a(S'\x93slowly'
p10562
I1
tp10563
a(S'\x93somehow'
p10564
I1
tp10565
a(S'\x93substance\x94'
p10566
I1
tp10567
a(S'\x93summer'
p10568
I1
tp10569
a(S'\x93sun'
p10570
I1
tp10571
a(S'\x93tarlike\x94'
p10572
I1
tp10573
a(S'\x93these'
p10574
I1
tp10575
a(S'\x93to'
p10576
I1
tp10577
a(S'\x93toiled\x94'
p10578
I1
tp10579
a(S'\x93toun\x94'
p10580
I1
tp10581
a(S'\x93town,\x94'
p10582
I1
tp10583
a(S'\x93troubling'
p10584
I1
tp10585
a(S'\x93tumble'
p10586
I1
tp10587
a(S'\x93tumbleweeds\x94'
p10588
I1
tp10589
a(S'\x93twenty'
p10590
I1
tp10591
a(S'\x93water-depleting'
p10592
I1
tp10593
a(S'\x93what'
p10594
I1
tp10595
a(S'\x93who'
p10596
I1
tp10597
a(S'\x93wiped'
p10598
I1
tp10599
a(S'\x93yosemite.\x94the'
p10600
I1
tp10601
a(S'\x93yosemite\x94'
p10602
I1
tp10603
a(S'\x93young'
p10604
I1
tp10605
a(S'\x94at'
p10606
I1
tp10607
a(S'\x94by'
p10608
I1
tp10609
a(S'\x94flat'
p10610
I1
tp10611
a(S'\x94in'
p10612
I1
tp10613
a(S'\x94rough'
p10614
I1
tp10615
a(S'\x94tumbleweed'
p10616
I1
tp10617
a(S'\x94water-deplating\x94'
p10618
I1
tp10619
a(S'\x94wide'
p10620
I1
tp10621
a(S'\x96all'
p10622
I1
tp10623
a(S'\x96an'
p10624
I1
tp10625
a(S'\x96\x93tumble'
p10626
I1
tp10627
a(S'\xe2\x80\x9d'
p10628
I1
tp10629
a.