(lp1
(S'building'
p2
I3117
tp3
a(S'would'
p4
I1944
tp5
a(S'dirigibles'
p6
I1875
tp7
a(S'empire'
p8
I1712
tp9
a(S'state'
p10
I1703
tp11
a(S'mast'
p12
I1452
tp13
a(S'builders'
p14
I1221
tp15
a(S'mooring'
p16
I1167
tp17
a(S'dirigible'
p18
I1096
tp19
a(S'faced'
p20
I1011
tp21
a(S'obstacles'
p22
I1008
tp23
a(S'dock'
p24
I1006
tp25
a(S'top'
p26
I786
tp27
a(S'could'
p28
I755
tp29
a(S'obstacle'
p30
I741
tp31
a(S'many'
p32
I692
tp33
a(S'hydrogen'
p34
I682
tp35
a(S'allow'
p36
I617
tp37
a(S'new'
p38
I617
tp39
a(S'law'
p40
I573
tp41
a(S'winds'
p42
I553
tp43
a(S'one'
p44
I499
tp45
a(S'another'
p46
I449
tp47
a(S'attempting'
p48
I429
tp49
a(S'air'
p50
I428
tp51
a(S'also'
p52
I426
tp53
a(S'low'
p54
I425
tp55
a(S'wind'
p56
I417
tp57
a(S'york'
p58
I400
tp59
a(S'urban'
p60
I398
tp61
a(S'around'
p62
I386
tp63
a(S'airships'
p64
I380
tp65
a(S'frame'
p66
I379
tp67
a(S'areas'
p68
I377
tp69
a(S'problem'
p70
I376
tp71
a(S'nature'
p72
I371
tp73
a(S'stress'
p74
I370
tp75
a(S'area'
p76
I360
tp77
a(S'safety'
p78
I360
tp79
a(S'currents'
p80
I357
tp81
a(S'flammable'
p82
I355
tp83
a(S'highly'
p84
I352
tp85
a(S'violent'
p86
I350
tp87
a(S'used'
p88
I335
tp89
a(S'flying'
p90
I334
tp91
a(S'even'
p92
I333
tp93
a(S'due'
p94
I329
tp95
a(S'made'
p96
I317
tp97
a(S'caps1'
p98
I313
tp99
a(S'make'
p100
I302
tp101
a(S'shifting'
p102
I286
tp103
a(S"building's"
p104
I284
tp105
a(S'idea'
p106
I284
tp107
a(S'problems'
p108
I278
tp109
a(S'constantly'
p110
I275
tp111
a(S'back'
p112
I266
tp113
a(S'helium'
p114
I264
tp115
a(S'ship'
p116
I260
tp117
a(S'buildings'
p118
I250
tp119
a(S'populated'
p120
I240
tp121
a(S'way'
p122
I234
tp123
a(S'fire'
p124
I228
tp125
a(S'city'
p126
I227
tp127
a(S'excerpt'
p128
I224
tp129
a(S'use'
p130
I224
tp131
a(S'high'
p132
I220
tp133
a(S'people'
p134
I211
tp135
a(S'illegal'
p136
I209
tp137
a(S'architects'
p138
I207
tp139
a(S'add'
p140
I205
tp141
a(S'docking'
p142
I204
tp143
a(S'safe'
p144
I203
tp145
a(S'states'
p146
I200
tp147
a(S'first'
p148
I192
tp149
a(S'landing'
p150
I191
tp151
a(S'existing'
p152
I184
tp153
a(S'blimp'
p154
I180
tp155
a(S'thousand'
p156
I178
tp157
a(S'outside'
p158
I172
tp159
a(S'reason'
p160
I171
tp161
a(S'paragraph'
p162
I170
tp163
a(S'pedestrians'
p164
I170
tp165
a(S'blimps'
p166
I168
tp167
a(S'hindenburg'
p168
I167
tp169
a(S'greatest'
p170
I166
tp171
a(S'dangerous'
p172
I165
tp173
a(S'much'
p174
I165
tp175
a(S'rather'
p176
I165
tp177
a(S'never'
p178
I164
tp179
a(S'weights'
p180
I162
tp181
a(S'tie'
p182
I160
tp183
a(S'get'
p184
I157
tp185
a(S'swivel'
p186
I157
tp187
a(S'densely'
p188
I155
tp189
a(S'num1'
p190
I154
tp191
a(S'like'
p192
I151
tp193
a(S'lead'
p194
I150
tp195
a(S'practical'
p196
I149
tp197
a(S'realized'
p198
I145
tp199
a(S'accident'
p200
I143
tp201
a(S'moored'
p202
I143
tp203
a(S'foundation'
p204
I142
tp205
a(S'united'
p206
I141
tp207
a(S'cause'
p208
I137
tp209
a(S'ever'
p210
I137
tp211
a(S'land'
p212
I136
tp213
a(S'pressure'
p214
I136
tp215
a(S'place'
p216
I132
tp217
a(S'fly'
p218
I130
tp219
a(S'smith'
p220
I130
tp221
a(S'steel'
p222
I127
tp223
a(S'put'
p224
I126
tp225
a(S'al'
p226
I122
tp227
a(S'passengers'
p228
I121
tp229
a(S'cable'
p230
I120
tp231
a(S'close'
p232
I119
tp233
a(S'marcia'
p234
I119
tp235
a(S'amidon'
p236
I117
tp237
a(S'face'
p238
I117
tp239
a(S'feet'
p240
I117
tp241
a(S'modifications'
p242
I117
tp243
a(S'sixty'
p244
I116
tp245
a(S'dangling'
p246
I115
tp247
a(S'enough'
p248
I113
tp249
a(S'single'
p250
I112
tp251
a(S'tether'
p252
I112
tp253
a(S'downtown'
p254
I111
tp255
a(S'roof'
p256
I109
tp257
a(S'construction'
p258
I106
tp259
a(S'trying'
p260
I106
tp261
a(S'german'
p262
I104
tp263
a(S'able'
p264
I102
tp265
a(S'making'
p266
I102
tp267
a(S'tethered'
p268
I102
tp269
a(S'held'
p270
I101
tp271
a(S'l\xfcsted'
p272
I101
tp273
a(S'load'
p274
I100
tp275
a(S'framework'
p276
I98
tp277
a(S'work'
p278
I98
tp279
a(S'caps2'
p280
I95
tp281
a(S'owners'
p282
I95
tp283
a(S'destroyed'
p284
I94
tp285
a(S'difficult'
p286
I94
tp287
a(S'strong'
p288
I94
tp289
a(S'approach'
p290
I93
tp291
a(S'laws'
p292
I92
tp293
a(S'workers'
p294
I92
tp295
a(S'allowing'
p296
I90
tp297
a(S'jersey'
p298
I90
tp299
a(S'worth'
p300
I89
tp301
a(S'time'
p302
I87
tp303
a(S'dollars'
p304
I86
tp305
a(S'height'
p306
I85
tp307
a(S'modified'
p308
I85
tp309
a(S'says'
p310
I85
tp311
a(S'street'
p312
I85
tp313
a(S'worse'
p314
I85
tp315
a(S'unsafe'
p316
I84
tp317
a(S'using'
p318
I84
tp319
a(S"couldn't"
p320
I83
tp321
a(S'fact'
p322
I82
tp323
a(S'plan'
p324
I82
tp325
a(S'drop'
p326
I81
tp327
a(S'build'
p328
I79
tp329
a(S'moor'
p330
I79
tp331
a(S'organization2'
p332
I79
tp333
a(S'reasons'
p334
I79
tp335
a(S'strengthened'
p336
I79
tp337
a(S'transmitted'
p338
I79
tp339
a(S'big'
p340
I77
tp341
a(S'last'
p342
I77
tp343
a(S'neither'
p344
I77
tp345
a(S'flat'
p346
I76
tp347
a(S'great'
p348
I76
tp349
a(S'main'
p350
I76
tp351
a(S'issue'
p352
I75
tp353
a(S'go'
p354
I74
tp355
a(S'hard'
p356
I74
tp357
a(S'order'
p358
I74
tp359
a(S"dirigible's"
p360
I73
tp361
a(S'issues'
p362
I73
tp363
a(S'needed'
p364
I73
tp365
a(S'weight'
p366
I73
tp367
a(S'filled'
p368
I70
tp369
a(S'end'
p370
I68
tp371
a(S'example'
p372
I68
tp373
a(S'stated'
p374
I68
tp375
a(S'num1)'
p376
I67
tp377
a(S'thought'
p378
I67
tp379
a(S'u.s'
p380
I67
tp381
a(S'thousand-foot'
p382
I66
tp383
a(S'lot'
p384
I65
tp385
a(S'said'
p386
I65
tp387
a(S'simply'
p388
I65
tp389
a(S'docked'
p390
I64
tp391
a(S'instead'
p392
I64
tp393
a(S'project'
p394
I64
tp395
a(S'num2'
p396
I63
tp397
a(S'came'
p398
I62
tp399
a(S'major'
p400
I62
tp401
a(S'caused'
p402
I61
tp403
a(S'suitable'
p404
I61
tp405
a(S'tied'
p406
I61
tp407
a(S'attempt'
p408
I60
tp409
a(S'however'
p410
I60
tp411
a(S'several'
p412
I60
tp413
a(S'accommodate'
p414
I59
tp415
a(S'final'
p416
I59
tp417
a(S'flamable'
p418
I59
tp419
a(S'take'
p420
I59
tp421
a(S'gas'
p422
I58
tp423
a(S'transportation'
p424
I58
tp425
a(S'lack'
p426
I57
tp427
a(S'situation'
p428
I57
tp429
a(S'atop'
p430
I56
tp431
a(S'danger'
p432
I56
tp433
a(S'structure'
p434
I56
tp435
a(S'successful'
p436
I56
tp437
a(S'tallest'
p438
I56
tp439
a(S'added'
p440
I55
tp441
a(S"didn't"
p442
I55
tp443
a(S'impossible'
p444
I55
tp445
a(S"it's"
p446
I55
tp447
a(S'taken'
p448
I55
tp449
a(S'weather'
p450
I55
tp451
a(S'(paragraph'
p452
I54
tp453
a(S'come'
p454
I54
tp455
a(S'finally'
p456
I54
tp457
a(S'huge'
p458
I54
tp459
a(S'open'
p460
I54
tp461
a(S'extremely'
p462
I53
tp463
a(S'foot'
p464
I53
tp465
a(S'lastly'
p466
I53
tp467
a(S'prevented'
p468
I53
tp469
a(S'risk'
p470
I53
tp471
a(S'second'
p472
I53
tp473
a(S'weighted'
p474
I53
tp475
a(S'caught'
p476
I52
tp477
a(S'let'
p478
I52
tp479
a(S'well'
p480
I52
tp481
a(S'although'
p482
I51
tp483
a(S'large'
p484
I51
tp485
a(S'may'
p486
I51
tp487
a(S'two'
p488
I51
tp489
a(S"wasn't"
p490
I51
tp491
a(S'design'
p492
I50
tp493
a(S'going'
p494
I50
tp495
a(S'building.the'
p496
I49
tp497
a(S'lakehurst'
p498
I49
tp499
a(S'overcome'
p500
I49
tp501
a(S'ships'
p502
I49
tp503
a(S'since'
p504
I49
tp505
a(S'something'
p506
I48
tp507
a(S'modify'
p508
I47
tp509
a(S'strengthen'
p510
I47
tp511
a(S'biggest'
p512
I46
tp513
a(S'built'
p514
I46
tp515
a(S'catch'
p516
I46
tp517
a(S'fields'
p518
I46
tp519
a(S'good'
p520
I46
tp521
a(S'happened'
p522
I46
tp523
a(S'organization1'
p524
I46
tp525
a(S'purpose'
p526
I46
tp527
a(S'wanted'
p528
I46
tp529
a(S'1937'
p530
I45
tp531
a(S'blow'
p532
I45
tp533
a(S'cost'
p534
I45
tp535
a(S'engineers'
p536
I45
tp537
a(S'happen'
p538
I45
tp539
a(S'money1'
p540
I45
tp541
a(S'went'
p542
I45
tp543
a(S'los'
p544
I44
tp545
a(S'station'
p546
I44
tp547
a(S'whole'
p548
I44
tp549
a(S'nearly'
p550
I43
tp551
a(S'though'
p552
I43
tp553
a(S'angeles'
p554
I42
tp555
a(S'attempted'
p556
I42
tp557
a(S'challenges'
p558
I42
tp559
a(S'meant'
p560
I42
tp561
a(S'navy'
p562
I42
tp563
a(S'sharp'
p564
I42
tp565
a(S'aircraft'
p566
I41
tp567
a(S'article'
p568
I41
tp569
a(S'author'
p570
I41
tp571
a(S'num2)'
p572
I41
tp573
a(S'safely'
p574
I41
tp575
a(S'without'
p576
I41
tp577
a(S'airship'
p578
I40
tp579
a(S'keep'
p580
I40
tp581
a(S'plans'
p582
I40
tp583
a(S'still'
p584
I40
tp585
a(S'streets'
p586
I39
tp587
a(S'6'
I38
tp588
a(S'became'
p589
I38
tp590
a(S'ground'
p591
I38
tp592
a(S'long'
p593
I38
tp594
a(S'tower'
p595
I38
tp596
a(S'changing'
p597
I37
tp598
a(S'hundred'
p599
I37
tp600
a(S'obsticles'
p601
I37
tp602
a(S'support'
p603
I37
tp604
a(S'therefore'
p605
I37
tp606
a(S'think'
p607
I37
tp608
a(S'obsticle'
p609
I36
tp610
a(S'spires'
p611
I36
tp612
a(S'causing'
p613
I35
tp614
a(S'future'
p615
I35
tp616
a(S'things'
p617
I35
tp618
a(S'done'
p619
I34
tp620
a(S'eleven'
p621
I34
tp622
a(S'hold'
p623
I34
tp624
a(S'need'
p625
I34
tp626
a(S'onto'
p627
I34
tp628
a(S"wouldn't"
p629
I34
tp630
a(S'(@caps1'
p631
I33
tp632
a(S'already'
p633
I33
tp634
a(S'bad'
p635
I33
tp636
a(S'chrysler'
p637
I33
tp638
a(S'crash'
p639
I33
tp640
a(S'fix'
p641
I33
tp642
a(S'forceful'
p643
I33
tp644
a(S'fulfill'
p645
I33
tp646
a(S'shows'
p647
I33
tp648
a(S'sure'
p649
I33
tp650
a(S'thing'
p651
I33
tp652
a(S'third'
p653
I33
tp654
a(S'tried'
p655
I33
tp656
a(S'always'
p657
I32
tp658
a(S'anchor'
p659
I32
tp660
a(S'balloon'
p661
I32
tp662
a(S'control'
p663
I32
tp664
a(S'destined'
p665
I32
tp666
a(S'dream'
p667
I32
tp668
a(S'fall'
p669
I32
tp670
a(S'right'
p671
I32
tp672
a(S'1,250'
p673
I31
tp674
a(S'constructing'
p675
I31
tp676
a(S'designed'
p677
I31
tp678
a(S'according'
p679
I30
tp680
a(S'adding'
p681
I30
tp682
a(S'caps3'
p683
I30
tp684
a(S'factor'
p685
I30
tp686
a(S'foreign'
p687
I30
tp688
a(S'inside'
p689
I30
tp690
a(S'spire'
p691
I30
tp692
a(S'conclusion'
p693
I29
tp694
a(S'damage'
p695
I29
tp696
a(S'means'
p697
I29
tp698
a(S'move'
p699
I29
tp700
a(S'next'
p701
I29
tp702
a(S'num3)'
p703
I29
tp704
a(S'overall'
p705
I29
tp706
a(S'thousands'
p707
I29
tp708
a(S'want'
p709
I29
tp710
a(S'world'
p711
I29
tp712
a(S''
I28
tp713
a(S'disaster'
p714
I28
tp715
a(S"dollars'"
p716
I28
tp717
a(S'entire'
p718
I28
tp719
a(S'reach'
p720
I28
tp721
a(S'taller'
p722
I28
tp723
a(S'travel'
p724
I28
tp725
a(S'weigh'
p726
I28
tp727
a(S'yet'
p728
I28
tp729
a(S'actually'
p730
I27
tp731
a(S'designing'
p732
I27
tp733
a(S'near'
p734
I27
tp735
a(S'possible'
p736
I27
tp737
a(S'process'
p738
I27
tp739
a(S'putting'
p740
I27
tp741
a(S'really'
p742
I27
tp743
a(S'three'
p744
I27
tp745
a(S'constructed'
p746
I26
tp747
a(S'four'
p748
I26
tp749
a(S'getting'
p750
I26
tp751
a(S'got'
p752
I26
tp753
a(S'hours'
p754
I26
tp755
a(S'reality'
p756
I26
tp757
a(S'stable'
p758
I26
tp759
a(S'swing'
p760
I26
tp761
a(S'took'
p762
I26
tp763
a(S'addition'
p764
I25
tp765
a(S'change'
p766
I25
tp767
a(S'create'
p768
I25
tp769
a(S'easy'
p770
I25
tp771
a(S'encountered'
p772
I25
tp773
a(S'glass'
p774
I25
tp775
a(S'money'
p776
I25
tp777
a(S'tall'
p778
I25
tp779
a(S'weighed'
p780
I25
tp781
a(S"world's"
p782
I25
tp783
a(S'architect'
p784
I24
tp785
a(S'balloons'
p786
I24
tp787
a(S'deal'
p788
I24
tp789
a(S'floor'
p790
I24
tp791
a(S'hazard'
p792
I24
tp793
a(S'important'
p794
I24
tp795
a(S'original'
p796
I24
tp797
a(S'prohibited'
p798
I24
tp799
a(S'see'
p800
I24
tp801
a(S'seemed'
p802
I24
tp803
a(S'service'
p804
I24
tp805
a(S'allowed'
p806
I23
tp807
a(S'apparent'
p808
I23
tp809
a(S'changes'
p810
I23
tp811
a(S'considered'
p812
I23
tp813
a(S'expanded'
p814
I23
tp815
a(S'heavy'
p816
I23
tp817
a(S'mass'
p818
I23
tp819
a(S'potential'
p820
I23
tp821
a(S'realize'
p822
I23
tp823
a(S'refueling'
p824
I23
tp825
a(S'set'
p826
I23
tp827
a(S'stay'
p828
I23
tp829
a(S'&'
I22
tp830
a(S'amount'
p831
I22
tp832
a(S'approached'
p833
I22
tp834
a(S'challenge'
p835
I22
tp836
a(S'different'
p837
I22
tp838
a(S'especially'
p839
I22
tp840
a(S'front'
p841
I22
tp842
a(S'hanging'
p843
I22
tp844
a(S'later'
p845
I22
tp846
a(S'planned'
p847
I22
tp848
a(S'quote'
p849
I22
tp850
a(S'stainless'
p851
I22
tp852
a(S'(@num1)'
p853
I21
tp854
a(S'alot'
p855
I21
tp856
a(S'attached'
p857
I21
tp858
a(S'blocks'
p859
I21
tp860
a(S'easily'
p861
I21
tp862
a(S'equipment'
p863
I21
tp864
a(S'flames'
p865
I21
tp866
a(S'ft'
p867
I21
tp868
a(S'gases'
p869
I21
tp870
a(S'knew'
p871
I21
tp872
a(S'late'
p873
I21
tp874
a(S'obvious'
p875
I21
tp876
a(S'person1'
p877
I21
tp878
a(S'posed'
p879
I21
tp880
a(S'proved'
p881
I21
tp882
a(S'story'
p883
I21
tp884
a(S'sway'
p885
I21
tp886
a(S'task'
p887
I21
tp888
a(S'wrong'
p889
I21
tp890
a(S'builder'
p891
I20
tp892
a(S'concern'
p893
I20
tp894
a(S'countries'
p895
I20
tp896
a(S'created'
p897
I20
tp898
a(S'crowded'
p899
I20
tp900
a(S'current'
p901
I20
tp902
a(S'drigibles'
p903
I20
tp904
a(S'explains'
p905
I20
tp906
a(S'failed'
p907
I20
tp908
a(S'feared'
p909
I20
tp910
a(S'find'
p911
I20
tp912
a(S'hit'
p913
I20
tp914
a(S'led'
p915
I20
tp916
a(S'num3'
p917
I20
tp918
a(S'public'
p919
I20
tp920
a(S'stating'
p921
I20
tp922
a(S'try'
p923
I20
tp924
a(S'altitude'
p925
I19
tp926
a(S'attempts'
p927
I19
tp928
a(S'complete'
p929
I19
tp930
a(S'completed'
p931
I19
tp932
a(S'eventually'
p933
I19
tp934
a(S'fear'
p935
I19
tp936
a(S'floors'
p937
I19
tp938
a(S'moving'
p939
I19
tp940
a(S'observation'
p941
I19
tp942
a(S'result'
p943
I19
tp944
a(S'safty'
p945
I19
tp946
a(S'shiny'
p947
I19
tp948
a(S'skeleton'
p949
I19
tp950
a(S'soon'
p951
I19
tp952
a(S'structural'
p953
I19
tp954
a(S'unpredictable'
p955
I19
tp956
a(S'(\xb6'
p957
I18
tp958
a(S'chrome-nickel'
p959
I18
tp960
a(S'cities'
p961
I18
tp962
a(S'construct'
p963
I18
tp964
a(S'included'
p965
I18
tp966
a(S'might'
p967
I18
tp968
a(S'occurred'
p969
I18
tp970
a(S'ran'
p971
I18
tp972
a(S'serious'
p973
I18
tp974
a(S'stop'
p975
I18
tp976
a(S'winch'
p977
I18
tp978
a(S'account'
p979
I17
tp980
a(S'along'
p981
I17
tp982
a(S'blowing'
p983
I17
tp984
a(S'dropped'
p985
I17
tp986
a(S'failure'
p987
I17
tp988
a(S'far'
p989
I17
tp990
a(S'found'
p991
I17
tp992
a(S'higher'
p993
I17
tp994
a(S'ideas'
p995
I17
tp996
a(S'known'
p997
I17
tp998
a(S'largest'
p999
I17
tp1000
a(S'saw'
p1001
I17
tp1002
a(S'spend'
p1003
I17
tp1004
a(S'thus'
p1005
I17
tp1006
a(S'1930s'
p1007
I16
tp1008
a(S'difficulty'
p1009
I16
tp1010
a(S'exploded'
p1011
I16
tp1012
a(S'fixed'
p1013
I16
tp1014
a(S'floating'
p1015
I16
tp1016
a(S'governor'
p1017
I16
tp1018
a(S'legal'
p1019
I16
tp1020
a(S'line'
p1021
I16
tp1022
a(S'location1'
p1023
I16
tp1024
a(S'mother'
p1025
I16
tp1026
a(S'solve'
p1027
I16
tp1028
a(S'aircrafts'
p1029
I15
tp1030
a(S'attach'
p1031
I15
tp1032
a(S'brought'
p1033
I15
tp1034
a(S'called'
p1035
I15
tp1036
a(S'caps4'
p1037
I15
tp1038
a(S'changed'
p1039
I15
tp1040
a(S'concerns'
p1041
I15
tp1042
a(S'either'
p1043
I15
tp1044
a(S'electric'
p1045
I15
tp1046
a(S'gear'
p1047
I15
tp1048
a(S'government'
p1049
I15
tp1050
a(S'involved'
p1051
I15
tp1052
a(S'lives'
p1053
I15
tp1054
a(S'mask'
p1055
I15
tp1056
a(S'modern'
p1057
I15
tp1058
a(S'secondly'
p1059
I15
tp1060
a(S'shell'
p1061
I15
tp1062
a(S"smith's"
p1063
I15
tp1064
a(S'spent'
p1065
I15
tp1066
a(S'stronger'
p1067
I15
tp1068
a(S'there.the'
p1069
I15
tp1070
a(S'unable'
p1071
I15
tp1072
a(S'almost'
p1073
I14
tp1074
a(S'anything'
p1075
I14
tp1076
a(S'arose'
p1077
I14
tp1078
a(S'away'
p1079
I14
tp1080
a(S'blown'
p1081
I14
tp1082
a(S'building.in'
p1083
I14
tp1084
a(S'challenging'
p1085
I14
tp1086
a(S'clear'
p1087
I14
tp1088
a(S'dangers'
p1089
I14
tp1090
a(S'december'
p1091
I14
tp1092
a(S'describes'
p1093
I14
tp1094
a(S'everything'
p1095
I14
tp1096
a(S'experts'
p1097
I14
tp1098
a(S'explode'
p1099
I14
tp1100
a(S'extra'
p1101
I14
tp1102
a(S'framing'
p1103
I14
tp1104
a(S'harsh'
p1105
I14
tp1106
a(S'hazards'
p1107
I14
tp1108
a(S'heads'
p1109
I14
tp1110
a(S'help'
p1111
I14
tp1112
a(S'hurt'
p1113
I14
tp1114
a(S'location'
p1115
I14
tp1116
a(S'location2'
p1117
I14
tp1118
a(S'massive'
p1119
I14
tp1120
a(S'nine'
p1121
I14
tp1122
a(S'numerous'
p1123
I14
tp1124
a(S'past'
p1125
I14
tp1126
a(S'potentially'
p1127
I14
tp1128
a(S'presented'
p1129
I14
tp1130
a(S'puncture'
p1131
I14
tp1132
a(S'saftey'
p1133
I14
tp1134
a(S'shift'
p1135
I14
tp1136
a(S'theory'
p1137
I14
tp1138
a(S'threat'
p1139
I14
tp1140
a(S'(@num2)'
p1141
I13
tp1142
a(S'102'
p1143
I13
tp1144
a(S'1930'
p1145
I13
tp1146
a(S'become'
p1147
I13
tp1148
a(S'becoming'
p1149
I13
tp1150
a(S"builder's"
p1151
I13
tp1152
a(S'certain'
p1153
I13
tp1154
a(S'civilians'
p1155
I13
tp1156
a(S'collapse'
p1157
I13
tp1158
a(S'conditions'
p1159
I13
tp1160
a(S'couldnt'
p1161
I13
tp1162
a(S'creating'
p1163
I13
tp1164
a(S'date'
p1165
I13
tp1166
a(S'decided'
p1167
I13
tp1168
a(S'enormous'
p1169
I13
tp1170
a(S'factors'
p1171
I13
tp1172
a(S'figure'
p1173
I13
tp1174
a(S'framed'
p1175
I13
tp1176
a(S'full'
p1177
I13
tp1178
a(S'illuminated'
p1179
I13
tp1180
a(S'job'
p1181
I13
tp1182
a(S'kept'
p1183
I13
tp1184
a(S'length'
p1185
I13
tp1186
a(S'obsticals'
p1187
I13
tp1188
a(S'planning'
p1189
I13
tp1190
a(S'risky'
p1191
I13
tp1192
a(S'solved'
p1193
I13
tp1194
a(S'thinking'
p1195
I13
tp1196
a(S'upon'
p1197
I13
tp1198
a(S'windy'
p1199
I13
tp1200
a(S'worked'
p1201
I13
tp1202
a(S'working'
p1203
I13
tp1204
a(S'worry'
p1205
I13
tp1206
a(S'announced'
p1207
I12
tp1208
a(S'began'
p1209
I12
tp1210
a(S'body'
p1211
I12
tp1212
a(S"can't"
p1213
I12
tp1214
a(S'derigibles'
p1215
I12
tp1216
a(S'described'
p1217
I12
tp1218
a(S'designers'
p1219
I12
tp1220
a(S'examples'
p1221
I12
tp1222
a(S'figuring'
p1223
I12
tp1224
a(S'force'
p1225
I12
tp1226
a(S'given'
p1227
I12
tp1228
a(S'incident'
p1229
I12
tp1230
a(S'know'
p1231
I12
tp1232
a(S'landed'
p1233
I12
tp1234
a(S'letting'
p1235
I12
tp1236
a(S'lighter'
p1237
I12
tp1238
a(S'located'
p1239
I12
tp1240
a(S'looked'
p1241
I12
tp1242
a(S'mainly'
p1243
I12
tp1244
a(S'makes'
p1245
I12
tp1246
a(S'multiple'
p1247
I12
tp1248
a(S'passage'
p1249
I12
tp1250
a(S'possibly'
p1251
I12
tp1252
a(S'prohibiting'
p1253
I12
tp1254
a(S'refuel'
p1255
I12
tp1256
a(S'shifted'
p1257
I12
tp1258
a(S'space'
p1259
I12
tp1260
a(S'start'
p1261
I12
tp1262
a(S'strengthening'
p1263
I12
tp1264
a(S'swaying'
p1265
I12
tp1266
a(S'unfortunately'
p1267
I12
tp1268
a(S'unsolved'
p1269
I12
tp1270
a(S'unstable'
p1271
I12
tp1272
a(S'zeppelins'
p1273
I12
tp1274
a(S'across'
p1275
I11
tp1276
a(S'bring'
p1277
I11
tp1278
a(S'chance'
p1279
I11
tp1280
a(S'citizens'
p1281
I11
tp1282
a(S'city.the'
p1283
I11
tp1284
a(S'coming'
p1285
I11
tp1286
a(S'complications'
p1287
I11
tp1288
a(S'constructors'
p1289
I11
tp1290
a(S'date1'
p1291
I11
tp1292
a(S'desirable'
p1293
I11
tp1294
a(S'didnt'
p1295
I11
tp1296
a(S'effect'
p1297
I11
tp1298
a(S'explosion'
p1299
I11
tp1300
a(S'fail'
p1301
I11
tp1302
a(S'flaws'
p1303
I11
tp1304
a(S'form'
p1305
I11
tp1306
a(S'installation'
p1307
I11
tp1308
a(S'installed'
p1309
I11
tp1310
a(S'level'
p1311
I11
tp1312
a(S'lots'
p1313
I11
tp1314
a(S"mast's"
p1315
I11
tp1316
a(S'must'
p1317
I11
tp1318
a(S'natural'
p1319
I11
tp1320
a(S'number'
p1321
I11
tp1322
a(S'part'
p1323
I11
tp1324
a(S'pilots'
p1325
I11
tp1326
a(S'platform'
p1327
I11
tp1328
a(S'quite'
p1329
I11
tp1330
a(S'reading'
p1331
I11
tp1332
a(S'risks'
p1333
I11
tp1334
a(S'size'
p1335
I11
tp1336
a(S'speed'
p1337
I11
tp1338
a(S'spin'
p1339
I11
tp1340
a(S'stood'
p1341
I11
tp1342
a(S'success'
p1343
I11
tp1344
a(S'system'
p1345
I11
tp1346
a(S'taking'
p1347
I11
tp1348
a(S"that's"
p1349
I11
tp1350
a(S'times'
p1351
I11
tp1352
a(S'walking'
p1353
I11
tp1354
a(S"1930's"
p1355
I10
tp1356
a(S'airplanes'
p1357
I10
tp1358
a(S'area.the'
p1359
I10
tp1360
a(S'begin'
p1361
I10
tp1362
a(S'beginning'
p1363
I10
tp1364
a(S'bigger'
p1365
I10
tp1366
a(S'breaking'
p1367
I10
tp1368
a(S'cannot'
p1369
I10
tp1370
a(S'clearly'
p1371
I10
tp1372
a(S'contained'
p1373
I10
tp1374
a(S'cotton'
p1375
I10
tp1376
a(S'dangle'
p1377
I10
tp1378
a(S'difficulties'
p1379
I10
tp1380
a(S'directions'
p1381
I10
tp1382
a(S'drigible'
p1383
I10
tp1384
a(S'everyone'
p1385
I10
tp1386
a(S'expensive'
p1387
I10
tp1388
a(S'extreme'
p1389
I10
tp1390
a(S'fabric'
p1391
I10
tp1392
a(S'facing'
p1393
I10
tp1394
a(S'fate'
p1395
I10
tp1396
a(S'finished'
p1397
I10
tp1398
a(S'float'
p1399
I10
tp1400
a(S'goal'
p1401
I10
tp1402
a(S'harm'
p1403
I10
tp1404
a(S'holding'
p1405
I10
tp1406
a(S'hundreds'
p1407
I10
tp1408
a(S'impractical'
p1409
I10
tp1410
a(S'including'
p1411
I10
tp1412
a(S'meaning'
p1413
I10
tp1414
a(S'middle'
p1415
I10
tp1416
a(S'modification'
p1417
I10
tp1418
a(S'modifying'
p1419
I10
tp1420
a(S'noticed'
p1421
I10
tp1422
a(S'often'
p1423
I10
tp1424
a(S'originally'
p1425
I10
tp1426
a(S'overlooked'
p1427
I10
tp1428
a(S'preventing'
p1429
I10
tp1430
a(S'proven'
p1431
I10
tp1432
a(S'quietly'
p1433
I10
tp1434
a(S'seems'
p1435
I10
tp1436
a(S'short'
p1437
I10
tp1438
a(S'speeds'
p1439
I10
tp1440
a(S'stopped'
p1441
I10
tp1442
a(S'successfully'
p1443
I10
tp1444
a(S'technology'
p1445
I10
tp1446
a(S'there.in'
p1447
I10
tp1448
a(S'title'
p1449
I10
tp1450
a(S'unrealistic'
p1451
I10
tp1452
a(S'violently'
p1453
I10
tp1454
a(S"weren't"
p1455
I10
tp1456
a(S'withstand'
p1457
I10
tp1458
a(S'zeppelin'
p1459
I10
tp1460
a(S'(blimps)'
p1461
I9
tp1462
a(S'(par'
p1463
I9
tp1464
a(S'(para'
p1465
I9
tp1466
a(S'actual'
p1467
I9
tp1468
a(S'alone'
p1469
I9
tp1470
a(S'architectural'
p1471
I9
tp1472
a(S'attaching'
p1473
I9
tp1474
a(S'aviation'
p1475
I9
tp1476
a(S'base'
p1477
I9
tp1478
a(S'blew'
p1479
I9
tp1480
a(S'board'
p1481
I9
tp1482
a(S'boarding'
p1483
I9
tp1484
a(S'burst'
p1485
I9
tp1486
a(S'captain'
p1487
I9
tp1488
a(S'catastrophic'
p1489
I9
tp1490
a(S"date1's"
p1491
I9
tp1492
a(S'destroy'
p1493
I9
tp1494
a(S'dirigable'
p1495
I9
tp1496
a(S'dirigbles'
p1497
I9
tp1498
a(S'doomed'
p1499
I9
tp1500
a(S'efforts'
p1501
I9
tp1502
a(S'elevation'
p1503
I9
tp1504
a(S'forced'
p1505
I9
tp1506
a(S'gangplank'
p1507
I9
tp1508
a(S'highest'
p1509
I9
tp1510
a(S'keeping'
p1511
I9
tp1512
a(S'men'
p1513
I9
tp1514
a(S'mentioned'
p1515
I9
tp1516
a(S'nothing'
p1517
I9
tp1518
a(S'per'
p1519
I9
tp1520
a(S'plus'
p1521
I9
tp1522
a(S'point'
p1523
I9
tp1524
a(S'pop'
p1525
I9
tp1526
a(S'properly'
p1527
I9
tp1528
a(S'punctured'
p1529
I9
tp1530
a(S'quickly'
p1531
I9
tp1532
a(S'results'
p1533
I9
tp1534
a(S'say'
p1535
I9
tp1536
a(S'saying'
p1537
I9
tp1538
a(S'significant'
p1539
I9
tp1540
a(S'solution'
p1541
I9
tp1542
a(S'started'
p1543
I9
tp1544
a(S'stunt'
p1545
I9
tp1546
a(S'swinging'
p1547
I9
tp1548
a(S'swiveling'
p1549
I9
tp1550
a(S'tail'
p1551
I9
tp1552
a(S'town'
p1553
I9
tp1554
a(S'usually'
p1555
I9
tp1556
a(S'(@num3)'
p1557
I8
tp1558
a(S'(l\xfcsted'
p1559
I8
tp1560
a(S'11'
p1561
I8
tp1562
a(S'1929'
p1563
I8
tp1564
a(S'additional'
p1565
I8
tp1566
a(S'anyone'
p1567
I8
tp1568
a(S'areas.the'
p1569
I8
tp1570
a(S'caps5'
p1571
I8
tp1572
a(S'company'
p1573
I8
tp1574
a(S'competitive'
p1575
I8
tp1576
a(S'consideration'
p1577
I8
tp1578
a(S"could've"
p1579
I8
tp1580
a(S'crashed'
p1581
I8
tp1582
a(S'dangerously'
p1583
I8
tp1584
a(S'death'
p1585
I8
tp1586
a(S'devastating'
p1587
I8
tp1588
a(S'discovered'
p1589
I8
tp1590
a(S'effort'
p1591
I8
tp1592
a(S'falling'
p1593
I8
tp1594
a(S'fearing'
p1595
I8
tp1596
a(S'fit'
p1597
I8
tp1598
a(S'greater'
p1599
I8
tp1600
a(S'happening'
p1601
I8
tp1602
a(S'heights'
p1603
I8
tp1604
a(S'hight'
p1605
I8
tp1606
a(S'killed'
p1607
I8
tp1608
a(S'legally'
p1609
I8
tp1610
a(S'life'
p1611
I8
tp1612
a(S'light'
p1613
I8
tp1614
a(S'mast.the'
p1615
I8
tp1616
a(S'miles'
p1617
I8
tp1618
a(S'mind'
p1619
I8
tp1620
a(S'mostly'
p1621
I8
tp1622
a(S'naval'
p1623
I8
tp1624
a(S'obstical'
p1625
I8
tp1626
a(S'occur'
p1627
I8
tp1628
a(S'opportunity'
p1629
I8
tp1630
a(S'passed'
p1631
I8
tp1632
a(S'pioneers'
p1633
I8
tp1634
a(S'possibility'
p1635
I8
tp1636
a(S'postpone'
p1637
I8
tp1638
a(S'power'
p1639
I8
tp1640
a(S'practicality'
p1641
I8
tp1642
a(S'president'
p1643
I8
tp1644
a(S'proves'
p1645
I8
tp1646
a(S'purpose.the'
p1647
I8
tp1648
a(S'reached'
p1649
I8
tp1650
a(S'role'
p1651
I8
tp1652
a(S'room'
p1653
I8
tp1654
a(S'serve'
p1655
I8
tp1656
a(S'side'
p1657
I8
tp1658
a(S'similar'
p1659
I8
tp1660
a(S'someone'
p1661
I8
tp1662
a(S'strength'
p1663
I8
tp1664
a(S'surrounding'
p1665
I8
tp1666
a(S'transport'
p1667
I8
tp1668
a(S'tremendous'
p1669
I8
tp1670
a(S'true'
p1671
I8
tp1672
a(S'unlike'
p1673
I8
tp1674
a(S'vision'
p1675
I8
tp1676
a(S'washington'
p1677
I8
tp1678
a(S'workable'
p1679
I8
tp1680
a(S'written'
p1681
I8
tp1682
a(S'affect'
p1683
I7
tp1684
a(S'afloat'
p1685
I7
tp1686
a(S'age'
p1687
I7
tp1688
a(S'altitudes'
p1689
I7
tp1690
a(S'american'
p1691
I7
tp1692
a(S'anchored'
p1693
I7
tp1694
a(S'arrangement'
p1695
I7
tp1696
a(S'break'
p1697
I7
tp1698
a(S'breeze'
p1699
I7
tp1700
a(S'building.there'
p1701
I7
tp1702
a(S'catastrophe'
p1703
I7
tp1704
a(S'catching'
p1705
I7
tp1706
a(S'clavan'
p1707
I7
tp1708
a(S'completely'
p1709
I7
tp1710
a(S'consider'
p1711
I7
tp1712
a(S'consult'
p1713
I7
tp1714
a(S'consulted'
p1715
I7
tp1716
a(S'crafts'
p1717
I7
tp1718
a(S'day'
p1719
I7
tp1720
a(S'dense'
p1721
I7
tp1722
a(S'destruction'
p1723
I7
tp1724
a(S'die'
p1725
I7
tp1726
a(S'diribles'
p1727
I7
tp1728
a(S'dirigibles.the'
p1729
I7
tp1730
a(S"don't"
p1731
I7
tp1732
a(S'equipped'
p1733
I7
tp1734
a(S'expectations'
p1735
I7
tp1736
a(S'faced.the'
p1737
I7
tp1738
a(S'fell'
p1739
I7
tp1740
a(S'field'
p1741
I7
tp1742
a(S'finding'
p1743
I7
tp1744
a(S'firstly'
p1745
I7
tp1746
a(S'flamible'
p1747
I7
tp1748
a(S'flammability'
p1749
I7
tp1750
a(S'forgot'
p1751
I7
tp1752
a(S'freely'
p1753
I7
tp1754
a(S'fulfilling'
p1755
I7
tp1756
a(S'furthermore'
p1757
I7
tp1758
a(S'hat'
p1759
I7
tp1760
a(S'hopes'
p1761
I7
tp1762
a(S'house'
p1763
I7
tp1764
a(S'intense'
p1765
I7
tp1766
a(S'it.the'
p1767
I7
tp1768
a(S'key'
p1769
I7
tp1770
a(S'kill'
p1771
I7
tp1772
a(S'killing'
p1773
I7
tp1774
a(S'least'
p1775
I7
tp1776
a(S'left'
p1777
I7
tp1778
a(S'likely'
p1779
I7
tp1780
a(S'look'
p1781
I7
tp1782
a(S'lost'
p1783
I7
tp1784
a(S'low-flying'
p1785
I7
tp1786
a(S'man'
p1787
I7
tp1788
a(S'mast.in'
p1789
I7
tp1790
a(S'matter'
p1791
I7
tp1792
a(S'met'
p1793
I7
tp1794
a(S'nearby'
p1795
I7
tp1796
a(S'normally'
p1797
I7
tp1798
a(S'pilot'
p1799
I7
tp1800
a(S'placed'
p1801
I7
tp1802
a(S'play'
p1803
I7
tp1804
a(S'played'
p1805
I7
tp1806
a(S'population'
p1807
I7
tp1808
a(S'prevent'
p1809
I7
tp1810
a(S'push'
p1811
I7
tp1812
a(S'relized'
p1813
I7
tp1814
a(S'rest'
p1815
I7
tp1816
a(S'run'
p1817
I7
tp1818
a(S'safe.the'
p1819
I7
tp1820
a(S'served'
p1821
I7
tp1822
a(S'shape'
p1823
I7
tp1824
a(S'shown'
p1825
I7
tp1826
a(S'sky'
p1827
I7
tp1828
a(S'sounded'
p1829
I7
tp1830
a(S'spot'
p1831
I7
tp1832
a(S'stability'
p1833
I7
tp1834
a(S'stand'
p1835
I7
tp1836
a(S'steady'
p1837
I7
tp1838
a(S'stressed'
p1839
I7
tp1840
a(S'sturdy'
p1841
I7
tp1842
a(S'substance'
p1843
I7
tp1844
a(S'team'
p1845
I7
tp1846
a(S'together'
p1847
I7
tp1848
a(S'tours'
p1849
I7
tp1850
a(S'trouble'
p1851
I7
tp1852
a(S'turn'
p1853
I7
tp1854
a(S'ultimately'
p1855
I7
tp1856
a(S'unload'
p1857
I7
tp1858
a(S'useful'
p1859
I7
tp1860
a(S'various'
p1861
I7
tp1862
a(S'wich'
p1863
I7
tp1864
a(S'wings'
p1865
I7
tp1866
a(S'accidents'
p1867
I6
tp1868
a(S'affected'
p1869
I6
tp1870
a(S'airspace'
p1871
I6
tp1872
a(S'amounts'
p1873
I6
tp1874
a(S'based'
p1875
I6
tp1876
a(S'below.the'
p1877
I6
tp1878
a(S'blind'
p1879
I6
tp1880
a(S'brilliant'
p1881
I6
tp1882
a(S'building.based'
p1883
I6
tp1884
a(S'bundle'
p1885
I6
tp1886
a(S'burn'
p1887
I6
tp1888
a(S'carry'
p1889
I6
tp1890
a(S'casualties'
p1891
I6
tp1892
a(S'columbia'
p1893
I6
tp1894
a(S'concerning'
p1895
I6
tp1896
a(S'confronted'
p1897
I6
tp1898
a(S'continued'
p1899
I6
tp1900
a(S'contributed'
p1901
I6
tp1902
a(S'country'
p1903
I6
tp1904
a(S'craft'
p1905
I6
tp1906
a(S'creation'
p1907
I6
tp1908
a(S'dealt'
p1909
I6
tp1910
a(S'deck'
p1911
I6
tp1912
a(S'deliver'
p1913
I6
tp1914
a(S'directly'
p1915
I6
tp1916
a(S'dirigables'
p1917
I6
tp1918
a(S'disappeared'
p1919
I6
tp1920
a(S'dope'
p1921
I6
tp1922
a(S'effects'
p1923
I6
tp1924
a(S'elevators'
p1925
I6
tp1926
a(S'endangering'
p1927
I6
tp1928
a(S'envelopes'
p1929
I6
tp1930
a(S'every'
p1931
I6
tp1932
a(S'explained'
p1933
I6
tp1934
a(S'face.the'
p1935
I6
tp1936
a(S'flameable'
p1937
I6
tp1938
a(S'flaw'
p1939
I6
tp1940
a(S'forefront'
p1941
I6
tp1942
a(S'forth'
p1943
I6
tp1944
a(S'four-term'
p1945
I6
tp1946
a(S'fuel'
p1947
I6
tp1948
a(S'fulfilled'
p1949
I6
tp1950
a(S'giant'
p1951
I6
tp1952
a(S'handle'
p1953
I6
tp1954
a(S'hauled'
p1955
I6
tp1956
a(S'heavily'
p1957
I6
tp1958
a(S'hitting'
p1959
I6
tp1960
a(S'hour'
p1961
I6
tp1962
a(S'importantly'
p1963
I6
tp1964
a(S'incredibly'
p1965
I6
tp1966
a(S'intended'
p1967
I6
tp1968
a(S'interfered'
p1969
I6
tp1970
a(S"isn't"
p1971
I6
tp1972
a(S'materials'
p1973
I6
tp1974
a(S'necessary'
p1975
I6
tp1976
a(S'newspapers'
p1977
I6
tp1978
a(S'nobody'
p1979
I6
tp1980
a(S'obstacals'
p1981
I6
tp1982
a(S'ones'
p1983
I6
tp1984
a(S'piece'
p1985
I6
tp1986
a(S'post'
p1987
I6
tp1988
a(S'pre-existing'
p1989
I6
tp1990
a(S'pretty'
p1991
I6
tp1992
a(S'pushed'
p1993
I6
tp1994
a(S'rapidly'
p1995
I6
tp1996
a(S'ready'
p1997
I6
tp1998
a(S'rear'
p1999
I6
tp2000
a(S'reinforce'
p2001
I6
tp2002
a(S'research'
p2003
I6
tp2004
a(S'restricting'
p2005
I6
tp2006
a(S'rope'
p2007
I6
tp2008
a(S'secure'
p2009
I6
tp2010
a(S'seem'
p2011
I6
tp2012
a(S'self'
p2013
I6
tp2014
a(S'soda'
p2015
I6
tp2016
a(S'sound'
p2017
I6
tp2018
a(S'succeed'
p2019
I6
tp2020
a(S'succeeded'
p2021
I6
tp2022
a(S'tea'
p2023
I6
tp2024
a(S'text'
p2025
I6
tp2026
a(S'thats'
p2027
I6
tp2028
a(S'ways'
p2029
I6
tp2030
a(S'worlds'
p2031
I6
tp2032
a(S'worst'
p2033
I6
tp2034
a(S'york.in'
p2035
I6
tp2036
a(S"'the"
p2037
I5
tp2038
a(S'(@caps1)'
p2039
I5
tp2040
a(S'+'
I5
tp2041
a(S'1'
I5
tp2042
a(S'1)'
p2043
I5
tp2044
a(S'1920s'
p2045
I5
tp2046
a(S'85th'
p2047
I5
tp2048
a(S'achieve'
p2049
I5
tp2050
a(S'architecture'
p2051
I5
tp2052
a(S'arm'
p2053
I5
tp2054
a(S'aspect'
p2055
I5
tp2056
a(S'baggage'
p2057
I5
tp2058
a(S'banned'
p2059
I5
tp2060
a(S'building.one'
p2061
I5
tp2062
a(S'building;'
p2063
I5
tp2064
a(S'burned'
p2065
I5
tp2066
a(S'chances'
p2067
I5
tp2068
a(S'competition'
p2069
I5
tp2070
a(S'conflict'
p2071
I5
tp2072
a(S'connected'
p2073
I5
tp2074
a(S'consisted'
p2075
I5
tp2076
a(S'costed'
p2077
I5
tp2078
a(S'costly'
p2079
I5
tp2080
a(S'course'
p2081
I5
tp2082
a(S'crashing'
p2083
I5
tp2084
a(S'crew'
p2085
I5
tp2086
a(S'derigible'
p2087
I5
tp2088
a(S'despite'
p2089
I5
tp2090
a(S'determined'
p2091
I5
tp2092
a(S'dock.the'
p2093
I5
tp2094
a(S"dollar's"
p2095
I5
tp2096
a(S'dont'
p2097
I5
tp2098
a(S'dropping'
p2099
I5
tp2100
a(S'edges'
p2101
I5
tp2102
a(S'elements'
p2103
I5
tp2104
a(S'extremly'
p2105
I5
tp2106
a(S'famous'
p2107
I5
tp2108
a(S'fierce'
p2109
I5
tp2110
a(S'fountain'
p2111
I5
tp2112
a(S'frames'
p2113
I5
tp2114
a(S'hands'
p2115
I5
tp2116
a(S'hang'
p2117
I5
tp2118
a(S'harder'
p2119
I5
tp2120
a(S'harmed'
p2121
I5
tp2122
a(S'hieght'
p2123
I5
tp2124
a(S'hindered'
p2125
I5
tp2126
a(S'imitated'
p2127
I5
tp2128
a(S'include'
p2129
I5
tp2130
a(S'injured'
p2131
I5
tp2132
a(S'introduced'
p2133
I5
tp2134
a(S'learn'
p2135
I5
tp2136
a(S'less'
p2137
I5
tp2138
a(S'loading'
p2139
I5
tp2140
a(S'location3'
p2141
I5
tp2142
a(S'losing'
p2143
I5
tp2144
a(S'machinery'
p2145
I5
tp2146
a(S'mast.there'
p2147
I5
tp2148
a(S'material'
p2149
I5
tp2150
a(S'mean'
p2151
I5
tp2152
a(S'moore'
p2153
I5
tp2154
a(S'morning'
p2155
I5
tp2156
a(S'object'
p2157
I5
tp2158
a(S'obstacles.the'
p2159
I5
tp2160
a(S'occured'
p2161
I5
tp2162
a(S'ocean'
p2163
I5
tp2164
a(S'ontop'
p2165
I5
tp2166
a(S'operations'
p2167
I5
tp2168
a(S'ornamentation'
p2169
I5
tp2170
a(S'papers'
p2171
I5
tp2172
a(S'parts'
p2173
I5
tp2174
a(S'pay'
p2175
I5
tp2176
a(S'peak'
p2177
I5
tp2178
a(S'perhaps'
p2179
I5
tp2180
a(S'places'
p2181
I5
tp2182
a(S'popular'
p2183
I5
tp2184
a(S'powerful'
p2185
I5
tp2186
a(S'present'
p2187
I5
tp2188
a(S'problems.the'
p2189
I5
tp2190
a(S'propellers'
p2191
I5
tp2192
a(S'proper'
p2193
I5
tp2194
a(S'proposed'
p2195
I5
tp2196
a(S'publicity'
p2197
I5
tp2198
a(S'pull'
p2199
I5
tp2200
a(S'raised'
p2201
I5
tp2202
a(S'realizing'
p2203
I5
tp2204
a(S'redesign'
p2205
I5
tp2206
a(S'regarding'
p2207
I5
tp2208
a(S'rocket'
p2209
I5
tp2210
a(S'safest'
p2211
I5
tp2212
a(S'severe'
p2213
I5
tp2214
a(S'show'
p2215
I5
tp2216
a(S'showed'
p2217
I5
tp2218
a(S'sometimes'
p2219
I5
tp2220
a(S'spark'
p2221
I5
tp2222
a(S'stake'
p2223
I5
tp2224
a(S'starting'
p2225
I5
tp2226
a(S'staying'
p2227
I5
tp2228
a(S'steelframe'
p2229
I5
tp2230
a(S'supported'
p2231
I5
tp2232
a(S'talks'
p2233
I5
tp2234
a(S'tells'
p2235
I5
tp2236
a(S'terrible'
p2237
I5
tp2238
a(S'thirteen'
p2239
I5
tp2240
a(S'tossed'
p2241
I5
tp2242
a(S'traveling'
p2243
I5
tp2244
a(S'turned'
p2245
I5
tp2246
a(S'turning'
p2247
I5
tp2248
a(S'type'
p2249
I5
tp2250
a(S'unless'
p2251
I5
tp2252
a(S'uses'
p2253
I5
tp2254
a(S'utilitarian'
p2255
I5
tp2256
a(S'wasnt'
p2257
I5
tp2258
a(S'wire'
p2259
I5
tp2260
a(S'worried'
p2261
I5
tp2262
a(S'wouldnt'
p2263
I5
tp2264
a(S'writes'
p2265
I5
tp2266
a(S'zepplins'
p2267
I5
tp2268
a(S'(@caps2'
p2269
I4
tp2270
a(S'(@num1'
p2271
I4
tp2272
a(S'(@num4)'
p2273
I4
tp2274
a(S'(l\xfcsted)'
p2275
I4
tp2276
a(S'(pg'
p2277
I4
tp2278
a(S'-'
I4
tp2279
a(S'102nd'
p2280
I4
tp2281
a(S'185'
p2282
I4
tp2283
a(S'46'
p2284
I4
tp2285
a(S'accomodate'
p2286
I4
tp2287
a(S'afraid'
p2288
I4
tp2289
a(S'aloft'
p2290
I4
tp2291
a(S'anyway'
p2292
I4
tp2293
a(S'apart'
p2294
I4
tp2295
a(S'areas.in'
p2296
I4
tp2297
a(S'bad.the'
p2298
I4
tp2299
a(S'banning'
p2300
I4
tp2301
a(S'basically'
p2302
I4
tp2303
a(S'bit'
p2304
I4
tp2305
a(S'blimbs'
p2306
I4
tp2307
a(S'builders.the'
p2308
I4
tp2309
a(S'building.when'
p2310
I4
tp2311
a(S'buildingthe'
p2312
I4
tp2313
a(S'calling'
p2314
I4
tp2315
a(S'cant'
p2316
I4
tp2317
a(S'caps1.s.b'
p2318
I4
tp2319
a(S'caps6'
p2320
I4
tp2321
a(S'caps8'
p2322
I4
tp2323
a(S'care'
p2324
I4
tp2325
a(S'carefully'
p2326
I4
tp2327
a(S'causes'
p2328
I4
tp2329
a(S'chrome'
p2330
I4
tp2331
a(S'city.another'
p2332
I4
tp2333
a(S'climate'
p2334
I4
tp2335
a(S'combat'
p2336
I4
tp2337
a(S'combined'
p2338
I4
tp2339
a(S'comes'
p2340
I4
tp2341
a(S'completing'
p2342
I4
tp2343
a(S'conical'
p2344
I4
tp2345
a(S'considering'
p2346
I4
tp2347
a(S'constant'
p2348
I4
tp2349
a(S'controlled'
p2350
I4
tp2351
a(S'corners'
p2352
I4
tp2353
a(S'costing'
p2354
I4
tp2355
a(S'countless'
p2356
I4
tp2357
a(S'couple'
p2358
I4
tp2359
a(S'dangerouse'
p2360
I4
tp2361
a(S'deaths'
p2362
I4
tp2363
a(S'defeat'
p2364
I4
tp2365
a(S'definitely'
p2366
I4
tp2367
a(S'desired'
p2368
I4
tp2369
a(S'device'
p2370
I4
tp2371
a(S'direction'
p2372
I4
tp2373
a(S'dirigble'
p2374
I4
tp2375
a(S'disastrous'
p2376
I4
tp2377
a(S'doubt'
p2378
I4
tp2379
a(S'element'
p2380
I4
tp2381
a(S'else'
p2382
I4
tp2383
a(S'ended'
p2384
I4
tp2385
a(S'evident'
p2386
I4
tp2387
a(S'excited'
p2388
I4
tp2389
a(S'exploding'
p2390
I4
tp2391
a(S'explosive'
p2392
I4
tp2393
a(S'fatal'
p2394
I4
tp2395
a(S'feat'
p2396
I4
tp2397
a(S'flag'
p2398
I4
tp2399
a(S'flaming'
p2400
I4
tp2401
a(S'flammible'
p2402
I4
tp2403
a(S'flew'
p2404
I4
tp2405
a(S'forbade'
p2406
I4
tp2407
a(S'formed'
p2408
I4
tp2409
a(S'fourteen'
p2410
I4
tp2411
a(S'fueled'
p2412
I4
tp2413
a(S'gave'
p2414
I4
tp2415
a(S'gone'
p2416
I4
tp2417
a(S'gusts'
p2418
I4
tp2419
a(S'half'
p2420
I4
tp2421
a(S'harming'
p2422
I4
tp2423
a(S'hole'
p2424
I4
tp2425
a(S'hope'
p2426
I4
tp2427
a(S'horrible'
p2428
I4
tp2429
a(S'ignited'
p2430
I4
tp2431
a(S'immense'
p2432
I4
tp2433
a(S'information'
p2434
I4
tp2435
a(S'instance'
p2436
I4
tp2437
a(S'invented'
p2438
I4
tp2439
a(S'involving'
p2440
I4
tp2441
a(S'irving'
p2442
I4
tp2443
a(S'itself.the'
p2444
I4
tp2445
a(S'john'
p2446
I4
tp2447
a(S'kind'
p2448
I4
tp2449
a(S'knock'
p2450
I4
tp2451
a(S'leader'
p2452
I4
tp2453
a(S'leading'
p2454
I4
tp2455
a(S'leaving'
p2456
I4
tp2457
a(S'legislation'
p2458
I4
tp2459
a(S'levers'
p2460
I4
tp2461
a(S'little'
p2462
I4
tp2463
a(S'loose'
p2464
I4
tp2465
a(S'lower'
p2466
I4
tp2467
a(S'managed'
p2468
I4
tp2469
a(S"mast'"
p2470
I4
tp2471
a(S'maybe'
p2472
I4
tp2473
a(S'meet'
p2474
I4
tp2475
a(S'meeting'
p2476
I4
tp2477
a(S'mention'
p2478
I4
tp2479
a(S'mentions'
p2480
I4
tp2481
a(S'metal'
p2482
I4
tp2483
a(S'millions'
p2484
I4
tp2485
a(S'moreover'
p2486
I4
tp2487
a(S'moring'
p2488
I4
tp2489
a(S'mount'
p2490
I4
tp2491
a(S'named'
p2492
I4
tp2493
a(S'needing'
p2494
I4
tp2495
a(S'objects'
p2496
I4
tp2497
a(S'obsticale'
p2498
I4
tp2499
a(S'offered'
p2500
I4
tp2501
a(S'opened'
p2502
I4
tp2503
a(S'operation'
p2504
I4
tp2505
a(S'opposed'
p2506
I4
tp2507
a(S"organization2's"
p2508
I4
tp2509
a(S'organization3'
p2510
I4
tp2511
a(S'outcome'
p2512
I4
tp2513
a(S'overcame'
p2514
I4
tp2515
a(S'pacific'
p2516
I4
tp2517
a(S'page'
p2518
I4
tp2519
a(S'passangers'
p2520
I4
tp2521
a(S'pedestrian'
p2522
I4
tp2523
a(S'people.the'
p2524
I4
tp2525
a(S'perfectly'
p2526
I4
tp2527
a(S'popped'
p2528
I4
tp2529
a(S'practicle'
p2530
I4
tp2531
a(S'precautions'
p2532
I4
tp2533
a(S'previous'
p2534
I4
tp2535
a(S'prohibit'
p2536
I4
tp2537
a(S'property'
p2538
I4
tp2539
a(S'provide'
p2540
I4
tp2541
a(S'provided'
p2542
I4
tp2543
a(S'puncturing'
p2544
I4
tp2545
a(S'pushing'
p2546
I4
tp2547
a(S'read'
p2548
I4
tp2549
a(S'reinforced'
p2550
I4
tp2551
a(S'remain'
p2552
I4
tp2553
a(S'required'
p2554
I4
tp2555
a(S'restricted'
p2556
I4
tp2557
a(S'rise'
p2558
I4
tp2559
a(S'ropes'
p2560
I4
tp2561
a(S'routes'
p2562
I4
tp2563
a(S'ruled'
p2564
I4
tp2565
a(S'rural'
p2566
I4
tp2567
a(S'safe.in'
p2568
I4
tp2569
a(S'safer'
p2570
I4
tp2571
a(S'seeing'
p2572
I4
tp2573
a(S'seen'
p2574
I4
tp2575
a(S'sense'
p2576
I4
tp2577
a(S'shocked'
p2578
I4
tp2579
a(S"should've"
p2580
I4
tp2581
a(S'simple'
p2582
I4
tp2583
a(S'situations'
p2584
I4
tp2585
a(S'skyscraper'
p2586
I4
tp2587
a(S'small'
p2588
I4
tp2589
a(S'stairs'
p2590
I4
tp2591
a(S'stepped-back'
p2592
I4
tp2593
a(S'struggle'
p2594
I4
tp2595
a(S'struggled'
p2596
I4
tp2597
a(S'supposed'
p2598
I4
tp2599
a(S'swirling'
p2600
I4
tp2601
a(S'takes'
p2602
I4
tp2603
a(S'talk'
p2604
I4
tp2605
a(S'test'
p2606
I4
tp2607
a(S'there.based'
p2608
I4
tp2609
a(S'there.one'
p2610
I4
tp2611
a(S"they'd"
p2612
I4
tp2613
a(S'towards'
p2614
I4
tp2615
a(S'tragic'
p2616
I4
tp2617
a(S'transmit'
p2618
I4
tp2619
a(S'troubles'
p2620
I4
tp2621
a(S'unpractical'
p2622
I4
tp2623
a(S'us'
p2624
I4
tp2625
a(S'used.the'
p2626
I4
tp2627
a(S'useless'
p2628
I4
tp2629
a(S'violations'
p2630
I4
tp2631
a(S"we're"
p2632
I4
tp2633
a(S'weighing'
p2634
I4
tp2635
a(S'weighting'
p2636
I4
tp2637
a(S'wins'
p2638
I4
tp2639
a(S'witch'
p2640
I4
tp2641
a(S"won't"
p2642
I4
tp2643
a(S'work.the'
p2644
I4
tp2645
a(S"york's"
p2646
I4
tp2647
a(S'(a'
p2648
I3
tp2649
a(S'(which'
p2650
I3
tp2651
a(S'(\xb6@num1)'
p2652
I3
tp2653
a(S'101st'
p2654
I3
tp2655
a(S'6)'
p2656
I3
tp2657
a(S'ability'
p2658
I3
tp2659
a(S'achieved'
p2660
I3
tp2661
a(S'adapt'
p2662
I3
tp2663
a(S'additionally'
p2664
I3
tp2665
a(S'address'
p2666
I3
tp2667
a(S'addressed'
p2668
I3
tp2669
a(S'adds'
p2670
I3
tp2671
a(S'adjusted'
p2672
I3
tp2673
a(S'ahead'
p2674
I3
tp2675
a(S'airplane'
p2676
I3
tp2677
a(S"alway's"
p2678
I3
tp2679
a(S'amazing'
p2680
I3
tp2681
a(S'anchoring'
p2682
I3
tp2683
a(S'answer'
p2684
I3
tp2685
a(S'architecs'
p2686
I3
tp2687
a(S'areasthe'
p2688
I3
tp2689
a(S'aside'
p2690
I3
tp2691
a(S'attemp'
p2692
I3
tp2693
a(S'attention'
p2694
I3
tp2695
a(S'availability'
p2696
I3
tp2697
a(S'backs'
p2698
I3
tp2699
a(S'ballon'
p2700
I3
tp2701
a(S'ballons'
p2702
I3
tp2703
a(S'baloon'
p2704
I3
tp2705
a(S'becuse'
p2706
I3
tp2707
a(S'besides'
p2708
I3
tp2709
a(S'best'
p2710
I3
tp2711
a(S'better'
p2712
I3
tp2713
a(S'blimb'
p2714
I3
tp2715
a(S'blinded'
p2716
I3
tp2717
a(S'broke'
p2718
I3
tp2719
a(S'broken'
p2720
I3
tp2721
a(S"builders'"
p2722
I3
tp2723
a(S'building.some'
p2724
I3
tp2725
a(S'building.while'
p2726
I3
tp2727
a(S'building]'
p2728
I3
tp2729
a(S'buildingin'
p2730
I3
tp2731
a(S'busy'
p2732
I3
tp2733
a(S'call'
p2734
I3
tp2735
a(S'caps7'
p2736
I3
tp2737
a(S'caps9'
p2738
I3
tp2739
a(S'cargo'
p2740
I3
tp2741
a(S'case'
p2742
I3
tp2743
a(S'certainly'
p2744
I3
tp2745
a(S'challenged'
p2746
I3
tp2747
a(S'chemical'
p2748
I3
tp2749
a(S'circle'
p2750
I3
tp2751
a(S"city's"
p2752
I3
tp2753
a(S'colapse'
p2754
I3
tp2755
a(S'commonly'
p2756
I3
tp2757
a(S'completion'
p2758
I3
tp2759
a(S'complicated'
p2760
I3
tp2761
a(S'concept'
p2762
I3
tp2763
a(S'condition'
p2764
I3
tp2765
a(S'controll'
p2766
I3
tp2767
a(S'crazy'
p2768
I3
tp2769
a(S'creators'
p2770
I3
tp2771
a(S'crowds'
p2772
I3
tp2773
a(S'damaged'
p2774
I3
tp2775
a(S'dealing'
p2776
I3
tp2777
a(S'decision'
p2778
I3
tp2779
a(S'density'
p2780
I3
tp2781
a(S'densly'
p2782
I3
tp2783
a(S'describe'
p2784
I3
tp2785
a(S'develope'
p2786
I3
tp2787
a(S'development'
p2788
I3
tp2789
a(S'differences'
p2790
I3
tp2791
a(S'dirgibles'
p2792
I3
tp2793
a(S'dirible'
p2794
I3
tp2795
a(S'dirigibles.in'
p2796
I3
tp2797
a(S'dirigles'
p2798
I3
tp2799
a(S'discussed'
p2800
I3
tp2801
a(S'distribute'
p2802
I3
tp2803
a(S'dollars.the'
p2804
I3
tp2805
a(S'drastic'
p2806
I3
tp2807
a(S'dropped.the'
p2808
I3
tp2809
a(S'early'
p2810
I3
tp2811
a(S'easier'
p2812
I3
tp2813
a(S'eighty'
p2814
I3
tp2815
a(S'eighty-sixth'
p2816
I3
tp2817
a(S'encounter'
p2818
I3
tp2819
a(S'endanger'
p2820
I3
tp2821
a(S'endured'
p2822
I3
tp2823
a(S'ensure'
p2824
I3
tp2825
a(S'enter'
p2826
I3
tp2827
a(S'environment'
p2828
I3
tp2829
a(S'everywhere'
p2830
I3
tp2831
a(S'except'
p2832
I3
tp2833
a(S'exist'
p2834
I3
tp2835
a(S'existed'
p2836
I3
tp2837
a(S'exit'
p2838
I3
tp2839
a(S'experienced'
p2840
I3
tp2841
a(S'factual'
p2842
I3
tp2843
a(S'faded'
p2844
I3
tp2845
a(S'fast'
p2846
I3
tp2847
a(S'fifty'
p2848
I3
tp2849
a(S'fill'
p2850
I3
tp2851
a(S'fixing'
p2852
I3
tp2853
a(S'following'
p2854
I3
tp2855
a(S'forces'
p2856
I3
tp2857
a(S'fore'
p2858
I3
tp2859
a(S'former'
p2860
I3
tp2861
a(S'fram'
p2862
I3
tp2863
a(S'frequently'
p2864
I3
tp2865
a(S'ful'
p2866
I3
tp2867
a(S'funds'
p2868
I3
tp2869
a(S'garden'
p2870
I3
tp2871
a(S'gets'
p2872
I3
tp2873
a(S'goals'
p2874
I3
tp2875
a(S'goes'
p2876
I3
tp2877
a(S'goodyear'
p2878
I3
tp2879
a(S'grand'
p2880
I3
tp2881
a(S"hadn't"
p2882
I3
tp2883
a(S'hailed'
p2884
I3
tp2885
a(S'halted'
p2886
I3
tp2887
a(S'hardships'
p2888
I3
tp2889
a(S'high-speed'
p2890
I3
tp2891
a(S'hook'
p2892
I3
tp2893
a(S'hung'
p2894
I3
tp2895
a(S'idea.in'
p2896
I3
tp2897
a(S'ideal'
p2898
I3
tp2899
a(S'impact'
p2900
I3
tp2901
a(S'incredible'
p2902
I3
tp2903
a(S'injuries'
p2904
I3
tp2905
a(S'innocent'
p2906
I3
tp2907
a(S'innovative'
p2908
I3
tp2909
a(S'install'
p2910
I3
tp2911
a(S'international'
p2912
I3
tp2913
a(S'jersey.the'
p2914
I3
tp2915
a(S'kidding'
p2916
I3
tp2917
a(S'lacked'
p2918
I3
tp2919
a(S'landmark'
p2920
I3
tp2921
a(S'larger'
p2922
I3
tp2923
a(S'leave'
p2924
I3
tp2925
a(S'lined'
p2926
I3
tp2927
a(S'lose'
p2928
I3
tp2929
a(S'maintain'
p2930
I3
tp2931
a(S'maneuvered'
p2932
I3
tp2933
a(S'mast.another'
p2934
I3
tp2935
a(S'mast;'
p2936
I3
tp2937
a(S'masts'
p2938
I3
tp2939
a(S'ment'
p2940
I3
tp2941
a(S'milles'
p2942
I3
tp2943
a(S'months'
p2944
I3
tp2945
a(S'moorning'
p2946
I3
tp2947
a(S'moved'
p2948
I3
tp2949
a(S"nature's"
p2950
I3
tp2951
a(S'nature;'
p2952
I3
tp2953
a(S'needs'
p2954
I3
tp2955
a(S'newly'
p2956
I3
tp2957
a(S'newspaper'
p2958
I3
tp2959
a(S'non-u.s'
p2960
I3
tp2961
a(S'num4'
p2962
I3
tp2963
a(S'num4)'
p2964
I3
tp2965
a(S'obstacal'
p2966
I3
tp2967
a(S'obstacles.in'
p2968
I3
tp2969
a(S'okay'
p2970
I3
tp2971
a(S'organization1.the'
p2972
I3
tp2973
a(S'others'
p2974
I3
tp2975
a(S'outstrip'
p2976
I3
tp2977
a(S'perfect'
p2978
I3
tp2979
a(S'person'
p2980
I3
tp2981
a(S'place.based'
p2982
I3
tp2983
a(S'planes'
p2984
I3
tp2985
a(S'plank'
p2986
I3
tp2987
a(S'points'
p2988
I3
tp2989
a(S'possibilities'
p2990
I3
tp2991
a(S'postponed'
p2992
I3
tp2993
a(S'pound'
p2994
I3
tp2995
a(S'powered'
p2996
I3
tp2997
a(S'probably'
p2998
I3
tp2999
a(S'problemb'
p3000
I3
tp3001
a(S'proceeded'
p3002
I3
tp3003
a(S'progress'
p3004
I3
tp3005
a(S'prohibits'
p3006
I3
tp3007
a(S'project.the'
p3008
I3
tp3009
a(S'prove'
p3010
I3
tp3011
a(S'proving'
p3012
I3
tp3013
a(S'pulling'
p3014
I3
tp3015
a(S'purposes'
p3016
I3
tp3017
a(S'question'
p3018
I3
tp3019
a(S'quick'
p3020
I3
tp3021
a(S'radical'
p3022
I3
tp3023
a(S'rate'
p3024
I3
tp3025
a(S'reaching'
p3026
I3
tp3027
a(S'reader'
p3028
I3
tp3029
a(S'real'
p3030
I3
tp3031
a(S'realistic'
p3032
I3
tp3033
a(S'reality.the'
p3034
I3
tp3035
a(S'reasons.the'
p3036
I3
tp3037
a(S'recent'
p3038
I3
tp3039
a(S'recently'
p3040
I3
tp3041
a(S'redesigning'
p3042
I3
tp3043
a(S'refule'
p3044
I3
tp3045
a(S'reinforcing'
p3046
I3
tp3047
a(S'remodel'
p3048
I3
tp3049
a(S'renovations'
p3050
I3
tp3051
a(S'restrictions'
p3052
I3
tp3053
a(S'resulted'
p3054
I3
tp3055
a(S'revolutionary'
p3056
I3
tp3057
a(S'ride'
p3058
I3
tp3059
a(S'rooms'
p3060
I3
tp3061
a(S'rough'
p3062
I3
tp3063
a(S'safe.there'
p3064
I3
tp3065
a(S'secretly'
p3066
I3
tp3067
a(S'section'
p3068
I3
tp3069
a(S'securely'
p3070
I3
tp3071
a(S'send'
p3072
I3
tp3073
a(S'sent'
p3074
I3
tp3075
a(S'seventy'
p3076
I3
tp3077
a(S'shifts'
p3078
I3
tp3079
a(S'shut'
p3080
I3
tp3081
a(S'six'
p3082
I3
tp3083
a(S'smart'
p3084
I3
tp3085
a(S'sort'
p3086
I3
tp3087
a(S'special'
p3088
I3
tp3089
a(S'spending'
p3090
I3
tp3091
a(S'spinning'
p3092
I3
tp3093
a(S'steal'
p3094
I3
tp3095
a(S'steel-framed'
p3096
I3
tp3097
a(S'stopping'
p3098
I3
tp3099
a(S'stories'
p3100
I3
tp3101
a(S'struggles'
p3102
I3
tp3103
a(S'suit'
p3104
I3
tp3105
a(S'supports'
p3106
I3
tp3107
a(S'swayed'
p3108
I3
tp3109
a(S'swiveled'
p3110
I3
tp3111
a(S'swung'
p3112
I3
tp3113
a(S'tear'
p3114
I3
tp3115
a(S'tension'
p3116
I3
tp3117
a(S'testing'
p3118
I3
tp3119
a(S'tethering'
p3120
I3
tp3121
a(S'there.from'
p3122
I3
tp3123
a(S'thousand-'
p3124
I3
tp3125
a(S'toll'
p3126
I3
tp3127
a(S'tons'
p3128
I3
tp3129
a(S'tops'
p3130
I3
tp3131
a(S'tough'
p3132
I3
tp3133
a(S'tragedy'
p3134
I3
tp3135
a(S'transfer'
p3136
I3
tp3137
a(S'transportations'
p3138
I3
tp3139
a(S'twist'
p3140
I3
tp3141
a(S'tying'
p3142
I3
tp3143
a(S'u'
I3
tp3144
a(S'uncontrolable'
p3145
I3
tp3146
a(S'uncontrollably'
p3147
I3
tp3148
a(S'underneath'
p3149
I3
tp3150
a(S'unsuccessful'
p3151
I3
tp3152
a(S'usualy'
p3153
I3
tp3154
a(S'violate'
p3155
I3
tp3156
a(S'violation'
p3157
I3
tp3158
a(S'wait'
p3159
I3
tp3160
a(S'walk'
p3161
I3
tp3162
a(S'was;'
p3163
I3
tp3164
a(S'winches'
p3165
I3
tp3166
a(S'within'
p3167
I3
tp3168
a(S'york."the'
p3169
I3
tp3170
a(S'zone'
p3171
I3
tp3172
a(S'(@organization2'
p3173
I2
tp3174
a(S'(@organization2)'
p3175
I2
tp3176
a(S'(p'
p3177
I2
tp3178
a(S'185-foot'
p3179
I2
tp3180
a(S'1931'
p3181
I2
tp3182
a(S'250'
p3183
I2
tp3184
a(S'[be]'
p3185
I2
tp3186
a(S'[empire'
p3187
I2
tp3188
a(S'[the'
p3189
I2
tp3190
a(S'[they]'
p3191
I2
tp3192
a(S'[which]'
p3193
I2
tp3194
a(S'abandoned'
p3195
I2
tp3196
a(S'accidently'
p3197
I2
tp3198
a(S'acciedent'
p3199
I2
tp3200
a(S'accomidate'
p3201
I2
tp3202
a(S'accommodations'
p3203
I2
tp3204
a(S'accomplish'
p3205
I2
tp3206
a(S'accomplished'
p3207
I2
tp3208
a(S'action'
p3209
I2
tp3210
a(S'adjust'
p3211
I2
tp3212
a(S'advanced'
p3213
I2
tp3214
a(S'advances'
p3215
I2
tp3216
a(S'aflame'
p3217
I2
tp3218
a(S'aforementioned'
p3219
I2
tp3220
a(S'agianst'
p3221
I2
tp3222
a(S"aircraft's"
p3223
I2
tp3224
a(S'airplane.the'
p3225
I2
tp3226
a(S'airplanes.in'
p3227
I2
tp3228
a(S'airplanes.the'
p3229
I2
tp3230
a(S'alas'
p3231
I2
tp3232
a(S'albeit'
p3233
I2
tp3234
a(S'allowance'
p3235
I2
tp3236
a(S'altering'
p3237
I2
tp3238
a(S'altogether'
p3239
I2
tp3240
a(S'aluminum'
p3241
I2
tp3242
a(S'ambition'
p3243
I2
tp3244
a(S'ambitious'
p3245
I2
tp3246
a(S'anchors'
p3247
I2
tp3248
a(S'anothe'
p3249
I2
tp3250
a(S'anxious'
p3251
I2
tp3252
a(S'anyways'
p3253
I2
tp3254
a(S'anyways.the'
p3255
I2
tp3256
a(S'anywhere'
p3257
I2
tp3258
a(S'approved'
p3259
I2
tp3260
a(S'architechs'
p3261
I2
tp3262
a(S'area."the'
p3263
I2
tp3264
a(S'area.in'
p3265
I2
tp3266
a(S'areas.based'
p3267
I2
tp3268
a(S'areas.there'
p3269
I2
tp3270
a(S'areas;'
p3271
I2
tp3272
a(S'arise'
p3273
I2
tp3274
a(S'arising'
p3275
I2
tp3276
a(S'arond'
p3277
I2
tp3278
a(S'arrangements'
p3279
I2
tp3280
a(S'aspects'
p3281
I2
tp3282
a(S'assigned'
p3283
I2
tp3284
a(S'aswell'
p3285
I2
tp3286
a(S'attemps'
p3287
I2
tp3288
a(S'attempt.the'
p3289
I2
tp3290
a(S'balanced'
p3291
I2
tp3292
a(S'ball'
p3293
I2
tp3294
a(S'be.the'
p3295
I2
tp3296
a(S'beating'
p3297
I2
tp3298
a(S'believed'
p3299
I2
tp3300
a(S'bellow'
p3301
I2
tp3302
a(S'bilding'
p3303
I2
tp3304
a(S'biulders'
p3305
I2
tp3306
a(S'biulding'
p3307
I2
tp3308
a(S"blimp's"
p3309
I2
tp3310
a(S'block'
p3311
I2
tp3312
a(S'blowup'
p3313
I2
tp3314
a(S'bottom'
p3315
I2
tp3316
a(S'building.after'
p3317
I2
tp3318
a(S'building.although'
p3319
I2
tp3320
a(S'building.architects'
p3321
I2
tp3322
a(S'buildings.based'
p3323
I2
tp3324
a(S'builing'
p3325
I2
tp3326
a(S'bulders'
p3327
I2
tp3328
a(S'bump'
p3329
I2
tp3330
a(S'burning'
p3331
I2
tp3332
a(S'bursting'
p3333
I2
tp3334
a(S'business'
p3335
I2
tp3336
a(S'capability'
p3337
I2
tp3338
a(S'capable'
p3339
I2
tp3340
a(S'caps1-@caps2'
p3341
I2
tp3342
a(S'caps1.y.c'
p3343
I2
tp3344
a(S'captains'
p3345
I2
tp3346
a(S'carefull'
p3347
I2
tp3348
a(S'carried'
p3349
I2
tp3350
a(S'cars'
p3351
I2
tp3352
a(S'cases'
p3353
I2
tp3354
a(S'causeing'
p3355
I2
tp3356
a(S'caution'
p3357
I2
tp3358
a(S'cautious'
p3359
I2
tp3360
a(S'center'
p3361
I2
tp3362
a(S'certainty'
p3363
I2
tp3364
a(S'check'
p3365
I2
tp3366
a(S'checked'
p3367
I2
tp3368
a(S'city.in'
p3369
I2
tp3370
a(S'civilization'
p3371
I2
tp3372
a(S'claims'
p3373
I2
tp3374
a(S'clever'
p3375
I2
tp3376
a(S'climite'
p3377
I2
tp3378
a(S'collapes'
p3379
I2
tp3380
a(S'combusted'
p3381
I2
tp3382
a(S'commented'
p3383
I2
tp3384
a(S'comming'
p3385
I2
tp3386
a(S'common'
p3387
I2
tp3388
a(S'compete'
p3389
I2
tp3390
a(S'competing'
p3391
I2
tp3392
a(S'competive'
p3393
I2
tp3394
a(S'complication'
p3395
I2
tp3396
a(S'composed'
p3397
I2
tp3398
a(S'concerned'
p3399
I2
tp3400
a(S'concieved'
p3401
I2
tp3402
a(S'concluding'
p3403
I2
tp3404
a(S'connect'
p3405
I2
tp3406
a(S'constanily'
p3407
I2
tp3408
a(S'constatly'
p3409
I2
tp3410
a(S'continue'
p3411
I2
tp3412
a(S'contributing'
p3413
I2
tp3414
a(S'controlling'
p3415
I2
tp3416
a(S'controls'
p3417
I2
tp3418
a(S'cord'
p3419
I2
tp3420
a(S'correctly'
p3421
I2
tp3422
a(S"could'nt"
p3423
I2
tp3424
a(S'couldent'
p3425
I2
tp3426
a(S'courses'
p3427
I2
tp3428
a(S"craft's"
p3429
I2
tp3430
a(S'crash.the'
p3431
I2
tp3432
a(S'cruise'
p3433
I2
tp3434
a(S'crushed'
p3435
I2
tp3436
a(S'currents.the'
p3437
I2
tp3438
a(S'cut'
p3439
I2
tp3440
a(S'dangeling'
p3441
I2
tp3442
a(S'daunting'
p3443
I2
tp3444
a(S'dead'
p3445
I2
tp3446
a(S'deadly'
p3447
I2
tp3448
a(S'decorative'
p3449
I2
tp3450
a(S'deemed'
p3451
I2
tp3452
a(S'delayed'
p3453
I2
tp3454
a(S'delivered'
p3455
I2
tp3456
a(S'designer'
p3457
I2
tp3458
a(S'designs'
p3459
I2
tp3460
a(S'desire'
p3461
I2
tp3462
a(S'destiny'
p3463
I2
tp3464
a(S'destroying'
p3465
I2
tp3466
a(S'detach'
p3467
I2
tp3468
a(S'detail'
p3469
I2
tp3470
a(S'determination'
p3471
I2
tp3472
a(S'developed'
p3473
I2
tp3474
a(S'devistating'
p3475
I2
tp3476
a(S'die.the'
p3477
I2
tp3478
a(S'died'
p3479
I2
tp3480
a(S'diminished'
p3481
I2
tp3482
a(S'dirgible'
p3483
I2
tp3484
a(S"dirigibe's"
p3485
I2
tp3486
a(S'dirigibels'
p3487
I2
tp3488
a(S"dirigibles's"
p3489
I2
tp3490
a(S'dirigibles.although'
p3491
I2
tp3492
a(S'dirigibles.based'
p3493
I2
tp3494
a(S'dirigibles;'
p3495
I2
tp3496
a(S'diriibles'
p3497
I2
tp3498
a(S'disallowed'
p3499
I2
tp3500
a(S'disappeared".the'
p3501
I2
tp3502
a(S'disappeared.in'
p3503
I2
tp3504
a(S'disappeared.the'
p3505
I2
tp3506
a(S'discusses'
p3507
I2
tp3508
a(S'disembark'
p3509
I2
tp3510
a(S'distributed'
p3511
I2
tp3512
a(S'dock.during'
p3513
I2
tp3514
a(S'dock.there'
p3515
I2
tp3516
a(S'docks'
p3517
I2
tp3518
a(S"doesn't"
p3519
I2
tp3520
a(S"dollers'"
p3521
I2
tp3522
a(S'dome'
p3523
I2
tp3524
a(S'downfall'
p3525
I2
tp3526
a(S'downright'
p3527
I2
tp3528
a(S'dowtown'
p3529
I2
tp3530
a(S'dreams'
p3531
I2
tp3532
a(S'dreams.in'
p3533
I2
tp3534
a(S'drogen'
p3535
I2
tp3536
a(S'droping'
p3537
I2
tp3538
a(S'durring'
p3539
I2
tp3540
a(S'effective'
p3541
I2
tp3542
a(S'electrical'
p3543
I2
tp3544
a(S'eleven-hundred'
p3545
I2
tp3546
a(S'enable'
p3547
I2
tp3548
a(S'encouraged'
p3549
I2
tp3550
a(S'ends'
p3551
I2
tp3552
a(S'energy'
p3553
I2
tp3554
a(S'engine'
p3555
I2
tp3556
a(S'engineer'
p3557
I2
tp3558
a(S'ensuring'
p3559
I2
tp3560
a(S'entirely'
p3561
I2
tp3562
a(S'enviroment'
p3563
I2
tp3564
a(S'essay'
p3565
I2
tp3566
a(S'establish'
p3567
I2
tp3568
a(S'established'
p3569
I2
tp3570
a(S'evenly'
p3571
I2
tp3572
a(S'event'
p3573
I2
tp3574
a(S'events'
p3575
I2
tp3576
a(S'exactly'
p3577
I2
tp3578
a(S'excitement'
p3579
I2
tp3580
a(S'exerpt'
p3581
I2
tp3582
a(S'expand'
p3583
I2
tp3584
a(S'experience'
p3585
I2
tp3586
a(S'explodes'
p3587
I2
tp3588
a(S'exsisting'
p3589
I2
tp3590
a(S'extension'
p3591
I2
tp3592
a(S'extravagant'
p3593
I2
tp3594
a(S'faced.in'
p3595
I2
tp3596
a(S'faced.there'
p3597
I2
tp3598
a(S'fame'
p3599
I2
tp3600
a(S'fashionable'
p3601
I2
tp3602
a(S'fastened'
p3603
I2
tp3604
a(S'faster'
p3605
I2
tp3606
a(S'fears'
p3607
I2
tp3608
a(S'feel'
p3609
I2
tp3610
a(S'finish'
p3611
I2
tp3612
a(S'finishing'
p3613
I2
tp3614
a(S'fire)'
p3615
I2
tp3616
a(S'five'
p3617
I2
tp3618
a(S'fixed.there'
p3619
I2
tp3620
a(S'flame'
p3621
I2
tp3622
a(S'flammable)'
p3623
I2
tp3624
a(S'flammable.the'
p3625
I2
tp3626
a(S'follow'
p3627
I2
tp3628
a(S'followed'
p3629
I2
tp3630
a(S'foolish'
p3631
I2
tp3632
a(S'forbid'
p3633
I2
tp3634
a(S'forbidding'
p3635
I2
tp3636
a(S'foremost'
p3637
I2
tp3638
a(S'foriegn'
p3639
I2
tp3640
a(S'foundations'
p3641
I2
tp3642
a(S'frame.the'
p3643
I2
tp3644
a(S'frequent'
p3645
I2
tp3646
a(S'fufil'
p3647
I2
tp3648
a(S'fullfill'
p3649
I2
tp3650
a(S'futile'
p3651
I2
tp3652
a(S'futuristic'
p3653
I2
tp3654
a(S'gang'
p3655
I2
tp3656
a(S'gas)'
p3657
I2
tp3658
a(S'gasses'
p3659
I2
tp3660
a(S'general'
p3661
I2
tp3662
a(S'give'
p3663
I2
tp3664
a(S'gives'
p3665
I2
tp3666
a(S'gondola'
p3667
I2
tp3668
a(S'gotten'
p3669
I2
tp3670
a(S'greatly'
p3671
I2
tp3672
a(S'grew'
p3673
I2
tp3674
a(S'growing'
p3675
I2
tp3676
a(S'haded'
p3677
I2
tp3678
a(S'hand'
p3679
I2
tp3680
a(S'happened.the'
p3681
I2
tp3682
a(S'happens'
p3683
I2
tp3684
a(S'happy'
p3685
I2
tp3686
a(S'hardest'
p3687
I2
tp3688
a(S'harmful'
p3689
I2
tp3690
a(S'hassle'
p3691
I2
tp3692
a(S'hazardous'
p3693
I2
tp3694
a(S'headed'
p3695
I2
tp3696
a(S'heat'
p3697
I2
tp3698
a(S'hellium'
p3699
I2
tp3700
a(S'helped'
p3701
I2
tp3702
a(S"hindenburg's"
p3703
I2
tp3704
a(S'hoisted'
p3705
I2
tp3706
a(S'hoisting'
p3707
I2
tp3708
a(S'hooked'
p3709
I2
tp3710
a(S'horrific'
p3711
I2
tp3712
a(S'horrifying'
p3713
I2
tp3714
a(S'hot'
p3715
I2
tp3716
a(S'hovering'
p3717
I2
tp3718
a(S'hull'
p3719
I2
tp3720
a(S'hype'
p3721
I2
tp3722
a(S'ignored'
p3723
I2
tp3724
a(S'illigal'
p3725
I2
tp3726
a(S'imminent'
p3727
I2
tp3728
a(S'imposed'
p3729
I2
tp3730
a(S'impractical.when'
p3731
I2
tp3732
a(S'impracticalities'
p3733
I2
tp3734
a(S'impracticality'
p3735
I2
tp3736
a(S'impracticle'
p3737
I2
tp3738
a(S'inability'
p3739
I2
tp3740
a(S'increase'
p3741
I2
tp3742
a(S'indeed'
p3743
I2
tp3744
a(S'inflated'
p3745
I2
tp3746
a(S'injure'
p3747
I2
tp3748
a(S'insted'
p3749
I2
tp3750
a(S'insurmountable'
p3751
I2
tp3752
a(S'intentionally'
p3753
I2
tp3754
a(S'investment'
p3755
I2
tp3756
a(S'isshues'
p3757
I2
tp3758
a(S'issue;'
p3759
I2
tp3760
a(S'issues.the'
p3761
I2
tp3762
a(S"it'd"
p3763
I2
tp3764
a(S'itself;'
p3765
I2
tp3766
a(S'jeopardy'
p3767
I2
tp3768
a(S'kinds'
p3769
I2
tp3770
a(S'landing.in'
p3771
I2
tp3772
a(S'landings'
p3773
I2
tp3774
a(S'largely'
p3775
I2
tp3776
a(S'lastley'
p3777
I2
tp3778
a(S'law.the'
p3779
I2
tp3780
a(S'layout'
p3781
I2
tp3782
a(S'lied'
p3783
I2
tp3784
a(S'lifting'
p3785
I2
tp3786
a(S'live'
p3787
I2
tp3788
a(S'lived'
p3789
I2
tp3790
a(S'living'
p3791
I2
tp3792
a(S'logistical'
p3793
I2
tp3794
a(S'looking'
p3795
I2
tp3796
a(S'luggage'
p3797
I2
tp3798
a(S'lusted'
p3799
I2
tp3800
a(S'makeing'
p3801
I2
tp3802
a(S'maneuver'
p3803
I2
tp3804
a(S'manner'
p3805
I2
tp3806
a(S'mast)'
p3807
I2
tp3808
a(S'mast.from'
p3809
I2
tp3810
a(S'masterpiece'
p3811
I2
tp3812
a(S'mastthe'
p3813
I2
tp3814
a(S'mastthere'
p3815
I2
tp3816
a(S'matters'
p3817
I2
tp3818
a(S'media'
p3819
I2
tp3820
a(S'mess'
p3821
I2
tp3822
a(S'moment'
p3823
I2
tp3824
a(S'moorin'
p3825
I2
tp3826
a(S'mounted'
p3827
I2
tp3828
a(S'mundane'
p3829
I2
tp3830
a(S'narrator'
p3831
I2
tp3832
a(S'negative'
p3833
I2
tp3834
a(S'news'
p3835
I2
tp3836
a(S'newyork'
p3837
I2
tp3838
a(S'nickel'
p3839
I2
tp3840
a(S'niether'
p3841
I2
tp3842
a(S'non-american'
p3843
I2
tp3844
a(S'normal'
p3845
I2
tp3846
a(S'notes'
p3847
I2
tp3848
a(S'nothing.the'
p3849
I2
tp3850
a(S'nowhere'
p3851
I2
tp3852
a(S'num2.)'
p3853
I2
tp3854
a(S'num4.)'
p3855
I2
tp3856
a(S'num5'
p3857
I2
tp3858
a(S'obsacles'
p3859
I2
tp3860
a(S'obstactles'
p3861
I2
tp3862
a(S'obstecles'
p3863
I2
tp3864
a(S'obsticales'
p3865
I2
tp3866
a(S'obviously'
p3867
I2
tp3868
a(S'occurring'
p3869
I2
tp3870
a(S'ofcourse'
p3871
I2
tp3872
a(S'offcourse'
p3873
I2
tp3874
a(S'offer'
p3875
I2
tp3876
a(S'office'
p3877
I2
tp3878
a(S'officials'
p3879
I2
tp3880
a(S'one-thousand'
p3881
I2
tp3882
a(S'oppertunity'
p3883
I2
tp3884
a(S'option'
p3885
I2
tp3886
a(S'ornament'
p3887
I2
tp3888
a(S'ornamental'
p3889
I2
tp3890
a(S'otherwise'
p3891
I2
tp3892
a(S'ove'
p3893
I2
tp3894
a(S'overcomein'
p3895
I2
tp3896
a(S'oxygen'
p3897
I2
tp3898
a(S'pad'
p3899
I2
tp3900
a(S'paper'
p3901
I2
tp3902
a(S'park'
p3903
I2
tp3904
a(S'particular'
p3905
I2
tp3906
a(S'passenger'
p3907
I2
tp3908
a(S'peice'
p3909
I2
tp3910
a(S'peoples'
p3911
I2
tp3912
a(S'physical'
p3913
I2
tp3914
a(S'pick'
p3915
I2
tp3916
a(S'placing'
p3917
I2
tp3918
a(S'plan.the'
p3919
I2
tp3920
a(S'plane'
p3921
I2
tp3922
a(S'planners'
p3923
I2
tp3924
a(S'playing'
p3925
I2
tp3926
a(S'plenty'
p3927
I2
tp3928
a(S'plummeting'
p3929
I2
tp3930
a(S'pointy'
p3931
I2
tp3932
a(S'poor'
p3933
I2
tp3934
a(S'popularity'
p3935
I2
tp3936
a(S'port'
p3937
I2
tp3938
a(S'pose'
p3939
I2
tp3940
a(S'position'
p3941
I2
tp3942
a(S'positive'
p3943
I2
tp3944
a(S'possibley'
p3945
I2
tp3946
a(S'practice'
p3947
I2
tp3948
a(S'practicity'
p3949
I2
tp3950
a(S'pratical'
p3951
I2
tp3952
a(S'pre'
p3953
I2
tp3954
a(S'preexisting'
p3955
I2
tp3956
a(S'preparation'
p3957
I2
tp3958
a(S'previously'
p3959
I2
tp3960
a(S'price'
p3961
I2
tp3962
a(S'prior'
p3963
I2
tp3964
a(S'proble'
p3965
I2
tp3966
a(S'problem.in'
p3967
I2
tp3968
a(S'problem;'
p3969
I2
tp3970
a(S'problems.based'
p3971
I2
tp3972
a(S'produce'
p3973
I2
tp3974
a(S'production'
p3975
I2
tp3976
a(S'progressed'
p3977
I2
tp3978
a(S'projected'
p3979
I2
tp3980
a(S'prone'
p3981
I2
tp3982
a(S'proof'
p3983
I2
tp3984
a(S'public.in'
p3985
I2
tp3986
a(S'pulled'
p3987
I2
tp3988
a(S'puncher'
p3989
I2
tp3990
a(S'purely'
p3991
I2
tp3992
a(S'purpose.in'
p3993
I2
tp3994
a(S'pursue'
p3995
I2
tp3996
a(S'questioned'
p3997
I2
tp3998
a(S'quotation'
p3999
I2
tp4000
a(S'quotes'
p4001
I2
tp4002
a(S'raise'
p4003
I2
tp4004
a(S'ranged'
p4005
I2
tp4006
a(S'realization'
p4007
I2
tp4008
a(S'reallized'
p4009
I2
tp4010
a(S"reason's"
p4011
I2
tp4012
a(S'reasoning'
p4013
I2
tp4014
a(S'rebuilt'
p4015
I2
tp4016
a(S'reconstruction'
p4017
I2
tp4018
a(S'redesigned'
p4019
I2
tp4020
a(S'redo'
p4021
I2
tp4022
a(S'reframed'
p4023
I2
tp4024
a(S'refuling'
p4025
I2
tp4026
a(S'regards'
p4027
I2
tp4028
a(S'remote'
p4029
I2
tp4030
a(S'reported'
p4031
I2
tp4032
a(S'require'
p4033
I2
tp4034
a(S'researching'
p4035
I2
tp4036
a(S'residential'
p4037
I2
tp4038
a(S'resolved'
p4039
I2
tp4040
a(S'restriction'
p4041
I2
tp4042
a(S'resulting'
p4043
I2
tp4044
a(S'revealed'
p4045
I2
tp4046
a(S'revolutionize'
p4047
I2
tp4048
a(S'rewards'
p4049
I2
tp4050
a(S'ridiculous'
p4051
I2
tp4052
a(S'rigorous'
p4053
I2
tp4054
a(S'risking'
p4055
I2
tp4056
a(S'rocket-shaped'
p4057
I2
tp4058
a(S'round'
p4059
I2
tp4060
a(S'route'
p4061
I2
tp4062
a(S'rudders'
p4063
I2
tp4064
a(S'rushed'
p4065
I2
tp4066
a(S'safe."another'
p4067
I2
tp4068
a(S'safe."the'
p4069
I2
tp4070
a(S'safe.another'
p4071
I2
tp4072
a(S'safety.there'
p4073
I2
tp4074
a(S'scared'
p4075
I2
tp4076
a(S'scraper'
p4077
I2
tp4078
a(S'scrapped'
p4079
I2
tp4080
a(S'secured'
p4081
I2
tp4082
a(S'seemingly'
p4083
I2
tp4084
a(S'sentence'
p4085
I2
tp4086
a(S'series'
p4087
I2
tp4088
a(S'seriously'
p4089
I2
tp4090
a(S'setting'
p4091
I2
tp4092
a(S'severity'
p4093
I2
tp4094
a(S'shaft'
p4095
I2
tp4096
a(S'shaped'
p4097
I2
tp4098
a(S'sheer'
p4099
I2
tp4100
a(S'shelved'
p4101
I2
tp4102
a(S'shipped'
p4103
I2
tp4104
a(S'showing'
p4105
I2
tp4106
a(S'sight'
p4107
I2
tp4108
a(S'sightseers.the'
p4109
I2
tp4110
a(S'significantly'
p4111
I2
tp4112
a(S'sit'
p4113
I2
tp4114
a(S'skyline'
p4115
I2
tp4116
a(S'sleeps'
p4117
I2
tp4118
a(S'slow'
p4119
I2
tp4120
a(S'smallest'
p4121
I2
tp4122
a(S'somehow'
p4123
I2
tp4124
a(S'spended'
p4125
I2
tp4126
a(S'stabilize'
p4127
I2
tp4128
a(S'stages'
p4129
I2
tp4130
a(S'start.in'
p4131
I2
tp4132
a(S'start.the'
p4133
I2
tp4134
a(S'stat'
p4135
I2
tp4136
a(S'stationary'
p4137
I2
tp4138
a(S'stays'
p4139
I2
tp4140
a(S'steer'
p4141
I2
tp4142
a(S'steering'
p4143
I2
tp4144
a(S'straight'
p4145
I2
tp4146
a(S'strain'
p4147
I2
tp4148
a(S'structurally'
p4149
I2
tp4150
a(S'succesful'
p4151
I2
tp4152
a(S'successful.the'
p4153
I2
tp4154
a(S'supporting'
p4155
I2
tp4156
a(S'surely'
p4157
I2
tp4158
a(S'surface'
p4159
I2
tp4160
a(S'surfaced'
p4161
I2
tp4162
a(S'swivelling'
p4163
I2
tp4164
a(S'swivil'
p4165
I2
tp4166
a(S'swivle'
p4167
I2
tp4168
a(S'systems'
p4169
I2
tp4170
a(S'tauranac'
p4171
I2
tp4172
a(S'teather'
p4173
I2
tp4174
a(S'teathered'
p4175
I2
tp4176
a(S'technical'
p4177
I2
tp4178
a(S'tere'
p4179
I2
tp4180
a(S'term'
p4181
I2
tp4182
a(S'terms'
p4183
I2
tp4184
a(S'tested'
p4185
I2
tp4186
a(S'their.in'
p4187
I2
tp4188
a(S'them.in'
p4189
I2
tp4190
a(S'there.al'
p4191
I2
tp4192
a(S'there.marcia'
p4193
I2
tp4194
a(S'there.there'
p4195
I2
tp4196
a(S'there.while'
p4197
I2
tp4198
a(S"they're"
p4199
I2
tp4200
a(S'thirdly'
p4201
I2
tp4202
a(S'thoughts'
p4203
I2
tp4204
a(S'thrash'
p4205
I2
tp4206
a(S'threaten'
p4207
I2
tp4208
a(S'threatened'
p4209
I2
tp4210
a(S'threatening'
p4211
I2
tp4212
a(S'threats'
p4213
I2
tp4214
a(S'through.there'
p4215
I2
tp4216
a(S'throughout'
p4217
I2
tp4218
a(S'throw'
p4219
I2
tp4220
a(S'ticket'
p4221
I2
tp4222
a(S'till'
p4223
I2
tp4224
a(S'tip'
p4225
I2
tp4226
a(S'today'
p4227
I2
tp4228
a(S'tools'
p4229
I2
tp4230
a(S'toss'
p4231
I2
tp4232
a(S'total'
p4233
I2
tp4234
a(S'touched'
p4235
I2
tp4236
a(S'tourist'
p4237
I2
tp4238
a(S'transatlantic'
p4239
I2
tp4240
a(S'transferred'
p4241
I2
tp4242
a(S'transmite'
p4243
I2
tp4244
a(S'trials'
p4245
I2
tp4246
a(S'tricky'
p4247
I2
tp4248
a(S'truly'
p4249
I2
tp4250
a(S'truth'
p4251
I2
tp4252
a(S'tryn'
p4253
I2
tp4254
a(S'turbulent'
p4255
I2
tp4256
a(S'turns'
p4257
I2
tp4258
a(S'un'
p4259
I2
tp4260
a(S'uncontrolably'
p4261
I2
tp4262
a(S'uncontrollable'
p4263
I2
tp4264
a(S'understood'
p4265
I2
tp4266
a(S'unexpected'
p4267
I2
tp4268
a(S'unique'
p4269
I2
tp4270
a(S'unloading'
p4271
I2
tp4272
a(S'unreasonable'
p4273
I2
tp4274
a(S'unsecure'
p4275
I2
tp4276
a(S'unsteady'
p4277
I2
tp4278
a(S'untill'
p4279
I2
tp4280
a(S'unwise'
p4281
I2
tp4282
a(S'updrafts'
p4283
I2
tp4284
a(S'use.the'
p4285
I2
tp4286
a(S'valiant'
p4287
I2
tp4288
a(S'variety'
p4289
I2
tp4290
a(S'vehicles'
p4291
I2
tp4292
a(S'vicious'
p4293
I2
tp4294
a(S'violet'
p4295
I2
tp4296
a(S'volatile'
p4297
I2
tp4298
a(S'waiting'
p4299
I2
tp4300
a(S'wanting'
p4301
I2
tp4302
a(S'wants'
p4303
I2
tp4304
a(S'warned'
p4305
I2
tp4306
a(S'watch'
p4307
I2
tp4308
a(S'weak'
p4309
I2
tp4310
a(S'wer'
p4311
I2
tp4312
a(S'whale'
p4313
I2
tp4314
a(S'whether'
p4315
I2
tp4316
a(S'whip'
p4317
I2
tp4318
a(S'whipped'
p4319
I2
tp4320
a(S'whipping'
p4321
I2
tp4322
a(S'wild'
p4323
I2
tp4324
a(S'win'
p4325
I2
tp4326
a(S'window'
p4327
I2
tp4328
a(S'windows'
p4329
I2
tp4330
a(S'wished'
p4331
I2
tp4332
a(S'with.the'
p4333
I2
tp4334
a(S'women'
p4335
I2
tp4336
a(S'wonder'
p4337
I2
tp4338
a(S'wonderful'
p4339
I2
tp4340
a(S'words'
p4341
I2
tp4342
a(S'work.in'
p4343
I2
tp4344
a(S'worse.another'
p4345
I2
tp4346
a(S'wrote'
p4347
I2
tp4348
a(S'year'
p4349
I2
tp4350
a(S'years'
p4351
I2
tp4352
a(S'york.there'
p4353
I2
tp4354
a(S'zepplin'
p4355
I2
tp4356
a(S"'a"
p4357
I1
tp4358
a(S'(1)'
p4359
I1
tp4360
a(S'(6)'
p4361
I1
tp4362
a(S'(@num3'
p4363
I1
tp4364
a(S'(according'
p4365
I1
tp4366
a(S'(also'
p4367
I1
tp4368
a(S'(and'
p4369
I1
tp4370
a(S'(aside'
p4371
I1
tp4372
a(S'(blimp)'
p4373
I1
tp4374
a(S'(blimps).some'
p4375
I1
tp4376
a(S'(dirigible'
p4377
I1
tp4378
a(S'(dirigible)'
p4379
I1
tp4380
a(S'(dirigibles)'
p4381
I1
tp4382
a(S'(four-term'
p4383
I1
tp4384
a(S'(highly'
p4385
I1
tp4386
a(S'(hindenburg)'
p4387
I1
tp4388
a(S'(i.e'
p4389
I1
tp4390
a(S'(if'
p4391
I1
tp4392
a(S'(lets'
p4393
I1
tp4394
a(S'(like'
p4395
I1
tp4396
a(S'(line'
p4397
I1
tp4398
a(S'(los'
p4399
I1
tp4400
a(S'(l\xfcsted)the'
p4401
I1
tp4402
a(S'(mast)'
p4403
I1
tp4404
a(S'(mooring'
p4405
I1
tp4406
a(S'(most'
p4407
I1
tp4408
a(S'(page'
p4409
I1
tp4410
a(S'(short)'
p4411
I1
tp4412
a(S'(that'
p4413
I1
tp4414
a(S'(weather)'
p4415
I1
tp4416
a(S'(which)'
p4417
I1
tp4418
a(S"(\xb6's"
p4419
I1
tp4420
a(S'***'
p4421
I1
tp4422
a(S'*******'
p4423
I1
tp4424
a(S'***************'
p4425
I1
tp4426
a(S'-(which'
p4427
I1
tp4428
a(S'-paragraph'
p4429
I1
tp4430
a(S'/'
I1
tp4431
a(S'1,046'
p4432
I1
tp4433
a(S'102.by'
p4434
I1
tp4435
a(S"1930's.a"
p4436
I1
tp4437
a(S"1930's.the"
p4438
I1
tp4439
a(S'1937.builders'
p4440
I1
tp4441
a(S'6)the'
p4442
I1
tp4443
a(S'[@location2]'
p4444
I1
tp4445
a(S'[@organization2'
p4446
I1
tp4447
a(S'[a]'
p4448
I1
tp4449
a(S'[an]'
p4450
I1
tp4451
a(S'[because]'
p4452
I1
tp4453
a(S'[dirigibles]'
p4454
I1
tp4455
a(S'[from]'
p4456
I1
tp4457
a(S'[had]'
p4458
I1
tp4459
a(S'[happened]'
p4460
I1
tp4461
a(S'[harmful'
p4462
I1
tp4463
a(S'[have]'
p4464
I1
tp4465
a(S'[in'
p4466
I1
tp4467
a(S'[it]'
p4468
I1
tp4469
a(S'[lead'
p4470
I1
tp4471
a(S'[of'
p4472
I1
tp4473
a(S'[t]he'
p4474
I1
tp4475
a(S'[than]'
p4476
I1
tp4477
a(S'[there]'
p4478
I1
tp4479
a(S'[this'
p4480
I1
tp4481
a(S'[to]'
p4482
I1
tp4483
a(S'[took]'
p4484
I1
tp4485
a(S'[would'
p4486
I1
tp4487
a(S'a-rose.some'
p4488
I1
tp4489
a(S'abandoned.the'
p4490
I1
tp4491
a(S'abandoning'
p4492
I1
tp4493
a(S'ablaze'
p4494
I1
tp4495
a(S'aborted'
p4496
I1
tp4497
a(S'abou'
p4498
I1
tp4499
a(S'absolute'
p4500
I1
tp4501
a(S'abstacle'
p4502
I1
tp4503
a(S'acceptable'
p4504
I1
tp4505
a(S'accessable'
p4506
I1
tp4507
a(S'accidentally'
p4508
I1
tp4509
a(S'accidents.al'
p4510
I1
tp4511
a(S'accomadate'
p4512
I1
tp4513
a(S'accommidation'
p4514
I1
tp4515
a(S'accommodating'
p4516
I1
tp4517
a(S'accompany'
p4518
I1
tp4519
a(S'accomplish.the'
p4520
I1
tp4521
a(S'accomplishing'
p4522
I1
tp4523
a(S'accomplishment'
p4524
I1
tp4525
a(S'accordance'
p4526
I1
tp4527
a(S'accually'
p4528
I1
tp4529
a(S'accumulated'
p4530
I1
tp4531
a(S'accumulating'
p4532
I1
tp4533
a(S'accured'
p4534
I1
tp4535
a(S'achieved.the'
p4536
I1
tp4537
a(S'acident'
p4538
I1
tp4539
a(S'acomidate'
p4540
I1
tp4541
a(S'acomidated'
p4542
I1
tp4543
a(S'acommodate'
p4544
I1
tp4545
a(S'acomplish'
p4546
I1
tp4547
a(S'acsident'
p4548
I1
tp4549
a(S'act'
p4550
I1
tp4551
a(S'acting'
p4552
I1
tp4553
a(S'action.when'
p4554
I1
tp4555
a(S'active'
p4556
I1
tp4557
a(S'activity'
p4558
I1
tp4559
a(S'actulty'
p4560
I1
tp4561
a(S'ad'
p4562
I1
tp4563
a(S'adapting'
p4564
I1
tp4565
a(S'addition.in'
p4566
I1
tp4567
a(S'additions'
p4568
I1
tp4569
a(S'adjustments'
p4570
I1
tp4571
a(S'administrative'
p4572
I1
tp4573
a(S'admit'
p4574
I1
tp4575
a(S'adress'
p4576
I1
tp4577
a(S'adressed'
p4578
I1
tp4579
a(S'advancing'
p4580
I1
tp4581
a(S'advent'
p4582
I1
tp4583
a(S'adversities'
p4584
I1
tp4585
a(S'aesthetically'
p4586
I1
tp4587
a(S'afew'
p4588
I1
tp4589
a(S'affect.based'
p4590
I1
tp4591
a(S'affeted'
p4592
I1
tp4593
a(S'affraid'
p4594
I1
tp4595
a(S'afixed'
p4596
I1
tp4597
a(S'afterwards'
p4598
I1
tp4599
a(S'again.the'
p4600
I1
tp4601
a(S'agains'
p4602
I1
tp4603
a(S'againts'
p4604
I1
tp4605
a(S'age.based'
p4606
I1
tp4607
a(S'aggresively'
p4608
I1
tp4609
a(S'aginst'
p4610
I1
tp4611
a(S'agree'
p4612
I1
tp4613
a(S'aid'
p4614
I1
tp4615
a(S'air-currents'
p4616
I1
tp4617
a(S'air.based'
p4618
I1
tp4619
a(S'air.in'
p4620
I1
tp4621
a(S'airfields'
p4622
I1
tp4623
a(S'airliners'
p4624
I1
tp4625
a(S'airplanes."the'
p4626
I1
tp4627
a(S'airplanes...while'
p4628
I1
tp4629
a(S'airplanes.when'
p4630
I1
tp4631
a(S'airships.the'
p4632
I1
tp4633
a(S"al's"
p4634
I1
tp4635
a(S'alarm'
p4636
I1
tp4637
a(S'alerted'
p4638
I1
tp4639
a(S'alleged'
p4640
I1
tp4641
a(S'alliviate'
p4642
I1
tp4643
a(S'allowable'
p4644
I1
tp4645
a(S'allowed.based'
p4646
I1
tp4647
a(S'alltitude'
p4648
I1
tp4649
a(S'alltogether'
p4650
I1
tp4651
a(S'allways'
p4652
I1
tp4653
a(S'alow'
p4654
I1
tp4655
a(S'alowed'
p4656
I1
tp4657
a(S'also.there'
p4658
I1
tp4659
a(S'also;'
p4660
I1
tp4661
a(S'alter'
p4662
I1
tp4663
a(S'altered'
p4664
I1
tp4665
a(S'alternate'
p4666
I1
tp4667
a(S'amazingly'
p4668
I1
tp4669
a(S'ambitions'
p4670
I1
tp4671
a(S'american-used'
p4672
I1
tp4673
a(S'ammendments'
p4674
I1
tp4675
a(S'among'
p4676
I1
tp4677
a(S'amongst'
p4678
I1
tp4679
a(S'amplified'
p4680
I1
tp4681
a(S'an]'
p4682
I1
tp4683
a(S'analyze'
p4684
I1
tp4685
a(S'ancher'
p4686
I1
tp4687
a(S'ancor'
p4688
I1
tp4689
a(S'ancoring'
p4690
I1
tp4691
a(S"angeles'"
p4692
I1
tp4693
a(S'angeles]'
p4694
I1
tp4695
a(S'annanced'
p4696
I1
tp4697
a(S'annother'
p4698
I1
tp4699
a(S'announce'
p4700
I1
tp4701
a(S'anouther'
p4702
I1
tp4703
a(S'anthor'
p4704
I1
tp4705
a(S'anti'
p4706
I1
tp4707
a(S'anticipated'
p4708
I1
tp4709
a(S'anyday'
p4710
I1
tp4711
a(S'anymore'
p4712
I1
tp4713
a(S'anyway.there'
p4714
I1
tp4715
a(S'anyways?the'
p4716
I1
tp4717
a(S'apparant'
p4718
I1
tp4719
a(S'appealing'
p4720
I1
tp4721
a(S'appear'
p4722
I1
tp4723
a(S'appeared'
p4724
I1
tp4725
a(S'apperate'
p4726
I1
tp4727
a(S'appling'
p4728
I1
tp4729
a(S'apprently'
p4730
I1
tp4731
a(S'approach[ing]'
p4732
I1
tp4733
a(S'approaching'
p4734
I1
tp4735
a(S'approch'
p4736
I1
tp4737
a(S'approched'
p4738
I1
tp4739
a(S'aqlso'
p4740
I1
tp4741
a(S'archetect'
p4742
I1
tp4743
a(S'archetects'
p4744
I1
tp4745
a(S'architecks'
p4746
I1
tp4747
a(S"architect's"
p4748
I1
tp4749
a(S'architector'
p4750
I1
tp4751
a(S'architects.based'
p4752
I1
tp4753
a(S'architectures'
p4754
I1
tp4755
a(S'archtects'
p4756
I1
tp4757
a(S'arcitect'
p4758
I1
tp4759
a(S"area's"
p4760
I1
tp4761
a(S'area...".the'
p4762
I1
tp4763
a(S'area.according'
p4764
I1
tp4765
a(S'area.another'
p4766
I1
tp4767
a(S'area.based'
p4768
I1
tp4769
a(S'area.dirigibles'
p4770
I1
tp4771
a(S'areas";'
p4772
I1
tp4773
a(S'areas."in'
p4774
I1
tp4775
a(S'areas.al'
p4776
I1
tp4777
a(S'areathe'
p4778
I1
tp4779
a(S"aren't"
p4780
I1
tp4781
a(S'arisen'
p4782
I1
tp4783
a(S'around"(@num4)'
p4784
I1
tp4785
a(S'around-a'
p4786
I1
tp4787
a(S'around.there'
p4788
I1
tp4789
a(S'aroundin'
p4790
I1
tp4791
a(S'arrive'
p4792
I1
tp4793
a(S'arrose'
p4794
I1
tp4795
a(S'artitechs.in'
p4796
I1
tp4797
a(S'ascend'
p4798
I1
tp4799
a(S'ase'
p4800
I1
tp4801
a(S'aspiration'
p4802
I1
tp4803
a(S'associated'
p4804
I1
tp4805
a(S'assumed'
p4806
I1
tp4807
a(S'assure'
p4808
I1
tp4809
a(S'astounding'
p4810
I1
tp4811
a(S'astronaumical'
p4812
I1
tp4813
a(S'at.some'
p4814
I1
tp4815
a(S'atach'
p4816
I1
tp4817
a(S'atemp'
p4818
I1
tp4819
a(S'atempt'
p4820
I1
tp4821
a(S'atempted'
p4822
I1
tp4823
a(S'atempting'
p4824
I1
tp4825
a(S'attach.the'
p4826
I1
tp4827
a(S'attache'
p4828
I1
tp4829
a(S'attahed'
p4830
I1
tp4831
a(S'attainable'
p4832
I1
tp4833
a(S'attaining'
p4834
I1
tp4835
a(S'attatched'
p4836
I1
tp4837
a(S'attemping'
p4838
I1
tp4839
a(S'attemply'
p4840
I1
tp4841
a(S'attemption'
p4842
I1
tp4843
a(S'attemt'
p4844
I1
tp4845
a(S'attemting'
p4846
I1
tp4847
a(S'attitude'
p4848
I1
tp4849
a(S'attop'
p4850
I1
tp4851
a(S'attracting'
p4852
I1
tp4853
a(S'attraction.in'
p4854
I1
tp4855
a(S'authored'
p4856
I1
tp4857
a(S'authors'
p4858
I1
tp4859
a(S'avaiting'
p4860
I1
tp4861
a(S'aviation,requires'
p4862
I1
tp4863
a(S'avoid'
p4864
I1
tp4865
a(S'avoidable'
p4866
I1
tp4867
a(S'awake'
p4868
I1
tp4869
a(S'awalys'
p4870
I1
tp4871
a(S'aware'
p4872
I1
tp4873
a(S'away.not'
p4874
I1
tp4875
a(S'awesome'
p4876
I1
tp4877
a(S'bacicaly'
p4878
I1
tp4879
a(S'back)'
p4880
I1
tp4881
a(S'back.these'
p4882
I1
tp4883
a(S'backend'
p4884
I1
tp4885
a(S'backup'
p4886
I1
tp4887
a(S'balance'
p4888
I1
tp4889
a(S'balence'
p4890
I1
tp4891
a(S'ballons.the'
p4892
I1
tp4893
a(S'balloon.a'
p4894
I1
tp4895
a(S'ban'
p4896
I1
tp4897
a(S'barrier'
p4898
I1
tp4899
a(S'basic'
p4900
I1
tp4901
a(S'basicly'
p4902
I1
tp4903
a(S'bat'
p4904
I1
tp4905
a(S'battle'
p4906
I1
tp4907
a(S'bay.based'
p4908
I1
tp4909
a(S'be.as'
p4910
I1
tp4911
a(S'be.there'
p4912
I1
tp4913
a(S'be.when'
p4914
I1
tp4915
a(S'be]'
p4916
I1
tp4917
a(S'beams'
p4918
I1
tp4919
a(S'bear'
p4920
I1
tp4921
a(S'beater'
p4922
I1
tp4923
a(S'becacse'
p4924
I1
tp4925
a(S'becaus'
p4926
I1
tp4927
a(S'because;'
p4928
I1
tp4929
a(S'becomes'
p4930
I1
tp4931
a(S'becuz'
p4932
I1
tp4933
a(S'been...above'
p4934
I1
tp4935
a(S'began.in'
p4936
I1
tp4937
a(S'begin.when'
p4938
I1
tp4939
a(S'begining'
p4940
I1
tp4941
a(S'beginning.in'
p4942
I1
tp4943
a(S'beginning.one'
p4944
I1
tp4945
a(S'begins'
p4946
I1
tp4947
a(S'begun.there'
p4948
I1
tp4949
a(S'behind'
p4950
I1
tp4951
a(S'believe'
p4952
I1
tp4953
a(S'belived'
p4954
I1
tp4955
a(S'bellow.the'
p4956
I1
tp4957
a(S'belonged'
p4958
I1
tp4959
a(S'below."these'
p4960
I1
tp4961
a(S'belts'
p4962
I1
tp4963
a(S'bend'
p4964
I1
tp4965
a(S'beneficial'
p4966
I1
tp4967
a(S"benefit's"
p4968
I1
tp4969
a(S'bested.one'
p4970
I1
tp4971
a(S'better.the'
p4972
I1
tp4973
a(S'beyond'
p4974
I1
tp4975
a(S'bid'
p4976
I1
tp4977
a(S'bigger.in'
p4978
I1
tp4979
a(S'bimp'
p4980
I1
tp4981
a(S'bin'
p4982
I1
tp4983
a(S'biolent'
p4984
I1
tp4985
a(S'bitter'
p4986
I1
tp4987
a(S'biuldings'
p4988
I1
tp4989
a(S'black'
p4990
I1
tp4991
a(S'blatant'
p4992
I1
tp4993
a(S'blimp.another'
p4994
I1
tp4995
a(S'blimp.in'
p4996
I1
tp4997
a(S'blimp.the'
p4998
I1
tp4999
a(S'blimps)'
p5000
I1
tp5001
a(S'blimps.the'
p5002
I1
tp5003
a(S'blocksin'
p5004
I1
tp5005
a(S'bloks'
p5006
I1
tp5007
a(S'blows'
p5008
I1
tp5009
a(S'blue'
p5010
I1
tp5011
a(S'blump'
p5012
I1
tp5013
a(S'boarded'
p5014
I1
tp5015
a(S'boarding/observation'
p5016
I1
tp5017
a(S'bording'
p5018
I1
tp5019
a(S'born'
p5020
I1
tp5021
a(S'bother'
p5022
I1
tp5023
a(S'bound'
p5024
I1
tp5025
a(S'brand'
p5026
I1
tp5027
a(S'branish'
p5028
I1
tp5029
a(S'breach'
p5030
I1
tp5031
a(S'breaching'
p5032
I1
tp5033
a(S'breakthrough'
p5034
I1
tp5035
a(S'brew'
p5036
I1
tp5037
a(S'brighter'
p5038
I1
tp5039
a(S'bringing'
p5040
I1
tp5041
a(S'brings'
p5042
I1
tp5043
a(S'buffet'
p5044
I1
tp5045
a(S'buiders'
p5046
I1
tp5047
a(S'buidiers'
p5048
I1
tp5049
a(S'build.the'
p5050
I1
tp5051
a(S'builders.most'
p5052
I1
tp5053
a(S'builders.while'
p5054
I1
tp5055
a(S'buildes'
p5056
I1
tp5057
a(S'buildig'
p5058
I1
tp5059
a(S'building!in'
p5060
I1
tp5061
a(S'building."based'
p5062
I1
tp5063
a(S'building."the'
p5064
I1
tp5065
a(S'building.@organization1'
p5066
I1
tp5067
a(S'building.as'
p5068
I1
tp5069
a(S'building.builders'
p5070
I1
tp5071
a(S'building.constructing'
p5072
I1
tp5073
a(S'building.finally'
p5074
I1
tp5075
a(S'building.first'
p5076
I1
tp5077
a(S'building.having'
p5078
I1
tp5079
a(S'building.many'
p5080
I1
tp5081
a(S'building.obstacles'
p5082
I1
tp5083
a(S'building.on'
p5084
I1
tp5085
a(S'building.right'
p5086
I1
tp5087
a(S'building.their'
p5088
I1
tp5089
a(S'building.to'
p5090
I1
tp5091
a(S'buildingbased'
p5092
I1
tp5093
a(S'buildingbuilders'
p5094
I1
tp5095
a(S'buildings.it'
p5096
I1
tp5097
a(S'buildings.lastly'
p5098
I1
tp5099
a(S'buildings;'
p5100
I1
tp5101
a(S'buildingthis'
p5102
I1
tp5103
a(S'builers'
p5104
I1
tp5105
a(S'buillders'
p5106
I1
tp5107
a(S'built.the'
p5108
I1
tp5109
a(S'built;'
p5110
I1
tp5111
a(S'buldings'
p5112
I1
tp5113
a(S'buliders'
p5114
I1
tp5115
a(S'bumps'
p5116
I1
tp5117
a(S'bunch'
p5118
I1
tp5119
a(S'buoyant'
p5120
I1
tp5121
a(S'bureaucracy'
p5122
I1
tp5123
a(S'burg'
p5124
I1
tp5125
a(S'bursted'
p5126
I1
tp5127
a(S'busiest'
p5128
I1
tp5129
a(S"businessman's"
p5130
I1
tp5131
a(S'bussiniss'
p5132
I1
tp5133
a(S'bustling'
p5134
I1
tp5135
a(S'buy'
p5136
I1
tp5137
a(S'bystanders'
p5138
I1
tp5139
a(S'cable.the'
p5140
I1
tp5141
a(S'calculate'
p5142
I1
tp5143
a(S'cald'
p5144
I1
tp5145
a(S'cam'
p5146
I1
tp5147
a(S'cancel'
p5148
I1
tp5149
a(S'cantroll'
p5150
I1
tp5151
a(S'capabilities'
p5152
I1
tp5153
a(S'capitan'
p5154
I1
tp5155
a(S'caple'
p5156
I1
tp5157
a(S'capricious'
p5158
I1
tp5159
a(S"caps1's"
p5160
I1
tp5161
a(S'caps1-"the'
p5162
I1
tp5163
a(S'caps1."the'
p5164
I1
tp5165
a(S'caps1.y'
p5166
I1
tp5167
a(S"caps10't"
p5168
I1
tp5169
a(S'caps2)'
p5170
I1
tp5171
a(S'caps2.many'
p5172
I1
tp5173
a(S'caps2.the'
p5174
I1
tp5175
a(S'caps6.the'
p5176
I1
tp5177
a(S'captin'
p5178
I1
tp5179
a(S'car'
p5180
I1
tp5181
a(S'careful'
p5182
I1
tp5183
a(S'cargo.the'
p5184
I1
tp5185
a(S'carrying'
p5186
I1
tp5187
a(S'castistrophic'
p5188
I1
tp5189
a(S'casualtiesthere'
p5190
I1
tp5191
a(S'catastrofick'
p5192
I1
tp5193
a(S'catastrophic!'
p5194
I1
tp5195
a(S'catches'
p5196
I1
tp5197
a(S'catostrophic'
p5198
I1
tp5199
a(S'cautions'
p5200
I1
tp5201
a(S'cech'
p5202
I1
tp5203
a(S'celebrated'
p5204
I1
tp5205
a(S'celebrating'
p5206
I1
tp5207
a(S'cemented'
p5208
I1
tp5209
a(S'centers'
p5210
I1
tp5211
a(S'cept'
p5212
I1
tp5213
a(S'certin'
p5214
I1
tp5215
a(S'chalange'
p5216
I1
tp5217
a(S'chalenging'
p5218
I1
tp5219
a(S'challanges'
p5220
I1
tp5221
a(S'changeing'
p5222
I1
tp5223
a(S'chaotic'
p5224
I1
tp5225
a(S'chapter'
p5226
I1
tp5227
a(S'characteristic'
p5228
I1
tp5229
a(S'charred'
p5230
I1
tp5231
a(S'cheap'
p5232
I1
tp5233
a(S'chemicals'
p5234
I1
tp5235
a(S'chemistry'
p5236
I1
tp5237
a(S'chew'
p5238
I1
tp5239
a(S'choice'
p5240
I1
tp5241
a(S'choose'
p5242
I1
tp5243
a(S'chord'
p5244
I1
tp5245
a(S'chores'
p5246
I1
tp5247
a(S'chrome-nickle'
p5248
I1
tp5249
a(S'chrystler'
p5250
I1
tp5251
a(S'circumstances'
p5252
I1
tp5253
a(S'cited'
p5254
I1
tp5255
a(S"citie's"
p5256
I1
tp5257
a(S'cities.in'
p5258
I1
tp5259
a(S'cities.there'
p5260
I1
tp5261
a(S'citizen'
p5262
I1
tp5263
a(S'city"-'
p5264
I1
tp5265
a(S'city.based'
p5266
I1
tp5267
a(S'city.lastly'
p5268
I1
tp5269
a(S'city.nature'
p5270
I1
tp5271
a(S'city.obstacles'
p5272
I1
tp5273
a(S'city.there'
p5274
I1
tp5275
a(S'city]'
p5276
I1
tp5277
a(S'citydwellers'
p5278
I1
tp5279
a(S'citythe'
p5280
I1
tp5281
a(S'civilian'
p5282
I1
tp5283
a(S"civilians'"
p5284
I1
tp5285
a(S'civilians?'
p5286
I1
tp5287
a(S'civilizians.those'
p5288
I1
tp5289
a(S'clad'
p5290
I1
tp5291
a(S'claim'
p5292
I1
tp5293
a(S'clamps'
p5294
I1
tp5295
a(S'clarifies'
p5296
I1
tp5297
a(S'cleared'
p5298
I1
tp5299
a(S'cleary'
p5300
I1
tp5301
a(S'closed'
p5302
I1
tp5303
a(S'closely'
p5304
I1
tp5305
a(S'closeness'
p5306
I1
tp5307
a(S'coffin'
p5308
I1
tp5309
a(S'cold'
p5310
I1
tp5311
a(S'collapein'
p5312
I1
tp5313
a(S'collapse.another'
p5314
I1
tp5315
a(S'collapsing.the'
p5316
I1
tp5317
a(S'collide'
p5318
I1
tp5319
a(S'combination'
p5320
I1
tp5321
a(S'combustable'
p5322
I1
tp5323
a(S'come.in'
p5324
I1
tp5325
a(S'come.there'
p5326
I1
tp5327
a(S'commercial'
p5328
I1
tp5329
a(S'commodly'
p5330
I1
tp5331
a(S'compared'
p5332
I1
tp5333
a(S'comparing'
p5334
I1
tp5335
a(S'compartment'
p5336
I1
tp5337
a(S'compensate'
p5338
I1
tp5339
a(S'competion'
p5340
I1
tp5341
a(S'complete.in'
p5342
I1
tp5343
a(S'completed.another'
p5344
I1
tp5345
a(S'completed.the'
p5346
I1
tp5347
a(S'completed.this'
p5348
I1
tp5349
a(S'completely.in'
p5350
I1
tp5351
a(S'complex'
p5352
I1
tp5353
a(S'complicate'
p5354
I1
tp5355
a(S'complicating'
p5356
I1
tp5357
a(S'complications.several'
p5358
I1
tp5359
a(S'complicostions'
p5360
I1
tp5361
a(S'comprehended'
p5362
I1
tp5363
a(S'con'
p5364
I1
tp5365
a(S'conceived'
p5366
I1
tp5367
a(S'concens'
p5368
I1
tp5369
a(S'conception'
p5370
I1
tp5371
a(S'concern.in'
p5372
I1
tp5373
a(S'concerne'
p5374
I1
tp5375
a(S'concers'
p5376
I1
tp5377
a(S'concidering'
p5378
I1
tp5379
a(S'conclucion'
p5380
I1
tp5381
a(S'concluded'
p5382
I1
tp5383
a(S'conclution'
p5384
I1
tp5385
a(S'concoction'
p5386
I1
tp5387
a(S'condemn'
p5388
I1
tp5389
a(S'conductor'
p5390
I1
tp5391
a(S'conductors'
p5392
I1
tp5393
a(S'confidence'
p5394
I1
tp5395
a(S'confident'
p5396
I1
tp5397
a(S'confront'
p5398
I1
tp5399
a(S'confused'
p5400
I1
tp5401
a(S'cons'
p5402
I1
tp5403
a(S'consept'
p5404
I1
tp5405
a(S'consequences'
p5406
I1
tp5407
a(S'consequently'
p5408
I1
tp5409
a(S'consern'
p5410
I1
tp5411
a(S'consernd'
p5412
I1
tp5413
a(S'conserns'
p5414
I1
tp5415
a(S'consiquence'
p5416
I1
tp5417
a(S'consist'
p5418
I1
tp5419
a(S'consistantly'
p5420
I1
tp5421
a(S'consited'
p5422
I1
tp5423
a(S'consitered'
p5424
I1
tp5425
a(S'constanly'
p5426
I1
tp5427
a(S'constantely'
p5428
I1
tp5429
a(S'constantley'
p5430
I1
tp5431
a(S'constinously'
p5432
I1
tp5433
a(S'constrousion'
p5434
I1
tp5435
a(S'construct.the'
p5436
I1
tp5437
a(S'constructed".according'
p5438
I1
tp5439
a(S'constructed."the'
p5440
I1
tp5441
a(S'constructed....the'
p5442
I1
tp5443
a(S'constructed.the'
p5444
I1
tp5445
a(S'constructedin'
p5446
I1
tp5447
a(S'constructers'
p5448
I1
tp5449
a(S'constructing.there'
p5450
I1
tp5451
a(S'construction.if'
p5452
I1
tp5453
a(S'construction.throughout'
p5454
I1
tp5455
a(S'constructor'
p5456
I1
tp5457
a(S'consulate'
p5458
I1
tp5459
a(S'consulting'
p5460
I1
tp5461
a(S'consumed'
p5462
I1
tp5463
a(S'contain'
p5464
I1
tp5465
a(S'containing'
p5466
I1
tp5467
a(S'contends'
p5468
I1
tp5469
a(S'continually'
p5470
I1
tp5471
a(S'continue.in'
p5472
I1
tp5473
a(S'continuesly'
p5474
I1
tp5475
a(S'continuously'
p5476
I1
tp5477
a(S'contraction.in'
p5478
I1
tp5479
a(S'contractor'
p5480
I1
tp5481
a(S'controll.which'
p5482
I1
tp5483
a(S'cool'
p5484
I1
tp5485
a(S'cooperate'
p5486
I1
tp5487
a(S'cooperating'
p5488
I1
tp5489
a(S'corents.there'
p5490
I1
tp5491
a(S'corners."other'
p5492
I1
tp5493
a(S'cornfield'
p5494
I1
tp5495
a(S'correct'
p5496
I1
tp5497
a(S'correctaly'
p5498
I1
tp5499
a(S'correspond'
p5500
I1
tp5501
a(S'costly/fatal'
p5502
I1
tp5503
a(S'costs'
p5504
I1
tp5505
a(S'coud'
p5506
I1
tp5507
a(S'couldnot'
p5508
I1
tp5509
a(S'counter'
p5510
I1
tp5511
a(S'counterweights'
p5512
I1
tp5513
a(S"country's"
p5514
I1
tp5515
a(S'countrys'
p5516
I1
tp5517
a(S'coupled'
p5518
I1
tp5519
a(S'couse'
p5520
I1
tp5521
a(S'cover'
p5522
I1
tp5523
a(S'covered'
p5524
I1
tp5525
a(S'crack'
p5526
I1
tp5527
a(S'crafting'
p5528
I1
tp5529
a(S'crappy'
p5530
I1
tp5531
a(S'crashes'
p5532
I1
tp5533
a(S'craze'
p5534
I1
tp5535
a(S'created.the'
p5536
I1
tp5537
a(S'creates'
p5538
I1
tp5539
a(S'creative'
p5540
I1
tp5541
a(S'creativity'
p5542
I1
tp5543
a(S'creator'
p5544
I1
tp5545
a(S'credibility'
p5546
I1
tp5547
a(S'crisis'
p5548
I1
tp5549
a(S'critical'
p5550
I1
tp5551
a(S'crowd.in'
p5552
I1
tp5553
a(S'crucial'
p5554
I1
tp5555
a(S'crumble'
p5556
I1
tp5557
a(S'crusal'
p5558
I1
tp5559
a(S'crush'
p5560
I1
tp5561
a(S'crushed.the'
p5562
I1
tp5563
a(S'crutial'
p5564
I1
tp5565
a(S'currant'
p5566
I1
tp5567
a(S'currents."they'
p5568
I1
tp5569
a(S'currents.first'
p5570
I1
tp5571
a(S'currents.there'
p5572
I1
tp5573
a(S'currents.they'
p5574
I1
tp5575
a(S'currentsthe'
p5576
I1
tp5577
a(S'custimary'
p5578
I1
tp5579
a(S'custom'
p5580
I1
tp5581
a(S'cylinder'
p5582
I1
tp5583
a(S'dager'
p5584
I1
tp5585
a(S'dagerous'
p5586
I1
tp5587
a(S'dallors'
p5588
I1
tp5589
a(S'damages'
p5590
I1
tp5591
a(S'damaging'
p5592
I1
tp5593
a(S'danagers'
p5594
I1
tp5595
a(S'dangel'
p5596
I1
tp5597
a(S'danger.builders'
p5598
I1
tp5599
a(S'danger.the'
p5600
I1
tp5601
a(S'danger.there'
p5602
I1
tp5603
a(S'dangerase'
p5604
I1
tp5605
a(S'dangerious'
p5606
I1
tp5607
a(S'dangerous.competitive'
p5608
I1
tp5609
a(S'dangerous.i'
p5610
I1
tp5611
a(S'dangerous.in'
p5612
I1
tp5613
a(S'dangerous.many'
p5614
I1
tp5615
a(S'dangerous.one'
p5616
I1
tp5617
a(S'dangerous.the'
p5618
I1
tp5619
a(S'dangerous.there'
p5620
I1
tp5621
a(S'dangerous.while'
p5622
I1
tp5623
a(S'dangerouss'
p5624
I1
tp5625
a(S'dangleing'
p5626
I1
tp5627
a(S'date2'
p5628
I1
tp5629
a(S'dated'
p5630
I1
tp5631
a(S'dates'
p5632
I1
tp5633
a(S'day.the'
p5634
I1
tp5635
a(S'dead.in'
p5636
I1
tp5637
a(S'dealed'
p5638
I1
tp5639
a(S'deaths.another'
p5640
I1
tp5641
a(S'debate'
p5642
I1
tp5643
a(S'debris'
p5644
I1
tp5645
a(S'decide'
p5646
I1
tp5647
a(S'decides'
p5648
I1
tp5649
a(S'deciding'
p5650
I1
tp5651
a(S'decline'
p5652
I1
tp5653
a(S'decoration.soon'
p5654
I1
tp5655
a(S'decreasing'
p5656
I1
tp5657
a(S'deeply'
p5658
I1
tp5659
a(S'defaults'
p5660
I1
tp5661
a(S'defects'
p5662
I1
tp5663
a(S'deform'
p5664
I1
tp5665
a(S'delemas'
p5666
I1
tp5667
a(S'delicate'
p5668
I1
tp5669
a(S'delivering'
p5670
I1
tp5671
a(S'delivery'
p5672
I1
tp5673
a(S'delt'
p5674
I1
tp5675
a(S'demands'
p5676
I1
tp5677
a(S'demise'
p5678
I1
tp5679
a(S'demonstrated'
p5680
I1
tp5681
a(S'demonstrates'
p5682
I1
tp5683
a(S'densed'
p5684
I1
tp5685
a(S'densey'
p5686
I1
tp5687
a(S'departure'
p5688
I1
tp5689
a(S'depending'
p5690
I1
tp5691
a(S'deregible'
p5692
I1
tp5693
a(S'describable'
p5694
I1
tp5695
a(S'describing'
p5696
I1
tp5697
a(S'describle'
p5698
I1
tp5699
a(S'desgned'
p5700
I1
tp5701
a(S'desided'
p5702
I1
tp5703
a(S'desighn'
p5704
I1
tp5705
a(S'desighned'
p5706
I1
tp5707
a(S'desingners'
p5708
I1
tp5709
a(S'desireable'
p5710
I1
tp5711
a(S'desk'
p5712
I1
tp5713
a(S'desperate'
p5714
I1
tp5715
a(S'desprite'
p5716
I1
tp5717
a(S'destination'
p5718
I1
tp5719
a(S'detaching'
p5720
I1
tp5721
a(S'detailed'
p5722
I1
tp5723
a(S'details'
p5724
I1
tp5725
a(S'detected'
p5726
I1
tp5727
a(S'deteriorated'
p5728
I1
tp5729
a(S'detrimental'
p5730
I1
tp5731
a(S'devastated'
p5732
I1
tp5733
a(S'devastating.one'
p5734
I1
tp5735
a(S'devastation'
p5736
I1
tp5737
a(S'develop'
p5738
I1
tp5739
a(S'developing'
p5740
I1
tp5741
a(S'devices'
p5742
I1
tp5743
a(S'devise'
p5744
I1
tp5745
a(S'devising'
p5746
I1
tp5747
a(S'devoted'
p5748
I1
tp5749
a(S"did'nt"
p5750
I1
tp5751
a(S'did.in'
p5752
I1
tp5753
a(S'dident'
p5754
I1
tp5755
a(S'dies'
p5756
I1
tp5757
a(S"differen't"
p5758
I1
tp5759
a(S'difference'
p5760
I1
tp5761
a(S'difficult.another'
p5762
I1
tp5763
a(S'difficult.the'
p5764
I1
tp5765
a(S'difficulties.the'
p5766
I1
tp5767
a(S'diffrent'
p5768
I1
tp5769
a(S'diffuclt'
p5770
I1
tp5771
a(S'dificult'
p5772
I1
tp5773
a(S'dificulties'
p5774
I1
tp5775
a(S'dilemma'
p5776
I1
tp5777
a(S'diminish.the'
p5778
I1
tp5779
a(S'dingle'
p5780
I1
tp5781
a(S'direct'
p5782
I1
tp5783
a(S'directional'
p5784
I1
tp5785
a(S'diridgibles'
p5786
I1
tp5787
a(S'diridible'
p5788
I1
tp5789
a(S'diridibles'
p5790
I1
tp5791
a(S'diridles'
p5792
I1
tp5793
a(S"dirigable's"
p5794
I1
tp5795
a(S'dirigibe'
p5796
I1
tp5797
a(S"dirigible'"
p5798
I1
tp5799
a(S'dirigible)'
p5800
I1
tp5801
a(S'dirigible.the'
p5802
I1
tp5803
a(S"dirigibles'"
p5804
I1
tp5805
a(S'dirigibles)'
p5806
I1
tp5807
a(S'dirigibles.another'
p5808
I1
tp5809
a(S'dirigibles.builders'
p5810
I1
tp5811
a(S'dirigibles.finally'
p5812
I1
tp5813
a(S'dirigibles.one'
p5814
I1
tp5815
a(S'dirigibles.there'
p5816
I1
tp5817
a(S'dirigibles.they'
p5818
I1
tp5819
a(S'dirigibles.throughout'
p5820
I1
tp5821
a(S'dirigibles]'
p5822
I1
tp5823
a(S'dirigiblethe'
p5824
I1
tp5825
a(S'dirigidle'
p5826
I1
tp5827
a(S'dirigildes'
p5828
I1
tp5829
a(S'dirigiples'
p5830
I1
tp5831
a(S'diriglble'
p5832
I1
tp5833
a(S'dirrection.the'
p5834
I1
tp5835
a(S'dirrections'
p5836
I1
tp5837
a(S'dis-mounting'
p5838
I1
tp5839
a(S'disappear'
p5840
I1
tp5841
a(S'disappear.the'
p5842
I1
tp5843
a(S'disappeared.based'
p5844
I1
tp5845
a(S'disappeared.obstacles'
p5846
I1
tp5847
a(S'disappeared.some'
p5848
I1
tp5849
a(S'disappearedthe'
p5850
I1
tp5851
a(S'disappointed'
p5852
I1
tp5853
a(S'disarmed'
p5854
I1
tp5855
a(S'disaster.in'
p5856
I1
tp5857
a(S'disasters'
p5858
I1
tp5859
a(S'disastrous;'
p5860
I1
tp5861
a(S'discarded.the'
p5862
I1
tp5863
a(S'discontinuation'
p5864
I1
tp5865
a(S'discontinued'
p5866
I1
tp5867
a(S'discouragement'
p5868
I1
tp5869
a(S'discovers'
p5870
I1
tp5871
a(S'discovery'
p5872
I1
tp5873
a(S'disembarking'
p5874
I1
tp5875
a(S'displayed'
p5876
I1
tp5877
a(S'displays'
p5878
I1
tp5879
a(S'disputes'
p5880
I1
tp5881
a(S'disregarding'
p5882
I1
tp5883
a(S'dissapeared.many'
p5884
I1
tp5885
a(S'dissapeared.the'
p5886
I1
tp5887
a(S'dissaperance'
p5888
I1
tp5889
a(S'dissappear.the'
p5890
I1
tp5891
a(S'dissappeared'
p5892
I1
tp5893
a(S'distinctive'
p5894
I1
tp5895
a(S'distributing'
p5896
I1
tp5897
a(S'distribution'
p5898
I1
tp5899
a(S'district'
p5900
I1
tp5901
a(S'disuse.the'
p5902
I1
tp5903
a(S'do.many'
p5904
I1
tp5905
a(S'dock.al'
p5906
I1
tp5907
a(S'dock.another'
p5908
I1
tp5909
a(S'dock.based'
p5910
I1
tp5911
a(S'dock.on'
p5912
I1
tp5913
a(S'dock.trying'
p5914
I1
tp5915
a(S'dock.very'
p5916
I1
tp5917
a(S'dock.well'
p5918
I1
tp5919
a(S'dock.when'
p5920
I1
tp5921
a(S'docked.based'
p5922
I1
tp5923
a(S'dockhow'
p5924
I1
tp5925
a(S'dockin.in'
p5926
I1
tp5927
a(S'docking.based'
p5928
I1
tp5929
a(S'dockings'
p5930
I1
tp5931
a(S'docks.one'
p5932
I1
tp5933
a(S'dockthe'
p5934
I1
tp5935
a(S'docs'
p5936
I1
tp5937
a(S'doesnt'
p5938
I1
tp5939
a(S'doing.the'
p5940
I1
tp5941
a(S'doll'
p5942
I1
tp5943
a(S'dollar'
p5944
I1
tp5945
a(S"dollares'"
p5946
I1
tp5947
a(S'dollars.consequently'
p5948
I1
tp5949
a(S'dollers'
p5950
I1
tp5951
a(S'dominating'
p5952
I1
tp5953
a(S'done.the'
p5954
I1
tp5955
a(S"doolars'"
p5956
I1
tp5957
a(S'doom'
p5958
I1
tp5959
a(S'doomed.more'
p5960
I1
tp5961
a(S'doomed.the'
p5962
I1
tp5963
a(S'doors'
p5964
I1
tp5965
a(S'double'
p5966
I1
tp5967
a(S'doubled'
p5968
I1
tp5969
a(S'doubted'
p5970
I1
tp5971
a(S'dow'
p5972
I1
tp5973
a(S'down.@num1.)'
p5974
I1
tp5975
a(S'down.in'
p5976
I1
tp5977
a(S'down.the'
p5978
I1
tp5979
a(S'down;'
p5980
I1
tp5981
a(S'dowstable'
p5982
I1
tp5983
a(S'dozens'
p5984
I1
tp5985
a(S'draw'
p5986
I1
tp5987
a(S'dream.some'
p5988
I1
tp5989
a(S'dream.the'
p5990
I1
tp5991
a(S'dream.unfortunatly'
p5992
I1
tp5993
a(S'driagbles'
p5994
I1
tp5995
a(S'drigbles'
p5996
I1
tp5997
a(S'driggibles'
p5998
I1
tp5999
a(S"drigible's"
p6000
I1
tp6001
a(S'drigibles.in'
p6002
I1
tp6003
a(S'driigble'
p6004
I1
tp6005
a(S'dringibles'
p6006
I1
tp6007
a(S'drive'
p6008
I1
tp6009
a(S'driving'
p6010
I1
tp6011
a(S'drop-off/pick'
p6012
I1
tp6013
a(S'droped'
p6014
I1
tp6015
a(S'dropped.in'
p6016
I1
tp6017
a(S'dropped.many'
p6018
I1
tp6019
a(S'dropt'
p6020
I1
tp6021
a(S'dunk'
p6022
I1
tp6023
a(S'durable'
p6024
I1
tp6025
a(S'durables'
p6026
I1
tp6027
a(S'durigible'
p6028
I1
tp6029
a(S'duties'
p6030
I1
tp6031
a(S'dyingthe'
p6032
I1
tp6033
a(S'ealse'
p6034
I1
tp6035
a(S'earth'
p6036
I1
tp6037
a(S'ease'
p6038
I1
tp6039
a(S'easily.the'
p6040
I1
tp6041
a(S'ecnoliged'
p6042
I1
tp6043
a(S'ed'
p6044
I1
tp6045
a(S'edge'
p6046
I1
tp6047
a(S'edit'
p6048
I1
tp6049
a(S'effectively'
p6050
I1
tp6051
a(S'effectiveness'
p6052
I1
tp6053
a(S'effectivness'
p6054
I1
tp6055
a(S'efficient'
p6056
I1
tp6057
a(S'efficiently'
p6058
I1
tp6059
a(S'eficiently'
p6060
I1
tp6061
a(S'egregious'
p6062
I1
tp6063
a(S'eighty-fifth'
p6064
I1
tp6065
a(S'eleagl'
p6066
I1
tp6067
a(S'electricity'
p6068
I1
tp6069
a(S'elevated'
p6070
I1
tp6071
a(S'elevator'
p6072
I1
tp6073
a(S'eliminating'
p6074
I1
tp6075
a(S'elsethat'
p6076
I1
tp6077
a(S'emerged'
p6078
I1
tp6079
a(S'empile'
p6080
I1
tp6081
a(S'end.al'
p6082
I1
tp6083
a(S'end.the'
p6084
I1
tp6085
a(S'endeavor'
p6086
I1
tp6087
a(S'ened'
p6088
I1
tp6089
a(S'enemy'
p6090
I1
tp6091
a(S'enforc'
p6092
I1
tp6093
a(S'engeier'
p6094
I1
tp6095
a(S'engeineeres'
p6096
I1
tp6097
a(S'engeneers'
p6098
I1
tp6099
a(S'engineering'
p6100
I1
tp6101
a(S'enginners'
p6102
I1
tp6103
a(S'enhance'
p6104
I1
tp6105
a(S'enigmatic'
p6106
I1
tp6107
a(S'enoungh'
p6108
I1
tp6109
a(S'entered'
p6110
I1
tp6111
a(S'enthusiastic'
p6112
I1
tp6113
a(S'entirence'
p6114
I1
tp6115
a(S'enuff'
p6116
I1
tp6117
a(S'environmental'
p6118
I1
tp6119
a(S'epecting'
p6120
I1
tp6121
a(S'equal'
p6122
I1
tp6123
a(S'equation'
p6124
I1
tp6125
a(S'equiment'
p6126
I1
tp6127
a(S'equpment'
p6128
I1
tp6129
a(S'era'
p6130
I1
tp6131
a(S'erect'
p6132
I1
tp6133
a(S'erected'
p6134
I1
tp6135
a(S'erratically'
p6136
I1
tp6137
a(S'especilly'
p6138
I1
tp6139
a(S'espectaculer.builders'
p6140
I1
tp6141
a(S'essential'
p6142
I1
tp6143
a(S'essentially'
p6144
I1
tp6145
a(S'establishes'
p6146
I1
tp6147
a(S'estimated'
p6148
I1
tp6149
a(S'etc.in'
p6150
I1
tp6151
a(S'eventualy'
p6152
I1
tp6153
a(S'eventuly'
p6154
I1
tp6155
a(S'ever-changing'
p6156
I1
tp6157
a(S'ever.the'
p6158
I1
tp6159
a(S'everyday'
p6160
I1
tp6161
a(S'evidence'
p6162
I1
tp6163
a(S'evidently'
p6164
I1
tp6165
a(S'exact'
p6166
I1
tp6167
a(S'exceed'
p6168
I1
tp6169
a(S'excerp'
p6170
I1
tp6171
a(S'excert'
p6172
I1
tp6173
a(S'excess'
p6174
I1
tp6175
a(S'excessive'
p6176
I1
tp6177
a(S'excrushiating'
p6178
I1
tp6179
a(S'excuted'
p6180
I1
tp6181
a(S'execute'
p6182
I1
tp6183
a(S'execute.the'
p6184
I1
tp6185
a(S'executed'
p6186
I1
tp6187
a(S'exhibited'
p6188
I1
tp6189
a(S'expecially'
p6190
I1
tp6191
a(S'expectation'
p6192
I1
tp6193
a(S'expected.al'
p6194
I1
tp6195
a(S'expense'
p6196
I1
tp6197
a(S'expensive.another'
p6198
I1
tp6199
a(S'experiments'
p6200
I1
tp6201
a(S'expert'
p6202
I1
tp6203
a(S'expertese.in'
p6204
I1
tp6205
a(S'explain'
p6206
I1
tp6207
a(S'explaining'
p6208
I1
tp6209
a(S'expload'
p6210
I1
tp6211
a(S'exposed'
p6212
I1
tp6213
a(S'exsiting'
p6214
I1
tp6215
a(S'ext'
p6216
I1
tp6217
a(S'extant'
p6218
I1
tp6219
a(S'extending'
p6220
I1
tp6221
a(S'extreemely'
p6222
I1
tp6223
a(S'fabiric'
p6224
I1
tp6225
a(S'face.based'
p6226
I1
tp6227
a(S'face.in'
p6228
I1
tp6229
a(S'face.there'
p6230
I1
tp6231
a(S'face.when'
p6232
I1
tp6233
a(S'faced.although'
p6234
I1
tp6235
a(S'faced.base'
p6236
I1
tp6237
a(S'faced.based'
p6238
I1
tp6239
a(S'faced.from'
p6240
I1
tp6241
a(S'faced.many'
p6242
I1
tp6243
a(S'faced.when'
p6244
I1
tp6245
a(S'faced.while'
p6246
I1
tp6247
a(S'faceded'
p6248
I1
tp6249
a(S'facedthe'
p6250
I1
tp6251
a(S'facinating'
p6252
I1
tp6253
a(S'factor.the'
p6254
I1
tp6255
a(S'factores'
p6256
I1
tp6257
a(S'facts'
p6258
I1
tp6259
a(S'fail.and'
p6260
I1
tp6261
a(S'failed.based'
p6262
I1
tp6263
a(S'failed.safety'
p6264
I1
tp6265
a(S'failed.the'
p6266
I1
tp6267
a(S'failed;'
p6268
I1
tp6269
a(S'failer'
p6270
I1
tp6271
a(S'failing'
p6272
I1
tp6273
a(S'failling'
p6274
I1
tp6275
a(S'failuer'
p6276
I1
tp6277
a(S'failure.based'
p6278
I1
tp6279
a(S'failure.the'
p6280
I1
tp6281
a(S'fair'
p6282
I1
tp6283
a(S'fairly'
p6284
I1
tp6285
a(S'fall.the'
p6286
I1
tp6287
a(S'falls'
p6288
I1
tp6289
a(S'familiar'
p6290
I1
tp6291
a(S'fandation'
p6292
I1
tp6293
a(S'fantastic'
p6294
I1
tp6295
a(S'farther'
p6296
I1
tp6297
a(S'fased'
p6298
I1
tp6299
a(S'fashion'
p6300
I1
tp6301
a(S'fasten'
p6302
I1
tp6303
a(S'fatalities.in'
p6304
I1
tp6305
a(S'faults'
p6306
I1
tp6307
a(S'feasible'
p6308
I1
tp6309
a(S'feasible.during'
p6310
I1
tp6311
a(S'feat.the'
p6312
I1
tp6313
a(S'feats'
p6314
I1
tp6315
a(S'features'
p6316
I1
tp6317
a(S'february'
p6318
I1
tp6319
a(S'feer'
p6320
I1
tp6321
a(S'fees'
p6322
I1
tp6323
a(S'feet.when'
p6324
I1
tp6325
a(S'feet;'
p6326
I1
tp6327
a(S'feilds'
p6328
I1
tp6329
a(S'felt'
p6330
I1
tp6331
a(S'ferocious'
p6332
I1
tp6333
a(S'fetch'
p6334
I1
tp6335
a(S'fetched.the'
p6336
I1
tp6337
a(S'few.during'
p6338
I1
tp6339
a(S'fiasco'
p6340
I1
tp6341
a(S'field.obstacles'
p6342
I1
tp6343
a(S'fifteen'
p6344
I1
tp6345
a(S'fifthteen'
p6346
I1
tp6347
a(S'fifty-thousand'
p6348
I1
tp6349
a(S'fight'
p6350
I1
tp6351
a(S'figured'
p6352
I1
tp6353
a(S'filed'
p6354
I1
tp6355
a(S'fills'
p6356
I1
tp6357
a(S'finalized'
p6358
I1
tp6359
a(S'finaly'
p6360
I1
tp6361
a(S'financial'
p6362
I1
tp6363
a(S'findly'
p6364
I1
tp6365
a(S'fine'
p6366
I1
tp6367
a(S'finel'
p6368
I1
tp6369
a(S'finished.the'
p6370
I1
tp6371
a(S'finnally'
p6372
I1
tp6373
a(S'fir'
p6374
I1
tp6375
a(S'fireball'
p6376
I1
tp6377
a(S'fires'
p6378
I1
tp6379
a(S'firsted'
p6380
I1
tp6381
a(S'firsts'
p6382
I1
tp6383
a(S'fish'
p6384
I1
tp6385
a(S'fix.in'
p6386
I1
tp6387
a(S'fix.the'
p6388
I1
tp6389
a(S'flamable.in'
p6390
I1
tp6391
a(S'flamibility'
p6392
I1
tp6393
a(S'flammable"(l\xfcsted'
p6394
I1
tp6395
a(S'flammable.based'
p6396
I1
tp6397
a(S'flammable.in'
p6398
I1
tp6399
a(S'flammable.nature'
p6400
I1
tp6401
a(S'flammenble'
p6402
I1
tp6403
a(S'flammibility'
p6404
I1
tp6405
a(S'flight'
p6406
I1
tp6407
a(S'flights'
p6408
I1
tp6409
a(S'float.the'
p6410
I1
tp6411
a(S'floated'
p6412
I1
tp6413
a(S'floats'
p6414
I1
tp6415
a(S'flood'
p6416
I1
tp6417
a(S'floor.in'
p6418
I1
tp6419
a(S'floors.back'
p6420
I1
tp6421
a(S'flores'
p6422
I1
tp6423
a(S'flour'
p6424
I1
tp6425
a(S'flourish'
p6426
I1
tp6427
a(S'flow'
p6428
I1
tp6429
a(S'flown'
p6430
I1
tp6431
a(S'fluids'
p6432
I1
tp6433
a(S'fly/hold'
p6434
I1
tp6435
a(S'flys'
p6436
I1
tp6437
a(S'focuses'
p6438
I1
tp6439
a(S'fofil'
p6440
I1
tp6441
a(S'for.during'
p6442
I1
tp6443
a(S'for.one'
p6444
I1
tp6445
a(S'for?'
p6446
I1
tp6447
a(S'forageable'
p6448
I1
tp6449
a(S'forbidden'
p6450
I1
tp6451
a(S'forbids'
p6452
I1
tp6453
a(S'forein'
p6454
I1
tp6455
a(S'foresaw'
p6456
I1
tp6457
a(S'foresee'
p6458
I1
tp6459
a(S'foreseeable'
p6460
I1
tp6461
a(S'foreshadowing'
p6462
I1
tp6463
a(S'forever'
p6464
I1
tp6465
a(S'forgein'
p6466
I1
tp6467
a(S'forget'
p6468
I1
tp6469
a(S'forgottenin'
p6470
I1
tp6471
a(S'forign'
p6472
I1
tp6473
a(S'fortifying'
p6474
I1
tp6475
a(S'foundation...nearly'
p6476
I1
tp6477
a(S'foundational'
p6478
I1
tp6479
a(S'fourth'
p6480
I1
tp6481
a(S'frabric'
p6482
I1
tp6483
a(S'frame."(paragraph'
p6484
I1
tp6485
a(S"frame.'"
p6486
I1
tp6487
a(S'frame.another'
p6488
I1
tp6489
a(S'frame.lastly'
p6490
I1
tp6491
a(S'frame.this'
p6492
I1
tp6493
a(S'frame;'
p6494
I1
tp6495
a(S'framework.in'
p6496
I1
tp6497
a(S'framework.lastly'
p6498
I1
tp6499
a(S'framework.on'
p6500
I1
tp6501
a(S'framework.technology'
p6502
I1
tp6503
a(S'framework.the'
p6504
I1
tp6505
a(S'framework.when'
p6506
I1
tp6507
a(S'frameworks'
p6508
I1
tp6509
a(S'frameworkthe'
p6510
I1
tp6511
a(S'framwork'
p6512
I1
tp6513
a(S'frane'
p6514
I1
tp6515
a(S'free'
p6516
I1
tp6517
a(S'friend'
p6518
I1
tp6519
a(S'friends'
p6520
I1
tp6521
a(S'frightening'
p6522
I1
tp6523
a(S'frist'
p6524
I1
tp6525
a(S'fro'
p6526
I1
tp6527
a(S'fruition'
p6528
I1
tp6529
a(S'frustrating'
p6530
I1
tp6531
a(S'ft)'
p6532
I1
tp6533
a(S'fueling'
p6534
I1
tp6535
a(S'fuels'
p6536
I1
tp6537
a(S'fufill'
p6538
I1
tp6539
a(S'fufilled'
p6540
I1
tp6541
a(S'fullfilled.the'
p6542
I1
tp6543
a(S'fully'
p6544
I1
tp6545
a(S'fun'
p6546
I1
tp6547
a(S'function'
p6548
I1
tp6549
a(S'functioning'
p6550
I1
tp6551
a(S'functionthe'
p6552
I1
tp6553
a(S'fundamental'
p6554
I1
tp6555
a(S'future.in'
p6556
I1
tp6557
a(S'future.the'
p6558
I1
tp6559
a(S'futureistic'
p6560
I1
tp6561
a(S'gaining'
p6562
I1
tp6563
a(S'gales'
p6564
I1
tp6565
a(S'gamble'
p6566
I1
tp6567
a(S'game'
p6568
I1
tp6569
a(S'gandala'
p6570
I1
tp6571
a(S'gang-plank'
p6572
I1
tp6573
a(S'garden.during'
p6574
I1
tp6575
a(S'garden.the'
p6576
I1
tp6577
a(S'gaseous-filled'
p6578
I1
tp6579
a(S'gass'
p6580
I1
tp6581
a(S'gaurenteed'
p6582
I1
tp6583
a(S'gear."@caps1'
p6584
I1
tp6585
a(S'gear."the'
p6586
I1
tp6587
a(S'gears'
p6588
I1
tp6589
a(S'geers.these'
p6590
I1
tp6591
a(S'genius'
p6592
I1
tp6593
a(S'geographical'
p6594
I1
tp6595
a(S"german's"
p6596
I1
tp6597
a(S'geting'
p6598
I1
tp6599
a(S'gigantic'
p6600
I1
tp6601
a(S'giving'
p6602
I1
tp6603
a(S'glassed-in'
p6604
I1
tp6605
a(S'glimphs'
p6606
I1
tp6607
a(S'glimpse'
p6608
I1
tp6609
a(S'global'
p6610
I1
tp6611
a(S'glory.the'
p6612
I1
tp6613
a(S'goas'
p6614
I1
tp6615
a(S'gonna'
p6616
I1
tp6617
a(S'goods'
p6618
I1
tp6619
a(S'goodyear)'
p6620
I1
tp6621
a(S'govenment'
p6622
I1
tp6623
a(S'governments'
p6624
I1
tp6625
a(S'gradually'
p6626
I1
tp6627
a(S'graph'
p6628
I1
tp6629
a(S'gravity'
p6630
I1
tp6631
a(S'greasest'
p6632
I1
tp6633
a(S'great.builders'
p6634
I1
tp6635
a(S'greats'
p6636
I1
tp6637
a(S'grim'
p6638
I1
tp6639
a(S'ground.in'
p6640
I1
tp6641
a(S'gust'
p6642
I1
tp6643
a(S'gustful'
p6644
I1
tp6645
a(S'gutsey'
p6646
I1
tp6647
a(S'guy'
p6648
I1
tp6649
a(S'had.based'
p6650
I1
tp6651
a(S'had]'
p6652
I1
tp6653
a(S"haden't"
p6654
I1
tp6655
a(S'hair.they'
p6656
I1
tp6657
a(S'halt'
p6658
I1
tp6659
a(S'handle.a'
p6660
I1
tp6661
a(S'handle.the'
p6662
I1
tp6663
a(S'handling'
p6664
I1
tp6665
a(S'hangin'
p6666
I1
tp6667
a(S'happen.an'
p6668
I1
tp6669
a(S'happen.in'
p6670
I1
tp6671
a(S'happen.the'
p6672
I1
tp6673
a(S'happend'
p6674
I1
tp6675
a(S'happening.the'
p6676
I1
tp6677
a(S'happens.if'
p6678
I1
tp6679
a(S'hard-to-reach'
p6680
I1
tp6681
a(S'hardship'
p6682
I1
tp6683
a(S'harmedin'
p6684
I1
tp6685
a(S'harnessing'
p6686
I1
tp6687
a(S"hasn't"
p6688
I1
tp6689
a(S'hault'
p6690
I1
tp6691
a(S"have's"
p6692
I1
tp6693
a(S'have.there'
p6694
I1
tp6695
a(S'havin'
p6696
I1
tp6697
a(S'hazard!'
p6698
I1
tp6699
a(S'hazard;'
p6700
I1
tp6701
a(S'hazards.when'
p6702
I1
tp6703
a(S'hazzard'
p6704
I1
tp6705
a(S'hazzards'
p6706
I1
tp6707
a(S"he's"
p6708
I1
tp6709
a(S'head'
p6710
I1
tp6711
a(S'heading'
p6712
I1
tp6713
a(S'heard'
p6714
I1
tp6715
a(S'heart'
p6716
I1
tp6717
a(S'heed'
p6718
I1
tp6719
a(S'hefty'
p6720
I1
tp6721
a(S'heigh'
p6722
I1
tp6723
a(S'heights.the'
p6724
I1
tp6725
a(S'helim'
p6726
I1
tp6727
a(S'helium-which'
p6728
I1
tp6729
a(S'helium.in'
p6730
I1
tp6731
a(S'helium;'
p6732
I1
tp6733
a(S'hell'
p6734
I1
tp6735
a(S'hellem'
p6736
I1
tp6737
a(S'helpful'
p6738
I1
tp6739
a(S'hes'
p6740
I1
tp6741
a(S'hiding'
p6742
I1
tp6743
a(S'high.based'
p6744
I1
tp6745
a(S'highlights'
p6746
I1
tp6747
a(S'highly-'
p6748
I1
tp6749
a(S'highly-flammable'
p6750
I1
tp6751
a(S'hinden'
p6752
I1
tp6753
a(S'hindenburg)'
p6754
I1
tp6755
a(S'hindenburg-style'
p6756
I1
tp6757
a(S'hindinburg.based'
p6758
I1
tp6759
a(S'hinge'
p6760
I1
tp6761
a(S'historical'
p6762
I1
tp6763
a(S'history'
p6764
I1
tp6765
a(S'holding.the'
p6766
I1
tp6767
a(S'holdn'
p6768
I1
tp6769
a(S'holes'
p6770
I1
tp6771
a(S'hooking'
p6772
I1
tp6773
a(S'hoor'
p6774
I1
tp6775
a(S'hoover'
p6776
I1
tp6777
a(S'hoovering'
p6778
I1
tp6779
a(S'hoped'
p6780
I1
tp6781
a(S'hopeful'
p6782
I1
tp6783
a(S'hopeless'
p6784
I1
tp6785
a(S'hops'
p6786
I1
tp6787
a(S'horible'
p6788
I1
tp6789
a(S'horse'
p6790
I1
tp6791
a(S'houlad'
p6792
I1
tp6793
a(S'housed'
p6794
I1
tp6795
a(S'housing'
p6796
I1
tp6797
a(S'huelium'
p6798
I1
tp6799
a(S'huge.along'
p6800
I1
tp6801
a(S'huge;'
p6802
I1
tp6803
a(S'human'
p6804
I1
tp6805
a(S'humans'
p6806
I1
tp6807
a(S'humongous'
p6808
I1
tp6809
a(S'hundered'
p6810
I1
tp6811
a(S'hundren'
p6812
I1
tp6813
a(S'hurried'
p6814
I1
tp6815
a(S'hurt/killed'
p6816
I1
tp6817
a(S'hwo'
p6818
I1
tp6819
a(S'hydrogen)'
p6820
I1
tp6821
a(S'hydrogen-filled'
p6822
I1
tp6823
a(S'hydrogn'
p6824
I1
tp6825
a(S'ials'
p6826
I1
tp6827
a(S'idea.al'
p6828
I1
tp6829
a(S'idea.although'
p6830
I1
tp6831
a(S'idea.another'
p6832
I1
tp6833
a(S'idea.overall'
p6834
I1
tp6835
a(S'ideait'
p6836
I1
tp6837
a(S'identification'
p6838
I1
tp6839
a(S'idiots'
p6840
I1
tp6841
a(S'ignit'
p6842
I1
tp6843
a(S'illegal.a'
p6844
I1
tp6845
a(S'illegal.based'
p6846
I1
tp6847
a(S'illegal.in'
p6848
I1
tp6849
a(S'illegal.it'
p6850
I1
tp6851
a(S'illegal.throughout'
p6852
I1
tp6853
a(S'illegal.when'
p6854
I1
tp6855
a(S'illegal?'
p6856
I1
tp6857
a(S'illegall'
p6858
I1
tp6859
a(S'illegle'
p6860
I1
tp6861
a(S'illogical'
p6862
I1
tp6863
a(S'imaginations'
p6864
I1
tp6865
a(S'imagine'
p6866
I1
tp6867
a(S'imagined'
p6868
I1
tp6869
a(S'imense'
p6870
I1
tp6871
a(S'immediately'
p6872
I1
tp6873
a(S'immenent'
p6874
I1
tp6875
a(S'immensely'
p6876
I1
tp6877
a(S'immobile'
p6878
I1
tp6879
a(S'impassible'
p6880
I1
tp6881
a(S'impediments'
p6882
I1
tp6883
a(S'implement'
p6884
I1
tp6885
a(S'implication'
p6886
I1
tp6887
a(S'implies'
p6888
I1
tp6889
a(S'imply'
p6890
I1
tp6891
a(S'implying'
p6892
I1
tp6893
a(S'import'
p6894
I1
tp6895
a(S'importance'
p6896
I1
tp6897
a(S'imposible'
p6898
I1
tp6899
a(S'impossable'
p6900
I1
tp6901
a(S'impossibility'
p6902
I1
tp6903
a(S'impossible.derigibles'
p6904
I1
tp6905
a(S'impossible.during'
p6906
I1
tp6907
a(S'impossibleallowing'
p6908
I1
tp6909
a(S'impposible'
p6910
I1
tp6911
a(S'impractical.based'
p6912
I1
tp6913
a(S'impractical.the'
p6914
I1
tp6915
a(S'impractical;'
p6916
I1
tp6917
a(S'impracticalness'
p6918
I1
tp6919
a(S'improbable'
p6920
I1
tp6921
a(S'improve'
p6922
I1
tp6923
a(S'improvement'
p6924
I1
tp6925
a(S'in-practical'
p6926
I1
tp6927
a(S'incase'
p6928
I1
tp6929
a(S'inccident'
p6930
I1
tp6931
a(S'inconceivable'
p6932
I1
tp6933
a(S'inconsitent'
p6934
I1
tp6935
a(S'incorporate'
p6936
I1
tp6937
a(S'increases'
p6938
I1
tp6939
a(S'increasing'
p6940
I1
tp6941
a(S'industry'
p6942
I1
tp6943
a(S'inef'
p6944
I1
tp6945
a(S'inevitably'
p6946
I1
tp6947
a(S'inflammable'
p6948
I1
tp6949
a(S'inflate'
p6950
I1
tp6951
a(S'inflating'
p6952
I1
tp6953
a(S'inflict'
p6954
I1
tp6955
a(S'influentiel'
p6956
I1
tp6957
a(S'inforced'
p6958
I1
tp6959
a(S'informant'
p6960
I1
tp6961
a(S'informs'
p6962
I1
tp6963
a(S"ing's"
p6964
I1
tp6965
a(S'ingeniose'
p6966
I1
tp6967
a(S'ingenious'
p6968
I1
tp6969
a(S'inhabitants.when'
p6970
I1
tp6971
a(S'initial'
p6972
I1
tp6973
a(S'initially'
p6974
I1
tp6975
a(S'initiated'
p6976
I1
tp6977
a(S'injured.based'
p6978
I1
tp6979
a(S'injury.in'
p6980
I1
tp6981
a(S'inlife'
p6982
I1
tp6983
a(S'inocent'
p6984
I1
tp6985
a(S'inovation'
p6986
I1
tp6987
a(S'inroled'
p6988
I1
tp6989
a(S'insecurity'
p6990
I1
tp6991
a(S'inside-'
p6992
I1
tp6993
a(S'insides'
p6994
I1
tp6995
a(S'installed.many'
p6996
I1
tp6997
a(S'installed.the'
p6998
I1
tp6999
a(S'installment'
p7000
I1
tp7001
a(S'instant'
p7002
I1
tp7003
a(S'instantly'
p7004
I1
tp7005
a(S'intelligent'
p7006
I1
tp7007
a(S'intent'
p7008
I1
tp7009
a(S'intentions'
p7010
I1
tp7011
a(S'interest'
p7012
I1
tp7013
a(S'interesting'
p7014
I1
tp7015
a(S'interfer'
p7016
I1
tp7017
a(S'interference'
p7018
I1
tp7019
a(S'interfering'
p7020
I1
tp7021
a(S'internationally'
p7022
I1
tp7023
a(S'introduction'
p7024
I1
tp7025
a(S'intuitive'
p7026
I1
tp7027
a(S'inuf'
p7028
I1
tp7029
a(S'invention'
p7030
I1
tp7031
a(S'inventions'
p7032
I1
tp7033
a(S'invested'
p7034
I1
tp7035
a(S'inviorment'
p7036
I1
tp7037
a(S'invole'
p7038
I1
tp7039
a(S'involved.al'
p7040
I1
tp7041
a(S'irrational'
p7042
I1
tp7043
a(S'irrelevant'
p7044
I1
tp7045
a(S'irvan'
p7046
I1
tp7047
a(S'ishuse'
p7048
I1
tp7049
a(S'isnt'
p7050
I1
tp7051
a(S'isshue'
p7052
I1
tp7053
a(S"it'll"
p7054
I1
tp7055
a(S'it."during'
p7056
I1
tp7057
a(S'it.allowing'
p7058
I1
tp7059
a(S'it.based'
p7060
I1
tp7061
a(S'it.builders'
p7062
I1
tp7063
a(S"it.i've"
p7064
I1
tp7065
a(S'it.in'
p7066
I1
tp7067
a(S'it.one'
p7068
I1
tp7069
a(S'it.the-builders'
p7070
I1
tp7071
a(S"it.there's"
p7072
I1
tp7073
a(S'it.through'
p7074
I1
tp7075
a(S'it.when'
p7076
I1
tp7077
a(S'itall'
p7078
I1
tp7079
a(S"itself.'"
p7080
I1
tp7081
a(S'itself.in'
p7082
I1
tp7083
a(S'itself.landing'
p7084
I1
tp7085
a(S'itself.new'
p7086
I1
tp7087
a(S'itsself'
p7088
I1
tp7089
a(S'jealous'
p7090
I1
tp7091
a(S'jealousy'
p7092
I1
tp7093
a(S'jeopardize'
p7094
I1
tp7095
a(S'job.architects'
p7096
I1
tp7097
a(S'job.in'
p7098
I1
tp7099
a(S'job.problems'
p7100
I1
tp7101
a(S'jobs'
p7102
I1
tp7103
a(S'journey'
p7104
I1
tp7105
a(S'jumped'
p7106
I1
tp7107
a(S'justifies'
p7108
I1
tp7109
a(S'jutting'
p7110
I1
tp7111
a(S'keeps'
p7112
I1
tp7113
a(S'knocking'
p7114
I1
tp7115
a(S"know's"
p7116
I1
tp7117
a(S'knowing'
p7118
I1
tp7119
a(S'knowned'
p7120
I1
tp7121
a(S'labor'
p7122
I1
tp7123
a(S'lad'
p7124
I1
tp7125
a(S'laden'
p7126
I1
tp7127
a(S'lak'
p7128
I1
tp7129
a(S'lake'
p7130
I1
tp7131
a(S'land.based'
p7132
I1
tp7133
a(S'land?'
p7134
I1
tp7135
a(S'landing.secondly'
p7136
I1
tp7137
a(S'landing/docking'
p7138
I1
tp7139
a(S'lastely'
p7140
I1
tp7141
a(S'late;'
p7142
I1
tp7143
a(S'latest'
p7144
I1
tp7145
a(S'launch'
p7146
I1
tp7147
a(S'launching'
p7148
I1
tp7149
a(S'law!'
p7150
I1
tp7151
a(S"law's"
p7152
I1
tp7153
a(S'law-wise'
p7154
I1
tp7155
a(S'law.dirigible'
p7156
I1
tp7157
a(S'law.first'
p7158
I1
tp7159
a(S'law.in'
p7160
I1
tp7161
a(S'law.there'
p7162
I1
tp7163
a(S'law]'
p7164
I1
tp7165
a(S'lawbreaking'
p7166
I1
tp7167
a(S'laws.being'
p7168
I1
tp7169
a(S'laws.most'
p7170
I1
tp7171
a(S'laws.there'
p7172
I1
tp7173
a(S'lay'
p7174
I1
tp7175
a(S'lead;'
p7176
I1
tp7177
a(S'leaders'
p7178
I1
tp7179
a(S'leak'
p7180
I1
tp7181
a(S'leap'
p7182
I1
tp7183
a(S'leap.in'
p7184
I1
tp7185
a(S'learned'
p7186
I1
tp7187
a(S'learning'
p7188
I1
tp7189
a(S'learns'
p7190
I1
tp7191
a(S'legal.the'
p7192
I1
tp7193
a(S'legality'
p7194
I1
tp7195
a(S'legislature'
p7196
I1
tp7197
a(S'lesson'
p7198
I1
tp7199
a(S"life's"
p7200
I1
tp7201
a(S'lifes'
p7202
I1
tp7203
a(S'lift'
p7204
I1
tp7205
a(S'lifted'
p7206
I1
tp7207
a(S'lightning'
p7208
I1
tp7209
a(S'lightweight'
p7210
I1
tp7211
a(S'ligther'
p7212
I1
tp7213
a(S'likely.finaly'
p7214
I1
tp7215
a(S'limbs'
p7216
I1
tp7217
a(S'limited'
p7218
I1
tp7219
a(S'limits'
p7220
I1
tp7221
a(S'limps'
p7222
I1
tp7223
a(S'lines'
p7224
I1
tp7225
a(S'list'
p7226
I1
tp7227
a(S'lit'
p7228
I1
tp7229
a(S'lium'
p7230
I1
tp7231
a(S'load.in'
p7232
I1
tp7233
a(S'loads'
p7234
I1
tp7235
a(S'local'
p7236
I1
tp7237
a(S'location.the'
p7238
I1
tp7239
a(S'location1)'
p7240
I1
tp7241
a(S'location1.@caps1'
p7242
I1
tp7243
a(S'location1there'
p7244
I1
tp7245
a(S'location4'
p7246
I1
tp7247
a(S'loft'
p7248
I1
tp7249
a(S'lofty'
p7250
I1
tp7251
a(S'logistics'
p7252
I1
tp7253
a(S'longer'
p7254
I1
tp7255
a(S'longer.the'
p7256
I1
tp7257
a(S'lookd'
p7258
I1
tp7259
a(S'looks'
p7260
I1
tp7261
a(S'loss'
p7262
I1
tp7263
a(S'losses'
p7264
I1
tp7265
a(S'lost.al'
p7266
I1
tp7267
a(S'low-altitude'
p7268
I1
tp7269
a(S'low-but'
p7270
I1
tp7271
a(S'low.in'
p7272
I1
tp7273
a(S'low.there'
p7274
I1
tp7275
a(S'ludicrous'
p7276
I1
tp7277
a(S'lying'
p7278
I1
tp7279
a(S'l\xc3\xbcsted'
p7280
I1
tp7281
a(S'l\xfcnden'
p7282
I1
tp7283
a(S'l\xfcsted.in'
p7284
I1
tp7285
a(S'machiens'
p7286
I1
tp7287
a(S'machines'
p7288
I1
tp7289
a(S'made.another'
p7290
I1
tp7291
a(S'made.in'
p7292
I1
tp7293
a(S'made/operated'
p7294
I1
tp7295
a(S'magnificent'
p7296
I1
tp7297
a(S'magnified'
p7298
I1
tp7299
a(S'magnitude'
p7300
I1
tp7301
a(S'maimed'
p7302
I1
tp7303
a(S'make-up'
p7304
I1
tp7305
a(S'malfunction'
p7306
I1
tp7307
a(S'malfunctions'
p7308
I1
tp7309
a(S'manage'
p7310
I1
tp7311
a(S'mandatory'
p7312
I1
tp7313
a(S'manifest'
p7314
I1
tp7315
a(S'manoverability'
p7316
I1
tp7317
a(S'manuever'
p7318
I1
tp7319
a(S'manuver'
p7320
I1
tp7321
a(S'manuvering'
p7322
I1
tp7323
a(S'map'
p7324
I1
tp7325
a(S'marvelous'
p7326
I1
tp7327
a(S'mas'
p7328
I1
tp7329
a(S'mase'
p7330
I1
tp7331
a(S'mask.during'
p7332
I1
tp7333
a(S'mass.the'
p7334
I1
tp7335
a(S'mass;'
p7336
I1
tp7337
a(S'masses'
p7338
I1
tp7339
a(S'mast"-this'
p7340
I1
tp7341
a(S'mast-before'
p7342
I1
tp7343
a(S'mast."in'
p7344
I1
tp7345
a(S'mast."turning'
p7346
I1
tp7347
a(S'mast."when'
p7348
I1
tp7349
a(S"mast.'"
p7350
I1
tp7351
a(S'mast.a'
p7352
I1
tp7353
a(S'mast.acording'
p7354
I1
tp7355
a(S'mast.also'
p7356
I1
tp7357
a(S'mast.based'
p7358
I1
tp7359
a(S'mast.builders'
p7360
I1
tp7361
a(S'mast.construction'
p7362
I1
tp7363
a(S'mast.new'
p7364
I1
tp7365
a(S'mast.overall'
p7366
I1
tp7367
a(S'mast.they'
p7368
I1
tp7369
a(S'mast.while'
p7370
I1
tp7371
a(S'mastbuilders'
p7372
I1
tp7373
a(S'master'
p7374
I1
tp7375
a(S'masters'
p7376
I1
tp7377
a(S'mastin'
p7378
I1
tp7379
a(S'masting'
p7380
I1
tp7381
a(S'match'
p7382
I1
tp7383
a(S'mater'
p7384
I1
tp7385
a(S'mayor'
p7386
I1
tp7387
a(S'mechanical'
p7388
I1
tp7389
a(S'meetings'
p7390
I1
tp7391
a(S'menuver'
p7392
I1
tp7393
a(S'mercy'
p7394
I1
tp7395
a(S'mere'
p7396
I1
tp7397
a(S'merely'
p7398
I1
tp7399
a(S'messed'
p7400
I1
tp7401
a(S'method'
p7402
I1
tp7403
a(S'methods'
p7404
I1
tp7405
a(S'mid-air'
p7406
I1
tp7407
a(S'mind.other'
p7408
I1
tp7409
a(S'mind.the'
p7410
I1
tp7411
a(S'mindblowing'
p7412
I1
tp7413
a(S'minds'
p7414
I1
tp7415
a(S'minor'
p7416
I1
tp7417
a(S'minute'
p7418
I1
tp7419
a(S'miraculous'
p7420
I1
tp7421
a(S'misfortune'
p7422
I1
tp7423
a(S'mishap'
p7424
I1
tp7425
a(S'mission'
p7426
I1
tp7427
a(S'mistake'
p7428
I1
tp7429
a(S'mode'
p7430
I1
tp7431
a(S'model'
p7432
I1
tp7433
a(S'moderate'
p7434
I1
tp7435
a(S'modern-day'
p7436
I1
tp7437
a(S'modernation'
p7438
I1
tp7439
a(S'modernize'
p7440
I1
tp7441
a(S'modernizing'
p7442
I1
tp7443
a(S'modernly'
p7444
I1
tp7445
a(S'modes'
p7446
I1
tp7447
a(S'modifey'
p7448
I1
tp7449
a(S'modifi'
p7450
I1
tp7451
a(S'modificautions'
p7452
I1
tp7453
a(S'modifie'
p7454
I1
tp7455
a(S'modifiy'
p7456
I1
tp7457
a(S'money.in'
p7458
I1
tp7459
a(S'money.while'
p7460
I1
tp7461
a(S"money1'"
p7462
I1
tp7463
a(S'money1)'
p7464
I1
tp7465
a(S'month'
p7466
I1
tp7467
a(S'monts'
p7468
I1
tp7469
a(S'monumental'
p7470
I1
tp7471
a(S'mooring.the'
p7472
I1
tp7473
a(S'moorings'
p7474
I1
tp7475
a(S'mordern'
p7476
I1
tp7477
a(S'more;'
p7478
I1
tp7479
a(S'morring'
p7480
I1
tp7481
a(S'motified'
p7482
I1
tp7483
a(S'motion'
p7484
I1
tp7485
a(S'motionless'
p7486
I1
tp7487
a(S'motivation'
p7488
I1
tp7489
a(S'mounting'
p7490
I1
tp7491
a(S'movement'
p7492
I1
tp7493
a(S'movements'
p7494
I1
tp7495
a(S'moves'
p7496
I1
tp7497
a(S'much.during'
p7498
I1
tp7499
a(S'muched'
p7500
I1
tp7501
a(S'myriad'
p7502
I1
tp7503
a(S'nail'
p7504
I1
tp7505
a(S'natur'
p7506
I1
tp7507
a(S'naturally'
p7508
I1
tp7509
a(S'nature";'
p7510
I1
tp7511
a(S'nature.the'
p7512
I1
tp7513
a(S'navigate'
p7514
I1
tp7515
a(S"navy's"
p7516
I1
tp7517
a(S'neccarasary.those'
p7518
I1
tp7519
a(S'needle'
p7520
I1
tp7521
a(S'negatively'
p7522
I1
tp7523
a(S'neglected'
p7524
I1
tp7525
a(S'negligence'
p7526
I1
tp7527
a(S'neighboring'
p7528
I1
tp7529
a(S'nesescary'
p7530
I1
tp7531
a(S'nessisary'
p7532
I1
tp7533
a(S'neutralize'
p7534
I1
tp7535
a(S'neve'
p7536
I1
tp7537
a(S'newer'
p7538
I1
tp7539
a(S'newspaper.the'
p7540
I1
tp7541
a(S'newspapers.in'
p7542
I1
tp7543
a(S'ney'
p7544
I1
tp7545
a(S'night'
p7546
I1
tp7547
a(S'nineteen'
p7548
I1
tp7549
a(S'nitrogen'
p7550
I1
tp7551
a(S'non-@caps1'
p7552
I1
tp7553
a(S'non-existent'
p7554
I1
tp7555
a(S'non-legal'
p7556
I1
tp7557
a(S'non-sense.dirigibles'
p7558
I1
tp7559
a(S'none'
p7560
I1
tp7561
a(S'nonstop'
p7562
I1
tp7563
a(S'note'
p7564
I1
tp7565
a(S'noted'
p7566
I1
tp7567
a(S'notice'
p7568
I1
tp7569
a(S'noticing'
p7570
I1
tp7571
a(S'novel'
p7572
I1
tp7573
a(S'novelty'
p7574
I1
tp7575
a(S'now!without'
p7576
I1
tp7577
a(S"num1'or"
p7578
I1
tp7579
a(S"num1's"
p7580
I1
tp7581
a(S'num1).another'
p7582
I1
tp7583
a(S'num1).the'
p7584
I1
tp7585
a(S'num1)the'
p7586
I1
tp7587
a(S'num1)when'
p7588
I1
tp7589
a(S'num1.)'
p7590
I1
tp7591
a(S"num2's"
p7592
I1
tp7593
a(S'num2)the'
p7594
I1
tp7595
a(S'num2-paragraph'
p7596
I1
tp7597
a(S'num3.)'
p7598
I1
tp7599
a(S'num4).based'
p7600
I1
tp7601
a(S'num4)challenges'
p7602
I1
tp7603
a(S'oat'
p7604
I1
tp7605
a(S'ob'
p7606
I1
tp7607
a(S'obatoce'
p7608
I1
tp7609
a(S'object;'
p7610
I1
tp7611
a(S'objective'
p7612
I1
tp7613
a(S'oblivious'
p7614
I1
tp7615
a(S'obliviousness'
p7616
I1
tp7617
a(S'obsacle'
p7618
I1
tp7619
a(S'obscure'
p7620
I1
tp7621
a(S'observatory'
p7622
I1
tp7623
a(S'observing'
p7624
I1
tp7625
a(S'obsolete'
p7626
I1
tp7627
a(S'obstables'
p7628
I1
tp7629
a(S'obstace'
p7630
I1
tp7631
a(S'obstacels'
p7632
I1
tp7633
a(S'obstacl'
p7634
I1
tp7635
a(S'obstacle.in'
p7636
I1
tp7637
a(S'obstacle.the'
p7638
I1
tp7639
a(S'obstacled'
p7640
I1
tp7641
a(S'obstacles.according'
p7642
I1
tp7643
a(S'obstacles.as'
p7644
I1
tp7645
a(S'obstacles.builders'
p7646
I1
tp7647
a(S'obstacles.having'
p7648
I1
tp7649
a(S'obstacles.one'
p7650
I1
tp7651
a(S'obstacles.some'
p7652
I1
tp7653
a(S'obstacles.there'
p7654
I1
tp7655
a(S'obstacles;'
p7656
I1
tp7657
a(S'obstaclesthat'
p7658
I1
tp7659
a(S'obstacole'
p7660
I1
tp7661
a(S'obstact'
p7662
I1
tp7663
a(S'obstactes'
p7664
I1
tp7665
a(S'obstales'
p7666
I1
tp7667
a(S'obstancle'
p7668
I1
tp7669
a(S'obstecle'
p7670
I1
tp7671
a(S"obstical's"
p7672
I1
tp7673
a(S'obsticalesthe'
p7674
I1
tp7675
a(S'obsticlas'
p7676
I1
tp7677
a(S"obsticle's"
p7678
I1
tp7679
a(S'obstruct'
p7680
I1
tp7681
a(S'obstructed'
p7682
I1
tp7683
a(S'obtacle'
p7684
I1
tp7685
a(S'obtained'
p7686
I1
tp7687
a(S'obtecles'
p7688
I1
tp7689
a(S'obveouse'
p7690
I1
tp7691
a(S'occasions'
p7692
I1
tp7693
a(S'occuring'
p7694
I1
tp7695
a(S'ocuring'
p7696
I1
tp7697
a(S'oddly'
p7698
I1
tp7699
a(S'odds'
p7700
I1
tp7701
a(S'off!as'
p7702
I1
tp7703
a(S'off.nature'
p7704
I1
tp7705
a(S'off.when'
p7706
I1
tp7707
a(S'off/pick'
p7708
I1
tp7709
a(S'off;'
p7710
I1
tp7711
a(S'office)'
p7712
I1
tp7713
a(S'old'
p7714
I1
tp7715
a(S'one.in'
p7716
I1
tp7717
a(S'one.the'
p7718
I1
tp7719
a(S'onley'
p7720
I1
tp7721
a(S'opening'
p7722
I1
tp7723
a(S'operating'
p7724
I1
tp7725
a(S"operation's"
p7726
I1
tp7727
a(S'operation.the'
p7728
I1
tp7729
a(S'opinion'
p7730
I1
tp7731
a(S'oppinions'
p7732
I1
tp7733
a(S'opstacles'
p7734
I1
tp7735
a(S'optimistic'
p7736
I1
tp7737
a(S'options'
p7738
I1
tp7739
a(S'orbit'
p7740
I1
tp7741
a(S'ordinarily'
p7742
I1
tp7743
a(S'ordinary'
p7744
I1
tp7745
a(S'organization1.based'
p7746
I1
tp7747
a(S'organization1.in'
p7748
I1
tp7749
a(S'organization1.there'
p7750
I1
tp7751
a(S'organization5.during'
p7752
I1
tp7753
a(S'originaly'
p7754
I1
tp7755
a(S'ornate'
p7756
I1
tp7757
a(S'oservation'
p7758
I1
tp7759
a(S'ostentatious'
p7760
I1
tp7761
a(S'out.besides'
p7762
I1
tp7763
a(S'out.in'
p7764
I1
tp7765
a(S'out.obstacles'
p7766
I1
tp7767
a(S'out.some'
p7768
I1
tp7769
a(S'outcomes'
p7770
I1
tp7771
a(S'outdated.the'
p7772
I1
tp7773
a(S'outlined'
p7774
I1
tp7775
a(S'outsides'
p7776
I1
tp7777
a(S'outstandingly'
p7778
I1
tp7779
a(S'outweighed'
p7780
I1
tp7781
a(S'over-come'
p7782
I1
tp7783
a(S'overambitious'
p7784
I1
tp7785
a(S'overapopulated'
p7786
I1
tp7787
a(S'overcome.on'
p7788
I1
tp7789
a(S'overcoming'
p7790
I1
tp7791
a(S'overly'
p7792
I1
tp7793
a(S'overpower'
p7794
I1
tp7795
a(S'overseas'
p7796
I1
tp7797
a(S'overwhelming'
p7798
I1
tp7799
a(S'owner'
p7800
I1
tp7801
a(S"owner's"
p7802
I1
tp7803
a(S"owners'"
p7804
I1
tp7805
a(S'packed'
p7806
I1
tp7807
a(S'padestrans'
p7808
I1
tp7809
a(S'paid'
p7810
I1
tp7811
a(S'pain'
p7812
I1
tp7813
a(S'painstaking'
p7814
I1
tp7815
a(S'pappellers'
p7816
I1
tp7817
a(S'para'
p7818
I1
tp7819
a(S'paragraphs'
p7820
I1
tp7821
a(S'parially'
p7822
I1
tp7823
a(S'parking'
p7824
I1
tp7825
a(S'part.the'
p7826
I1
tp7827
a(S'part;'
p7828
I1
tp7829
a(S'particle'
p7830
I1
tp7831
a(S'pasengers'
p7832
I1
tp7833
a(S"passengers'"
p7834
I1
tp7835
a(S'passengers.in'
p7836
I1
tp7837
a(S'passengers.the'
p7838
I1
tp7839
a(S'passing'
p7840
I1
tp7841
a(S'path'
p7842
I1
tp7843
a(S'paved'
p7844
I1
tp7845
a(S'pedastrians'
p7846
I1
tp7847
a(S"pedestrians'"
p7848
I1
tp7849
a(S'pedestrians)'
p7850
I1
tp7851
a(S'pedestrians.another'
p7852
I1
tp7853
a(S'pedestrians.the'
p7854
I1
tp7855
a(S'pedistrians'
p7856
I1
tp7857
a(S'pedstrians'
p7858
I1
tp7859
a(S"people's"
p7860
I1
tp7861
a(S'people.despite'
p7862
I1
tp7863
a(S'people.in'
p7864
I1
tp7865
a(S'perels'
p7866
I1
tp7867
a(S'performed'
p7868
I1
tp7869
a(S'perilous'
p7870
I1
tp7871
a(S'periods'
p7872
I1
tp7873
a(S'permit'
p7874
I1
tp7875
a(S'permitting'
p7876
I1
tp7877
a(S'persasures'
p7878
I1
tp7879
a(S'pg'
p7880
I1
tp7881
a(S'phenomenal'
p7882
I1
tp7883
a(S'physical.one'
p7884
I1
tp7885
a(S'physically'
p7886
I1
tp7887
a(S'picks'
p7888
I1
tp7889
a(S'pidestrians'
p7890
I1
tp7891
a(S'piolet'
p7892
I1
tp7893
a(S'pit'
p7894
I1
tp7895
a(S'place!'
p7896
I1
tp7897
a(S'place.obstacles'
p7898
I1
tp7899
a(S'placement'
p7900
I1
tp7901
a(S'plain'
p7902
I1
tp7903
a(S'plains'
p7904
I1
tp7905
a(S'plains.the'
p7906
I1
tp7907
a(S"plan's"
p7908
I1
tp7909
a(S'plan.some'
p7910
I1
tp7911
a(S'planed'
p7912
I1
tp7913
a(S'planfronts'
p7914
I1
tp7915
a(S'planing'
p7916
I1
tp7917
a(S'planing.the'
p7918
I1
tp7919
a(S'plannedbased'
p7920
I1
tp7921
a(S'plataform'
p7922
I1
tp7923
a(S'platform-like'
p7924
I1
tp7925
a(S'plausible'
p7926
I1
tp7927
a(S'play.there'
p7928
I1
tp7929
a(S'pleasing'
p7930
I1
tp7931
a(S'plop'
p7932
I1
tp7933
a(S'plument'
p7934
I1
tp7935
a(S'plummet'
p7936
I1
tp7937
a(S'podestriens'
p7938
I1
tp7939
a(S'pointed'
p7940
I1
tp7941
a(S'pointless'
p7942
I1
tp7943
a(S'pole'
p7944
I1
tp7945
a(S'policies'
p7946
I1
tp7947
a(S'politics'
p7948
I1
tp7949
a(S'pone'
p7950
I1
tp7951
a(S'poned'
p7952
I1
tp7953
a(S'poorly'
p7954
I1
tp7955
a(S'poot'
p7956
I1
tp7957
a(S'pop.the'
p7958
I1
tp7959
a(S'poping'
p7960
I1
tp7961
a(S'popping'
p7962
I1
tp7963
a(S'pops'
p7964
I1
tp7965
a(S'popuated'
p7966
I1
tp7967
a(S'populaded'
p7968
I1
tp7969
a(S'popular.the'
p7970
I1
tp7971
a(S'portly'
p7972
I1
tp7973
a(S'poses'
p7974
I1
tp7975
a(S'posidletys'
p7976
I1
tp7977
a(S'posing'
p7978
I1
tp7979
a(S'positioning'
p7980
I1
tp7981
a(S'possible.during'
p7982
I1
tp7983
a(S'possible.there'
p7984
I1
tp7985
a(S'possible.to'
p7986
I1
tp7987
a(S'post-poned'
p7988
I1
tp7989
a(S'postponements'
p7990
I1
tp7991
a(S'potential.in'
p7992
I1
tp7993
a(S'potentialy'
p7994
I1
tp7995
a(S'pounds'
p7996
I1
tp7997
a(S'pouring'
p7998
I1
tp7999
a(S'practical"the'
p8000
I1
tp8001
a(S'practical.in'
p8002
I1
tp8003
a(S'practical.the'
p8004
I1
tp8005
a(S'practical?'
p8006
I1
tp8007
a(S'practicalities'
p8008
I1
tp8009
a(S'practically'
p8010
I1
tp8011
a(S'pratact'
p8012
I1
tp8013
a(S'pre-'
p8014
I1
tp8015
a(S'precious'
p8016
I1
tp8017
a(S'predestrains'
p8018
I1
tp8019
a(S'predict'
p8020
I1
tp8021
a(S'predictable'
p8022
I1
tp8023
a(S'predicte'
p8024
I1
tp8025
a(S'predicted'
p8026
I1
tp8027
a(S'predictions'
p8028
I1
tp8029
a(S'preety'
p8030
I1
tp8031
a(S'preparing'
p8032
I1
tp8033
a(S'presents'
p8034
I1
tp8035
a(S'preservation'
p8036
I1
tp8037
a(S'preshure'
p8038
I1
tp8039
a(S'presisely'
p8040
I1
tp8041
a(S'presure'
p8042
I1
tp8043
a(S'prevailing.in'
p8044
I1
tp8045
a(S'prevented.the'
p8046
I1
tp8047
a(S'preventer'
p8048
I1
tp8049
a(S'preventions'
p8050
I1
tp8051
a(S'prexisting'
p8052
I1
tp8053
a(S'primarilly'
p8054
I1
tp8055
a(S'prints'
p8056
I1
tp8057
a(S'proably'
p8058
I1
tp8059
a(S'probable'
p8060
I1
tp8061
a(S'probaly'
p8062
I1
tp8063
a(S"problem's"
p8064
I1
tp8065
a(S'problem.another'
p8066
I1
tp8067
a(S'problem.the'
p8068
I1
tp8069
a(S'problematic'
p8070
I1
tp8071
a(S'problems."the'
p8072
I1
tp8073
a(S'problems.in'
p8074
I1
tp8075
a(S"problems.what's"
p8076
I1
tp8077
a(S'probles'
p8078
I1
tp8079
a(S'procautions'
p8080
I1
tp8081
a(S'procedure'
p8082
I1
tp8083
a(S'proceed'
p8084
I1
tp8085
a(S'proceeding'
p8086
I1
tp8087
a(S'process.the'
p8088
I1
tp8089
a(S'prodiction'
p8090
I1
tp8091
a(S'prodley'
p8092
I1
tp8093
a(S'product'
p8094
I1
tp8095
a(S'professionals'
p8096
I1
tp8097
a(S'profitable.the'
p8098
I1
tp8099
a(S'proform'
p8100
I1
tp8101
a(S'progression'
p8102
I1
tp8103
a(S'prohibites'
p8104
I1
tp8105
a(S'project.to'
p8106
I1
tp8107
a(S'projectoverall'
p8108
I1
tp8109
a(S'promblem'
p8110
I1
tp8111
a(S'promising'
p8112
I1
tp8113
a(S'prooved'
p8114
I1
tp8115
a(S'propelled'
p8116
I1
tp8117
a(S'propeller'
p8118
I1
tp8119
a(S'pros.builders'
p8120
I1
tp8121
a(S'prototype'
p8122
I1
tp8123
a(S'proximity'
p8124
I1
tp8125
a(S'public.based'
p8126
I1
tp8127
a(S'public.the'
p8128
I1
tp8129
a(S'publicly'
p8130
I1
tp8131
a(S'purpast'
p8132
I1
tp8133
a(S'purpose".during'
p8134
I1
tp8135
a(S'purpose."in'
p8136
I1
tp8137
a(S'purpose."the'
p8138
I1
tp8139
a(S'purpose."when'
p8140
I1
tp8141
a(S'purpose..."the'
p8142
I1
tp8143
a(S'purpose.1.)'
p8144
I1
tp8145
a(S'purpose.architects'
p8146
I1
tp8147
a(S'purpose.many'
p8148
I1
tp8149
a(S'purposed'
p8150
I1
tp8151
a(S'purposeon'
p8152
I1
tp8153
a(S"purposes.@organization2's"
p8154
I1
tp8155
a(S'pursuable.there'
p8156
I1
tp8157
a(S'puzzle'
p8158
I1
tp8159
a(S'pyramid'
p8160
I1
tp8161
a(S'quality'
p8162
I1
tp8163
a(S'quest'
p8164
I1
tp8165
a(S'questionbuilders'
p8166
I1
tp8167
a(S'questioning'
p8168
I1
tp8169
a(S'quiet'
p8170
I1
tp8171
a(S'raced'
p8172
I1
tp8173
a(S'rag'
p8174
I1
tp8175
a(S'rage'
p8176
I1
tp8177
a(S'raging'
p8178
I1
tp8179
a(S'rained'
p8180
I1
tp8181
a(S'rains'
p8182
I1
tp8183
a(S'raises'
p8184
I1
tp8185
a(S'ranging'
p8186
I1
tp8187
a(S'rapid'
p8188
I1
tp8189
a(S'rapped'
p8190
I1
tp8191
a(S'rarely'
p8192
I1
tp8193
a(S'rase'
p8194
I1
tp8195
a(S'rason'
p8196
I1
tp8197
a(S'rates'
p8198
I1
tp8199
a(S're'
p8200
I1
tp8201
a(S're-done'
p8202
I1
tp8203
a(S're-support'
p8204
I1
tp8205
a(S're-think'
p8206
I1
tp8207
a(S'readiness'
p8208
I1
tp8209
a(S'reading)'
p8210
I1
tp8211
a(S'realised'
p8212
I1
tp8213
a(S'reality.while'
p8214
I1
tp8215
a(S'realize.in'
p8216
I1
tp8217
a(S'realzed'
p8218
I1
tp8219
a(S'reasing'
p8220
I1
tp8221
a(S'reason.allowing'
p8222
I1
tp8223
a(S'reason/problem'
p8224
I1
tp8225
a(S'rebuild'
p8226
I1
tp8227
a(S'receive'
p8228
I1
tp8229
a(S'recieve'
p8230
I1
tp8231
a(S'recognize'
p8232
I1
tp8233
a(S'reconize'
p8234
I1
tp8235
a(S'reconsider'
p8236
I1
tp8237
a(S'reconstruct'
p8238
I1
tp8239
a(S'reconstructed'
p8240
I1
tp8241
a(S'reconstructing'
p8242
I1
tp8243
a(S'reconstructions'
p8244
I1
tp8245
a(S'record'
p8246
I1
tp8247
a(S'rediculous'
p8248
I1
tp8249
a(S'reduce'
p8250
I1
tp8251
a(S'reduction'
p8252
I1
tp8253
a(S'refer'
p8254
I1
tp8255
a(S'reference'
p8256
I1
tp8257
a(S'refill'
p8258
I1
tp8259
a(S'reflect'
p8260
I1
tp8261
a(S'refraimed'
p8262
I1
tp8263
a(S'refuel.the'
p8264
I1
tp8265
a(S'refuled'
p8266
I1
tp8267
a(S'refull'
p8268
I1
tp8269
a(S'refurbish'
p8270
I1
tp8271
a(S'regarded'
p8272
I1
tp8273
a(S'regardless'
p8274
I1
tp8275
a(S'region'
p8276
I1
tp8277
a(S'regular'
p8278
I1
tp8279
a(S'regulations'
p8280
I1
tp8281
a(S'rejected'
p8282
I1
tp8283
a(S'relate'
p8284
I1
tp8285
a(S'relatively'
p8286
I1
tp8287
a(S'releasing'
p8288
I1
tp8289
a(S'relevantly'
p8290
I1
tp8291
a(S'reliable'
p8292
I1
tp8293
a(S'reliezed'
p8294
I1
tp8295
a(S'relive'
p8296
I1
tp8297
a(S'relizing'
p8298
I1
tp8299
a(S'relly'
p8300
I1
tp8301
a(S'reload'
p8302
I1
tp8303
a(S'reluctant'
p8304
I1
tp8305
a(S'remained'
p8306
I1
tp8307
a(S'remodeled'
p8308
I1
tp8309
a(S'remodeling'
p8310
I1
tp8311
a(S'remodifing'
p8312
I1
tp8313
a(S'render'
p8314
I1
tp8315
a(S'renevisions'
p8316
I1
tp8317
a(S'renforced'
p8318
I1
tp8319
a(S'renovation'
p8320
I1
tp8321
a(S'repair'
p8322
I1
tp8323
a(S'repairs'
p8324
I1
tp8325
a(S'repeat'
p8326
I1
tp8327
a(S'replaced'
p8328
I1
tp8329
a(S'reprocusions'
p8330
I1
tp8331
a(S'requirements'
p8332
I1
tp8333
a(S'resided'
p8334
I1
tp8335
a(S'residents'
p8336
I1
tp8337
a(S'resolt'
p8338
I1
tp8339
a(S'reson'
p8340
I1
tp8341
a(S'resources'
p8342
I1
tp8343
a(S'responded'
p8344
I1
tp8345
a(S'responsibility'
p8346
I1
tp8347
a(S'resting'
p8348
I1
tp8349
a(S'restrict'
p8350
I1
tp8351
a(S'restructuring'
p8352
I1
tp8353
a(S'results.the'
p8354
I1
tp8355
a(S'rethink'
p8356
I1
tp8357
a(S'retired'
p8358
I1
tp8359
a(S'revealing'
p8360
I1
tp8361
a(S'reveals'
p8362
I1
tp8363
a(S'revelation'
p8364
I1
tp8365
a(S'reviewed'
p8366
I1
tp8367
a(S'revision'
p8368
I1
tp8369
a(S'righ'
p8370
I1
tp8371
a(S'rightfully'
p8372
I1
tp8373
a(S'rip'
p8374
I1
tp8375
a(S'ripped'
p8376
I1
tp8377
a(S'ripping'
p8378
I1
tp8379
a(S'rising'
p8380
I1
tp8381
a(S"risk's"
p8382
I1
tp8383
a(S'risk.a'
p8384
I1
tp8385
a(S'risk.along'
p8386
I1
tp8387
a(S'risk.the'
p8388
I1
tp8389
a(S'risked'
p8390
I1
tp8391
a(S'risks.in'
p8392
I1
tp8393
a(S'road'
p8394
I1
tp8395
a(S'roadblocks'
p8396
I1
tp8397
a(S'roaming'
p8398
I1
tp8399
a(S'roaring'
p8400
I1
tp8401
a(S'rock'
p8402
I1
tp8403
a(S'rodders'
p8404
I1
tp8405
a(S'rode'
p8406
I1
tp8407
a(S'roof.based'
p8408
I1
tp8409
a(S'roof.the'
p8410
I1
tp8411
a(S'rotating'
p8412
I1
tp8413
a(S'rubbers'
p8414
I1
tp8415
a(S'ruffer'
p8416
I1
tp8417
a(S'ruin'
p8418
I1
tp8419
a(S'ruined.the'
p8420
I1
tp8421
a(S'running'
p8422
I1
tp8423
a(S'runs'
p8424
I1
tp8425
a(S'rush'
p8426
I1
tp8427
a(S'rushing'
p8428
I1
tp8429
a(S's.b'
p8430
I1
tp8431
a(S'sad'
p8432
I1
tp8433
a(S'sadly'
p8434
I1
tp8435
a(S'safe".throughout'
p8436
I1
tp8437
a(S'safe."@organization3'
p8438
I1
tp8439
a(S'safe."intended'
p8440
I1
tp8441
a(S'safe.a'
p8442
I1
tp8443
a(S'safe.architects'
p8444
I1
tp8445
a(S'safe.based'
p8446
I1
tp8447
a(S'safe.builders'
p8448
I1
tp8449
a(S'safe.engineering'
p8450
I1
tp8451
a(S'safe.obstacles'
p8452
I1
tp8453
a(S'safe;'
p8454
I1
tp8455
a(S'safethere'
p8456
I1
tp8457
a(S'safetly'
p8458
I1
tp8459
a(S'safetly.another'
p8460
I1
tp8461
a(S'safety.in'
p8462
I1
tp8463
a(S'safety.though'
p8464
I1
tp8465
a(S'safeways'
p8466
I1
tp8467
a(S'safly'
p8468
I1
tp8469
a(S'saftay'
p8470
I1
tp8471
a(S'saking'
p8472
I1
tp8473
a(S'salf'
p8474
I1
tp8475
a(S'sandbags'
p8476
I1
tp8477
a(S'sapoosed'
p8478
I1
tp8479
a(S'sat'
p8480
I1
tp8481
a(S'save'
p8482
I1
tp8483
a(S'sayed'
p8484
I1
tp8485
a(S"scedual's"
p8486
I1
tp8487
a(S'sci-fi'
p8488
I1
tp8489
a(S'science'
p8490
I1
tp8491
a(S'scientifically'
p8492
I1
tp8493
a(S'scrap'
p8494
I1
tp8495
a(S'scrapped.based'
p8496
I1
tp8497
a(S'screw'
p8498
I1
tp8499
a(S'sea'
p8500
I1
tp8501
a(S'secret'
p8502
I1
tp8503
a(S'secton'
p8504
I1
tp8505
a(S'securit'
p8506
I1
tp8507
a(S'securly'
p8508
I1
tp8509
a(S'seers.while'
p8510
I1
tp8511
a(S'sefty'
p8512
I1
tp8513
a(S'selection'
p8514
I1
tp8515
a(S'self.in'
p8516
I1
tp8517
a(S'self.safty'
p8518
I1
tp8519
a(S'selfs.the'
p8520
I1
tp8521
a(S'selrve'
p8522
I1
tp8523
a(S'sence'
p8524
I1
tp8525
a(S'sensible'
p8526
I1
tp8527
a(S'serverely'
p8528
I1
tp8529
a(S'serves'
p8530
I1
tp8531
a(S'serviced'
p8532
I1
tp8533
a(S'services'
p8534
I1
tp8535
a(S'serving'
p8536
I1
tp8537
a(S'set-backs'
p8538
I1
tp8539
a(S'setback'
p8540
I1
tp8541
a(S'seventeen'
p8542
I1
tp8543
a(S'shake'
p8544
I1
tp8545
a(S'shall'
p8546
I1
tp8547
a(S'shapes'
p8548
I1
tp8549
a(S'shapp'
p8550
I1
tp8551
a(S'shapped'
p8552
I1
tp8553
a(S'sharpe'
p8554
I1
tp8555
a(S'shelf'
p8556
I1
tp8557
a(S'shell.based'
p8558
I1
tp8559
a(S'shells'
p8560
I1
tp8561
a(S'shelved.in'
p8562
I1
tp8563
a(S'shiffting'
p8564
I1
tp8565
a(S'shifting.many'
p8566
I1
tp8567
a(S'shiftyness'
p8568
I1
tp8569
a(S'shinny'
p8570
I1
tp8571
a(S"ship's"
p8572
I1
tp8573
a(S'ship.another'
p8574
I1
tp8575
a(S'ship.in'
p8576
I1
tp8577
a(S'ships.in'
p8578
I1
tp8579
a(S'shock'
p8580
I1
tp8581
a(S'shortly'
p8582
I1
tp8583
a(S'shortsightedness'
p8584
I1
tp8585
a(S'shot'
p8586
I1
tp8587
a(S"shouldn't"
p8588
I1
tp8589
a(S'shove'
p8590
I1
tp8591
a(S'showy'
p8592
I1
tp8593
a(S'shp'
p8594
I1
tp8595
a(S'sidewalk'
p8596
I1
tp8597
a(S'sightseers'
p8598
I1
tp8599
a(S'significance'
p8600
I1
tp8601
a(S'signs'
p8602
I1
tp8603
a(S'simulated'
p8604
I1
tp8605
a(S'since.the'
p8606
I1
tp8607
a(S'sincemooring'
p8608
I1
tp8609
a(S'site'
p8610
I1
tp8611
a(S'siteation'
p8612
I1
tp8613
a(S'sits'
p8614
I1
tp8615
a(S'sittoation'
p8616
I1
tp8617
a(S'situation.safety'
p8618
I1
tp8619
a(S'situation.the'
p8620
I1
tp8621
a(S'sixteen'
p8622
I1
tp8623
a(S'sixty-thousand'
p8624
I1
tp8625
a(S'skepticle'
p8626
I1
tp8627
a(S'skilled'
p8628
I1
tp8629
a(S'skillful'
p8630
I1
tp8631
a(S'skinny'
p8632
I1
tp8633
a(S'sky-skraper'
p8634
I1
tp8635
a(S'skyscrapers'
p8636
I1
tp8637
a(S'skyscrapper'
p8638
I1
tp8639
a(S'slap'
p8640
I1
tp8641
a(S"sleep's"
p8642
I1
tp8643
a(S'sleeve'
p8644
I1
tp8645
a(S'slim'
p8646
I1
tp8647
a(S'slogan'
p8648
I1
tp8649
a(S'slowly'
p8650
I1
tp8651
a(S'smart.based'
p8652
I1
tp8653
a(S'smith)'
p8654
I1
tp8655
a(S'snag'
p8656
I1
tp8657
a(S'snap'
p8658
I1
tp8659
a(S'sneaky'
p8660
I1
tp8661
a(S'soft'
p8662
I1
tp8663
a(S'solely'
p8664
I1
tp8665
a(S'solidified'
p8666
I1
tp8667
a(S'solutions'
p8668
I1
tp8669
a(S'solutions.the'
p8670
I1
tp8671
a(S'solved.the'
p8672
I1
tp8673
a(S'solving'
p8674
I1
tp8675
a(S'somewere'
p8676
I1
tp8677
a(S'somewhat'
p8678
I1
tp8679
a(S'somewhere'
p8680
I1
tp8681
a(S'sorts'
p8682
I1
tp8683
a(S'sought'
p8684
I1
tp8685
a(S'sounds'
p8686
I1
tp8687
a(S'source'
p8688
I1
tp8689
a(S'spanding'
p8690
I1
tp8691
a(S'sparer'
p8692
I1
tp8693
a(S'speaking'
p8694
I1
tp8695
a(S'speaks'
p8696
I1
tp8697
a(S'spear'
p8698
I1
tp8699
a(S'spearheaded'
p8700
I1
tp8701
a(S'specific'
p8702
I1
tp8703
a(S'specifically'
p8704
I1
tp8705
a(S'speed.even'
p8706
I1
tp8707
a(S'spike'
p8708
I1
tp8709
a(S'spikes'
p8710
I1
tp8711
a(S'spikey'
p8712
I1
tp8713
a(S'spinnig'
p8714
I1
tp8715
a(S'spiral'
p8716
I1
tp8717
a(S'spirling'
p8718
I1
tp8719
a(S'spread'
p8720
I1
tp8721
a(S'sprung'
p8722
I1
tp8723
a(S'spun'
p8724
I1
tp8725
a(S'sso'
p8726
I1
tp8727
a(S'stability.the'
p8728
I1
tp8729
a(S'stabilized'
p8730
I1
tp8731
a(S'stablish'
p8732
I1
tp8733
a(S'stacles'
p8734
I1
tp8735
a(S'stage'
p8736
I1
tp8737
a(S'stan'
p8738
I1
tp8739
a(S'standing'
p8740
I1
tp8741
a(S'stands'
p8742
I1
tp8743
a(S'stark'
p8744
I1
tp8745
a(S'start;'
p8746
I1
tp8747
a(S'state."in'
p8748
I1
tp8749
a(S'state.the'
p8750
I1
tp8751
a(S'stateing'
p8752
I1
tp8753
a(S'statement'
p8754
I1
tp8755
a(S'station.a'
p8756
I1
tp8757
a(S'station.some'
p8758
I1
tp8759
a(S'stations'
p8760
I1
tp8761
a(S'stayed'
p8762
I1
tp8763
a(S'steeped-back'
p8764
I1
tp8765
a(S'stemmed'
p8766
I1
tp8767
a(S'steps'
p8768
I1
tp8769
a(S'stimulating'
p8770
I1
tp8771
a(S'stopped.there'
p8772
I1
tp8773
a(S'straightforward'
p8774
I1
tp8775
a(S'straw'
p8776
I1
tp8777
a(S'streems'
p8778
I1
tp8779
a(S'street.in'
p8780
I1
tp8781
a(S'street.the'
p8782
I1
tp8783
a(S'street?'
p8784
I1
tp8785
a(S'streets.another'
p8786
I1
tp8787
a(S'streets.in'
p8788
I1
tp8789
a(S'streets.there'
p8790
I1
tp8791
a(S'streghten'
p8792
I1
tp8793
a(S'stregthing'
p8794
I1
tp8795
a(S'strenghen'
p8796
I1
tp8797
a(S'strengten'
p8798
I1
tp8799
a(S'strengthed'
p8800
I1
tp8801
a(S'strengthend'
p8802
I1
tp8803
a(S'strengthened.the'
p8804
I1
tp8805
a(S'stres'
p8806
I1
tp8807
a(S'stress.the'
p8808
I1
tp8809
a(S'stress;'
p8810
I1
tp8811
a(S'stressing'
p8812
I1
tp8813
a(S'strict'
p8814
I1
tp8815
a(S'strived'
p8816
I1
tp8817
a(S'strong.the'
p8818
I1
tp8819
a(S'strongerthere'
p8820
I1
tp8821
a(S'structeral'
p8822
I1
tp8823
a(S"structure's"
p8824
I1
tp8825
a(S'structurely'
p8826
I1
tp8827
a(S'structures'
p8828
I1
tp8829
a(S'structuring'
p8830
I1
tp8831
a(S'strung'
p8832
I1
tp8833
a(S'strutural'
p8834
I1
tp8835
a(S'study'
p8836
I1
tp8837
a(S'studying'
p8838
I1
tp8839
a(S'stumbled'
p8840
I1
tp8841
a(S'stumping'
p8842
I1
tp8843
a(S'sturcture'
p8844
I1
tp8845
a(S'subject'
p8846
I1
tp8847
a(S'substances'
p8848
I1
tp8849
a(S'substantial'
p8850
I1
tp8851
a(S'suburb'
p8852
I1
tp8853
a(S'succeed.there'
p8854
I1
tp8855
a(S'succesfully'
p8856
I1
tp8857
a(S'success.one'
p8858
I1
tp8859
a(S'success.the'
p8860
I1
tp8861
a(S'successed'
p8862
I1
tp8863
a(S'successful.architects'
p8864
I1
tp8865
a(S'successful.there'
p8866
I1
tp8867
a(S'successful.when'
p8868
I1
tp8869
a(S'succession'
p8870
I1
tp8871
a(S'sucess'
p8872
I1
tp8873
a(S'sucessful'
p8874
I1
tp8875
a(S'sucsesful'
p8876
I1
tp8877
a(S'sucsessful'
p8878
I1
tp8879
a(S'suddenly'
p8880
I1
tp8881
a(S'sudently'
p8882
I1
tp8883
a(S'suffer'
p8884
I1
tp8885
a(S'suffered'
p8886
I1
tp8887
a(S'suggested'
p8888
I1
tp8889
a(S'suggests'
p8890
I1
tp8891
a(S'suited'
p8892
I1
tp8893
a(S'summation'
p8894
I1
tp8895
a(S'summed'
p8896
I1
tp8897
a(S'summit'
p8898
I1
tp8899
a(S'supervision'
p8900
I1
tp8901
a(S'supplies'
p8902
I1
tp8903
a(S'surging'
p8904
I1
tp8905
a(S'surmounted'
p8906
I1
tp8907
a(S'surmounting'
p8908
I1
tp8909
a(S'surpass'
p8910
I1
tp8911
a(S'surpass.the'
p8912
I1
tp8913
a(S'surpassed'
p8914
I1
tp8915
a(S'surrounded'
p8916
I1
tp8917
a(S'suspended'
p8918
I1
tp8919
a(S'suspending'
p8920
I1
tp8921
a(S'sways'
p8922
I1
tp8923
a(S'swerve'
p8924
I1
tp8925
a(S'swings'
p8926
I1
tp8927
a(S'swireled'
p8928
I1
tp8929
a(S'swirl'
p8930
I1
tp8931
a(S'switching'
p8932
I1
tp8933
a(S'swivll'
p8934
I1
tp8935
a(S'symbols'
p8936
I1
tp8937
a(S'take-offsanother'
p8938
I1
tp8939
a(S'take.the'
p8940
I1
tp8941
a(S'take.there'
p8942
I1
tp8943
a(S'takeoff'
p8944
I1
tp8945
a(S'taler'
p8946
I1
tp8947
a(S'talking'
p8948
I1
tp8949
a(S'tallest.when'
p8950
I1
tp8951
a(S'tangled'
p8952
I1
tp8953
a(S'tangling'
p8954
I1
tp8955
a(S'tank'
p8956
I1
tp8957
a(S'task;'
p8958
I1
tp8959
a(S'tasks'
p8960
I1
tp8961
a(S'tauranac.with'
p8962
I1
tp8963
a(S'technicall'
p8964
I1
tp8965
a(S'technique'
p8966
I1
tp8967
a(S'techniques'
p8968
I1
tp8969
a(S'technological'
p8970
I1
tp8971
a(S'technologically'
p8972
I1
tp8973
a(S'technologies'
p8974
I1
tp8975
a(S'tell'
p8976
I1
tp8977
a(S'tempted'
p8978
I1
tp8979
a(S'tempting'
p8980
I1
tp8981
a(S'ten'
p8982
I1
tp8983
a(S'tendencies'
p8984
I1
tp8985
a(S'tests'
p8986
I1
tp8987
a(S'tethed'
p8988
I1
tp8989
a(S'th'
p8990
I1
tp8991
a(S'tha'
p8992
I1
tp8993
a(S"tha't"
p8994
I1
tp8995
a(S'thankfully'
p8996
I1
tp8997
a(S'that.by'
p8998
I1
tp8999
a(S'thatthere'
p9000
I1
tp9001
a(S'thay'
p9002
I1
tp9003
a(S'their.builders'
p9004
I1
tp9005
a(S'their.while'
p9006
I1
tp9007
a(S'theire'
p9008
I1
tp9009
a(S'theirin'
p9010
I1
tp9011
a(S'them.secondly'
p9012
I1
tp9013
a(S'then-'
p9014
I1
tp9015
a(S'there"in'
p9016
I1
tp9017
a(S"there's"
p9018
I1
tp9019
a(S'there.builders'
p9020
I1
tp9021
a(S'there.during'
p9022
I1
tp9023
a(S'there.for'
p9024
I1
tp9025
a(S'there.obstacles'
p9026
I1
tp9027
a(S'there.some'
p9028
I1
tp9029
a(S'there.their'
p9030
I1
tp9031
a(S'there.they'
p9032
I1
tp9033
a(S'there.when'
p9034
I1
tp9035
a(S'there?'
p9036
I1
tp9037
a(S'thered'
p9038
I1
tp9039
a(S'therefor'
p9040
I1
tp9041
a(S'therein'
p9042
I1
tp9043
a(S'theres'
p9044
I1
tp9045
a(S'thier'
p9046
I1
tp9047
a(S'things.the'
p9048
I1
tp9049
a(S'thirteen.first'
p9050
I1
tp9051
a(S'thirty'
p9052
I1
tp9053
a(S'this.in'
p9054
I1
tp9055
a(S'thoogh'
p9056
I1
tp9057
a(S'thos'
p9058
I1
tp9059
a(S'thosand-foot'
p9060
I1
tp9061
a(S'thouand-foot'
p9062
I1
tp9063
a(S'thoughout'
p9064
I1
tp9065
a(S'thought.the'
p9066
I1
tp9067
a(S'thought.there'
p9068
I1
tp9069
a(S'thoughtful'
p9070
I1
tp9071
a(S'thrashing'
p9072
I1
tp9073
a(S'threed'
p9074
I1
tp9075
a(S'threw'
p9076
I1
tp9077
a(S'through.builders'
p9078
I1
tp9079
a(S'through;'
p9080
I1
tp9081
a(S'thrown'
p9082
I1
tp9083
a(S'thyre'
p9084
I1
tp9085
a(S'ticketing'
p9086
I1
tp9087
a(S'tickets'
p9088
I1
tp9089
a(S'time-consuming'
p9090
I1
tp9091
a(S'time.the'
p9092
I1
tp9093
a(S'timethe'
p9094
I1
tp9095
a(S'timing'
p9096
I1
tp9097
a(S'tirering'
p9098
I1
tp9099
a(S'tiring'
p9100
I1
tp9101
a(S'tittel'
p9102
I1
tp9103
a(S'today.al'
p9104
I1
tp9105
a(S'together.in'
p9106
I1
tp9107
a(S'told'
p9108
I1
tp9109
a(S'tolls'
p9110
I1
tp9111
a(S'ton'
p9112
I1
tp9113
a(S'topal'
p9114
I1
tp9115
a(S'topic'
p9116
I1
tp9117
a(S'tossing'
p9118
I1
tp9119
a(S'tottally'
p9120
I1
tp9121
a(S'touch'
p9122
I1
tp9123
a(S'touches'
p9124
I1
tp9125
a(S'tour'
p9126
I1
tp9127
a(S"tower's"
p9128
I1
tp9129
a(S'tower.another'
p9130
I1
tp9131
a(S'towered'
p9132
I1
tp9133
a(S'towers'
p9134
I1
tp9135
a(S'towork'
p9136
I1
tp9137
a(S'tpo.the'
p9138
I1
tp9139
a(S'tracks'
p9140
I1
tp9141
a(S'trade'
p9142
I1
tp9143
a(S'traffic'
p9144
I1
tp9145
a(S'trajic'
p9146
I1
tp9147
a(S'transferring'
p9148
I1
tp9149
a(S'transimite'
p9150
I1
tp9151
a(S'transmited'
p9152
I1
tp9153
a(S'transnitted'
p9154
I1
tp9155
a(S'transportation.the'
p9156
I1
tp9157
a(S'transportational'
p9158
I1
tp9159
a(S'transported'
p9160
I1
tp9161
a(S'transporting'
p9162
I1
tp9163
a(S'travel.during'
p9164
I1
tp9165
a(S'travel;'
p9166
I1
tp9167
a(S'traveled'
p9168
I1
tp9169
a(S'travelin'
p9170
I1
tp9171
a(S'traveling.another'
p9172
I1
tp9173
a(S'travelled'
p9174
I1
tp9175
a(S'tribulates'
p9176
I1
tp9177
a(S'trick'
p9178
I1
tp9179
a(S'trip'
p9180
I1
tp9181
a(S'troubled'
p9182
I1
tp9183
a(S'troubling'
p9184
I1
tp9185
a(S'troudle'
p9186
I1
tp9187
a(S'true.in'
p9188
I1
tp9189
a(S'true.their'
p9190
I1
tp9191
a(S'trust'
p9192
I1
tp9193
a(S'tryed'
p9194
I1
tp9195
a(S'tuge'
p9196
I1
tp9197
a(S'tumutuous'
p9198
I1
tp9199
a(S'tunnel'
p9200
I1
tp9201
a(S'twelve'
p9202
I1
tp9203
a(S'twisted'
p9204
I1
tp9205
a(S'two-hundred'
p9206
I1
tp9207
a(S'two.the'
p9208
I1
tp9209
a(S'un-ideal'
p9210
I1
tp9211
a(S'un-precedented'
p9212
I1
tp9213
a(S'un-safe'
p9214
I1
tp9215
a(S'un-tied'
p9216
I1
tp9217
a(S'unavailability'
p9218
I1
tp9219
a(S'unavailable'
p9220
I1
tp9221
a(S'unboarding'
p9222
I1
tp9223
a(S'uncertainty'
p9224
I1
tp9225
a(S'uncomplete'
p9226
I1
tp9227
a(S'uncontraiable'
p9228
I1
tp9229
a(S'uncontrollably.there'
p9230
I1
tp9231
a(S'under-'
p9232
I1
tp9233
a(S'undercontrol'
p9234
I1
tp9235
a(S'undergo'
p9236
I1
tp9237
a(S'undergoing'
p9238
I1
tp9239
a(S'underlying'
p9240
I1
tp9241
a(S'understand'
p9242
I1
tp9243
a(S'understanding'
p9244
I1
tp9245
a(S'undesired'
p9246
I1
tp9247
a(S'undeveloped'
p9248
I1
tp9249
a(S'undocked'
p9250
I1
tp9251
a(S'unforecast'
p9252
I1
tp9253
a(S'unforeseen'
p9254
I1
tp9255
a(S'unfortunatlley'
p9256
I1
tp9257
a(S'unfortunatly'
p9258
I1
tp9259
a(S'unfortuntly'
p9260
I1
tp9261
a(S'unforunantly'
p9262
I1
tp9263
a(S'unimaginable'
p9264
I1
tp9265
a(S'unit'
p9266
I1
tp9267
a(S'unland'
p9268
I1
tp9269
a(S'unlawful'
p9270
I1
tp9271
a(S'unliked'
p9272
I1
tp9273
a(S'unlikely'
p9274
I1
tp9275
a(S'unloding'
p9276
I1
tp9277
a(S'unmanageable'
p9278
I1
tp9279
a(S'unnatural'
p9280
I1
tp9281
a(S'unnecessary'
p9282
I1
tp9283
a(S'unpaticent'
p9284
I1
tp9285
a(S'unpractable'
p9286
I1
tp9287
a(S'unpractical.builders'
p9288
I1
tp9289
a(S'unpredictably'
p9290
I1
tp9291
a(S'unreal'
p9292
I1
tp9293
a(S'unrealistic.although'
p9294
I1
tp9295
a(S'unrealistic.the'
p9296
I1
tp9297
a(S'unreliable'
p9298
I1
tp9299
a(S'unsafe.in'
p9300
I1
tp9301
a(S'unsafe.the'
p9302
I1
tp9303
a(S'unsafely'
p9304
I1
tp9305
a(S'unsafly'
p9306
I1
tp9307
a(S'unscure'
p9308
I1
tp9309
a(S'unstability'
p9310
I1
tp9311
a(S'unstable.the'
p9312
I1
tp9313
a(S'unstoppable'
p9314
I1
tp9315
a(S'unsturdy'
p9316
I1
tp9317
a(S'unsuccess'
p9318
I1
tp9319
a(S'unsuccessful.allowing'
p9320
I1
tp9321
a(S'unsuccessful.many'
p9322
I1
tp9323
a(S'unsuccessfully'
p9324
I1
tp9325
a(S'unsuitable'
p9326
I1
tp9327
a(S'unsure'
p9328
I1
tp9329
a(S'unsured'
p9330
I1
tp9331
a(S'unthoughtof'
p9332
I1
tp9333
a(S'unturful'
p9334
I1
tp9335
a(S'unusable.when'
p9336
I1
tp9337
a(S'unused.the'
p9338
I1
tp9339
a(S'up.in'
p9340
I1
tp9341
a(S'up?'
p9342
I1
tp9343
a(S'upgrade'
p9344
I1
tp9345
a(S'upon.the'
p9346
I1
tp9347
a(S'urbanized'
p9348
I1
tp9349
a(S'urealistic'
p9350
I1
tp9351
a(S'usable'
p9352
I1
tp9353
a(S'usage'
p9354
I1
tp9355
a(S'use.in'
p9356
I1
tp9357
a(S'used.al'
p9358
I1
tp9359
a(S'used.base'
p9360
I1
tp9361
a(S'used.during'
p9362
I1
tp9363
a(S'used.in'
p9364
I1
tp9365
a(S'used.there'
p9366
I1
tp9367
a(S'used.when'
p9368
I1
tp9369
a(S'uselessness.the'
p9370
I1
tp9371
a(S'usual'
p9372
I1
tp9373
a(S'valves'
p9374
I1
tp9375
a(S'variables'
p9376
I1
tp9377
a(S'variations'
p9378
I1
tp9379
a(S'varied'
p9380
I1
tp9381
a(S'vast'
p9382
I1
tp9383
a(S'vastly'
p9384
I1
tp9385
a(S'vehecales'
p9386
I1
tp9387
a(S'vehicle'
p9388
I1
tp9389
a(S'velocities'
p9390
I1
tp9391
a(S'vessels'
p9392
I1
tp9393
a(S'vicinity'
p9394
I1
tp9395
a(S'viewpoint'
p9396
I1
tp9397
a(S'violant'
p9398
I1
tp9399
a(S'violat'
p9400
I1
tp9401
a(S'violated'
p9402
I1
tp9403
a(S'violating'
p9404
I1
tp9405
a(S'violen'
p9406
I1
tp9407
a(S'virtually'
p9408
I1
tp9409
a(S'visibly'
p9410
I1
tp9411
a(S'visit'
p9412
I1
tp9413
a(S'waist'
p9414
I1
tp9415
a(S'waits'
p9416
I1
tp9417
a(S'walked'
p9418
I1
tp9419
a(S"wan't"
p9420
I1
tp9421
a(S'wand'
p9422
I1
tp9423
a(S'ward'
p9424
I1
tp9425
a(S'warped'
p9426
I1
tp9427
a(S'wary'
p9428
I1
tp9429
a(S"was'nt"
p9430
I1
tp9431
a(S'was.the'
p9432
I1
tp9433
a(S'waste'
p9434
I1
tp9435
a(S'waste.while'
p9436
I1
tp9437
a(S'wasting'
p9438
I1
tp9439
a(S'watching'
p9440
I1
tp9441
a(S'water'
p9442
I1
tp9443
a(S'wave'
p9444
I1
tp9445
a(S'waver'
p9446
I1
tp9447
a(S"way's"
p9448
I1
tp9449
a(S'way.in'
p9450
I1
tp9451
a(S'way;'
p9452
I1
tp9453
a(S'weaken'
p9454
I1
tp9455
a(S'weaker'
p9456
I1
tp9457
a(S'weighos'
p9458
I1
tp9459
a(S'weighs'
p9460
I1
tp9461
a(S'weights;'
p9462
I1
tp9463
a(S'weights]'
p9464
I1
tp9465
a(S'well-known'
p9466
I1
tp9467
a(S'well-liked'
p9468
I1
tp9469
a(S'well.the'
p9470
I1
tp9471
a(S'well.while'
p9472
I1
tp9473
a(S'well;'
p9474
I1
tp9475
a(S"wer't"
p9476
I1
tp9477
a(S'werent'
p9478
I1
tp9479
a(S'whatever'
p9480
I1
tp9481
a(S'whe'
p9482
I1
tp9483
a(S'wher'
p9484
I1
tp9485
a(S'while.based'
p9486
I1
tp9487
a(S'whiping'
p9488
I1
tp9489
a(S'whirlwind'
p9490
I1
tp9491
a(S'whopping'
p9492
I1
tp9493
a(S'widely'
p9494
I1
tp9495
a(S'wieght'
p9496
I1
tp9497
a(S'wihich'
p9498
I1
tp9499
a(S'wildly'
p9500
I1
tp9501
a(S'will.the'
p9502
I1
tp9503
a(S'willing'
p9504
I1
tp9505
a(S'wind.builders'
p9506
I1
tp9507
a(S'wind.overall'
p9508
I1
tp9509
a(S'wind.the'
p9510
I1
tp9511
a(S'windows."based'
p9512
I1
tp9513
a(S'winds."in'
p9514
I1
tp9515
a(S'winds.other'
p9516
I1
tp9517
a(S'winds.the'
p9518
I1
tp9519
a(S'windstorm'
p9520
I1
tp9521
a(S'wing'
p9522
I1
tp9523
a(S'wiping'
p9524
I1
tp9525
a(S'wish'
p9526
I1
tp9527
a(S'wishful'
p9528
I1
tp9529
a(S'with.to'
p9530
I1
tp9531
a(S'withe'
p9532
I1
tp9533
a(S'withhold'
p9534
I1
tp9535
a(S'witnessed'
p9536
I1
tp9537
a(S'witout'
p9538
I1
tp9539
a(S'wold'
p9540
I1
tp9541
a(S'wont'
p9542
I1
tp9543
a(S'wood'
p9544
I1
tp9545
a(S'word'
p9546
I1
tp9547
a(S'work-in-progress'
p9548
I1
tp9549
a(S'work.another'
p9550
I1
tp9551
a(S'work.there'
p9552
I1
tp9553
a(S'worked.in'
p9554
I1
tp9555
a(S'worked.the'
p9556
I1
tp9557
a(S'worked/talked'
p9558
I1
tp9559
a(S'worker'
p9560
I1
tp9561
a(S"worker's"
p9562
I1
tp9563
a(S'workers.there'
p9564
I1
tp9565
a(S'workes'
p9566
I1
tp9567
a(S'workin'
p9568
I1
tp9569
a(S'working.when'
p9570
I1
tp9571
a(S'world.durining'
p9572
I1
tp9573
a(S'world.the'
p9574
I1
tp9575
a(S'world;'
p9576
I1
tp9577
a(S'worldwide'
p9578
I1
tp9579
a(S'worrie'
p9580
I1
tp9581
a(S'worriying'
p9582
I1
tp9583
a(S'worrying'
p9584
I1
tp9585
a(S'worse.builders'
p9586
I1
tp9587
a(S'would...be'
p9588
I1
tp9589
a(S'wrap'
p9590
I1
tp9591
a(S'wraped'
p9592
I1
tp9593
a(S'wraping'
p9594
I1
tp9595
a(S'wrapped'
p9596
I1
tp9597
a(S'wrapping'
p9598
I1
tp9599
a(S'wrath'
p9600
I1
tp9601
a(S'wrecking'
p9602
I1
tp9603
a(S'writer'
p9604
I1
tp9605
a(S'wrong.al'
p9606
I1
tp9607
a(S'wrong.the'
p9608
I1
tp9609
a(S'wtate'
p9610
I1
tp9611
a(S'york".the'
p9612
I1
tp9613
a(S'york)'
p9614
I1
tp9615
a(S'york.from'
p9616
I1
tp9617
a(S'york.some'
p9618
I1
tp9619
a(S'york.the'
p9620
I1
tp9621
a(S'yorkthe'
p9622
I1
tp9623
a(S'you.another'
p9624
I1
tp9625
a(S'\xb6'
I1
tp9626
a.