(lp1
(S'hi'
p2
I2201
tp3
a(S'mood'
p4
I1930
tp5
a(S'parent'
p6
I1616
tp7
a(S'thi'
p8
I1446
tp9
a(S'family'
p10
I1378
tp11
a(S'wa'
p12
I1306
tp13
a(S'author'
p14
I1168
tp15
a(S'memoir'
p16
I1162
tp17
a(S'love'
p18
I851
tp19
a(S'narciso'
p20
I839
tp21
a(S'home'
p22
I806
tp23
a(S'created'
p24
I637
tp25
a(S'happy'
p26
I621
tp27
a(S'caps1'
p28
I617
tp29
a(S'life'
p30
I588
tp31
a(S'grateful'
p32
I586
tp33
a(S'rodriguez'
p34
I533
tp35
a(S'house'
p36
I514
tp37
a(S'alway'
p38
I474
tp39
a(S'also'
p40
I472
tp41
a(S'paragraph'
p42
I414
tp43
a(S'say'
p44
I414
tp45
a(S'friend'
p46
I388
tp47
a(S'people'
p48
I369
tp49
a(S'show'
p50
I355
tp51
a(S'cuban'
p52
I346
tp53
a(S'many'
p54
I329
tp55
a(S'live'
p56
I286
tp57
a(S'came'
p58
I275
tp59
a(S'better'
p60
I258
tp61
a(S'give'
p62
I249
tp63
a(S'would'
p64
I247
tp65
a(S'one'
p66
I241
tp67
a(S'create'
p68
I239
tp69
a(S'story'
p70
I238
tp71
a(S'like'
p72
I237
tp73
a(S'sacrifice'
p74
I237
tp75
a(S'great'
p76
I236
tp77
a(S'thing'
p78
I236
tp79
a(S'loving'
p80
I227
tp81
a(S'talk'
p82
I221
tp83
a(S'num1'
p84
I219
tp85
a(S'culture'
p86
I215
tp87
a(S'never'
p88
I215
tp89
a(S'warm'
p90
I208
tp91
a(S'think'
p92
I207
tp93
a(S'happine'
p94
I205
tp95
a(S'music'
p96
I202
tp97
a(S'way'
p98
I200
tp99
a(S'neighborhood'
p100
I197
tp101
a(S'could'
p102
I188
tp103
a(S'simple'
p104
I185
tp105
a(S'time'
p106
I185
tp107
a(S'state'
p108
I184
tp109
a(S'cooking'
p110
I182
tp111
a(S'good'
p112
I180
tp113
a(S'example'
p114
I179
tp115
a(S'much'
p116
I175
tp117
a(S'forget'
p118
I173
tp119
a(S'location1'
p120
I173
tp121
a(S'made'
p122
I169
tp123
a(S'even'
p124
I167
tp125
a(S'feel'
p126
I165
tp127
a(S'caps2'
p128
I164
tp129
a(S'cuba'
p130
I164
tp131
a(S'describe'
p132
I164
tp133
a(S'together'
p134
I161
tp135
a(S'thankful'
p136
I155
tp137
a(S'make'
p138
I153
tp139
a(S'loved'
p140
I152
tp141
a(S'country'
p142
I150
tp143
a(S'person1'
p144
I148
tp145
a(S'children'
p146
I145
tp147
a(S'ha'
p148
I145
tp149
a(S'feeling'
p150
I141
tp151
a(S'learned'
p152
I140
tp153
a(S'kitchen'
p154
I139
tp155
a(S'greatful'
p156
I135
tp157
a(S'u'
I135
tp158
a(S'open'
p159
I133
tp160
a(S'first'
p161
I131
tp162
a(S'turned'
p163
I129
tp164
a(S'immigrant'
p165
I128
tp166
a(S'still'
p167
I128
tp168
a(S'childhood'
p169
I126
tp170
a(S'filled'
p171
I120
tp172
a(S'door'
p173
I116
tp174
a(S'explain'
p175
I115
tp176
a(S'tell'
p177
I115
tp178
a(S'blood'
p179
I114
tp180
a(S'though'
p181
I111
tp182
a(S'another'
p183
I110
tp184
a(S'community'
p185
I110
tp186
a(S'friendship'
p187
I109
tp188
a(S'arm'
p189
I106
tp190
a(S'caring'
p191
I106
tp192
a(S'come'
p193
I106
tp194
a(S'blueprint'
p195
I104
tp196
a(S'everyone'
p197
I104
tp198
a(S'new'
p199
I104
tp200
a(S'get'
p201
I103
tp202
a(S'quote'
p203
I103
tp204
a(S'throughout'
p205
I102
tp206
a(S'sense'
p207
I101
tp208
a(S'everything'
p209
I100
tp210
a(S'kept'
p211
I100
tp212
a(S'set'
p213
I99
tp214
a(S'really'
p215
I98
tp216
a(S'said'
p217
I98
tp218
a(S'often'
p219
I96
tp220
a(S'back'
p221
I95
tp222
a(S'num2'
p223
I95
tp224
a(S'air'
p225
I93
tp226
a(S'gratitude'
p227
I93
tp228
a(S'different'
p229
I92
tp230
a(S'nothing'
p231
I92
tp232
a(S'relative'
p233
I92
tp234
a(S'skill'
p235
I92
tp236
a(S'united'
p237
I91
tp238
a(S'celebration'
p239
I90
tp240
a(S'growing'
p241
I90
tp242
a(S'help'
p243
I90
tp244
a(S"narciso'"
p245
I89
tp246
a(S'reader'
p247
I88
tp248
a(S'lived'
p249
I87
tp250
a(S'hard'
p251
I86
tp252
a(S'sad'
p253
I86
tp254
a(S'know'
p255
I85
tp256
a(S'behind'
p257
I84
tp258
a(S'considered'
p259
I84
tp260
a(S'gave'
p261
I84
tp262
a(S'told'
p263
I84
tp264
a(S'memorie'
p265
I83
tp266
a(S'culinary'
p267
I81
tp268
a(S'kind'
p269
I80
tp270
a(S'job'
p271
I79
tp272
a(S'passionate'
p273
I79
tp274
a(S'whole'
p275
I79
tp276
a(S'familie'
p277
I78
tp278
a(S'last'
p279
I78
tp280
a(S'selflessly'
p281
I77
tp282
a(S'leaving'
p283
I76
tp284
a(S'lot'
p285
I75
tp286
a(S'reason'
p287
I75
tp288
a(S'thank'
p289
I75
tp290
a(S'definition'
p291
I74
tp292
a(S'rich'
p293
I74
tp294
a(S'courage'
p295
I73
tp296
a(S'need'
p297
I73
tp298
a(S'real'
p299
I73
tp300
a(S'done'
p301
I72
tp302
a(S'nice'
p303
I72
tp304
a(S'passed'
p305
I72
tp306
a(S'saying'
p307
I72
tp308
a(S'place'
p309
I70
tp310
a(S'today'
p311
I70
tp312
a(S'knowing'
p313
I69
tp314
a(S'endle'
p315
I68
tp316
a(S"i've"
p317
I68
tp318
a(S'write'
p319
I67
tp320
a(S'showed'
p321
I66
tp322
a(S'toward'
p323
I66
tp324
a(S'congregation'
p325
I65
tp326
a(S'mother'
p327
I64
tp328
a(S'solidarity'
p329
I64
tp330
a(S'backdrop'
p331
I63
tp332
a(S'eternally'
p333
I63
tp334
a(S'important'
p335
I63
tp336
a(S'traditional'
p337
I63
tp338
a(S'caps3'
p339
I62
tp340
a(S'mean'
p341
I62
tp342
a(S'neighbor'
p343
I62
tp344
a(S'warmth'
p345
I62
tp346
a(S'apartment'
p347
I61
tp348
a(S'talking'
p349
I61
tp350
a(S'career'
p351
I60
tp352
a(S'ever'
p353
I60
tp354
a(S'got'
p355
I60
tp356
a(S'start'
p357
I60
tp358
a(S'word'
p359
I59
tp360
a(S'admiration'
p361
I58
tp362
a(S"author'"
p363
I58
tp364
a(S"it'"
p365
I58
tp366
a(S'meant'
p367
I58
tp368
a(S'proud'
p369
I58
tp370
a(S'unity'
p371
I58
tp372
a(S'care'
p373
I57
tp374
a(S'close'
p375
I57
tp376
a(S'heart'
p377
I57
tp378
a(S'grew'
p379
I56
tp380
a(S'innocence'
p381
I56
tp382
a(S'overall'
p383
I56
tp384
a(S'able'
p385
I55
tp386
a(S'described'
p387
I55
tp388
a(S'father'
p389
I55
tp390
a(S'formed'
p391
I55
tp392
a(S'graciou'
p393
I55
tp394
a(S'gratefulne'
p395
I55
tp396
a(S'moved'
p397
I55
tp398
a(S'positive'
p399
I55
tp400
a(S'language'
p401
I54
tp402
a(S'living'
p403
I54
tp404
a(S'calm'
p405
I53
tp406
a(S'environment'
p407
I53
tp408
a(S'food'
p409
I53
tp410
a(S'generosity'
p411
I53
tp412
a(S'memoir.the'
p413
I53
tp414
a(S'num3'
p415
I53
tp416
a(S'shared'
p417
I53
tp418
a(S'article'
p419
I52
tp420
a(S'strength'
p421
I52
tp422
a(S'born'
p423
I51
tp424
a(S'encompassed'
p425
I50
tp426
a(S'extended'
p427
I50
tp428
a(S'aroma'
p429
I49
tp430
a(S'left'
p431
I49
tp432
a(S'without'
p433
I49
tp434
a(S'excerpt'
p435
I48
tp436
a(S'feet'
p437
I48
tp438
a(S'instilled'
p439
I48
tp440
a(S'taught'
p441
I48
tp442
a(S''
I47
tp443
a(S'child'
p444
I47
tp445
a(S'expre'
p446
I47
tp447
a(S'work'
p448
I47
tp449
a(S'perseverance'
p450
I46
tp451
a(S'part'
p452
I45
tp453
a(S'two'
p454
I45
tp455
a(S'well'
p456
I45
tp457
a(S'felt'
p458
I44
tp459
a(S'member'
p460
I44
tp461
a(S'see'
p462
I44
tp463
a(S'stay'
p464
I44
tp465
a(S'courageou'
p466
I43
tp467
a(S'end'
p468
I43
tp469
a(S'cook'
p470
I42
tp471
a(S'dutie'
p472
I42
tp473
a(S'sentence'
p474
I42
tp475
a(S'(and'
p476
I41
tp477
a(S'conclusion'
p478
I41
tp479
a(S'heritage'
p480
I41
tp481
a(S'leave'
p482
I41
tp483
a(S'mostly'
p484
I41
tp485
a(S'move'
p486
I41
tp487
a(S"rodriguez'"
p488
I41
tp489
a(S'unwittingly'
p490
I41
tp491
a(S'welcoming'
p492
I41
tp493
a(S'young'
p494
I41
tp495
a(S'&'
I40
tp496
a(S'went'
p497
I40
tp498
a(S'auther'
p499
I39
tp500
a(S'dinner'
p501
I39
tp502
a(S'jersey'
p503
I39
tp504
a(S'put'
p505
I39
tp506
a(S'racism'
p507
I39
tp508
a(S'showing'
p509
I39
tp510
a(S'someone'
p511
I39
tp512
a(S'adore'
p513
I38
tp514
a(S'coming'
p515
I38
tp516
a(S'despite'
p517
I38
tp518
a(S'helped'
p519
I38
tp520
a(S'anyone'
p521
I37
tp522
a(S'giving'
p523
I37
tp524
a(S'line'
p525
I37
tp526
a(S'mixing'
p527
I37
tp528
a(S'table'
p529
I37
tp530
a(S'thanked'
p531
I37
tp532
a(S'full'
p533
I36
tp534
a(S'knowledge'
p535
I36
tp536
a(S'around'
p537
I35
tp538
a(S'let'
p539
I35
tp540
a(S'matter'
p541
I35
tp542
a(S'seem'
p543
I35
tp544
a(S'spanish'
p545
I35
tp546
a(S'find'
p547
I34
tp548
a(S'going'
p549
I34
tp550
a(S'hardship'
p551
I34
tp552
a(S'needed'
p553
I34
tp554
a(S'num1)'
p555
I34
tp556
a(S'repeatedly'
p557
I34
tp558
a(S'shown'
p559
I34
tp560
a(S'talked'
p561
I34
tp562
a(S'big'
p563
I33
tp564
a(S'every'
p565
I33
tp566
a(S'humble'
p567
I33
tp568
a(S'peaceful'
p569
I33
tp570
a(S'room'
p571
I33
tp572
a(S'spirit'
p573
I33
tp574
a(S'wanted'
p575
I33
tp576
a(S'feast'
p577
I32
tp578
a(S'cared'
p579
I31
tp580
a(S"didn't"
p581
I31
tp582
a(S'explaining'
p583
I31
tp584
a(S'italian'
p585
I31
tp586
a(S'lastly'
p587
I31
tp588
a(S'moving'
p589
I31
tp590
a(S'selflessne'
p591
I31
tp592
a(S'telling'
p593
I31
tp594
a(S'thier'
p595
I31
tp596
a(S'three'
p597
I31
tp598
a(S'tone'
p599
I31
tp600
a(S'use'
p601
I31
tp602
a(S'want'
p603
I31
tp604
a(S'wonderful'
p605
I31
tp606
a(S'(which'
p607
I30
tp608
a(S'clearly'
p609
I30
tp610
a(S'comforting'
p611
I30
tp612
a(S'custom'
p613
I30
tp614
a(S'friendly'
p615
I30
tp616
a(S'fun'
p617
I30
tp618
a(S'hand'
p619
I30
tp620
a(S'passage'
p621
I30
tp622
a(S'read'
p623
I30
tp624
a(S'reading'
p625
I30
tp626
a(S'related'
p627
I30
tp628
a(S'sacrificed'
p629
I30
tp630
a(S'something'
p631
I30
tp632
a(S'within'
p633
I30
tp634
a(S'along'
p635
I29
tp636
a(S'expresse'
p637
I29
tp638
a(S'finally'
p639
I29
tp640
a(S'go'
p641
I29
tp642
a(S'grateful)'
p643
I29
tp644
a(S'hardworking'
p645
I29
tp646
a(S'kid'
p647
I29
tp648
a(S'little'
p649
I29
tp650
a(S'main'
p651
I29
tp652
a(S'meaning'
p653
I29
tp654
a(S'second'
p655
I29
tp656
a(S'take'
p657
I29
tp658
a(S'true'
p659
I29
tp660
a(S'trying'
p661
I29
tp662
a(S'close-knit'
p663
I28
tp664
a(S'doe'
p665
I28
tp666
a(S'honest'
p667
I28
tp668
a(S'person2'
p669
I28
tp670
a(S'setting'
p671
I28
tp672
a(S'strong'
p673
I28
tp674
a(S'upon'
p675
I28
tp676
a(S'birthday'
p677
I27
tp678
a(S'given'
p679
I27
tp680
a(S'grandparent'
p681
I27
tp682
a(S'greatfulne'
p683
I27
tp684
a(S'grow'
p685
I27
tp686
a(S'hood'
p687
I27
tp688
a(S'impressed'
p689
I27
tp690
a(S'mention'
p691
I27
tp692
a(S'refugee'
p693
I27
tp694
a(S'selfle'
p695
I27
tp696
a(S'(@caps1'
p697
I26
tp698
a(S"he'"
p699
I26
tp700
a(S'welcomed'
p701
I26
tp702
a(S'(paragraph'
p703
I25
tp704
a(S'age'
p705
I25
tp706
a(S'alot'
p707
I25
tp708
a(S'elsewhere'
p709
I25
tp710
a(S'joy'
p711
I25
tp712
a(S'son'
p713
I25
tp714
a(S'best'
p715
I24
tp716
a(S'brought'
p717
I24
tp718
a(S'cultural'
p719
I24
tp720
a(S'day'
p721
I24
tp722
a(S'look'
p723
I24
tp724
a(S'memior'
p725
I24
tp726
a(S'scent'
p727
I24
tp728
a(S'segregation'
p729
I24
tp730
a(S'teaching'
p731
I24
tp732
a(S'appreciation'
p733
I23
tp734
a(S'day)'
p735
I23
tp736
a(S"don't"
p737
I23
tp738
a(S'early'
p739
I23
tp740
a(S'home.the'
p741
I23
tp742
a(S'keep'
p743
I23
tp744
a(S'num2)'
p745
I23
tp746
a(S'reality'
p747
I23
tp748
a(S'staying'
p749
I23
tp750
a(S'anything'
p751
I22
tp752
a(S'became'
p753
I22
tp754
a(S'call'
p755
I22
tp756
a(S'celebrate'
p757
I22
tp758
a(S'comfort'
p759
I22
tp760
a(S'describing'
p761
I22
tp762
a(S"doesn't"
p763
I22
tp764
a(S'extremely'
p765
I22
tp766
a(S'happyne'
p767
I22
tp768
a(S'knew'
p769
I22
tp770
a(S'meal'
p771
I22
tp772
a(S'mom'
p773
I22
tp774
a(S'mood.the'
p775
I22
tp776
a(S'newark'
p777
I22
tp778
a(S'struggle'
p779
I22
tp780
a(S'struggled'
p781
I22
tp782
a(S'took'
p783
I22
tp784
a(S'writing'
p785
I22
tp786
a(S'appreciate'
p787
I21
tp788
a(S'family.the'
p789
I21
tp790
a(S'location2'
p791
I21
tp792
a(S'old'
p793
I21
tp794
a(S'organization1'
p795
I21
tp796
a(S'support'
p797
I21
tp798
a(S'thought'
p799
I21
tp800
a(S'turn'
p801
I21
tp802
a(S'basi'
p803
I20
tp804
a(S'comfortable'
p805
I20
tp806
a(S'demonstration'
p807
I20
tp808
a(S'greatfull'
p809
I20
tp810
a(S'hope'
p811
I20
tp812
a(S'next'
p813
I20
tp814
a(S'piece'
p815
I20
tp816
a(S'respect'
p817
I20
tp818
a(S'uplifting'
p819
I20
tp820
a(S'1961'
p821
I19
tp822
a(S'beginning'
p823
I19
tp824
a(S'believe'
p825
I19
tp826
a(S'bring'
p827
I19
tp828
a(S'change'
p829
I19
tp830
a(S'countle'
p831
I19
tp832
a(S'eachother'
p833
I19
tp834
a(S'explained'
p835
I19
tp836
a(S'final'
p837
I19
tp838
a(S'financially'
p839
I19
tp840
a(S'gratefull'
p841
I19
tp842
a(S'inviting'
p843
I19
tp844
a(S'kindne'
p845
I19
tp846
a(S'memoir.in'
p847
I19
tp848
a(S'personally'
p849
I19
tp850
a(S'appreciative'
p851
I18
tp852
a(S'building'
p853
I18
tp854
a(S'caps4'
p855
I18
tp856
a(S'consider'
p857
I18
tp858
a(S'goe'
p859
I18
tp860
a(S'lesson'
p861
I18
tp862
a(S'might'
p863
I18
tp864
a(S'necessarily'
p865
I18
tp866
a(S'past'
p867
I18
tp868
a(S'small'
p869
I18
tp870
a(S"that'"
p871
I18
tp872
a(S'worked'
p873
I18
tp874
a(S'wrote'
p875
I18
tp876
a(S'year'
p877
I18
tp878
a(S'almost'
p879
I17
tp880
a(S'america'
p881
I17
tp882
a(S'arrival'
p883
I17
tp884
a(S'background'
p885
I17
tp886
a(S'changed'
p887
I17
tp888
a(S'cozy'
p889
I17
tp890
a(S'fact'
p891
I17
tp892
a(S'form'
p893
I17
tp894
a(S'found'
p895
I17
tp896
a(S'joyful'
p897
I17
tp898
a(S'passion'
p899
I17
tp900
a(S'pride'
p901
I17
tp902
a(S'raised'
p903
I17
tp904
a(S'sacrafice'
p905
I17
tp906
a(S'third'
p907
I17
tp908
a(S'tradition'
p909
I17
tp910
a(S'used'
p911
I17
tp912
a(S'become'
p913
I16
tp914
a(S'boy'
p915
I16
tp916
a(S'creating'
p917
I16
tp918
a(S'enough'
p919
I16
tp920
a(S'experience'
p921
I16
tp922
a(S'expressed'
p923
I16
tp924
a(S'person'
p925
I16
tp926
a(S'poor'
p927
I16
tp928
a(S'relationship'
p929
I16
tp930
a(S'several'
p931
I16
tp932
a(S'started'
p933
I16
tp934
a(S'text'
p935
I16
tp936
a(S'thankfulne'
p937
I16
tp938
a(S'understand'
p939
I16
tp940
a(S'wall'
p941
I16
tp942
a(S'although'
p943
I15
tp944
a(S'brave'
p945
I15
tp946
a(S'dad'
p947
I15
tp948
a(S'detail'
p949
I15
tp950
a(S'especially'
p951
I15
tp952
a(S'harsh'
p953
I15
tp954
a(S'immigrated'
p955
I15
tp956
a(S'learn'
p957
I15
tp958
a(S'making'
p959
I15
tp960
a(S'mentioned'
p961
I15
tp962
a(S'narrator'
p963
I15
tp964
a(S"parent'"
p965
I15
tp966
a(S'portray'
p967
I15
tp968
a(S'remember'
p969
I15
tp970
a(S'share'
p971
I15
tp972
a(S'sound'
p973
I15
tp974
a(S'temporarily'
p975
I15
tp976
a(S"they're"
p977
I15
tp978
a(S'written'
p979
I15
tp980
a(S'admire'
p981
I14
tp982
a(S'aunt'
p983
I14
tp984
a(S'basically'
p985
I14
tp986
a(S'caps5'
p987
I14
tp988
a(S'celebrated'
p989
I14
tp990
a(S'certain'
p991
I14
tp992
a(S'description'
p993
I14
tp994
a(S'eat'
p995
I14
tp996
a(S'education'
p997
I14
tp998
a(S'evidence'
p999
I14
tp1000
a(S"family'"
p1001
I14
tp1002
a(S'helping'
p1003
I14
tp1004
a(S'him.the'
p1005
I14
tp1006
a(S'money'
p1007
I14
tp1008
a(S'opened'
p1009
I14
tp1010
a(S"person1'"
p1011
I14
tp1012
a(S'race'
p1013
I14
tp1014
a(S'relaxed'
p1015
I14
tp1016
a(S'sometime'
p1017
I14
tp1018
a(S'specific'
p1019
I14
tp1020
a(S'thanking'
p1021
I14
tp1022
a(S'themselve'
p1023
I14
tp1024
a(S'welcome'
p1025
I14
tp1026
a(S'(\xb6'
p1027
I13
tp1028
a(S'+'
I13
tp1029
a(S'alegria'
p1030
I13
tp1031
a(S'arrived'
p1032
I13
tp1033
a(S'cheerful'
p1034
I13
tp1035
a(S'daughter'
p1036
I13
tp1037
a(S'emotion'
p1038
I13
tp1039
a(S'enviroment'
p1040
I13
tp1041
a(S'home.in'
p1042
I13
tp1043
a(S'immagrant'
p1044
I13
tp1045
a(S'large'
p1046
I13
tp1047
a(S'liked'
p1048
I13
tp1049
a(S'num3)'
p1050
I13
tp1051
a(S'parenthese'
p1052
I13
tp1053
a(S'since'
p1054
I13
tp1055
a(S'smell'
p1056
I13
tp1057
a(S'thankfull'
p1058
I13
tp1059
a(S'type'
p1060
I13
tp1061
a(S"wasn't"
p1062
I13
tp1063
a(S'whatever'
p1064
I13
tp1065
a(S'winter'
p1066
I13
tp1067
a(S'1956'
p1068
I12
tp1069
a(S'amazing'
p1070
I12
tp1071
a(S'atmosphere'
p1072
I12
tp1073
a(S'babysitter'
p1074
I12
tp1075
a(S'bad'
p1076
I12
tp1077
a(S'constantly'
p1078
I12
tp1079
a(S'cousin'
p1080
I12
tp1081
a(S'designer'
p1082
I12
tp1083
a(S'getting'
p1084
I12
tp1085
a(S'graced'
p1086
I12
tp1087
a(S'however'
p1088
I12
tp1089
a(S'it.the'
p1090
I12
tp1091
a(S'life.the'
p1092
I12
tp1093
a(S'love.the'
p1094
I12
tp1095
a(S'memory'
p1096
I12
tp1097
a(S'num4'
p1098
I12
tp1099
a(S'situation'
p1100
I12
tp1101
a(S'six'
p1102
I12
tp1103
a(S'theme'
p1104
I12
tp1105
a(S'1970'
p1106
I11
tp1107
a(S'admired'
p1108
I11
tp1109
a(S'afford'
p1110
I11
tp1111
a(S'bond'
p1112
I11
tp1113
a(S'character'
p1114
I11
tp1115
a(S'enjoy'
p1116
I11
tp1117
a(S'entirely'
p1118
I11
tp1119
a(S'facing'
p1120
I11
tp1121
a(S'generou'
p1122
I11
tp1123
a(S'idea'
p1124
I11
tp1125
a(S'importance'
p1126
I11
tp1127
a(S'native'
p1128
I11
tp1129
a(S'opinion'
p1130
I11
tp1131
a(S'picture'
p1132
I11
tp1133
a(S'playing'
p1134
I11
tp1135
a(S'point'
p1136
I11
tp1137
a(S'prove'
p1138
I11
tp1139
a(S'sort'
p1140
I11
tp1141
a(S'speak'
p1142
I11
tp1143
a(S'special'
p1144
I11
tp1145
a(S'stated'
p1146
I11
tp1147
a(S'taking'
p1148
I11
tp1149
a(S'togetherne'
p1150
I11
tp1151
a(S'tough'
p1152
I11
tp1153
a(S'truly'
p1154
I11
tp1155
a(S'working'
p1156
I11
tp1157
a(S'(@num1)'
p1158
I10
tp1159
a(S'(rodriguez'
p1160
I10
tp1161
a(S'adored'
p1162
I10
tp1163
a(S'author.the'
p1164
I10
tp1165
a(S'away'
p1166
I10
tp1167
a(S'baby'
p1168
I10
tp1169
a(S'braving'
p1170
I10
tp1171
a(S'careing'
p1172
I10
tp1173
a(S'cooked'
p1174
I10
tp1175
a(S'depressing'
p1176
I10
tp1177
a(S'endure'
p1178
I10
tp1179
a(S'faced'
p1180
I10
tp1181
a(S'family.in'
p1182
I10
tp1183
a(S'four'
p1184
I10
tp1185
a(S'happy.the'
p1186
I10
tp1187
a(S'lead'
p1188
I10
tp1189
a(S'maria'
p1190
I10
tp1191
a(S'mind'
p1192
I10
tp1193
a(S'month1'
p1194
I10
tp1195
a(S'northern'
p1196
I10
tp1197
a(S'overt'
p1198
I10
tp1199
a(S'provide'
p1200
I10
tp1201
a(S'quite'
p1202
I10
tp1203
a(S'remembering'
p1204
I10
tp1205
a(S'right'
p1206
I10
tp1207
a(S'safe'
p1208
I10
tp1209
a(S'seemed'
p1210
I10
tp1211
a(S'situated'
p1212
I10
tp1213
a(S'stating'
p1214
I10
tp1215
a(S'therefore'
p1216
I10
tp1217
a(S'touching'
p1218
I10
tp1219
a(S'treat'
p1220
I10
tp1221
a(S'allowed'
p1222
I9
tp1223
a(S'based'
p1224
I9
tp1225
a(S'bit'
p1226
I9
tp1227
a(S'called'
p1228
I9
tp1229
a(S"can't"
p1230
I9
tp1231
a(S'caps6'
p1232
I9
tp1233
a(S'celebrating'
p1234
I9
tp1235
a(S'choice'
p1236
I9
tp1237
a(S'date1'
p1238
I9
tp1239
a(S'dont'
p1240
I9
tp1241
a(S'emphasize'
p1242
I9
tp1243
a(S'entire'
p1244
I9
tp1245
a(S'everybody'
p1246
I9
tp1247
a(S'excited'
p1248
I9
tp1249
a(S'faith'
p1250
I9
tp1251
a(S'future'
p1252
I9
tp1253
a(S'grateful.the'
p1254
I9
tp1255
a(S'gratefullne'
p1256
I9
tp1257
a(S'happen'
p1258
I9
tp1259
a(S'happiene'
p1260
I9
tp1261
a(S'his/her'
p1262
I9
tp1263
a(S'imigrant'
p1264
I9
tp1265
a(S'information'
p1266
I9
tp1267
a(S'is.the'
p1268
I9
tp1269
a(S"isn't"
p1270
I9
tp1271
a(S'landlord'
p1272
I9
tp1273
a(S'learning'
p1274
I9
tp1275
a(S'least'
p1276
I9
tp1277
a(S'long'
p1278
I9
tp1279
a(S'lucky'
p1280
I9
tp1281
a(S'modest'
p1282
I9
tp1283
a(S'originally'
p1284
I9
tp1285
a(S'provided'
p1286
I9
tp1287
a(S'rest'
p1288
I9
tp1289
a(S'sadne'
p1290
I9
tp1291
a(S'section'
p1292
I9
tp1293
a(S'seriou'
p1294
I9
tp1295
a(S'seven'
p1296
I9
tp1297
a(S'sharing'
p1298
I9
tp1299
a(S'story.the'
p1300
I9
tp1301
a(S'trie'
p1302
I9
tp1303
a(S'tropic'
p1304
I9
tp1305
a(S'two-family'
p1306
I9
tp1307
a(S"wouldn't"
p1308
I9
tp1309
a(S'yearning'
p1310
I9
tp1311
a(S'\x96'
I9
tp1312
a(S'(@num2)'
p1313
I8
tp1314
a(S'addition'
p1315
I8
tp1316
a(S'attitude'
p1317
I8
tp1318
a(S'barrier'
p1319
I8
tp1320
a(S'begin'
p1321
I8
tp1322
a(S'chance'
p1323
I8
tp1324
a(S'chemical'
p1325
I8
tp1326
a(S'clear'
p1327
I8
tp1328
a(S"couldn't"
p1329
I8
tp1330
a(S'creat'
p1331
I8
tp1332
a(S'demonstrate'
p1333
I8
tp1334
a(S'deserved'
p1335
I8
tp1336
a(S'enjoyable'
p1337
I8
tp1338
a(S'exciting'
p1339
I8
tp1340
a(S'fond'
p1341
I8
tp1342
a(S'head'
p1343
I8
tp1344
a(S'hear'
p1345
I8
tp1346
a(S'household'
p1347
I8
tp1348
a(S'inside'
p1349
I8
tp1350
a(S'knit'
p1351
I8
tp1352
a(S'laboratory'
p1353
I8
tp1354
a(S'mainly'
p1355
I8
tp1356
a(S'moment'
p1357
I8
tp1358
a(S'must'
p1359
I8
tp1360
a(S'norm'
p1361
I8
tp1362
a(S'order'
p1363
I8
tp1364
a(S"parents'"
p1365
I8
tp1366
a(S'parents.the'
p1367
I8
tp1368
a(S'pleasant'
p1369
I8
tp1370
a(S'powerful'
p1371
I8
tp1372
a(S'prevailed'
p1373
I8
tp1374
a(S'print'
p1375
I8
tp1376
a(S'realize'
p1377
I8
tp1378
a(S'reflect'
p1379
I8
tp1380
a(S'relate'
p1381
I8
tp1382
a(S'remind'
p1383
I8
tp1384
a(S'starting'
p1385
I8
tp1386
a(S'statement'
p1387
I8
tp1388
a(S'stayed'
p1389
I8
tp1390
a(S'stuff'
p1391
I8
tp1392
a(S'surrounded'
p1393
I8
tp1394
a(S'teach'
p1395
I8
tp1396
a(S'tried'
p1397
I8
tp1398
a(S'trouble'
p1399
I8
tp1400
a(S'turning'
p1401
I8
tp1402
a(S"weren't"
p1403
I8
tp1404
a(S'willing'
p1405
I8
tp1406
a(S'yet'
p1407
I8
tp1408
a(S"you're"
p1409
I8
tp1410
a(S"'family'"
p1411
I7
tp1412
a(S'accept'
p1413
I7
tp1414
a(S'act'
p1415
I7
tp1416
a(S'action'
p1417
I7
tp1418
a(S'add'
p1419
I7
tp1420
a(S'anybody'
p1421
I7
tp1422
a(S'ate'
p1423
I7
tp1424
a(S'bravery'
p1425
I7
tp1426
a(S"caps1'"
p1427
I7
tp1428
a(S'case'
p1429
I7
tp1430
a(S'chose'
p1431
I7
tp1432
a(S'compassion'
p1433
I7
tp1434
a(S'constant'
p1435
I7
tp1436
a(S'didnt'
p1437
I7
tp1438
a(S'discribed'
p1439
I7
tp1440
a(S'display'
p1441
I7
tp1442
a(S'due'
p1443
I7
tp1444
a(S'else'
p1445
I7
tp1446
a(S'engineering'
p1447
I7
tp1448
a(S'enjoyed'
p1449
I7
tp1450
a(S'fashion'
p1451
I7
tp1452
a(S'forever'
p1453
I7
tp1454
a(S'free'
p1455
I7
tp1456
a(S'freind'
p1457
I7
tp1458
a(S'ful'
p1459
I7
tp1460
a(S'happened'
p1461
I7
tp1462
a(S'happier'
p1463
I7
tp1464
a(S'heartwarming'
p1465
I7
tp1466
a(S'homey'
p1467
I7
tp1468
a(S'image'
p1469
I7
tp1470
a(S'imagine'
p1471
I7
tp1472
a(S'instance'
p1473
I7
tp1474
a(S'ironbound'
p1475
I7
tp1476
a(S'land'
p1477
I7
tp1478
a(S'letting'
p1479
I7
tp1480
a(S'light'
p1481
I7
tp1482
a(S'ment'
p1483
I7
tp1484
a(S'mood.in'
p1485
I7
tp1486
a(S'partie'
p1487
I7
tp1488
a(S'peace'
p1489
I7
tp1490
a(S'personal'
p1491
I7
tp1492
a(S'phrase'
p1493
I7
tp1494
a(S'played'
p1495
I7
tp1496
a(S'present'
p1497
I7
tp1498
a(S'problem'
p1499
I7
tp1500
a(S'rawedia'
p1501
I7
tp1502
a(S'safety'
p1503
I7
tp1504
a(S"say'"
p1505
I7
tp1506
a(S'sergio'
p1507
I7
tp1508
a(S'sister'
p1509
I7
tp1510
a(S'space'
p1511
I7
tp1512
a(S'studied'
p1513
I7
tp1514
a(S'successful'
p1515
I7
tp1516
a(S'surrogate'
p1517
I7
tp1518
a(S'sweet'
p1519
I7
tp1520
a(S'three-room'
p1521
I7
tp1522
a(S'treated'
p1523
I7
tp1524
a(S'try'
p1525
I7
tp1526
a(S'world'
p1527
I7
tp1528
a(S'acro'
p1529
I6
tp1530
a(S'amount'
p1531
I6
tp1532
a(S'benefit'
p1533
I6
tp1534
a(S'book'
p1535
I6
tp1536
a(S'bringing'
p1537
I6
tp1538
a(S'contribute'
p1539
I6
tp1540
a(S'enjoying'
p1541
I6
tp1542
a(S'enviornment'
p1543
I6
tp1544
a(S'etc'
p1545
I6
tp1546
a(S'fill'
p1547
I6
tp1548
a(S'glad'
p1549
I6
tp1550
a(S'gratful'
p1551
I6
tp1552
a(S'greatfullne'
p1553
I6
tp1554
a(S'grown'
p1555
I6
tp1556
a(S'happiness.the'
p1557
I6
tp1558
a(S'him.in'
p1559
I6
tp1560
a(S'including'
p1561
I6
tp1562
a(S'invite'
p1563
I6
tp1564
a(S'invited'
p1565
I6
tp1566
a(S'life.in'
p1567
I6
tp1568
a(S'listen'
p1569
I6
tp1570
a(S'looking'
p1571
I6
tp1572
a(S'loveing'
p1573
I6
tp1574
a(S'loving.in'
p1575
I6
tp1576
a(S'meet'
p1577
I6
tp1578
a(S'mixed'
p1579
I6
tp1580
a(S'narcisco'
p1581
I6
tp1582
a(S'negative'
p1583
I6
tp1584
a(S'nostalgic'
p1585
I6
tp1586
a(S'num4)'
p1587
I6
tp1588
a(S'onto'
p1589
I6
tp1590
a(S'passing'
p1591
I6
tp1592
a(S'ph'
p1593
I6
tp1594
a(S'portrayed'
p1595
I6
tp1596
a(S'pretty'
p1597
I6
tp1598
a(S'probably'
p1599
I6
tp1600
a(S'recall'
p1601
I6
tp1602
a(S'represent'
p1603
I6
tp1604
a(S'seen'
p1605
I6
tp1606
a(S'selfish'
p1607
I6
tp1608
a(S'sence'
p1609
I6
tp1610
a(S"she'"
p1611
I6
tp1612
a(S'short'
p1613
I6
tp1614
a(S'storie'
p1615
I6
tp1616
a(S'supported'
p1617
I6
tp1618
a(S'thinking'
p1619
I6
tp1620
a(S'untill'
p1621
I6
tp1622
a(S'usually'
p1623
I6
tp1624
a(S'went-and'
p1625
I6
tp1626
a(S'writer'
p1627
I6
tp1628
a(S'(@num3)'
p1629
I5
tp1630
a(S'actually'
p1631
I5
tp1632
a(S'adding'
p1633
I5
tp1634
a(S'affect'
p1635
I5
tp1636
a(S'allway'
p1637
I5
tp1638
a(S'appartment'
p1639
I5
tp1640
a(S'basement'
p1641
I5
tp1642
a(S'bedroom'
p1643
I5
tp1644
a(S'beloved'
p1645
I5
tp1646
a(S'bigger'
p1647
I5
tp1648
a(S'biggest'
p1649
I5
tp1650
a(S'blond'
p1651
I5
tp1652
a(S'blond-brick'
p1653
I5
tp1654
a(S'brick'
p1655
I5
tp1656
a(S'brother'
p1657
I5
tp1658
a(S'carrer'
p1659
I5
tp1660
a(S'cause'
p1661
I5
tp1662
a(S'clothing'
p1663
I5
tp1664
a(S'complete'
p1665
I5
tp1666
a(S'continue'
p1667
I5
tp1668
a(S'convey'
p1669
I5
tp1670
a(S"could've"
p1671
I5
tp1672
a(S'couple'
p1673
I5
tp1674
a(S'deep'
p1675
I5
tp1676
a(S'difference'
p1677
I5
tp1678
a(S'diffrent'
p1679
I5
tp1680
a(S'dream'
p1681
I5
tp1682
a(S'drove'
p1683
I5
tp1684
a(S'easily'
p1685
I5
tp1686
a(S'event'
p1687
I5
tp1688
a(S'evident'
p1689
I5
tp1690
a(S'explanation'
p1691
I5
tp1692
a(S'fighting'
p1693
I5
tp1694
a(S'finding'
p1695
I5
tp1696
a(S'following'
p1697
I5
tp1698
a(S'friends.the'
p1699
I5
tp1700
a(S'furnished'
p1701
I5
tp1702
a(S'gathering'
p1703
I5
tp1704
a(S'grateful.in'
p1705
I5
tp1706
a(S'group'
p1707
I5
tp1708
a(S'history'
p1709
I5
tp1710
a(S'hold'
p1711
I5
tp1712
a(S'home."the'
p1713
I5
tp1714
a(S'honor'
p1715
I5
tp1716
a(S'hospitality'
p1717
I5
tp1718
a(S'house.the'
p1719
I5
tp1720
a(S'huge'
p1721
I5
tp1722
a(S"i'm"
p1723
I5
tp1724
a(S'immigrating'
p1725
I5
tp1726
a(S'incredible'
p1727
I5
tp1728
a(S'informal'
p1729
I5
tp1730
a(S'instead'
p1731
I5
tp1732
a(S'it.in'
p1733
I5
tp1734
a(S'joined'
p1735
I5
tp1736
a(S'later'
p1737
I5
tp1738
a(S'lifestyle'
p1739
I5
tp1740
a(S'listening'
p1741
I5
tp1742
a(S'location3'
p1743
I5
tp1744
a(S'memmoir'
p1745
I5
tp1746
a(S"memoir'"
p1747
I5
tp1748
a(S'message'
p1749
I5
tp1750
a(S'middle'
p1751
I5
tp1752
a(S'named'
p1753
I5
tp1754
a(S'near'
p1755
I5
tp1756
a(S'opportunity'
p1757
I5
tp1758
a(S'praise'
p1759
I5
tp1760
a(S'putting'
p1761
I5
tp1762
a(S'racist'
p1763
I5
tp1764
a(S'ready'
p1765
I5
tp1766
a(S'relation'
p1767
I5
tp1768
a(S'relaxing'
p1769
I5
tp1770
a(S'result'
p1771
I5
tp1772
a(S'reveal'
p1773
I5
tp1774
a(S'rodriguez.the'
p1775
I5
tp1776
a(S'root'
p1777
I5
tp1778
a(S'sacrificing'
p1779
I5
tp1780
a(S'satisfaction'
p1781
I5
tp1782
a(S'selection'
p1783
I5
tp1784
a(S'self'
p1785
I5
tp1786
a(S'smile'
p1787
I5
tp1788
a(S'somewhat'
p1789
I5
tp1790
a(S'soon'
p1791
I5
tp1792
a(S'sr'
p1793
I5
tp1794
a(S'ther'
p1795
I5
tp1796
a(S'thoughtful'
p1797
I5
tp1798
a(S'town'
p1799
I5
tp1800
a(S'trust'
p1801
I5
tp1802
a(S'understanding'
p1803
I5
tp1804
a(S'upbeat'
p1805
I5
tp1806
a(S'us'
p1807
I5
tp1808
a(S'using'
p1809
I5
tp1810
a(S'value'
p1811
I5
tp1812
a(S'visit'
p1813
I5
tp1814
a(S'warming'
p1815
I5
tp1816
a(S'was.the'
p1817
I5
tp1818
a(S'werent'
p1819
I5
tp1820
a(S'wide'
p1821
I5
tp1822
a(S'(albeit'
p1823
I4
tp1824
a(S'(paragraf'
p1825
I4
tp1826
a(S'(the'
p1827
I4
tp1828
a(S'-'
I4
tp1829
a(S'accepting'
p1830
I4
tp1831
a(S'according'
p1832
I4
tp1833
a(S'advantage'
p1834
I4
tp1835
a(S'appreciated'
p1836
I4
tp1837
a(S'appriciative'
p1838
I4
tp1839
a(S'area'
p1840
I4
tp1841
a(S'arnold'
p1842
I4
tp1843
a(S'basicly'
p1844
I4
tp1845
a(S'beautiful'
p1846
I4
tp1847
a(S'body'
p1848
I4
tp1849
a(S'bright'
p1850
I4
tp1851
a(S'build'
p1852
I4
tp1853
a(S'closer'
p1854
I4
tp1855
a(S'conclude'
p1856
I4
tp1857
a(S'consisted'
p1858
I4
tp1859
a(S'countrie'
p1860
I4
tp1861
a(S'decision'
p1862
I4
tp1863
a(S'develop'
p1864
I4
tp1865
a(S'difficult'
p1866
I4
tp1867
a(S'displayed'
p1868
I4
tp1869
a(S'distinct'
p1870
I4
tp1871
a(S'easy'
p1872
I4
tp1873
a(S'eating'
p1874
I4
tp1875
a(S'edelmira'
p1876
I4
tp1877
a(S'effect'
p1878
I4
tp1879
a(S'emphasized'
p1880
I4
tp1881
a(S'endured'
p1882
I4
tp1883
a(S'enviorment'
p1884
I4
tp1885
a(S'everywhere'
p1886
I4
tp1887
a(S'face'
p1888
I4
tp1889
a(S'family".the'
p1890
I4
tp1891
a(S'festive'
p1892
I4
tp1893
a(S'financial'
p1894
I4
tp1895
a(S'five'
p1896
I4
tp1897
a(S'fondly'
p1898
I4
tp1899
a(S'fondne'
p1900
I4
tp1901
a(S'formal'
p1902
I4
tp1903
a(S'frugal'
p1904
I4
tp1905
a(S'general'
p1906
I4
tp1907
a(S'graciousne'
p1908
I4
tp1909
a(S'greatful)'
p1910
I4
tp1911
a(S'greatly'
p1912
I4
tp1913
a(S'hade'
p1914
I4
tp1915
a(S'heart-warming'
p1916
I4
tp1917
a(S'high'
p1918
I4
tp1919
a(S'homely'
p1920
I4
tp1921
a(S'hometown'
p1922
I4
tp1923
a(S'humor'
p1924
I4
tp1925
a(S'include'
p1926
I4
tp1927
a(S'included'
p1928
I4
tp1929
a(S'interesting'
p1930
I4
tp1931
a(S'le'
p1932
I4
tp1933
a(S'lifting'
p1934
I4
tp1935
a(S'listened'
p1936
I4
tp1937
a(S'lively'
p1938
I4
tp1939
a(S'looked'
p1940
I4
tp1941
a(S'love.in'
p1942
I4
tp1943
a(S'loved.the'
p1944
I4
tp1945
a(S'mad'
p1946
I4
tp1947
a(S'man'
p1948
I4
tp1949
a(S'meaningful'
p1950
I4
tp1951
a(S'mellow'
p1952
I4
tp1953
a(S'met'
p1954
I4
tp1955
a(S"narrator'"
p1956
I4
tp1957
a(S'nationality'
p1958
I4
tp1959
a(S'num5'
p1960
I4
tp1961
a(S'obviously'
p1962
I4
tp1963
a(S'one-room'
p1964
I4
tp1965
a(S'oppertunitie'
p1966
I4
tp1967
a(S'overcome'
p1968
I4
tp1969
a(S'parenthesi'
p1970
I4
tp1971
a(S'party'
p1972
I4
tp1973
a(S'poverty'
p1974
I4
tp1975
a(S'qualitie'
p1976
I4
tp1977
a(S'racial'
p1978
I4
tp1979
a(S'raise'
p1980
I4
tp1981
a(S'realative'
p1982
I4
tp1983
a(S'regularly'
p1984
I4
tp1985
a(S'respected'
p1986
I4
tp1987
a(S'respectful'
p1988
I4
tp1989
a(S'risked'
p1990
I4
tp1991
a(S'rodriguez.in'
p1992
I4
tp1993
a(S'sacraficed'
p1994
I4
tp1995
a(S'school'
p1996
I4
tp1997
a(S'secondly'
p1998
I4
tp1999
a(S'shelter'
p2000
I4
tp2001
a(S'sibling'
p2002
I4
tp2003
a(S'slightly'
p2004
I4
tp2005
a(S'soft'
p2006
I4
tp2007
a(S'solidary'
p2008
I4
tp2009
a(S'somewhere'
p2010
I4
tp2011
a(S'spend'
p2012
I4
tp2013
a(S'spoke'
p2014
I4
tp2015
a(S'stand'
p2016
I4
tp2017
a(S'strongly'
p2018
I4
tp2019
a(S'struggling'
p2020
I4
tp2021
a(S'sure'
p2022
I4
tp2023
a(S'surround'
p2024
I4
tp2025
a(S'surrounding'
p2026
I4
tp2027
a(S'them.in'
p2028
I4
tp2029
a(S'themself'
p2030
I4
tp2031
a(S"there'"
p2032
I4
tp2033
a(S"they've"
p2034
I4
tp2035
a(S'throught'
p2036
I4
tp2037
a(S'together.the'
p2038
I4
tp2039
a(S'truely'
p2040
I4
tp2041
a(S'uncle'
p2042
I4
tp2043
a(S'variety'
p2044
I4
tp2045
a(S'verry'
p2046
I4
tp2047
a(S'view'
p2048
I4
tp2049
a(S'vivid'
p2050
I4
tp2051
a(S'wanting'
p2052
I4
tp2053
a(S'whoever'
p2054
I4
tp2055
a(S'wich'
p2056
I4
tp2057
a(S'wonder'
p2058
I4
tp2059
a(S'worry'
p2060
I4
tp2061
a(S"'narciso"
p2062
I3
tp2063
a(S'(@caps3'
p2064
I3
tp2065
a(S'(my'
p2066
I3
tp2067
a(S'[his]'
p2068
I3
tp2069
a(S'accomplished'
p2070
I3
tp2071
a(S'accomplishment'
p2072
I3
tp2073
a(S'acted'
p2074
I3
tp2075
a(S'added'
p2076
I3
tp2077
a(S'adult'
p2078
I3
tp2079
a(S'afraid'
p2080
I3
tp2081
a(S'american'
p2082
I3
tp2083
a(S'among'
p2084
I3
tp2085
a(S"aren't"
p2086
I3
tp2087
a(S'art'
p2088
I3
tp2089
a(S'author.in'
p2090
I3
tp2091
a(S'backround'
p2092
I3
tp2093
a(S'bertha'
p2094
I3
tp2095
a(S'blonde-brick'
p2096
I3
tp2097
a(S'blood-related'
p2098
I3
tp2099
a(S'blue'
p2100
I3
tp2101
a(S'bought'
p2102
I3
tp2103
a(S'busy'
p2104
I3
tp2105
a(S'calming'
p2106
I3
tp2107
a(S'cannot'
p2108
I3
tp2109
a(S'caps1.s.a'
p2110
I3
tp2111
a(S'careful'
p2112
I3
tp2113
a(S'challenge'
p2114
I3
tp2115
a(S"child'"
p2116
I3
tp2117
a(S'closene'
p2118
I3
tp2119
a(S'clue'
p2120
I3
tp2121
a(S'color'
p2122
I3
tp2123
a(S'colorful'
p2124
I3
tp2125
a(S'completely'
p2126
I3
tp2127
a(S'condition'
p2128
I3
tp2129
a(S'contrary'
p2130
I3
tp2131
a(S'conveyed'
p2132
I3
tp2133
a(S'cultra'
p2134
I3
tp2135
a(S'deal'
p2136
I3
tp2137
a(S'deserve'
p2138
I3
tp2139
a(S'detailed'
p2140
I3
tp2141
a(S'determination'
p2142
I3
tp2143
a(S'determined'
p2144
I3
tp2145
a(S'discribe'
p2146
I3
tp2147
a(S'diverse'
p2148
I3
tp2149
a(S'earth'
p2150
I3
tp2151
a(S'easier'
p2152
I3
tp2153
a(S'either'
p2154
I3
tp2155
a(S'emotional'
p2156
I3
tp2157
a(S'ended'
p2158
I3
tp2159
a(S'established'
p2160
I3
tp2161
a(S'eternaly'
p2162
I3
tp2163
a(S'expressing'
p2164
I3
tp2165
a(S'extend'
p2166
I3
tp2167
a(S'eye'
p2168
I3
tp2169
a(S'faimly'
p2170
I3
tp2171
a(S'far'
p2172
I3
tp2173
a(S'feast)'
p2174
I3
tp2175
a(S'feed'
p2176
I3
tp2177
a(S'fell'
p2178
I3
tp2179
a(S'fight'
p2180
I3
tp2181
a(S'filling'
p2182
I3
tp2183
a(S'flow'
p2184
I3
tp2185
a(S'focu'
p2186
I3
tp2187
a(S'focuse'
p2188
I3
tp2189
a(S'friend)'
p2190
I3
tp2191
a(S'friendline'
p2192
I3
tp2193
a(S'furthermore'
p2194
I3
tp2195
a(S'gather'
p2196
I3
tp2197
a(S'generally'
p2198
I3
tp2199
a(S'gone'
p2200
I3
tp2201
a(S'grace'
p2202
I3
tp2203
a(S'graditude'
p2204
I3
tp2205
a(S'grand'
p2206
I3
tp2207
a(S'grandfather'
p2208
I3
tp2209
a(S'grate'
p2210
I3
tp2211
a(S'grateful.)'
p2212
I3
tp2213
a(S'greatful.in'
p2214
I3
tp2215
a(S'greatful.the'
p2216
I3
tp2217
a(S'hapine'
p2218
I3
tp2219
a(S'happend'
p2220
I3
tp2221
a(S'happily'
p2222
I3
tp2223
a(S'happy.in'
p2224
I3
tp2225
a(S'hard-working'
p2226
I3
tp2227
a(S'he/she'
p2228
I3
tp2229
a(S'him/her'
p2230
I3
tp2231
a(S'home".the'
p2232
I3
tp2233
a(S'human'
p2234
I3
tp2235
a(S'imagery'
p2236
I3
tp2237
a(S'imagrent'
p2238
I3
tp2239
a(S'immigrate'
p2240
I3
tp2241
a(S'impact'
p2242
I3
tp2243
a(S'importantly'
p2244
I3
tp2245
a(S'impression'
p2246
I3
tp2247
a(S'in.the'
p2248
I3
tp2249
a(S'influence'
p2250
I3
tp2251
a(S'inspired'
p2252
I3
tp2253
a(S'inspiring.the'
p2254
I3
tp2255
a(S'inspirring'
p2256
I3
tp2257
a(S'interested'
p2258
I3
tp2259
a(S'is.in'
p2260
I3
tp2261
a(S'isnt'
p2262
I3
tp2263
a(S'join'
p2264
I3
tp2265
a(S'joyfull'
p2266
I3
tp2267
a(S'joyou'
p2268
I3
tp2269
a(S'keeping'
p2270
I3
tp2271
a(S"landlord'"
p2272
I3
tp2273
a(S'laughing'
p2274
I3
tp2275
a(S'laughter'
p2276
I3
tp2277
a(S'level'
p2278
I3
tp2279
a(S'lif'
p2280
I3
tp2281
a(S'light-hearted'
p2282
I3
tp2283
a(S'likely'
p2284
I3
tp2285
a(S'list'
p2286
I3
tp2287
a(S'located'
p2288
I3
tp2289
a(S'lord'
p2290
I3
tp2291
a(S'maybe'
p2292
I3
tp2293
a(S'memoir.i'
p2294
I3
tp2295
a(S'memoir.narciso'
p2296
I3
tp2297
a(S'memoir.thi'
p2298
I3
tp2299
a(S'memoire'
p2300
I3
tp2301
a(S'memor'
p2302
I3
tp2303
a(S'mix'
p2304
I3
tp2305
a(S'moodthe'
p2306
I3
tp2307
a(S'nearby'
p2308
I3
tp2309
a(S'negitive'
p2310
I3
tp2311
a(S'none'
p2312
I3
tp2313
a(S'normal'
p2314
I3
tp2315
a(S'now.the'
p2316
I3
tp2317
a(S'number'
p2318
I3
tp2319
a(S'offer'
p2320
I3
tp2321
a(S'opportunitie'
p2322
I3
tp2323
a(S"organization1'"
p2324
I3
tp2325
a(S'organization2'
p2326
I3
tp2327
a(S'p'
I3
tp2328
a(S'paradise'
p2329
I3
tp2330
a(S'parents.in'
p2331
I3
tp2332
a(S'particular'
p2333
I3
tp2334
a(S'paying'
p2335
I3
tp2336
a(S'perent'
p2337
I3
tp2338
a(S'perfect'
p2339
I3
tp2340
a(S'pick'
p2341
I3
tp2342
a(S'picked'
p2343
I3
tp2344
a(S'play'
p2345
I3
tp2346
a(S'pleased'
p2347
I3
tp2348
a(S'plu'
p2349
I3
tp2350
a(S'portrait'
p2351
I3
tp2352
a(S'possible'
p2353
I3
tp2354
a(S'proud.the'
p2355
I3
tp2356
a(S'purpose'
p2357
I3
tp2358
a(S'quit'
p2359
I3
tp2360
a(S'quotation'
p2361
I3
tp2362
a(S'random'
p2363
I3
tp2364
a(S"reader'"
p2365
I3
tp2366
a(S'reader.the'
p2367
I3
tp2368
a(S'realy'
p2369
I3
tp2370
a(S'recognize'
p2371
I3
tp2372
a(S'refuge'
p2373
I3
tp2374
a(S'rely'
p2375
I3
tp2376
a(S'repetition'
p2377
I3
tp2378
a(S'return'
p2379
I3
tp2380
a(S'risk'
p2381
I3
tp2382
a(S'rodriguez)'
p2383
I3
tp2384
a(S'rosemary'
p2385
I3
tp2386
a(S'sake'
p2387
I3
tp2388
a(S'satisfied'
p2389
I3
tp2390
a(S'saw'
p2391
I3
tp2392
a(S'scene'
p2393
I3
tp2394
a(S'security'
p2395
I3
tp2396
a(S'segragation'
p2397
I3
tp2398
a(S'sleep'
p2399
I3
tp2400
a(S'speaking'
p2401
I3
tp2402
a(S'specifically'
p2403
I3
tp2404
a(S'stick'
p2405
I3
tp2406
a(S'stood'
p2407
I3
tp2408
a(S'story.in'
p2409
I3
tp2410
a(S'succe'
p2411
I3
tp2412
a(S'sum'
p2413
I3
tp2414
a(S'survive'
p2415
I3
tp2416
a(S'survived'
p2417
I3
tp2418
a(S'teache'
p2419
I3
tp2420
a(S'textual'
p2421
I3
tp2422
a(S'tha'
p2423
I3
tp2424
a(S'thankful.the'
p2425
I3
tp2426
a(S'time.the'
p2427
I3
tp2428
a(S'topic'
p2429
I3
tp2430
a(S'touch'
p2431
I3
tp2432
a(S'touche'
p2433
I3
tp2434
a(S'touched'
p2435
I3
tp2436
a(S'tring'
p2437
I3
tp2438
a(S'undefind'
p2439
I3
tp2440
a(S'unified'
p2441
I3
tp2442
a(S'unselfish'
p2443
I3
tp2444
a(S'up.the'
p2445
I3
tp2446
a(S'us."the'
p2447
I3
tp2448
a(S'visitor'
p2449
I3
tp2450
a(S'vividly'
p2451
I3
tp2452
a(S'wealthy'
p2453
I3
tp2454
a(S'wen'
p2455
I3
tp2456
a(S'willingne'
p2457
I3
tp2458
a(S'wished'
p2459
I3
tp2460
a(S'wondering'
p2461
I3
tp2462
a(S'worryle'
p2463
I3
tp2464
a(S'worth'
p2465
I3
tp2466
a(S'you.the'
p2467
I3
tp2468
a(S'(@caps2'
p2469
I2
tp2470
a(S'(@num2'
p2471
I2
tp2472
a(S'(cuban'
p2473
I2
tp2474
a(S'(for'
p2475
I2
tp2476
a(S'(in'
p2477
I2
tp2478
a(S'(narciso'
p2479
I2
tp2480
a(S'(p'
p2481
I2
tp2482
a(S'(they)'
p2483
I2
tp2484
a(S'--'
p2485
I2
tp2486
a(S'-paragraph'
p2487
I2
tp2488
a(S'[pg'
p2489
I2
tp2490
a(S'abot'
p2491
I2
tp2492
a(S'absolute'
p2493
I2
tp2494
a(S'adjust'
p2495
I2
tp2496
a(S'admiration.the'
p2497
I2
tp2498
a(S'admiring'
p2499
I2
tp2500
a(S'affection'
p2501
I2
tp2502
a(S'alittle'
p2503
I2
tp2504
a(S'alive'
p2505
I2
tp2506
a(S'alone'
p2507
I2
tp2508
a(S'alwase'
p2509
I2
tp2510
a(S'amazed'
p2511
I2
tp2512
a(S'and/or'
p2513
I2
tp2514
a(S'anew'
p2515
I2
tp2516
a(S"anyone'"
p2517
I2
tp2518
a(S'anyway'
p2519
I2
tp2520
a(S'anywhere'
p2521
I2
tp2522
a(S'apreciate'
p2523
I2
tp2524
a(S'apreciated'
p2525
I2
tp2526
a(S'arent'
p2527
I2
tp2528
a(S'arrive'
p2529
I2
tp2530
a(S'artical'
p2531
I2
tp2532
a(S'aside'
p2533
I2
tp2534
a(S'aspect'
p2535
I2
tp2536
a(S'associate'
p2537
I2
tp2538
a(S'ather'
p2539
I2
tp2540
a(S'athor'
p2541
I2
tp2542
a(S'auother'
p2543
I2
tp2544
a(S'author)'
p2545
I2
tp2546
a(S'author.i'
p2547
I2
tp2548
a(S'authour'
p2549
I2
tp2550
a(S'base'
p2551
I2
tp2552
a(S'bat'
p2553
I2
tp2554
a(S'becase'
p2555
I2
tp2556
a(S'beggining'
p2557
I2
tp2558
a(S'belive'
p2559
I2
tp2560
a(S'belonging'
p2561
I2
tp2562
a(S'better.the'
p2563
I2
tp2564
a(S'birth'
p2565
I2
tp2566
a(S'blanket'
p2567
I2
tp2568
a(S'blood-relative'
p2569
I2
tp2570
a(S'bottom'
p2571
I2
tp2572
a(S'bunch'
p2573
I2
tp2574
a(S'buy'
p2575
I2
tp2576
a(S'cant'
p2577
I2
tp2578
a(S'caps1.the'
p2579
I2
tp2580
a(S'caps2.s'
p2581
I2
tp2582
a(S'caps7'
p2583
I2
tp2584
a(S'care.the'
p2585
I2
tp2586
a(S'carreer'
p2587
I2
tp2588
a(S'carried'
p2589
I2
tp2590
a(S'certainly'
p2591
I2
tp2592
a(S"character'"
p2593
I2
tp2594
a(S'cheerfull'
p2595
I2
tp2596
a(S'cheerfullne'
p2597
I2
tp2598
a(S'child.the'
p2599
I2
tp2600
a(S'claim'
p2601
I2
tp2602
a(S'climate'
p2603
I2
tp2604
a(S'cold'
p2605
I2
tp2606
a(S'combined'
p2607
I2
tp2608
a(S'comfortting'
p2609
I2
tp2610
a(S'common'
p2611
I2
tp2612
a(S'compasion'
p2613
I2
tp2614
a(S'complement'
p2615
I2
tp2616
a(S'concept'
p2617
I2
tp2618
a(S'concidered'
p2619
I2
tp2620
a(S'conflict'
p2621
I2
tp2622
a(S'confusing'
p2623
I2
tp2624
a(S'connection'
p2625
I2
tp2626
a(S'considerate'
p2627
I2
tp2628
a(S'content'
p2629
I2
tp2630
a(S'contentment'
p2631
I2
tp2632
a(S'contributed'
p2633
I2
tp2634
a(S'corageou'
p2635
I2
tp2636
a(S'cost'
p2637
I2
tp2638
a(S'cosy'
p2639
I2
tp2640
a(S'couage'
p2641
I2
tp2642
a(S'couragou'
p2643
I2
tp2644
a(S'created.in'
p2645
I2
tp2646
a(S'cubic'
p2647
I2
tp2648
a(S"cultra'"
p2649
I2
tp2650
a(S'cultral'
p2651
I2
tp2652
a(S'culture.the'
p2653
I2
tp2654
a(S'culturethe'
p2655
I2
tp2656
a(S'curiou'
p2657
I2
tp2658
a(S'dancing'
p2659
I2
tp2660
a(S'dearly'
p2661
I2
tp2662
a(S'decided'
p2663
I2
tp2664
a(S'decorated'
p2665
I2
tp2666
a(S'dedicated'
p2667
I2
tp2668
a(S'deeply'
p2669
I2
tp2670
a(S'defenition'
p2671
I2
tp2672
a(S'definatly'
p2673
I2
tp2674
a(S'definitely'
p2675
I2
tp2676
a(S'deliciou'
p2677
I2
tp2678
a(S'depict'
p2679
I2
tp2680
a(S'descent'
p2681
I2
tp2682
a(S'design'
p2683
I2
tp2684
a(S'diction'
p2685
I2
tp2686
a(S'died'
p2687
I2
tp2688
a(S'diffucult'
p2689
I2
tp2690
a(S'discribing'
p2691
I2
tp2692
a(S'discusse'
p2693
I2
tp2694
a(S'diversity'
p2695
I2
tp2696
a(S'doesnt'
p2697
I2
tp2698
a(S'dore'
p2699
I2
tp2700
a(S'educational'
p2701
I2
tp2702
a(S'emotionally'
p2703
I2
tp2704
a(S'encompa'
p2705
I2
tp2706
a(S'enhance'
p2707
I2
tp2708
a(S'entertaining'
p2709
I2
tp2710
a(S'environment.the'
p2711
I2
tp2712
a(S'ethnicity'
p2713
I2
tp2714
a(S'everyday'
p2715
I2
tp2716
a(S'everyone.the'
p2717
I2
tp2718
a(S'evry'
p2719
I2
tp2720
a(S'ex'
p2721
I2
tp2722
a(S'example;'
p2723
I2
tp2724
a(S'excellent'
p2725
I2
tp2726
a(S'explination'
p2727
I2
tp2728
a(S'externally'
p2729
I2
tp2730
a(S'extra'
p2731
I2
tp2732
a(S'extreme'
p2733
I2
tp2734
a(S'factor'
p2735
I2
tp2736
a(S'fairly'
p2737
I2
tp2738
a(S'famialy'
p2739
I2
tp2740
a(S'familey'
p2741
I2
tp2742
a(S'familly'
p2743
I2
tp2744
a(S'family.he'
p2745
I2
tp2746
a(S'family.narciso'
p2747
I2
tp2748
a(S'famou'
p2749
I2
tp2750
a(S'fancy'
p2751
I2
tp2752
a(S'felted'
p2753
I2
tp2754
a(S'festivity'
p2755
I2
tp2756
a(S'fit'
p2757
I2
tp2758
a(S'fixed'
p2759
I2
tp2760
a(S'flowing'
p2761
I2
tp2762
a(S'focused'
p2763
I2
tp2764
a(S'follow'
p2765
I2
tp2766
a(S'followed'
p2767
I2
tp2768
a(S'for.the'
p2769
I2
tp2770
a(S'foreign'
p2771
I2
tp2772
a(S'foreshadowing'
p2773
I2
tp2774
a(S'forget.the'
p2775
I2
tp2776
a(S'forgot'
p2777
I2
tp2778
a(S'fortunate'
p2779
I2
tp2780
a(S'forward'
p2781
I2
tp2782
a(S'fullne'
p2783
I2
tp2784
a(S'genuinely'
p2785
I2
tp2786
a(S'golden'
p2787
I2
tp2788
a(S'good.the'
p2789
I2
tp2790
a(S'graditude.the'
p2791
I2
tp2792
a(S'gratitude.the'
p2793
I2
tp2794
a(S'great.in'
p2795
I2
tp2796
a(S'greatest'
p2797
I2
tp2798
a(S'guest'
p2799
I2
tp2800
a(S'guy'
p2801
I2
tp2802
a(S"hadn't"
p2803
I2
tp2804
a(S'hapene'
p2805
I2
tp2806
a(S'happening'
p2807
I2
tp2808
a(S'happiness.in'
p2809
I2
tp2810
a(S'have.the'
p2811
I2
tp2812
a(S"he'll"
p2813
I2
tp2814
a(S'healthy'
p2815
I2
tp2816
a(S'heard'
p2817
I2
tp2818
a(S'hearted'
p2819
I2
tp2820
a(S'hearty'
p2821
I2
tp2822
a(S'helpfull'
p2823
I2
tp2824
a(S"here'"
p2825
I2
tp2826
a(S'highly'
p2827
I2
tp2828
a(S'him;'
p2829
I2
tp2830
a(S'himthe'
p2831
I2
tp2832
a(S'holding'
p2833
I2
tp2834
a(S'holiday'
p2835
I2
tp2836
a(S'hom'
p2837
I2
tp2838
a(S'home."for'
p2839
I2
tp2840
a(S'home."in'
p2841
I2
tp2842
a(S'homeland'
p2843
I2
tp2844
a(S'homethe'
p2845
I2
tp2846
a(S'honesty'
p2847
I2
tp2848
a(S'hopeful'
p2849
I2
tp2850
a(S'hopefull'
p2851
I2
tp2852
a(S'hurt'
p2853
I2
tp2854
a(S"i'd"
p2855
I2
tp2856
a(S'illustrate'
p2857
I2
tp2858
a(S'im'
p2859
I2
tp2860
a(S'imagination'
p2861
I2
tp2862
a(S'imigrent'
p2863
I2
tp2864
a(S'impacted'
p2865
I2
tp2866
a(S'import'
p2867
I2
tp2868
a(S'inspiration'
p2869
I2
tp2870
a(S'inspirational'
p2871
I2
tp2872
a(S'inspiring'
p2873
I2
tp2874
a(S'internally'
p2875
I2
tp2876
a(S'intresting'
p2877
I2
tp2878
a(S'inviting.the'
p2879
I2
tp2880
a(S'involved'
p2881
I2
tp2882
a(S'involvement'
p2883
I2
tp2884
a(S'ive'
p2885
I2
tp2886
a(S'joyfulne'
p2887
I2
tp2888
a(S'juanita'
p2889
I2
tp2890
a(S'key'
p2891
I2
tp2892
a(S'kinda'
p2893
I2
tp2894
a(S'kitchen;'
p2895
I2
tp2896
a(S'larger'
p2897
I2
tp2898
a(S'laugh'
p2899
I2
tp2900
a(S'learne'
p2901
I2
tp2902
a(S'lend'
p2903
I2
tp2904
a(S'life.narciso'
p2905
I2
tp2906
a(S'lifetime'
p2907
I2
tp2908
a(S'like.the'
p2909
I2
tp2910
a(S"lot'"
p2911
I2
tp2912
a(S"love.'"
p2913
I2
tp2914
a(S'loving.the'
p2915
I2
tp2916
a(S'lovingly'
p2917
I2
tp2918
a(S'lovingne'
p2919
I2
tp2920
a(S'loyalty'
p2921
I2
tp2922
a(S'luck'
p2923
I2
tp2924
a(S'makeing'
p2925
I2
tp2926
a(S'manner'
p2927
I2
tp2928
a(S'material'
p2929
I2
tp2930
a(S'matters.the'
p2931
I2
tp2932
a(S'mellowish'
p2933
I2
tp2934
a(S'memoir.another'
p2935
I2
tp2936
a(S'memoir.one'
p2937
I2
tp2938
a(S'memoirin'
p2939
I2
tp2940
a(S'memorable'
p2941
I2
tp2942
a(S'memore'
p2943
I2
tp2944
a(S'mental'
p2945
I2
tp2946
a(S'mentioning'
p2947
I2
tp2948
a(S'misse'
p2949
I2
tp2950
a(S'modesty'
p2951
I2
tp2952
a(S'mood.narciso'
p2953
I2
tp2954
a(S'moodin'
p2955
I2
tp2956
a(S'more.in'
p2957
I2
tp2958
a(S'motivative'
p2959
I2
tp2960
a(S'movie'
p2961
I2
tp2962
a(S'musical'
p2963
I2
tp2964
a(S'name'
p2965
I2
tp2966
a(S'narrarator'
p2967
I2
tp2968
a(S'nationalitie'
p2969
I2
tp2970
a(S'ne'
p2971
I2
tp2972
a(S'neiborhood'
p2973
I2
tp2974
a(S'neigh'
p2975
I2
tp2976
a(S'neighborhood.the'
p2977
I2
tp2978
a(S'neighborly'
p2979
I2
tp2980
a(S'neighbors.the'
p2981
I2
tp2982
a(S'night'
p2983
I2
tp2984
a(S'non'
p2985
I2
tp2986
a(S'non-\x96'
p2987
I2
tp2988
a(S'now.in'
p2989
I2
tp2990
a(S'num1-room'
p2991
I2
tp2992
a(S'num1.in'
p2993
I2
tp2994
a(S'num2-year-old'
p2995
I2
tp2996
a(S'numerou'
p2997
I2
tp2998
a(S'occasion'
p2999
I2
tp3000
a(S'okay'
p3001
I2
tp3002
a(S'older'
p3003
I2
tp3004
a(S"one'"
p3005
I2
tp3006
a(S'one.the'
p3007
I2
tp3008
a(S'opinon'
p3009
I2
tp3010
a(S'oppertunity'
p3011
I2
tp3012
a(S'oppurtunitie'
p3013
I2
tp3014
a(S'optimistic'
p3015
I2
tp3016
a(S"organization2'"
p3017
I2
tp3018
a(S'oriented'
p3019
I2
tp3020
a(S'other.in'
p3021
I2
tp3022
a(S'other.the'
p3023
I2
tp3024
a(S'outlook'
p3025
I2
tp3026
a(S'overcame'
p3027
I2
tp3028
a(S'pa'
p3029
I2
tp3030
a(S'painted'
p3031
I2
tp3032
a(S'para'
p3033
I2
tp3034
a(S'parant'
p3035
I2
tp3036
a(S'parents.narciso'
p3037
I2
tp3038
a(S'parents;'
p3039
I2
tp3040
a(S'parrent'
p3041
I2
tp3042
a(S'pay'
p3043
I2
tp3044
a(S'peaceful.the'
p3045
I2
tp3046
a(S'peacful'
p3047
I2
tp3048
a(S'people.in'
p3049
I2
tp3050
a(S'persevere'
p3051
I2
tp3052
a(S'persevered'
p3053
I2
tp3054
a(S'person.the'
p3055
I2
tp3056
a(S'pharagraph'
p3057
I2
tp3058
a(S'physical'
p3059
I2
tp3060
a(S'playful'
p3061
I2
tp3062
a(S'plenty'
p3063
I2
tp3064
a(S'poem'
p3065
I2
tp3066
a(S'possessed'
p3067
I2
tp3068
a(S'praising'
p3069
I2
tp3070
a(S'preciou'
p3071
I2
tp3072
a(S'presented'
p3073
I2
tp3074
a(S'progresse'
p3075
I2
tp3076
a(S'protected'
p3077
I2
tp3078
a(S'protrayed'
p3079
I2
tp3080
a(S'proudne'
p3081
I2
tp3082
a(S'pround'
p3083
I2
tp3084
a(S'pure'
p3085
I2
tp3086
a(S'pursuit'
p3087
I2
tp3088
a(S'question'
p3089
I2
tp3090
a(S'raising'
p3091
I2
tp3092
a(S'rarely'
p3093
I2
tp3094
a(S'read.the'
p3095
I2
tp3096
a(S'realized'
p3097
I2
tp3098
a(S'received'
p3099
I2
tp3100
a(S'recognized'
p3101
I2
tp3102
a(S'recreate'
p3103
I2
tp3104
a(S'regardle'
p3105
I2
tp3106
a(S'regular'
p3107
I2
tp3108
a(S'relaxe'
p3109
I2
tp3110
a(S'releavant'
p3111
I2
tp3112
a(S'relevant'
p3113
I2
tp3114
a(S'religion'
p3115
I2
tp3116
a(S'relitive'
p3117
I2
tp3118
a(S'repeat'
p3119
I2
tp3120
a(S'repeated'
p3121
I2
tp3122
a(S'responsible'
p3123
I2
tp3124
a(S'role'
p3125
I2
tp3126
a(S'run'
p3127
I2
tp3128
a(S'sacrifice."the'
p3129
I2
tp3130
a(S'sacrifise'
p3131
I2
tp3132
a(S'sad.in'
p3133
I2
tp3134
a(S'sad.the'
p3135
I2
tp3136
a(S'sadine'
p3137
I2
tp3138
a(S'saing'
p3139
I2
tp3140
a(S'scentence'
p3141
I2
tp3142
a(S'scratch'
p3143
I2
tp3144
a(S'secure'
p3145
I2
tp3146
a(S'seeing'
p3147
I2
tp3148
a(S'segrigation'
p3149
I2
tp3150
a(S'send'
p3151
I2
tp3152
a(S'senser'
p3153
I2
tp3154
a(S'sent'
p3155
I2
tp3156
a(S'sentimental'
p3157
I2
tp3158
a(S'serene'
p3159
I2
tp3160
a(S'shaped'
p3161
I2
tp3162
a(S'shoe'
p3163
I2
tp3164
a(S"shouldn't"
p3165
I2
tp3166
a(S'showe'
p3167
I2
tp3168
a(S'side'
p3169
I2
tp3170
a(S'similar'
p3171
I2
tp3172
a(S'sitting'
p3173
I2
tp3174
a(S'size'
p3175
I2
tp3176
a(S'skilled'
p3177
I2
tp3178
a(S"skills'"
p3179
I2
tp3180
a(S'smooth'
p3181
I2
tp3182
a(S'social'
p3183
I2
tp3184
a(S'sorrow'
p3185
I2
tp3186
a(S'sotheir'
p3187
I2
tp3188
a(S'speake'
p3189
I2
tp3190
a(S'speaker'
p3191
I2
tp3192
a(S'spending'
p3193
I2
tp3194
a(S'spent'
p3195
I2
tp3196
a(S'step'
p3197
I2
tp3198
a(S'stilled'
p3199
I2
tp3200
a(S'stop'
p3201
I2
tp3202
a(S'stranger'
p3203
I2
tp3204
a(S'strenght'
p3205
I2
tp3206
a(S'stressed'
p3207
I2
tp3208
a(S'strongest'
p3209
I2
tp3210
a(S'style'
p3211
I2
tp3212
a(S'succesful'
p3213
I2
tp3214
a(S'suggest'
p3215
I2
tp3216
a(S'supporting'
p3217
I2
tp3218
a(S'supportive'
p3219
I2
tp3220
a(S'supposed'
p3221
I2
tp3222
a(S'talent'
p3223
I2
tp3224
a(S"talk'"
p3225
I2
tp3226
a(S'tall'
p3227
I2
tp3228
a(S'term'
p3229
I2
tp3230
a(S'thankful)'
p3231
I2
tp3232
a(S'thankfullne'
p3233
I2
tp3234
a(S'thare'
p3235
I2
tp3236
a(S'that.in'
p3237
I2
tp3238
a(S'thay'
p3239
I2
tp3240
a(S'them.the'
p3241
I2
tp3242
a(S'themthe'
p3243
I2
tp3244
a(S"they'd"
p3245
I2
tp3246
a(S'thir'
p3247
I2
tp3248
a(S'thogh'
p3249
I2
tp3250
a(S'through.the'
p3251
I2
tp3252
a(S'throw'
p3253
I2
tp3254
a(S'till'
p3255
I2
tp3256
a(S'times.the'
p3257
I2
tp3258
a(S'tingling'
p3259
I2
tp3260
a(S'tiny'
p3261
I2
tp3262
a(S'title'
p3263
I2
tp3264
a(S'today.the'
p3265
I2
tp3266
a(S'together.another'
p3267
I2
tp3268
a(S'tone.the'
p3269
I2
tp3270
a(S'too.in'
p3271
I2
tp3272
a(S'tought'
p3273
I2
tp3274
a(S'transition'
p3275
I2
tp3276
a(S'truley'
p3277
I2
tp3278
a(S'tward'
p3279
I2
tp3280
a(S'twenty'
p3281
I2
tp3282
a(S'two)'
p3283
I2
tp3284
a(S'underlying'
p3285
I2
tp3286
a(S'unexplainable'
p3287
I2
tp3288
a(S'unhappy'
p3289
I2
tp3290
a(S'unique'
p3291
I2
tp3292
a(S'unselfishne'
p3293
I2
tp3294
a(S'unwillingly'
p3295
I2
tp3296
a(S'unwitting'
p3297
I2
tp3298
a(S'up.another'
p3299
I2
tp3300
a(S'upstair'
p3301
I2
tp3302
a(S'usto'
p3303
I2
tp3304
a(S'valuable'
p3305
I2
tp3306
a(S'variou'
p3307
I2
tp3308
a(S'vibe'
p3309
I2
tp3310
a(S'vibrant'
p3311
I2
tp3312
a(S'violence'
p3313
I2
tp3314
a(S'w/'
p3315
I2
tp3316
a(S'way.the'
p3317
I2
tp3318
a(S'ways.in'
p3319
I2
tp3320
a(S'welcomeing'
p3321
I2
tp3322
a(S'went-'
p3323
I2
tp3324
a(S'wha'
p3325
I2
tp3326
a(S'whenever'
p3327
I2
tp3328
a(S'whether'
p3329
I2
tp3330
a(S'white'
p3331
I2
tp3332
a(S'witch'
p3333
I2
tp3334
a(S'wont'
p3335
I2
tp3336
a(S'worse'
p3337
I2
tp3338
a(S'wrong'
p3339
I2
tp3340
a(S'yelling'
p3341
I2
tp3342
a(S"you'll"
p3343
I2
tp3344
a(S"'"
I1
tp3345
a(S"'@num1"
p3346
I1
tp3347
a(S"'and"
p3348
I1
tp3349
a(S"'family.'"
p3350
I1
tp3351
a(S"'hand"
p3352
I1
tp3353
a(S"'here"
p3354
I1
tp3355
a(S"'home.'in"
p3356
I1
tp3357
a(S"'i"
p3358
I1
tp3359
a(S"'in"
p3360
I1
tp3361
a(S"'love"
p3362
I1
tp3363
a(S"'rich"
p3364
I1
tp3365
a(S"'warm'"
p3366
I1
tp3367
a(S'('
I1
tp3368
a(S'("surrogate'
p3369
I1
tp3370
a(S'(@caps1).in'
p3371
I1
tp3372
a(S'(@num1'
p3373
I1
tp3374
a(S'(@num2).the'
p3375
I1
tp3376
a(S'(@num4)'
p3377
I1
tp3378
a(S'(a'
p3379
I1
tp3380
a(S'(also'
p3381
I1
tp3382
a(S'(and)'
p3383
I1
tp3384
a(S'(baby'
p3385
I1
tp3386
a(S'(but)'
p3387
I1
tp3388
a(S'(cuba'
p3389
I1
tp3390
a(S'(custom'
p3391
I1
tp3392
a(S'(due'
p3393
I1
tp3394
a(S'(family)'
p3395
I1
tp3396
a(S'(figuratively)'
p3397
I1
tp3398
a(S'(grateful)'
p3399
I1
tp3400
a(S'(happiness)'
p3401
I1
tp3402
a(S'(happy'
p3403
I1
tp3404
a(S'(hi'
p3405
I1
tp3406
a(S'(i'
p3407
I1
tp3408
a(S"(landlord'"
p3409
I1
tp3410
a(S'(main'
p3411
I1
tp3412
a(S'(materialistically)'
p3413
I1
tp3414
a(S'(mostly'
p3415
I1
tp3416
a(S'(moving'
p3417
I1
tp3418
a(S'(multiple'
p3419
I1
tp3420
a(S'(new'
p3421
I1
tp3422
a(S'(or'
p3423
I1
tp3424
a(S'(p.@num1-13)'
p3425
I1
tp3426
a(S'(para'
p3427
I1
tp3428
a(S'(parents)'
p3429
I1
tp3430
a(S'(pg'
p3431
I1
tp3432
a(S'(readers)'
p3433
I1
tp3434
a(S'(seemed)'
p3435
I1
tp3436
a(S'(such'
p3437
I1
tp3438
a(S'(who'
p3439
I1
tp3440
a(S'(wich'
p3441
I1
tp3442
a(S'(with)'
p3443
I1
tp3444
a(S'(\xb6@num1'
p3445
I1
tp3446
a(S'***'
p3447
I1
tp3448
a(S'*****'
p3449
I1
tp3450
a(S'-knit'
p3451
I1
tp3452
a(S'2.@num1-5)'
p3453
I1
tp3454
a(S'[he]'
p3455
I1
tp3456
a(S'[her'
p3457
I1
tp3458
a(S'[him]'
p3459
I1
tp3460
a(S'[in'
p3461
I1
tp3462
a(S'[living]'
p3463
I1
tp3464
a(S'[narciso]'
p3465
I1
tp3466
a(S'[that'
p3467
I1
tp3468
a(S'[them]'
p3469
I1
tp3470
a(S'[they]'
p3471
I1
tp3472
a(S'abalt'
p3473
I1
tp3474
a(S'abandoned'
p3475
I1
tp3476
a(S'ability'
p3477
I1
tp3478
a(S'aborted'
p3479
I1
tp3480
a(S'abou'
p3481
I1
tp3482
a(S'abought'
p3483
I1
tp3484
a(S'about.based'
p3485
I1
tp3486
a(S'about.in'
p3487
I1
tp3488
a(S'about.the'
p3489
I1
tp3490
a(S'about;'
p3491
I1
tp3492
a(S'absolutely'
p3493
I1
tp3494
a(S'accepted'
p3495
I1
tp3496
a(S'accepting.in'
p3497
I1
tp3498
a(S'accomplish'
p3499
I1
tp3500
a(S'activitie'
p3501
I1
tp3502
a(S'activity'
p3503
I1
tp3504
a(S'additionally'
p3505
I1
tp3506
a(S'adjective'
p3507
I1
tp3508
a(S'admirable'
p3509
I1
tp3510
a(S'admirably'
p3511
I1
tp3512
a(S'admiredne'
p3513
I1
tp3514
a(S'admit'
p3515
I1
tp3516
a(S'adores)'
p3517
I1
tp3518
a(S'adversity'
p3519
I1
tp3520
a(S'afeeling'
p3521
I1
tp3522
a(S'affraid'
p3523
I1
tp3524
a(S'aford'
p3525
I1
tp3526
a(S'aformentioned'
p3527
I1
tp3528
a(S'again.the'
p3529
I1
tp3530
a(S'age.in'
p3531
I1
tp3532
a(S'agin'
p3533
I1
tp3534
a(S'ago'
p3535
I1
tp3536
a(S'ahead'
p3537
I1
tp3538
a(S'aid'
p3539
I1
tp3540
a(S'aimed'
p3541
I1
tp3542
a(S'aiming'
p3543
I1
tp3544
a(S'air/'
p3545
I1
tp3546
a(S'airanother'
p3547
I1
tp3548
a(S'airy'
p3549
I1
tp3550
a(S'al'
p3551
I1
tp3552
a(S'alegra'
p3553
I1
tp3554
a(S'alegrai'
p3555
I1
tp3556
a(S'alegria;'
p3557
I1
tp3558
a(S'alike'
p3559
I1
tp3560
a(S'alive;'
p3561
I1
tp3562
a(S'allmost'
p3563
I1
tp3564
a(S'allow'
p3565
I1
tp3566
a(S'allowing'
p3567
I1
tp3568
a(S'allthough'
p3569
I1
tp3570
a(S'alowed'
p3571
I1
tp3572
a(S'alright'
p3573
I1
tp3574
a(S'also,the'
p3575
I1
tp3576
a(S'alsome'
p3577
I1
tp3578
a(S'alsomene'
p3579
I1
tp3580
a(S'althroughout'
p3581
I1
tp3582
a(S'altogether'
p3583
I1
tp3584
a(S'alwaysed'
p3585
I1
tp3586
a(S'ambiance'
p3587
I1
tp3588
a(S'america.i'
p3589
I1
tp3590
a(S'amongst'
p3591
I1
tp3592
a(S'amusing'
p3593
I1
tp3594
a(S'andt'
p3595
I1
tp3596
a(S'andyour'
p3597
I1
tp3598
a(S'ane'
p3599
I1
tp3600
a(S'aneighborhood'
p3601
I1
tp3602
a(S'another.a'
p3603
I1
tp3604
a(S'another.in'
p3605
I1
tp3606
a(S'anybody,i'
p3607
I1
tp3608
a(S'anymore'
p3609
I1
tp3610
a(S'anyone.the'
p3611
I1
tp3612
a(S'anythin'
p3613
I1
tp3614
a(S'anyway)'
p3615
I1
tp3616
a(S'anywhat'
p3617
I1
tp3618
a(S'aour'
p3619
I1
tp3620
a(S'aparment'
p3621
I1
tp3622
a(S'apart-ment'
p3623
I1
tp3624
a(S'apartment.narciso'
p3625
I1
tp3626
a(S'apartment.the'
p3627
I1
tp3628
a(S'aperson'
p3629
I1
tp3630
a(S'apparent'
p3631
I1
tp3632
a(S'apparpment'
p3633
I1
tp3634
a(S'appartment.joy'
p3635
I1
tp3636
a(S'appealing'
p3637
I1
tp3638
a(S'appear'
p3639
I1
tp3640
a(S'appearance'
p3641
I1
tp3642
a(S'appeciation'
p3643
I1
tp3644
a(S'apperciation'
p3645
I1
tp3646
a(S'appericate'
p3647
I1
tp3648
a(S'appreciating'
p3649
I1
tp3650
a(S'appreciationthe'
p3651
I1
tp3652
a(S'apprecitive'
p3653
I1
tp3654
a(S'apprective.the'
p3655
I1
tp3656
a(S'appreiative'
p3657
I1
tp3658
a(S'appreicative'
p3659
I1
tp3660
a(S'appresiate'
p3661
I1
tp3662
a(S'appretiation'
p3663
I1
tp3664
a(S'appriciete'
p3665
I1
tp3666
a(S'appricietive'
p3667
I1
tp3668
a(S'apratment'
p3669
I1
tp3670
a(S'apreciation'
p3671
I1
tp3672
a(S'apreciative'
p3673
I1
tp3674
a(S'apreshiate'
p3675
I1
tp3676
a(S'apriciative'
p3677
I1
tp3678
a(S'apt'
p3679
I1
tp3680
a(S'ar'
p3681
I1
tp3682
a(S'are.by'
p3683
I1
tp3684
a(S'arei'
p3685
I1
tp3686
a(S'argue'
p3687
I1
tp3688
a(S'argument'
p3689
I1
tp3690
a(S'arival'
p3691
I1
tp3692
a(S'aromatic'
p3693
I1
tp3694
a(S'aroud'
p3695
I1
tp3696
a(S'array'
p3697
I1
tp3698
a(S'arriving'
p3699
I1
tp3700
a(S'arther'
p3701
I1
tp3702
a(S'arthur'
p3703
I1
tp3704
a(S'article.the'
p3705
I1
tp3706
a(S'articlein'
p3707
I1
tp3708
a(S'as.the'
p3709
I1
tp3710
a(S'asa'
p3711
I1
tp3712
a(S'ashamed'
p3713
I1
tp3714
a(S'ask'
p3715
I1
tp3716
a(S'asked'
p3717
I1
tp3718
a(S'assistance'
p3719
I1
tp3720
a(S'associated'
p3721
I1
tp3722
a(S'atl'
p3723
I1
tp3724
a(S'atmospher'
p3725
I1
tp3726
a(S'atmosphire'
p3727
I1
tp3728
a(S'atone'
p3729
I1
tp3730
a(S'atsmothsphere'
p3731
I1
tp3732
a(S'attend'
p3733
I1
tp3734
a(S'attitudenarciso'
p3735
I1
tp3736
a(S'audience'
p3737
I1
tp3738
a(S'aurther'
p3739
I1
tp3740
a(S'aurthor'
p3741
I1
tp3742
a(S'authar'
p3743
I1
tp3744
a(S'authe'
p3745
I1
tp3746
a(S'autherthere'
p3747
I1
tp3748
a(S'author.first'
p3749
I1
tp3750
a(S'author.thi'
p3751
I1
tp3752
a(S'author.when'
p3753
I1
tp3754
a(S'author?the'
p3755
I1
tp3756
a(S'authro'
p3757
I1
tp3758
a(S'authur'
p3759
I1
tp3760
a(S'autor'
p3761
I1
tp3762
a(S'available'
p3763
I1
tp3764
a(S'avereage'
p3765
I1
tp3766
a(S'aware'
p3767
I1
tp3768
a(S'baby-sitter'
p3769
I1
tp3770
a(S'back.in'
p3771
I1
tp3772
a(S'back.narciso'
p3773
I1
tp3774
a(S'badly'
p3775
I1
tp3776
a(S'badysitter'
p3777
I1
tp3778
a(S'balance'
p3779
I1
tp3780
a(S'basic'
p3781
I1
tp3782
a(S'basicaly'
p3783
I1
tp3784
a(S'bay'
p3785
I1
tp3786
a(S'be.the'
p3787
I1
tp3788
a(S'beacou'
p3789
I1
tp3790
a(S'bead'
p3791
I1
tp3792
a(S'beat'
p3793
I1
tp3794
a(S'beautifull'
p3795
I1
tp3796
a(S'beautifully'
p3797
I1
tp3798
a(S'becaause'
p3799
I1
tp3800
a(S'becacme'
p3801
I1
tp3802
a(S'becausein'
p3803
I1
tp3804
a(S'becom'
p3805
I1
tp3806
a(S'becoming'
p3807
I1
tp3808
a(S'becu'
p3809
I1
tp3810
a(S'becuase'
p3811
I1
tp3812
a(S'becuse'
p3813
I1
tp3814
a(S'bed'
p3815
I1
tp3816
a(S'begain'
p3817
I1
tp3818
a(S'began'
p3819
I1
tp3820
a(S'begging'
p3821
I1
tp3822
a(S'begginning'
p3823
I1
tp3824
a(S'behavior'
p3825
I1
tp3826
a(S'behind.in'
p3827
I1
tp3828
a(S'belief'
p3829
I1
tp3830
a(S'believed'
p3831
I1
tp3832
a(S'belong'
p3833
I1
tp3834
a(S'belonged'
p3835
I1
tp3836
a(S'benith'
p3837
I1
tp3838
a(S'beond'
p3839
I1
tp3840
a(S'beproud'
p3841
I1
tp3842
a(S'bestowed'
p3843
I1
tp3844
a(S'bet'
p3845
I1
tp3846
a(S'bethe'
p3847
I1
tp3848
a(S'better.all'
p3849
I1
tp3850
a(S'betterne'
p3851
I1
tp3852
a(S'betterthe'
p3853
I1
tp3854
a(S'bilingual'
p3855
I1
tp3856
a(S'biography'
p3857
I1
tp3858
a(S'birthday.in'
p3859
I1
tp3860
a(S'bitter'
p3861
I1
tp3862
a(S'bittersweet'
p3863
I1
tp3864
a(S'blend'
p3865
I1
tp3866
a(S'blended'
p3867
I1
tp3868
a(S'blessing'
p3869
I1
tp3870
a(S'blonde'
p3871
I1
tp3872
a(S'blooded'
p3873
I1
tp3874
a(S'blunt'
p3875
I1
tp3876
a(S'bolth'
p3877
I1
tp3878
a(S'boost'
p3879
I1
tp3880
a(S'bor'
p3881
I1
tp3882
a(S'border'
p3883
I1
tp3884
a(S'borhood'
p3885
I1
tp3886
a(S'boring)'
p3887
I1
tp3888
a(S'borned'
p3889
I1
tp3890
a(S'bot'
p3891
I1
tp3892
a(S'bothe'
p3893
I1
tp3894
a(S'bound'
p3895
I1
tp3896
a(S"boy'"
p3897
I1
tp3898
a(S'boy.the'
p3899
I1
tp3900
a(S'brand'
p3901
I1
tp3902
a(S'brang'
p3903
I1
tp3904
a(S'bravely'
p3905
I1
tp3906
a(S'briefly'
p3907
I1
tp3908
a(S'brightened'
p3909
I1
tp3910
a(S'brinck'
p3911
I1
tp3912
a(S'brotherhood'
p3913
I1
tp3914
a(S'brown'
p3915
I1
tp3916
a(S'built'
p3917
I1
tp3918
a(S'buring'
p3919
I1
tp3920
a(S'bye'
p3921
I1
tp3922
a(S'calling'
p3923
I1
tp3924
a(S'calm.in'
p3925
I1
tp3926
a(S'calm.the'
p3927
I1
tp3928
a(S'calmne'
p3929
I1
tp3930
a(S'camethey'
p3931
I1
tp3932
a(S'campfire'
p3933
I1
tp3934
a(S'cancelled'
p3935
I1
tp3936
a(S"caps1'll"
p3937
I1
tp3938
a(S"caps1't"
p3939
I1
tp3940
a(S'caps1-@caps2'
p3941
I1
tp3942
a(S'caps1.i'
p3943
I1
tp3944
a(S'caps1.s'
p3945
I1
tp3946
a(S'caps1.there'
p3947
I1
tp3948
a(S'caps10'
p3949
I1
tp3950
a(S'caps11'
p3951
I1
tp3952
a(S"caps2't"
p3953
I1
tp3954
a(S'caps2-out'
p3955
I1
tp3956
a(S'caps2.one'
p3957
I1
tp3958
a(S'caps2/heaven'
p3959
I1
tp3960
a(S'caps4)'
p3961
I1
tp3962
a(S'caps6)'
p3963
I1
tp3964
a(S'caps6.the'
p3965
I1
tp3966
a(S'caps8'
p3967
I1
tp3968
a(S'carage'
p3969
I1
tp3970
a(S'carange'
p3971
I1
tp3972
a(S'card'
p3973
I1
tp3974
a(S'careers,"said'
p3975
I1
tp3976
a(S'carefree'
p3977
I1
tp3978
a(S'careing.in'
p3979
I1
tp3980
a(S'caring.the'
p3981
I1
tp3982
a(S'caringne'
p3983
I1
tp3984
a(S'carring.the'
p3985
I1
tp3986
a(S'carry'
p3987
I1
tp3988
a(S'carryinging'
p3989
I1
tp3990
a(S'catalogue'
p3991
I1
tp3992
a(S'caught'
p3993
I1
tp3994
a(S'caused'
p3995
I1
tp3996
a(S'celibration'
p3997
I1
tp3998
a(S'centered'
p3999
I1
tp4000
a(S'central'
p4001
I1
tp4002
a(S'centuries.the'
p4003
I1
tp4004
a(S'certian'
p4005
I1
tp4006
a(S'certin'
p4007
I1
tp4008
a(S'chapter'
p4009
I1
tp4010
a(S'character)'
p4011
I1
tp4012
a(S'characteristic'
p4013
I1
tp4014
a(S'charector'
p4015
I1
tp4016
a(S'chareter'
p4017
I1
tp4018
a(S'cheerful.the'
p4019
I1
tp4020
a(S'cheery'
p4021
I1
tp4022
a(S'chemichal'
p4023
I1
tp4024
a(S'cheriste'
p4025
I1
tp4026
a(S'childhood.i'
p4027
I1
tp4028
a(S'childhood.the'
p4029
I1
tp4030
a(S'childhood;'
p4031
I1
tp4032
a(S'childre'
p4033
I1
tp4034
a(S'choose'
p4035
I1
tp4036
a(S'chunk'
p4037
I1
tp4038
a(S'citizen'
p4039
I1
tp4040
a(S'city'
p4041
I1
tp4042
a(S'claiming'
p4043
I1
tp4044
a(S'clam'
p4045
I1
tp4046
a(S'clean'
p4047
I1
tp4048
a(S'cleanest'
p4049
I1
tp4050
a(S'clear.based'
p4051
I1
tp4052
a(S'clearily'
p4053
I1
tp4054
a(S'closely'
p4055
I1
tp4056
a(S'closely-knit'
p4057
I1
tp4058
a(S'closing'
p4059
I1
tp4060
a(S'clothe'
p4061
I1
tp4062
a(S'coaster'
p4063
I1
tp4064
a(S'coforting'
p4065
I1
tp4066
a(S'column'
p4067
I1
tp4068
a(S'combining'
p4069
I1
tp4070
a(S'comer'
p4071
I1
tp4072
a(S'comforting.for'
p4073
I1
tp4074
a(S'comfy'
p4075
I1
tp4076
a(S'comment'
p4077
I1
tp4078
a(S'comming'
p4079
I1
tp4080
a(S'communal'
p4081
I1
tp4082
a(S'communicate'
p4083
I1
tp4084
a(S'communicating'
p4085
I1
tp4086
a(S'community.in'
p4087
I1
tp4088
a(S'community.rodriguez'
p4089
I1
tp4090
a(S'community.several'
p4091
I1
tp4092
a(S'community.the'
p4093
I1
tp4094
a(S'community.those'
p4095
I1
tp4096
a(S'compared'
p4097
I1
tp4098
a(S'comparing'
p4099
I1
tp4100
a(S'compassion.the'
p4101
I1
tp4102
a(S'compassionate'
p4103
I1
tp4104
a(S'compationate'
p4105
I1
tp4106
a(S'comperashin'
p4107
I1
tp4108
a(S'completed'
p4109
I1
tp4110
a(S'complimenting'
p4111
I1
tp4112
a(S'component'
p4113
I1
tp4114
a(S'composed'
p4115
I1
tp4116
a(S'composition'
p4117
I1
tp4118
a(S'comprehend'
p4119
I1
tp4120
a(S'comterable'
p4121
I1
tp4122
a(S'conection'
p4123
I1
tp4124
a(S'confidence'
p4125
I1
tp4126
a(S'confortible'
p4127
I1
tp4128
a(S'congregration'
p4129
I1
tp4130
a(S'connenity'
p4131
I1
tp4132
a(S'conrageou'
p4133
I1
tp4134
a(S'consequently'
p4135
I1
tp4136
a(S'consideration'
p4137
I1
tp4138
a(S'considerd'
p4139
I1
tp4140
a(S'considering'
p4141
I1
tp4142
a(S'consired'
p4143
I1
tp4144
a(S'constider'
p4145
I1
tp4146
a(S'construct'
p4147
I1
tp4148
a(S'consume'
p4149
I1
tp4150
a(S'contained'
p4151
I1
tp4152
a(S'containing'
p4153
I1
tp4154
a(S'content.community'
p4155
I1
tp4156
a(S'contentne'
p4157
I1
tp4158
a(S'continually'
p4159
I1
tp4160
a(S'continuosly'
p4161
I1
tp4162
a(S'contradictory'
p4163
I1
tp4164
a(S'contrast'
p4165
I1
tp4166
a(S'contributor'
p4167
I1
tp4168
a(S'contry'
p4169
I1
tp4170
a(S'cook)'
p4171
I1
tp4172
a(S'cook.the'
p4173
I1
tp4174
a(S'cooking)'
p4175
I1
tp4176
a(S'cooking."when'
p4177
I1
tp4178
a(S'cooking....passionate'
p4179
I1
tp4180
a(S'cool'
p4181
I1
tp4182
a(S'corage'
p4183
I1
tp4184
a(S'correct'
p4185
I1
tp4186
a(S'costum'
p4187
I1
tp4188
a(S'count'
p4189
I1
tp4190
a(S'countrary'
p4191
I1
tp4192
a(S'country.another'
p4193
I1
tp4194
a(S'country.i'
p4195
I1
tp4196
a(S'country.the'
p4197
I1
tp4198
a(S'county'
p4199
I1
tp4200
a(S'courag'
p4201
I1
tp4202
a(S'courage.in'
p4203
I1
tp4204
a(S'courage.the'
p4205
I1
tp4206
a(S'courageousne'
p4207
I1
tp4208
a(S'courageu'
p4209
I1
tp4210
a(S'cover'
p4211
I1
tp4212
a(S'cozine'
p4213
I1
tp4214
a(S'cozzy'
p4215
I1
tp4216
a(S'cpme'
p4217
I1
tp4218
a(S'crafted'
p4219
I1
tp4220
a(S'crammed'
p4221
I1
tp4222
a(S'crazy'
p4223
I1
tp4224
a(S'crea'
p4225
I1
tp4226
a(S'creatd'
p4227
I1
tp4228
a(S'created.first'
p4229
I1
tp4230
a(S'created.one'
p4231
I1
tp4232
a(S'created.the'
p4233
I1
tp4234
a(S'createdthe'
p4235
I1
tp4236
a(S'creation'
p4237
I1
tp4238
a(S'creationin'
p4239
I1
tp4240
a(S'creatively'
p4241
I1
tp4242
a(S'credit'
p4243
I1
tp4244
a(S"crisis'"
p4245
I1
tp4246
a(S'crossed'
p4247
I1
tp4248
a(S'cruddy'
p4249
I1
tp4250
a(S'crummy'
p4251
I1
tp4252
a(S'cuba)'
p4253
I1
tp4254
a(S'cuba."my'
p4255
I1
tp4256
a(S'cuba."the'
p4257
I1
tp4258
a(S'cuba.an'
p4259
I1
tp4260
a(S'cuba.in'
p4261
I1
tp4262
a(S'cuba.the'
p4263
I1
tp4264
a(S'cuba.thi'
p4265
I1
tp4266
a(S'cubain'
p4267
I1
tp4268
a(S"cuban'"
p4269
I1
tp4270
a(S'cuban-@caps1'
p4271
I1
tp4272
a(S'cuban-music'
p4273
I1
tp4274
a(S'cuban-style'
p4275
I1
tp4276
a(S'cube'
p4277
I1
tp4278
a(S'cubian'
p4279
I1
tp4280
a(S'cubin'
p4281
I1
tp4282
a(S'cuisine'
p4283
I1
tp4284
a(S'culenary'
p4285
I1
tp4286
a(S'culinar'
p4287
I1
tp4288
a(S'cultra.the'
p4289
I1
tp4290
a(S'cultre'
p4291
I1
tp4292
a(S"culture'"
p4293
I1
tp4294
a(S"culture's)"
p4295
I1
tp4296
a(S'cultures.the'
p4297
I1
tp4298
a(S'culunary'
p4299
I1
tp4300
a(S'cutrarl'
p4301
I1
tp4302
a(S'dance'
p4303
I1
tp4304
a(S'danger'
p4305
I1
tp4306
a(S'dark'
p4307
I1
tp4308
a(S'daughter)'
p4309
I1
tp4310
a(S'daughter;'
p4311
I1
tp4312
a(S'day."the'
p4313
I1
tp4314
a(S'day.)"in'
p4315
I1
tp4316
a(S'day.the'
p4317
I1
tp4318
a(S'dealt'
p4319
I1
tp4320
a(S'dear'
p4321
I1
tp4322
a(S'deatil'
p4323
I1
tp4324
a(S'decied'
p4325
I1
tp4326
a(S'deciede'
p4327
I1
tp4328
a(S'decision.i'
p4329
I1
tp4330
a(S'decorating'
p4331
I1
tp4332
a(S'decorte'
p4333
I1
tp4334
a(S'decribe'
p4335
I1
tp4336
a(S'decribed'
p4337
I1
tp4338
a(S'decribing'
p4339
I1
tp4340
a(S'dedicate'
p4341
I1
tp4342
a(S'deed'
p4343
I1
tp4344
a(S'deeper'
p4345
I1
tp4346
a(S'deffinitely'
p4347
I1
tp4348
a(S'deffinition'
p4349
I1
tp4350
a(S'defination'
p4351
I1
tp4352
a(S'define'
p4353
I1
tp4354
a(S'defined'
p4355
I1
tp4356
a(S'definetely'
p4357
I1
tp4358
a(S'definiatley'
p4359
I1
tp4360
a(S'defining'
p4361
I1
tp4362
a(S'definite'
p4363
I1
tp4364
a(S'definitily'
p4365
I1
tp4366
a(S'definitly'
p4367
I1
tp4368
a(S'demenstrate'
p4369
I1
tp4370
a(S'deminstrate'
p4371
I1
tp4372
a(S'deminstration'
p4373
I1
tp4374
a(S'demonstrated'
p4375
I1
tp4376
a(S'depend'
p4377
I1
tp4378
a(S'depending'
p4379
I1
tp4380
a(S'depened'
p4381
I1
tp4382
a(S'depessing'
p4383
I1
tp4384
a(S'depicted'
p4385
I1
tp4386
a(S'deppressed'
p4387
I1
tp4388
a(S'deppressing'
p4389
I1
tp4390
a(S'depresed'
p4391
I1
tp4392
a(S'depresing'
p4393
I1
tp4394
a(S'depressed'
p4395
I1
tp4396
a(S'depression'
p4397
I1
tp4398
a(S'dertha'
p4399
I1
tp4400
a(S'descibtion'
p4401
I1
tp4402
a(S'descr'
p4403
I1
tp4404
a(S'descrbe'
p4405
I1
tp4406
a(S'describ'
p4407
I1
tp4408
a(S'descripe'
p4409
I1
tp4410
a(S'descriptive'
p4411
I1
tp4412
a(S'descriptron'
p4413
I1
tp4414
a(S'deserve.so'
p4415
I1
tp4416
a(S'designorhi'
p4417
I1
tp4418
a(S'desiner'
p4419
I1
tp4420
a(S'desition'
p4421
I1
tp4422
a(S'desition.in'
p4423
I1
tp4424
a(S'destined'
p4425
I1
tp4426
a(S'details.the'
p4427
I1
tp4428
a(S'determind'
p4429
I1
tp4430
a(S'detirmenation'
p4431
I1
tp4432
a(S'did.they'
p4433
I1
tp4434
a(S'did/doe'
p4435
I1
tp4436
a(S'die'
p4437
I1
tp4438
a(S'difculty'
p4439
I1
tp4440
a(S'differen'
p4441
I1
tp4442
a(S'difference.the'
p4443
I1
tp4444
a(S'differend'
p4445
I1
tp4446
a(S'differet'
p4447
I1
tp4448
a(S'difficultie'
p4449
I1
tp4450
a(S'difficulty'
p4451
I1
tp4452
a(S'diffienetion'
p4453
I1
tp4454
a(S'difinition'
p4455
I1
tp4456
a(S'difiniton'
p4457
I1
tp4458
a(S'dine'
p4459
I1
tp4460
a(S'diner'
p4461
I1
tp4462
a(S'dining'
p4463
I1
tp4464
a(S'direct'
p4465
I1
tp4466
a(S'discouraged'
p4467
I1
tp4468
a(S'discover'
p4469
I1
tp4470
a(S'discrimination'
p4471
I1
tp4472
a(S'discu'
p4473
I1
tp4474
a(S'discussed'
p4475
I1
tp4476
a(S'dishe'
p4477
I1
tp4478
a(S'disision'
p4479
I1
tp4480
a(S'dispite'
p4481
I1
tp4482
a(S'displaying'
p4483
I1
tp4484
a(S'distant'
p4485
I1
tp4486
a(S'distill'
p4487
I1
tp4488
a(S'docoment'
p4489
I1
tp4490
a(S'document'
p4491
I1
tp4492
a(S'does!'
p4493
I1
tp4494
a(S'dominant'
p4495
I1
tp4496
a(S'done".the'
p4497
I1
tp4498
a(S'done."in'
p4499
I1
tp4500
a(S'done."the'
p4501
I1
tp4502
a(S'done.a'
p4503
I1
tp4504
a(S'donefor'
p4505
I1
tp4506
a(S'donin'
p4507
I1
tp4508
a(S'dose'
p4509
I1
tp4510
a(S"dosn't"
p4511
I1
tp4512
a(S'doubt'
p4513
I1
tp4514
a(S'dove'
p4515
I1
tp4516
a(S'dowin'
p4517
I1
tp4518
a(S'down-to-earth'
p4519
I1
tp4520
a(S'down.a'
p4521
I1
tp4522
a(S'drama'
p4523
I1
tp4524
a(S'draw'
p4525
I1
tp4526
a(S'drop'
p4527
I1
tp4528
a(S'dropped'
p4529
I1
tp4530
a(S'duration'
p4531
I1
tp4532
a(S'durty'
p4533
I1
tp4534
a(S'dwell'
p4535
I1
tp4536
a(S'dying'
p4537
I1
tp4538
a(S'eachothernarciso'
p4539
I1
tp4540
a(S'eachothor'
p4541
I1
tp4542
a(S'earn'
p4543
I1
tp4544
a(S'ease'
p4545
I1
tp4546
a(S'easiest'
p4547
I1
tp4548
a(S'eather'
p4549
I1
tp4550
a(S'econimic'
p4551
I1
tp4552
a(S'ect.)'
p4553
I1
tp4554
a(S'ect.in'
p4555
I1
tp4556
a(S'edelmira;'
p4557
I1
tp4558
a(S'edication.the'
p4559
I1
tp4560
a(S'education.the'
p4561
I1
tp4562
a(S'edward'
p4563
I1
tp4564
a(S'effective'
p4565
I1
tp4566
a(S'effort'
p4567
I1
tp4568
a(S'egknowloge'
p4569
I1
tp4570
a(S'elaberated'
p4571
I1
tp4572
a(S'elated'
p4573
I1
tp4574
a(S'elder'
p4575
I1
tp4576
a(S'else.the'
p4577
I1
tp4578
a(S'embraced'
p4579
I1
tp4580
a(S'emmigrated)'
p4581
I1
tp4582
a(S'emphasi'
p4583
I1
tp4584
a(S'emphesized'
p4585
I1
tp4586
a(S'emphisization'
p4587
I1
tp4588
a(S'emphisized'
p4589
I1
tp4590
a(S'encommpassed'
p4591
I1
tp4592
a(S'endearing'
p4593
I1
tp4594
a(S'endeavor'
p4595
I1
tp4596
a(S'endure.i'
p4597
I1
tp4598
a(S'engaged.the'
p4599
I1
tp4600
a(S'enginerring'
p4601
I1
tp4602
a(S'engish'
p4603
I1
tp4604
a(S'english'
p4605
I1
tp4606
a(S'enhold'
p4607
I1
tp4608
a(S'enormouse'
p4609
I1
tp4610
a(S'enspioring'
p4611
I1
tp4612
a(S'enstill'
p4613
I1
tp4614
a(S'ensure'
p4615
I1
tp4616
a(S'entering'
p4617
I1
tp4618
a(S'entertaining.based'
p4619
I1
tp4620
a(S'enthusiastic'
p4621
I1
tp4622
a(S'entirerly'
p4623
I1
tp4624
a(S'envionment'
p4625
I1
tp4626
a(S'envirement'
p4627
I1
tp4628
a(S'envirorment'
p4629
I1
tp4630
a(S'enviting'
p4631
I1
tp4632
a(S'envronment'
p4633
I1
tp4634
a(S'ephrasse'
p4635
I1
tp4636
a(S'eprssed'
p4637
I1
tp4638
a(S'equality.in'
p4639
I1
tp4640
a(S'eser'
p4641
I1
tp4642
a(S'essence'
p4643
I1
tp4644
a(S'essential'
p4645
I1
tp4646
a(S'essentially'
p4647
I1
tp4648
a(S'establishe'
p4649
I1
tp4650
a(S'established."my'
p4651
I1
tp4652
a(S'establishing'
p4653
I1
tp4654
a(S'eternal'
p4655
I1
tp4656
a(S'ethicity'
p4657
I1
tp4658
a(S'ethinic'
p4659
I1
tp4660
a(S'evan'
p4661
I1
tp4662
a(S'eventually'
p4663
I1
tp4664
a(S'every-thing'
p4665
I1
tp4666
a(S'everynight'
p4667
I1
tp4668
a(S'everyone.@person1'
p4669
I1
tp4670
a(S'everyone.in'
p4671
I1
tp4672
a(S'everything.in'
p4673
I1
tp4674
a(S'everytime'
p4675
I1
tp4676
a(S'everywere'
p4677
I1
tp4678
a(S'everywherethe'
p4679
I1
tp4680
a(S'exactly'
p4681
I1
tp4682
a(S'exaessed'
p4683
I1
tp4684
a(S'exagerate'
p4685
I1
tp4686
a(S'excepert'
p4687
I1
tp4688
a(S'except'
p4689
I1
tp4690
a(S'excerpt.in'
p4691
I1
tp4692
a(S'excerpt.the'
p4693
I1
tp4694
a(S'excerpt;'
p4695
I1
tp4696
a(S'excilent'
p4697
I1
tp4698
a(S'excitedthe'
p4699
I1
tp4700
a(S'excitement'
p4701
I1
tp4702
a(S'excitiing'
p4703
I1
tp4704
a(S'excpetially'
p4705
I1
tp4706
a(S'exemplified'
p4707
I1
tp4708
a(S'exernally'
p4709
I1
tp4710
a(S'exerpt'
p4711
I1
tp4712
a(S'exhibit'
p4713
I1
tp4714
a(S'exist'
p4715
I1
tp4716
a(S'exiting'
p4717
I1
tp4718
a(S'exotic'
p4719
I1
tp4720
a(S'expecting'
p4721
I1
tp4722
a(S'expense'
p4723
I1
tp4724
a(S'expensive'
p4725
I1
tp4726
a(S'experienced'
p4727
I1
tp4728
a(S'experiencing'
p4729
I1
tp4730
a(S'expirienced'
p4731
I1
tp4732
a(S'explainable'
p4733
I1
tp4734
a(S'explainng'
p4735
I1
tp4736
a(S'explainsthat'
p4737
I1
tp4738
a(S'explan'
p4739
I1
tp4740
a(S'explane'
p4741
I1
tp4742
a(S'explian'
p4743
I1
tp4744
a(S'explition'
p4745
I1
tp4746
a(S'explore'
p4747
I1
tp4748
a(S'exposing'
p4749
I1
tp4750
a(S'exsepting'
p4751
I1
tp4752
a(S'exsited'
p4753
I1
tp4754
a(S'exsplain'
p4755
I1
tp4756
a(S'extaded'
p4757
I1
tp4758
a(S'extanded'
p4759
I1
tp4760
a(S'extending'
p4761
I1
tp4762
a(S'extened'
p4763
I1
tp4764
a(S'extent'
p4765
I1
tp4766
a(S'extent.the'
p4767
I1
tp4768
a(S'externaly'
p4769
I1
tp4770
a(S'extreemly'
p4771
I1
tp4772
a(S'extremley'
p4773
I1
tp4774
a(S'exude'
p4775
I1
tp4776
a(S'factual'
p4777
I1
tp4778
a(S'facy'
p4779
I1
tp4780
a(S'fairley'
p4781
I1
tp4782
a(S'famalies.the'
p4783
I1
tp4784
a(S'famaliythe'
p4785
I1
tp4786
a(S'famile'
p4787
I1
tp4788
a(S'familial'
p4789
I1
tp4790
a(S'familiy'
p4791
I1
tp4792
a(S'family!'
p4793
I1
tp4794
a(S'family".in'
p4795
I1
tp4796
a(S'family".last'
p4797
I1
tp4798
a(S'family"and'
p4799
I1
tp4800
a(S'family"based'
p4801
I1
tp4802
a(S'family)'
p4803
I1
tp4804
a(S'family-friend'
p4805
I1
tp4806
a(S'family-like'
p4807
I1
tp4808
a(S'family."@caps1'
p4809
I1
tp4810
a(S'family."the'
p4811
I1
tp4812
a(S"family.'"
p4813
I1
tp4814
a(S'family.first'
p4815
I1
tp4816
a(S'family.home'
p4817
I1
tp4818
a(S'family.i'
p4819
I1
tp4820
a(S'family.rodriguez'
p4821
I1
tp4822
a(S'family.so'
p4823
I1
tp4824
a(S'familythe'
p4825
I1
tp4826
a(S'famley'
p4827
I1
tp4828
a(S'famly'
p4829
I1
tp4830
a(S'faster'
p4831
I1
tp4832
a(S'fathe'
p4833
I1
tp4834
a(S"father'"
p4835
I1
tp4836
a(S'favor'
p4837
I1
tp4838
a(S'favorite'
p4839
I1
tp4840
a(S'fea'
p4841
I1
tp4842
a(S'fear'
p4843
I1
tp4844
a(S'feas)'
p4845
I1
tp4846
a(S'feat'
p4847
I1
tp4848
a(S'feeling.in'
p4849
I1
tp4850
a(S'feeling.to'
p4851
I1
tp4852
a(S'feelings.in'
p4853
I1
tp4854
a(S'feet."@caps1'
p4855
I1
tp4856
a(S'felt.in'
p4857
I1
tp4858
a(S'ferget'
p4859
I1
tp4860
a(S'fermiluar'
p4861
I1
tp4862
a(S'fiction'
p4863
I1
tp4864
a(S'fiest'
p4865
I1
tp4866
a(S'figure'
p4867
I1
tp4868
a(S'finaly'
p4869
I1
tp4870
a(S'finance'
p4871
I1
tp4872
a(S'financially...the'
p4873
I1
tp4874
a(S'fine'
p4875
I1
tp4876
a(S'finnaly'
p4877
I1
tp4878
a(S'fire'
p4879
I1
tp4880
a(S'fired'
p4881
I1
tp4882
a(S'firend'
p4883
I1
tp4884
a(S'first.in'
p4885
I1
tp4886
a(S'firstly'
p4887
I1
tp4888
a(S'firstmoved'
p4889
I1
tp4890
a(S'firsty'
p4891
I1
tp4892
a(S'flowchart'
p4893
I1
tp4894
a(S'flowed'
p4895
I1
tp4896
a(S'fo'
p4897
I1
tp4898
a(S'focusing'
p4899
I1
tp4900
a(S'foget'
p4901
I1
tp4902
a(S'fong'
p4903
I1
tp4904
a(S'food)'
p4905
I1
tp4906
a(S'food...)'
p4907
I1
tp4908
a(S'food.the'
p4909
I1
tp4910
a(S'food.throughout'
p4911
I1
tp4912
a(S'for.nacisco'
p4913
I1
tp4914
a(S'forced'
p4915
I1
tp4916
a(S'fore'
p4917
I1
tp4918
a(S'forgeting'
p4919
I1
tp4920
a(S'forgetthe'
p4921
I1
tp4922
a(S'forgetting'
p4923
I1
tp4924
a(S'forgivene'
p4925
I1
tp4926
a(S'fortunite'
p4927
I1
tp4928
a(S'foundation'
p4929
I1
tp4930
a(S'fourth'
p4931
I1
tp4932
a(S'freedom'
p4933
I1
tp4934
a(S'freiend'
p4935
I1
tp4936
a(S'freindly'
p4937
I1
tp4938
a(S'frend'
p4939
I1
tp4940
a(S'frendship'
p4941
I1
tp4942
a(S'frequently'
p4943
I1
tp4944
a(S'fresh'
p4945
I1
tp4946
a(S'friend.narciso'
p4947
I1
tp4948
a(S'friendlyne'
p4949
I1
tp4950
a(S'friends.in'
p4951
I1
tp4952
a(S'friends.mood'
p4953
I1
tp4954
a(S'friendship.".the'
p4955
I1
tp4956
a(S'friendship."@caps1'
p4957
I1
tp4958
a(S'friendship.another'
p4959
I1
tp4960
a(S'friendship.the'
p4961
I1
tp4962
a(S'friendship.thi'
p4963
I1
tp4964
a(S'friendships/relationship'
p4965
I1
tp4966
a(S'friendsthe'
p4967
I1
tp4968
a(S'frined'
p4969
I1
tp4970
a(S'frist'
p4971
I1
tp4972
a(S'from.a'
p4973
I1
tp4974
a(S'from.now'
p4975
I1
tp4976
a(S'frome'
p4977
I1
tp4978
a(S'frowned'
p4979
I1
tp4980
a(S'fueled'
p4981
I1
tp4982
a(S'fulfilled'
p4983
I1
tp4984
a(S'fun.in'
p4985
I1
tp4986
a(S'fun.narciso'
p4987
I1
tp4988
a(S'funky'
p4989
I1
tp4990
a(S'furniture'
p4991
I1
tp4992
a(S'furnshed'
p4993
I1
tp4994
a(S'furtiure'
p4995
I1
tp4996
a(S'futue'
p4997
I1
tp4998
a(S'future.in'
p4999
I1
tp5000
a(S'fuzzy'
p5001
I1
tp5002
a(S'gained'
p5003
I1
tp5004
a(S'gatered'
p5005
I1
tp5006
a(S'gathered'
p5007
I1
tp5008
a(S'gave.in'
p5009
I1
tp5010
a(S'gaveup'
p5011
I1
tp5012
a(S'geateful'
p5013
I1
tp5014
a(S'genera'
p5015
I1
tp5016
a(S'generate'
p5017
I1
tp5018
a(S'generated'
p5019
I1
tp5020
a(S'generation'
p5021
I1
tp5022
a(S'generosity.first'
p5023
I1
tp5024
a(S'generosity.in'
p5025
I1
tp5026
a(S'generosity.the'
p5027
I1
tp5028
a(S'generous.the'
p5029
I1
tp5030
a(S'generousity'
p5031
I1
tp5032
a(S'genorosity'
p5033
I1
tp5034
a(S'genorosity.next'
p5035
I1
tp5036
a(S'genorou'
p5037
I1
tp5038
a(S'gentle'
p5039
I1
tp5040
a(S'get.not'
p5041
I1
tp5042
a(S'gether'
p5043
I1
tp5044
a(S'geting'
p5045
I1
tp5046
a(S'ghetto'
p5047
I1
tp5048
a(S'giddy'
p5049
I1
tp5050
a(S'gift'
p5051
I1
tp5052
a(S'girl'
p5053
I1
tp5054
a(S"girl'"
p5055
I1
tp5056
a(S'goie'
p5057
I1
tp5058
a(S'gonna'
p5059
I1
tp5060
a(S'good-smelling'
p5061
I1
tp5062
a(S'good-time'
p5063
I1
tp5064
a(S'good."in'
p5065
I1
tp5066
a(S'good.in'
p5067
I1
tp5068
a(S'goodne'
p5069
I1
tp5070
a(S'goodthe'
p5071
I1
tp5072
a(S'gotting'
p5073
I1
tp5074
a(S'goverment'
p5075
I1
tp5076
a(S'graceful'
p5077
I1
tp5078
a(S'graditutity'
p5079
I1
tp5080
a(S'grandmother'
p5081
I1
tp5082
a(S'grandpareat'
p5083
I1
tp5084
a(S"grandparent'"
p5085
I1
tp5086
a(S'grandparents")'
p5087
I1
tp5088
a(S'granparent'
p5089
I1
tp5090
a(S'grantit'
p5091
I1
tp5092
a(S'grasp'
p5093
I1
tp5094
a(S'grat'
p5095
I1
tp5096
a(S'gratefal'
p5097
I1
tp5098
a(S'grateful","passionte'
p5099
I1
tp5100
a(S"grateful.'"
p5101
I1
tp5102
a(S'grateful.)"the'
p5103
I1
tp5104
a(S'grateful.lastly'
p5105
I1
tp5106
a(S'grateful.narciso'
p5107
I1
tp5108
a(S'grateful.throught'
p5109
I1
tp5110
a(S'grateful.warmth'
p5111
I1
tp5112
a(S'gratefull)'
p5113
I1
tp5114
a(S'gratefull.in'
p5115
I1
tp5116
a(S'gratefull.next'
p5117
I1
tp5118
a(S'gratefulness.in'
p5119
I1
tp5120
a(S'gratefulness.there'
p5121
I1
tp5122
a(S'gratefulthe'
p5123
I1
tp5124
a(S'gratfull'
p5125
I1
tp5126
a(S'gratitude."there'
p5127
I1
tp5128
a(S'gratitude.@caps4'
p5129
I1
tp5130
a(S'gratitude.i'
p5131
I1
tp5132
a(S'grattitude'
p5133
I1
tp5134
a(S'great-full'
p5135
I1
tp5136
a(S'great.he'
p5137
I1
tp5138
a(S'great.the'
p5139
I1
tp5140
a(S'greate'
p5141
I1
tp5142
a(S'greateful'
p5143
I1
tp5144
a(S'greater'
p5145
I1
tp5146
a(S'greatfull)'
p5147
I1
tp5148
a(S'greatfull.the'
p5149
I1
tp5150
a(S'greatfullness.thorought'
p5151
I1
tp5152
a(S'greatfulness.the'
p5153
I1
tp5154
a(S'greatfulness.throughout'
p5155
I1
tp5156
a(S'greatul'
p5157
I1
tp5158
a(S'green'
p5159
I1
tp5160
a(S'gue'
p5161
I1
tp5162
a(S'guiding'
p5163
I1
tp5164
a(S'guilt'
p5165
I1
tp5166
a(S'guilty'
p5167
I1
tp5168
a(S'guy.i'
p5169
I1
tp5170
a(S'h'
I1
tp5171
a(S'habit'
p5172
I1
tp5173
a(S'had.in'
p5174
I1
tp5175
a(S'half'
p5176
I1
tp5177
a(S'halfway'
p5178
I1
tp5179
a(S'handed'
p5180
I1
tp5181
a(S'hang'
p5182
I1
tp5183
a(S'hanging'
p5184
I1
tp5185
a(S'happ'
p5186
I1
tp5187
a(S'happene'
p5188
I1
tp5189
a(S'happieness.in'
p5190
I1
tp5191
a(S'happiest'
p5192
I1
tp5193
a(S'happines.there'
p5194
I1
tp5195
a(S'happiness.when'
p5196
I1
tp5197
a(S'happinessin'
p5198
I1
tp5199
a(S'happinessthe'
p5200
I1
tp5201
a(S'happy,the'
p5202
I1
tp5203
a(S'happy-'
p5204
I1
tp5205
a(S'happy...nice'
p5206
I1
tp5207
a(S'happy.also'
p5208
I1
tp5209
a(S'happy.narciso'
p5210
I1
tp5211
a(S'happy/sad.the'
p5212
I1
tp5213
a(S'happy?'
p5214
I1
tp5215
a(S'happyness.the'
p5216
I1
tp5217
a(S'happythe'
p5218
I1
tp5219
a(S'harder'
p5220
I1
tp5221
a(S'hardest'
p5222
I1
tp5223
a(S'hardships.however'
p5224
I1
tp5225
a(S'hardshipsin'
p5226
I1
tp5227
a(S'hardthe'
p5228
I1
tp5229
a(S'hardwork.narciso'
p5230
I1
tp5231
a(S'harmony'
p5232
I1
tp5233
a(S'has.in'
p5234
I1
tp5235
a(S'has.narciso'
p5236
I1
tp5237
a(S'hate'
p5238
I1
tp5239
a(S'havedone'
p5240
I1
tp5241
a(S'haveing'
p5242
I1
tp5243
a(S'haven'
p5244
I1
tp5245
a(S'haver'
p5246
I1
tp5247
a(S'havin'
p5248
I1
tp5249
a(S'having.the'
p5250
I1
tp5251
a(S"he'd"
p5252
I1
tp5253
a(S'he/or'
p5254
I1
tp5255
a(S'he]'
p5256
I1
tp5257
a(S'heared'
p5258
I1
tp5259
a(S'heart)'
p5260
I1
tp5261
a(S'heart-'
p5262
I1
tp5263
a(S'heart-breaking'
p5264
I1
tp5265
a(S'heart...narciso'
p5266
I1
tp5267
a(S'heart.the'
p5268
I1
tp5269
a(S'hearth'
p5270
I1
tp5271
a(S'heartwarming.thi'
p5272
I1
tp5273
a(S'heaven'
p5274
I1
tp5275
a(S'heavily'
p5276
I1
tp5277
a(S'hei'
p5278
I1
tp5279
a(S'held'
p5280
I1
tp5281
a(S'help)'
p5282
I1
tp5283
a(S'help.the'
p5284
I1
tp5285
a(S'helped.in'
p5286
I1
tp5287
a(S'helpedin'
p5288
I1
tp5289
a(S'helpful'
p5290
I1
tp5291
a(S'heped'
p5292
I1
tp5293
a(S'heratige'
p5294
I1
tp5295
a(S'heritage.in'
p5296
I1
tp5297
a(S'heroic'
p5298
I1
tp5299
a(S'herthe'
p5300
I1
tp5301
a(S'highlighted'
p5302
I1
tp5303
a(S'him."@caps1'
p5304
I1
tp5305
a(S'him.by'
p5306
I1
tp5307
a(S'him.heartwarming'
p5308
I1
tp5309
a(S'him.next'
p5310
I1
tp5311
a(S'himin'
p5312
I1
tp5313
a(S'hint'
p5314
I1
tp5315
a(S'hintage'
p5316
I1
tp5317
a(S'his/@caps1'
p5318
I1
tp5319
a(S'hisparent'
p5320
I1
tp5321
a(S'hole'
p5322
I1
tp5323
a(S'holidays.second'
p5324
I1
tp5325
a(S'home!based'
p5326
I1
tp5327
a(S'home!the'
p5328
I1
tp5329
a(S'home".in'
p5330
I1
tp5331
a(S'home"the'
p5332
I1
tp5333
a(S'home"thi'
p5334
I1
tp5335
a(S"home'"
p5336
I1
tp5337
a(S'home-'
p5338
I1
tp5339
a(S'home."@caps2'
p5340
I1
tp5341
a(S'home."a'
p5342
I1
tp5343
a(S'home."narciso'
p5344
I1
tp5345
a(S'home."rodriguez'
p5346
I1
tp5347
a(S'home."with'
p5348
I1
tp5349
a(S"home.'"
p5350
I1
tp5351
a(S'home...the'
p5352
I1
tp5353
a(S'home.after'
p5354
I1
tp5355
a(S'home.home'
p5356
I1
tp5357
a(S'home.i'
p5358
I1
tp5359
a(S'home.then'
p5360
I1
tp5361
a(S'home.throughout'
p5362
I1
tp5363
a(S'home:the'
p5364
I1
tp5365
a(S'home;'
p5366
I1
tp5367
a(S'homenarciso'
p5368
I1
tp5369
a(S'homesick'
p5370
I1
tp5371
a(S'honestly'
p5372
I1
tp5373
a(S'honorable'
p5374
I1
tp5375
a(S'honored'
p5376
I1
tp5377
a(S'hood.narciso'
p5378
I1
tp5379
a(S'hood.the'
p5380
I1
tp5381
a(S'hopefully'
p5382
I1
tp5383
a(S'hopeing'
p5384
I1
tp5385
a(S'hoping'
p5386
I1
tp5387
a(S'horrible'
p5388
I1
tp5389
a(S'hospitable'
p5390
I1
tp5391
a(S'hospital'
p5392
I1
tp5393
a(S'host'
p5394
I1
tp5395
a(S'hot'
p5396
I1
tp5397
a(S'hotel'
p5398
I1
tp5399
a(S'hou'
p5400
I1
tp5401
a(S'house.\'"the'
p5402
I1
tp5403
a(S'house.at'
p5404
I1
tp5405
a(S'house.in'
p5406
I1
tp5407
a(S'house.there'
p5408
I1
tp5409
a(S'houseinto'
p5410
I1
tp5411
a(S'housing'
p5412
I1
tp5413
a(S'howe'
p5414
I1
tp5415
a(S'humblene'
p5416
I1
tp5417
a(S'humbleness.one'
p5418
I1
tp5419
a(S'humility'
p5420
I1
tp5421
a(S'hunger'
p5422
I1
tp5423
a(S'ibing'
p5424
I1
tp5425
a(S'ideal'
p5426
I1
tp5427
a(S'ignored'
p5428
I1
tp5429
a(S'ill'
p5430
I1
tp5431
a(S'illistrate'
p5432
I1
tp5433
a(S'image/atmosphere'
p5434
I1
tp5435
a(S'imagery;'
p5436
I1
tp5437
a(S'imagined'
p5438
I1
tp5439
a(S'imagrant'
p5440
I1
tp5441
a(S'imarant'
p5442
I1
tp5443
a(S'imegrent'
p5444
I1
tp5445
a(S'imigrated'
p5446
I1
tp5447
a(S'imigrating'
p5448
I1
tp5449
a(S'immagrants)'
p5450
I1
tp5451
a(S'immagrate'
p5452
I1
tp5453
a(S'immagrated'
p5454
I1
tp5455
a(S'immagrent'
p5456
I1
tp5457
a(S'immaigrant'
p5458
I1
tp5459
a(S'immediately'
p5460
I1
tp5461
a(S'immediatly'
p5462
I1
tp5463
a(S'immeditly'
p5464
I1
tp5465
a(S'immegrant'
p5466
I1
tp5467
a(S'immensely'
p5468
I1
tp5469
a(S'immgrant'
p5470
I1
tp5471
a(S'immigant'
p5472
I1
tp5473
a(S"immigrant'"
p5474
I1
tp5475
a(S'immigranted'
p5476
I1
tp5477
a(S'immigrants)'
p5478
I1
tp5479
a(S"immigrants..'"
p5480
I1
tp5481
a(S'immigratein'
p5482
I1
tp5483
a(S'immportant'
p5484
I1
tp5485
a(S'implie'
p5486
I1
tp5487
a(S'importand'
p5488
I1
tp5489
a(S'importat'
p5490
I1
tp5491
a(S'improved'
p5492
I1
tp5493
a(S'in.in'
p5494
I1
tp5495
a(S'in.last'
p5496
I1
tp5497
a(S'included.the'
p5498
I1
tp5499
a(S'incorperated'
p5500
I1
tp5501
a(S'incorporate'
p5502
I1
tp5503
a(S'incorporated'
p5504
I1
tp5505
a(S'incredibly'
p5506
I1
tp5507
a(S'indacate'
p5508
I1
tp5509
a(S'indeed'
p5510
I1
tp5511
a(S'indicator'
p5512
I1
tp5513
a(S'infer'
p5514
I1
tp5515
a(S'influenced'
p5516
I1
tp5517
a(S'inform'
p5518
I1
tp5519
a(S'informative'
p5520
I1
tp5521
a(S'inheritance'
p5522
I1
tp5523
a(S'inheriting'
p5524
I1
tp5525
a(S'innocent'
p5526
I1
tp5527
a(S'inocence'
p5528
I1
tp5529
a(S'inside.home'
p5530
I1
tp5531
a(S'inside.in'
p5532
I1
tp5533
a(S'inside.the'
p5534
I1
tp5535
a(S'inside.thi'
p5536
I1
tp5537
a(S'insightful.i'
p5538
I1
tp5539
a(S'instability'
p5540
I1
tp5541
a(S'instanter'
p5542
I1
tp5543
a(S'instilling'
p5544
I1
tp5545
a(S'intence'
p5546
I1
tp5547
a(S'interacted'
p5548
I1
tp5549
a(S'interest'
p5550
I1
tp5551
a(S'internationally'
p5552
I1
tp5553
a(S'interpretation'
p5554
I1
tp5555
a(S'interpreted'
p5556
I1
tp5557
a(S'interviewed'
p5558
I1
tp5559
a(S'introduced'
p5560
I1
tp5561
a(S'introducing'
p5562
I1
tp5563
a(S'inviorment'
p5564
I1
tp5565
a(S'invoke'
p5566
I1
tp5567
a(S'is.love'
p5568
I1
tp5569
a(S'is.there'
p5570
I1
tp5571
a(S'isalso'
p5572
I1
tp5573
a(S'isthat'
p5574
I1
tp5575
a(S'istheir'
p5576
I1
tp5577
a(S'istrying'
p5578
I1
tp5579
a(S'it.memoir'
p5580
I1
tp5581
a(S'it.narciso'
p5582
I1
tp5583
a(S'it.there'
p5584
I1
tp5585
a(S'it.they'
p5586
I1
tp5587
a(S'jersey)'
p5588
I1
tp5589
a(S'jersey.in'
p5590
I1
tp5591
a(S'jersey.the'
p5592
I1
tp5593
a(S'jersy'
p5594
I1
tp5595
a(S'job.thi'
p5596
I1
tp5597
a(S'jobs.the'
p5598
I1
tp5599
a(S'jod'
p5600
I1
tp5601
a(S'joining'
p5602
I1
tp5603
a(S'joyful.narciso'
p5604
I1
tp5605
a(S'joyful.the'
p5606
I1
tp5607
a(S'joyous.in'
p5608
I1
tp5609
a(S'juanita;'
p5610
I1
tp5611
a(S'judge'
p5612
I1
tp5613
a(S'jut'
p5614
I1
tp5615
a(S'keyword'
p5616
I1
tp5617
a(S"kid'"
p5618
I1
tp5619
a(S'kid.in'
p5620
I1
tp5621
a(S'kide'
p5622
I1
tp5623
a(S'kind.finally'
p5624
I1
tp5625
a(S'kindness.because'
p5626
I1
tp5627
a(S'kitchen."the'
p5628
I1
tp5629
a(S'kitchen.in'
p5630
I1
tp5631
a(S'kitchen.thi'
p5632
I1
tp5633
a(S'kitchens.the'
p5634
I1
tp5635
a(S'kitchin'
p5636
I1
tp5637
a(S'knowlage'
p5638
I1
tp5639
a(S'knowlege'
p5640
I1
tp5641
a(S'known'
p5642
I1
tp5643
a(S'labor'
p5644
I1
tp5645
a(S'labratory'
p5646
I1
tp5647
a(S'laden'
p5648
I1
tp5649
a(S'laid-back'
p5650
I1
tp5651
a(S"landloard'"
p5652
I1
tp5653
a(S'language;'
p5654
I1
tp5655
a(S'lastely'
p5656
I1
tp5657
a(S'late'
p5658
I1
tp5659
a(S'latin'
p5660
I1
tp5661
a(S'layed'
p5662
I1
tp5663
a(S'laying'
p5664
I1
tp5665
a(S'leading'
p5666
I1
tp5667
a(S'lean'
p5668
I1
tp5669
a(S'leared'
p5670
I1
tp5671
a(S'learned.)'
p5672
I1
tp5673
a(S'learned.the'
p5674
I1
tp5675
a(S'leav'
p5676
I1
tp5677
a(S'led'
p5678
I1
tp5679
a(S'left.narciso'
p5680
I1
tp5681
a(S'legal'
p5682
I1
tp5683
a(S'lest'
p5684
I1
tp5685
a(S'letter."i'
p5686
I1
tp5687
a(S"life'"
p5688
I1
tp5689
a(S'life-changing'
p5690
I1
tp5691
a(S'life."-'
p5692
I1
tp5693
a(S'life."they'
p5694
I1
tp5695
a(S'life.another'
p5696
I1
tp5697
a(S'life.he'
p5698
I1
tp5699
a(S'life.my'
p5700
I1
tp5701
a(S'life.over'
p5702
I1
tp5703
a(S'life.thi'
p5704
I1
tp5705
a(S'lifethe'
p5706
I1
tp5707
a(S'lighten'
p5708
I1
tp5709
a(S'lighthearted'
p5710
I1
tp5711
a(S'like.also'
p5712
I1
tp5713
a(S'like.narciso'
p5714
I1
tp5715
a(S'likein'
p5716
I1
tp5717
a(S'likethe'
p5718
I1
tp5719
a(S'liking'
p5720
I1
tp5721
a(S'lines/phrase'
p5722
I1
tp5723
a(S'listed'
p5724
I1
tp5725
a(S'literally'
p5726
I1
tp5727
a(S'literature'
p5728
I1
tp5729
a(S'literature.in'
p5730
I1
tp5731
a(S"live'"
p5732
I1
tp5733
a(S'live.in'
p5734
I1
tp5735
a(S'live.the'
p5736
I1
tp5737
a(S'lived.inthe'
p5738
I1
tp5739
a(S'liveing'
p5740
I1
tp5741
a(S'lives",narciso'
p5742
I1
tp5743
a(S'lives".the'
p5744
I1
tp5745
a(S'lives"the'
p5746
I1
tp5747
a(S'lives."thi'
p5748
I1
tp5749
a(S'lives.i'
p5750
I1
tp5751
a(S'lives.in'
p5752
I1
tp5753
a(S'lives.narciso'
p5754
I1
tp5755
a(S'living)'
p5756
I1
tp5757
a(S'living.in'
p5758
I1
tp5759
a(S'livving'
p5760
I1
tp5761
a(S'located).the'
p5762
I1
tp5763
a(S'location'
p5764
I1
tp5765
a(S'location.the'
p5766
I1
tp5767
a(S'location1.in'
p5768
I1
tp5769
a(S'location1.the'
p5770
I1
tp5771
a(S'location1based'
p5772
I1
tp5773
a(S'location1within'
p5774
I1
tp5775
a(S"location3'"
p5776
I1
tp5777
a(S'location4'
p5778
I1
tp5779
a(S'lonely'
p5780
I1
tp5781
a(S'longer'
p5782
I1
tp5783
a(S'loosing'
p5784
I1
tp5785
a(S'losing'
p5786
I1
tp5787
a(S'lost'
p5788
I1
tp5789
a(S'loud'
p5790
I1
tp5791
a(S'love!"in'
p5792
I1
tp5793
a(S"love'"
p5794
I1
tp5795
a(S'love."in'
p5796
I1
tp5797
a(S'love."when'
p5798
I1
tp5799
a(S'love.@caps1'
p5800
I1
tp5801
a(S'love.a'
p5802
I1
tp5803
a(S'love.ii'
p5804
I1
tp5805
a(S'love.narciso'
p5806
I1
tp5807
a(S'love?'
p5808
I1
tp5809
a(S'loved"rodriguez'
p5810
I1
tp5811
a(S'loved."that'
p5812
I1
tp5813
a(S'lovef'
p5814
I1
tp5815
a(S'loveing.what'
p5816
I1
tp5817
a(S'loving.from'
p5818
I1
tp5819
a(S'loving/'
p5820
I1
tp5821
a(S'lovse'
p5822
I1
tp5823
a(S'low'
p5824
I1
tp5825
a(S'low-paying'
p5826
I1
tp5827
a(S'lurking'
p5828
I1
tp5829
a(S'luve'
p5830
I1
tp5831
a(S'maintain'
p5832
I1
tp5833
a(S'manage'
p5834
I1
tp5835
a(S'managed'
p5836
I1
tp5837
a(S'many.in'
p5838
I1
tp5839
a(S'mark'
p5840
I1
tp5841
a(S'masterpiece'
p5842
I1
tp5843
a(S'match'
p5844
I1
tp5845
a(S'materialistic'
p5846
I1
tp5847
a(S'meain'
p5848
I1
tp5849
a(S'meals.thi'
p5850
I1
tp5851
a(S'meaningful.i'
p5852
I1
tp5853
a(S'meanings.the'
p5854
I1
tp5855
a(S'means.in'
p5856
I1
tp5857
a(S'measure'
p5858
I1
tp5859
a(S'meber'
p5860
I1
tp5861
a(S'melting'
p5862
I1
tp5863
a(S'memeior'
p5864
I1
tp5865
a(S'memioar'
p5866
I1
tp5867
a(S"memior's...the"
p5868
I1
tp5869
a(S'memior.what'
p5870
I1
tp5871
a(S'memiour.the'
p5872
I1
tp5873
a(S'memo'
p5874
I1
tp5875
a(S'memoie'
p5876
I1
tp5877
a(S'memoin'
p5878
I1
tp5879
a(S"memoir.@person1'"
p5880
I1
tp5881
a(S'memoir.according'
p5882
I1
tp5883
a(S'memoir.author'
p5884
I1
tp5885
a(S'memoir.describe'
p5886
I1
tp5887
a(S'memoir.hi'
p5888
I1
tp5889
a(S'memoir.it'
p5890
I1
tp5891
a(S'memoir.living'
p5892
I1
tp5893
a(S'memoir.my'
p5894
I1
tp5895
a(S'memoir.there'
p5896
I1
tp5897
a(S'memoir.to'
p5898
I1
tp5899
a(S'memoir.when'
p5900
I1
tp5901
a(S'memoir.within'
p5902
I1
tp5903
a(S'memoir;'
p5904
I1
tp5905
a(S'memoir?'
p5906
I1
tp5907
a(S'memoiri'
p5908
I1
tp5909
a(S'memoirthe'
p5910
I1
tp5911
a(S'memor.the'
p5912
I1
tp5913
a(S'memori'
p5914
I1
tp5915
a(S'memories)'
p5916
I1
tp5917
a(S'memories.thi'
p5918
I1
tp5919
a(S'memorized'
p5920
I1
tp5921
a(S'memoroir'
p5922
I1
tp5923
a(S"memory'"
p5924
I1
tp5925
a(S'memory.the'
p5926
I1
tp5927
a(S'menchened'
p5928
I1
tp5929
a(S'menoir'
p5930
I1
tp5931
a(S'mentioen'
p5932
I1
tp5933
a(S'merchendise'
p5934
I1
tp5935
a(S'metiond'
p5936
I1
tp5937
a(S'mexican'
p5938
I1
tp5939
a(S'mi'
p5940
I1
tp5941
a(S'million'
p5942
I1
tp5943
a(S'minded'
p5944
I1
tp5945
a(S'minute'
p5946
I1
tp5947
a(S'misic'
p5948
I1
tp5949
a(S'miss.in'
p5950
I1
tp5951
a(S'mixe'
p5952
I1
tp5953
a(S'mixture'
p5954
I1
tp5955
a(S'moddest'
p5956
I1
tp5957
a(S'mode'
p5958
I1
tp5959
a(S"mom'"
p5960
I1
tp5961
a(S'mom)'
p5962
I1
tp5963
a(S'moments.based'
p5964
I1
tp5965
a(S'momoirthe'
p5966
I1
tp5967
a(S'monumentou'
p5968
I1
tp5969
a(S'moob'
p5970
I1
tp5971
a(S'mood(s)'
p5972
I1
tp5973
a(S'mood.a'
p5974
I1
tp5975
a(S'mood.after'
p5976
I1
tp5977
a(S'mood.another'
p5978
I1
tp5979
a(S'mood.based'
p5980
I1
tp5981
a(S'mood.i'
p5982
I1
tp5983
a(S"mood.i've"
p5984
I1
tp5985
a(S'mood.lastly'
p5986
I1
tp5987
a(S'mood.next'
p5988
I1
tp5989
a(S'mood.there'
p5990
I1
tp5991
a(S'mood/@caps8narciso'
p5992
I1
tp5993
a(S'mood;'
p5994
I1
tp5995
a(S'mood?'
p5996
I1
tp5997
a(S'moode'
p5998
I1
tp5999
a(S'moodi'
p6000
I1
tp6001
a(S'moods.the'
p6002
I1
tp6003
a(S'more.the'
p6004
I1
tp6005
a(S'most.the'
p6006
I1
tp6007
a(S'mostely'
p6008
I1
tp6009
a(S'mostley'
p6010
I1
tp6011
a(S'motch'
p6012
I1
tp6013
a(S"mother'"
p6014
I1
tp6015
a(S'motoevation'
p6016
I1
tp6017
a(S'mounth'
p6018
I1
tp6019
a(S'movedfrom'
p6020
I1
tp6021
a(S'movieing'
p6022
I1
tp6023
a(S'much.the'
p6024
I1
tp6025
a(S'multiple'
p6026
I1
tp6027
a(S'musci'
p6028
I1
tp6029
a(S'music...filled'
p6030
I1
tp6031
a(S'music...mixing'
p6032
I1
tp6033
a(S'music.another'
p6034
I1
tp6035
a(S'music.the'
p6036
I1
tp6037
a(S'music/alway'
p6038
I1
tp6039
a(S"must've"
p6040
I1
tp6041
a(S'mybe'
p6042
I1
tp6043
a(S'mysteriou'
p6044
I1
tp6045
a(S'nabiorhood'
p6046
I1
tp6047
a(S'nacessidie'
p6048
I1
tp6049
a(S'naighbor'
p6050
I1
tp6051
a(S'narator'
p6052
I1
tp6053
a(S'narcisoc'
p6054
I1
tp6055
a(S'narisco'
p6056
I1
tp6057
a(S'nariso'
p6058
I1
tp6059
a(S'narrate'
p6060
I1
tp6061
a(S'narrator)'
p6062
I1
tp6063
a(S'narsico'
p6064
I1
tp6065
a(S'nastest'
p6066
I1
tp6067
a(S'nasty'
p6068
I1
tp6069
a(S'nation'
p6070
I1
tp6071
a(S"nation'"
p6072
I1
tp6073
a(S'nationnalityin'
p6074
I1
tp6075
a(S'nature'
p6076
I1
tp6077
a(S'nearby.the'
p6078
I1
tp6079
a(S'necesary'
p6080
I1
tp6081
a(S'necessary'
p6082
I1
tp6083
a(S"need'"
p6084
I1
tp6085
a(S'need.rodriguez'
p6086
I1
tp6087
a(S'neer'
p6088
I1
tp6089
a(S'neghborhood'
p6090
I1
tp6091
a(S'neiabor'
p6092
I1
tp6093
a(S'neigborhood'
p6094
I1
tp6095
a(S'neigerhood'
p6096
I1
tp6097
a(S'neighberhood'
p6098
I1
tp6099
a(S'neighborely'
p6100
I1
tp6101
a(S'neighborey'
p6102
I1
tp6103
a(S'neighborhood,...all'
p6104
I1
tp6105
a(S'neighborhood.in'
p6106
I1
tp6107
a(S'neighbors)'
p6108
I1
tp6109
a(S'neighbors;'
p6110
I1
tp6111
a(S'neighbrhd'
p6112
I1
tp6113
a(S'neighbrhood'
p6114
I1
tp6115
a(S'neither'
p6116
I1
tp6117
a(S'nessecarily'
p6118
I1
tp6119
a(S'newborn'
p6120
I1
tp6121
a(S'nicely'
p6122
I1
tp6123
a(S'nicely.the'
p6124
I1
tp6125
a(S'nicer'
p6126
I1
tp6127
a(S'nicest'
p6128
I1
tp6129
a(S'nieghbor'
p6130
I1
tp6131
a(S'nieghborhood'
p6132
I1
tp6133
a(S'nienborhood'
p6134
I1
tp6135
a(S'nobody'
p6136
I1
tp6137
a(S'non-american'
p6138
I1
tp6139
a(S'non-fiction'
p6140
I1
tp6141
a(S'non-fictional'
p6142
I1
tp6143
a(S'nonethele'
p6144
I1
tp6145
a(S'nonfiction'
p6146
I1
tp6147
a(S'normally'
p6148
I1
tp6149
a(S'notch'
p6150
I1
tp6151
a(S'note'
p6152
I1
tp6153
a(S'nothing;'
p6154
I1
tp6155
a(S'notice'
p6156
I1
tp6157
a(S'noticed'
p6158
I1
tp6159
a(S'noting'
p6160
I1
tp6161
a(S'notthing'
p6162
I1
tp6163
a(S'nowhere'
p6164
I1
tp6165
a(S'num1.)'
p6166
I1
tp6167
a(S'num1.care'
p6168
I1
tp6169
a(S'num1.the'
p6170
I1
tp6171
a(S'num1]'
p6172
I1
tp6173
a(S'num2).with'
p6174
I1
tp6175
a(S'num2)these'
p6176
I1
tp6177
a(S'num2-'
p6178
I1
tp6179
a(S'num2-room'
p6180
I1
tp6181
a(S'num2.faith'
p6182
I1
tp6183
a(S'num3).the'
p6184
I1
tp6185
a(S'num3)the'
p6186
I1
tp6187
a(S'num3-@num1)'
p6188
I1
tp6189
a(S'num3-year-old'
p6190
I1
tp6191
a(S'num3.)@caps1'
p6192
I1
tp6193
a(S'num3.narciso'
p6194
I1
tp6195
a(S'num3.the'
p6196
I1
tp6197
a(S'num3]'
p6198
I1
tp6199
a(S'num4).the'
p6200
I1
tp6201
a(S'num4.when'
p6202
I1
tp6203
a(S'num5)'
p6204
I1
tp6205
a(S'num5.)'
p6206
I1
tp6207
a(S'num6'
p6208
I1
tp6209
a(S'num6)'
p6210
I1
tp6211
a(S'num6.)'
p6212
I1
tp6213
a(S'num6.the'
p6214
I1
tp6215
a(S'num7'
p6216
I1
tp6217
a(S'observant'
p6218
I1
tp6219
a(S'obstancle'
p6220
I1
tp6221
a(S'obtain'
p6222
I1
tp6223
a(S'obvesoly'
p6224
I1
tp6225
a(S'occasionally'
p6226
I1
tp6227
a(S'occurring'
p6228
I1
tp6229
a(S'odd'
p6230
I1
tp6231
a(S'offered'
p6232
I1
tp6233
a(S'oftem'
p6234
I1
tp6235
a(S'oil'
p6236
I1
tp6237
a(S'ok'
p6238
I1
tp6239
a(S'ok!'
p6240
I1
tp6241
a(S'olwoy'
p6242
I1
tp6243
a(S'once.the'
p6244
I1
tp6245
a(S'ond'
p6246
I1
tp6247
a(S'one.in'
p6248
I1
tp6249
a(S'oneper'
p6250
I1
tp6251
a(S'oneroom'
p6252
I1
tp6253
a(S'ones.the'
p6254
I1
tp6255
a(S'onethe'
p6256
I1
tp6257
a(S'onhappy'
p6258
I1
tp6259
a(S'onion'
p6260
I1
tp6261
a(S'op'
p6262
I1
tp6263
a(S'open-ne'
p6264
I1
tp6265
a(S'opening'
p6266
I1
tp6267
a(S'opentothe'
p6268
I1
tp6269
a(S'opertunitie'
p6270
I1
tp6271
a(S'opertuntie'
p6272
I1
tp6273
a(S'opinion-i'
p6274
I1
tp6275
a(S'opion'
p6276
I1
tp6277
a(S'oportunit'
p6278
I1
tp6279
a(S'opportunty'
p6280
I1
tp6281
a(S'opposed'
p6282
I1
tp6283
a(S'optemistic'
p6284
I1
tp6285
a(S'option'
p6286
I1
tp6287
a(S'orange'
p6288
I1
tp6289
a(S'organization1.narciso'
p6290
I1
tp6291
a(S'organization1.the'
p6292
I1
tp6293
a(S'organization3'
p6294
I1
tp6295
a(S'organized'
p6296
I1
tp6297
a(S'oriented.the'
p6298
I1
tp6299
a(S'original'
p6300
I1
tp6301
a(S"other'"
p6302
I1
tp6303
a(S"others'"
p6304
I1
tp6305
a(S"others.'the"
p6306
I1
tp6307
a(S'others.the'
p6308
I1
tp6309
a(S'othr'
p6310
I1
tp6311
a(S'out.narciso'
p6312
I1
tp6313
a(S'out.next'
p6314
I1
tp6315
a(S'outcome'
p6316
I1
tp6317
a(S'outhor'
p6318
I1
tp6319
a(S'outlined'
p6320
I1
tp6321
a(S'outmost'
p6322
I1
tp6323
a(S'outside'
p6324
I1
tp6325
a(S'outstanding'
p6326
I1
tp6327
a(S'overcomed'
p6328
I1
tp6329
a(S'overcoming'
p6330
I1
tp6331
a(S'overdid'
p6332
I1
tp6333
a(S'overjoyed'
p6334
I1
tp6335
a(S'ovor'
p6336
I1
tp6337
a(S'page'
p6338
I1
tp6339
a(S'paint'
p6340
I1
tp6341
a(S'painting'
p6342
I1
tp6343
a(S'pakd'
p6344
I1
tp6345
a(S'paper'
p6346
I1
tp6347
a(S'paragraph.a'
p6348
I1
tp6349
a(S'paragraphs.in'
p6350
I1
tp6351
a(S'paranthesi'
p6352
I1
tp6353
a(S'parenth'
p6354
I1
tp6355
a(S'parents)'
p6356
I1
tp6357
a(S'parents.based'
p6358
I1
tp6359
a(S'parents.first'
p6360
I1
tp6361
a(S'parents.growing'
p6362
I1
tp6363
a(S'parents.no'
p6364
I1
tp6365
a(S'parents.one'
p6366
I1
tp6367
a(S'parents.these'
p6368
I1
tp6369
a(S'parents]'
p6370
I1
tp6371
a(S'parentshe/she'
p6372
I1
tp6373
a(S'parentsthe'
p6374
I1
tp6375
a(S'parint'
p6376
I1
tp6377
a(S'parnt'
p6378
I1
tp6379
a(S'paroent'
p6380
I1
tp6381
a(S'particullarly'
p6382
I1
tp6383
a(S'partying'
p6384
I1
tp6385
a(S'pasionate'
p6386
I1
tp6387
a(S'passage.the'
p6388
I1
tp6389
a(S'passagethe'
p6390
I1
tp6391
a(S'passionat'
p6392
I1
tp6393
a(S'passionate.the'
p6394
I1
tp6395
a(S'passionately'
p6396
I1
tp6397
a(S'pat'
p6398
I1
tp6399
a(S'path'
p6400
I1
tp6401
a(S'pave'
p6402
I1
tp6403
a(S'peacefull'
p6404
I1
tp6405
a(S'pease'
p6406
I1
tp6407
a(S'peice.the'
p6408
I1
tp6409
a(S'peirod'
p6410
I1
tp6411
a(S'peope'
p6412
I1
tp6413
a(S'people-many'
p6414
I1
tp6415
a(S'people.from'
p6416
I1
tp6417
a(S'people.narciso'
p6418
I1
tp6419
a(S'people.the'
p6420
I1
tp6421
a(S'peorson'
p6422
I1
tp6423
a(S'pepper'
p6424
I1
tp6425
a(S"perent'"
p6426
I1
tp6427
a(S'perfect.in'
p6428
I1
tp6429
a(S'perfectly'
p6430
I1
tp6431
a(S'perhap'
p6432
I1
tp6433
a(S'period'
p6434
I1
tp6435
a(S'perk'
p6436
I1
tp6437
a(S'permanently'
p6438
I1
tp6439
a(S'persaverence'
p6440
I1
tp6441
a(S'perserverance'
p6442
I1
tp6443
a(S'perservirence'
p6444
I1
tp6445
a(S'perseverance."in'
p6446
I1
tp6447
a(S'perseverance.a'
p6448
I1
tp6449
a(S'perseverence."the'
p6450
I1
tp6451
a(S'persistent'
p6452
I1
tp6453
a(S'person.and'
p6454
I1
tp6455
a(S'person1.the'
p6456
I1
tp6457
a(S'person2,had'
p6458
I1
tp6459
a(S"person3'"
p6460
I1
tp6461
a(S'personalitie'
p6462
I1
tp6463
a(S'personaly'
p6464
I1
tp6465
a(S'perverance'
p6466
I1
tp6467
a(S'phase'
p6468
I1
tp6469
a(S'phisically'
p6470
I1
tp6471
a(S'piecefull'
p6472
I1
tp6473
a(S'pin-point'
p6474
I1
tp6475
a(S'pity'
p6476
I1
tp6477
a(S'placein'
p6478
I1
tp6479
a(S'places.in'
p6480
I1
tp6481
a(S'plained'
p6482
I1
tp6483
a(S'plan'
p6484
I1
tp6485
a(S'plane'
p6486
I1
tp6487
a(S'pleasing'
p6488
I1
tp6489
a(S'pointed'
p6490
I1
tp6491
a(S'poopy'
p6492
I1
tp6493
a(S'pop'
p6494
I1
tp6495
a(S'popped'
p6496
I1
tp6497
a(S'portait'
p6498
I1
tp6499
a(S'portraying'
p6500
I1
tp6501
a(S'portreyed'
p6502
I1
tp6503
a(S'posative'
p6504
I1
tp6505
a(S'positie'
p6506
I1
tp6507
a(S'positively'
p6508
I1
tp6509
a(S'positivity'
p6510
I1
tp6511
a(S'positve'
p6512
I1
tp6513
a(S'pot'
p6514
I1
tp6515
a(S'potential'
p6516
I1
tp6517
a(S'potrays.in'
p6518
I1
tp6519
a(S'pouring'
p6520
I1
tp6521
a(S'prent'
p6522
I1
tp6523
a(S'prepared'
p6524
I1
tp6525
a(S'preserverance'
p6526
I1
tp6527
a(S'preseverance'
p6528
I1
tp6529
a(S'presse'
p6530
I1
tp6531
a(S'prevail'
p6532
I1
tp6533
a(S'prevalent'
p6534
I1
tp6535
a(S'previou'
p6536
I1
tp6537
a(S'previously'
p6538
I1
tp6539
a(S'pricele'
p6540
I1
tp6541
a(S'prid'
p6542
I1
tp6543
a(S'pridethe'
p6544
I1
tp6545
a(S'probaly'
p6546
I1
tp6547
a(S'problems.the'
p6548
I1
tp6549
a(S'proce'
p6550
I1
tp6551
a(S'prode'
p6552
I1
tp6553
a(S'prominant'
p6554
I1
tp6555
a(S'promising'
p6556
I1
tp6557
a(S'promoting'
p6558
I1
tp6559
a(S'prosperou'
p6560
I1
tp6561
a(S'protect'
p6562
I1
tp6563
a(S'protest'
p6564
I1
tp6565
a(S'proudenest'
p6566
I1
tp6567
a(S'proudly'
p6568
I1
tp6569
a(S'prouud'
p6570
I1
tp6571
a(S'proved'
p6572
I1
tp6573
a(S'provideing'
p6574
I1
tp6575
a(S'providvede'
p6576
I1
tp6577
a(S'prowed'
p6578
I1
tp6579
a(S'pull'
p6580
I1
tp6581
a(S'pulling'
p6582
I1
tp6583
a(S'purely'
p6584
I1
tp6585
a(S'purposfully'
p6586
I1
tp6587
a(S'pushed'
p6588
I1
tp6589
a(S'quality'
p6590
I1
tp6591
a(S'quant'
p6592
I1
tp6593
a(S'quarter'
p6594
I1
tp6595
a(S'quick'
p6596
I1
tp6597
a(S'quickly'
p6598
I1
tp6599
a(S'quiet'
p6600
I1
tp6601
a(S'quotein'
p6602
I1
tp6603
a(S'quthor'
p6604
I1
tp6605
a(S'racism.the'
p6606
I1
tp6607
a(S'racismn'
p6608
I1
tp6609
a(S'racistism'
p6610
I1
tp6611
a(S'racking'
p6612
I1
tp6613
a(S'radical'
p6614
I1
tp6615
a(S'raised.that'
p6616
I1
tp6617
a(S'rascism'
p6618
I1
tp6619
a(S'rasict'
p6620
I1
tp6621
a(S'rasism'
p6622
I1
tp6623
a(S'rather'
p6624
I1
tp6625
a(S'reach'
p6626
I1
tp6627
a(S'reache'
p6628
I1
tp6629
a(S'react'
p6630
I1
tp6631
a(S'reader."the'
p6632
I1
tp6633
a(S'realative;'
p6634
I1
tp6635
a(S'realetive'
p6636
I1
tp6637
a(S'reality]'
p6638
I1
tp6639
a(S'reallty'
p6640
I1
tp6641
a(S'reallyall'
p6642
I1
tp6643
a(S'reasonable'
p6644
I1
tp6645
a(S'recalled'
p6646
I1
tp6647
a(S'reccolection'
p6648
I1
tp6649
a(S'recipe'
p6650
I1
tp6651
a(S'recism'
p6652
I1
tp6653
a(S'recognizable'
p6654
I1
tp6655
a(S'recollection'
p6656
I1
tp6657
a(S'reconized'
p6658
I1
tp6659
a(S'recount'
p6660
I1
tp6661
a(S'red'
p6662
I1
tp6663
a(S'refer'
p6664
I1
tp6665
a(S'reference'
p6666
I1
tp6667
a(S'referred'
p6668
I1
tp6669
a(S'referring'
p6670
I1
tp6671
a(S'reflected'
p6672
I1
tp6673
a(S'reflective'
p6674
I1
tp6675
a(S'reflectivene'
p6676
I1
tp6677
a(S'refug'
p6678
I1
tp6679
a(S'register'
p6680
I1
tp6681
a(S'reigion'
p6682
I1
tp6683
a(S'reinforce'
p6684
I1
tp6685
a(S'relaited'
p6686
I1
tp6687
a(S'relat'
p6688
I1
tp6689
a(S'relatable'
p6690
I1
tp6691
a(S'related.the'
p6692
I1
tp6693
a(S'relating'
p6694
I1
tp6695
a(S'relations;'
p6696
I1
tp6697
a(S'relationship.the'
p6698
I1
tp6699
a(S"relative'"
p6700
I1
tp6701
a(S'relative."in'
p6702
I1
tp6703
a(S'relativethe'
p6704
I1
tp6705
a(S'relax'
p6706
I1
tp6707
a(S'relaxation'
p6708
I1
tp6709
a(S'relay'
p6710
I1
tp6711
a(S'reletive'
p6712
I1
tp6713
a(S'relieved'
p6714
I1
tp6715
a(S'relize'
p6716
I1
tp6717
a(S'relized'
p6718
I1
tp6719
a(S'rellated'
p6720
I1
tp6721
a(S'rellized'
p6722
I1
tp6723
a(S'remain'
p6724
I1
tp6725
a(S'remarkable'
p6726
I1
tp6727
a(S'rember'
p6728
I1
tp6729
a(S'remembered'
p6730
I1
tp6731
a(S'remembers.in'
p6732
I1
tp6733
a(S'remembrence'
p6734
I1
tp6735
a(S'reminded'
p6736
I1
tp6737
a(S'reminicing'
p6738
I1
tp6739
a(S'reminisant'
p6740
I1
tp6741
a(S'reminisant/wistful'
p6742
I1
tp6743
a(S'reminising'
p6744
I1
tp6745
a(S'repeadtly'
p6746
I1
tp6747
a(S'repeatedly."the'
p6748
I1
tp6749
a(S'repeating'
p6750
I1
tp6751
a(S'repedatedly'
p6752
I1
tp6753
a(S'repetedly'
p6754
I1
tp6755
a(S'repitition'
p6756
I1
tp6757
a(S'repititon'
p6758
I1
tp6759
a(S'replace'
p6760
I1
tp6761
a(S'replica'
p6762
I1
tp6763
a(S'represented'
p6764
I1
tp6765
a(S'resident'
p6766
I1
tp6767
a(S'responcible'
p6768
I1
tp6769
a(S'responsable'
p6770
I1
tp6771
a(S'restart'
p6772
I1
tp6773
a(S'restating'
p6774
I1
tp6775
a(S'resterrant'
p6776
I1
tp6777
a(S'retrospective'
p6778
I1
tp6779
a(S'returned'
p6780
I1
tp6781
a(S'reunited'
p6782
I1
tp6783
a(S'revelant'
p6784
I1
tp6785
a(S'revisit'
p6786
I1
tp6787
a(S'revolved'
p6788
I1
tp6789
a(S'rezon'
p6790
I1
tp6791
a(S'richest'
p6792
I1
tp6793
a(S'risking'
p6794
I1
tp6795
a(S'road'
p6796
I1
tp6797
a(S'rodriguez".in'
p6798
I1
tp6799
a(S'rodriguez".the'
p6800
I1
tp6801
a(S"rodriguez,'"
p6802
I1
tp6803
a(S'roller'
p6804
I1
tp6805
a(S'roof'
p6806
I1
tp6807
a(S'room.the'
p6808
I1
tp6809
a(S'rooms;'
p6810
I1
tp6811
a(S'rosemary;'
p6812
I1
tp6813
a(S'rough'
p6814
I1
tp6815
a(S'round'
p6816
I1
tp6817
a(S'rreates.in'
p6818
I1
tp6819
a(S'rude'
p6820
I1
tp6821
a(S'ruff'
p6822
I1
tp6823
a(S'sa'
p6824
I1
tp6825
a(S'sacafised'
p6826
I1
tp6827
a(S'sacarfice'
p6828
I1
tp6829
a(S'sacrafice."i'
p6830
I1
tp6831
a(S'sacrefice'
p6832
I1
tp6833
a(S'sacrific'
p6834
I1
tp6835
a(S'sacrifice".the'
p6836
I1
tp6837
a(S'sacrifice";'
p6838
I1
tp6839
a(S'sacrifice."in'
p6840
I1
tp6841
a(S'sacrifice."narciso'
p6842
I1
tp6843
a(S"sacrifice...'"
p6844
I1
tp6845
a(S'sacrifice.also'
p6846
I1
tp6847
a(S'sacrifice.he'
p6848
I1
tp6849
a(S'sacrifice.the'
p6850
I1
tp6851
a(S'sacrificed.and'
p6852
I1
tp6853
a(S'sacrificein'
p6854
I1
tp6855
a(S'sacrificied'
p6856
I1
tp6857
a(S'sacrifised'
p6858
I1
tp6859
a(S'sacrsfice'
p6860
I1
tp6861
a(S'sad/happy'
p6862
I1
tp6863
a(S'sadd'
p6864
I1
tp6865
a(S'sade'
p6866
I1
tp6867
a(S'sadness.the'
p6868
I1
tp6869
a(S'saed'
p6870
I1
tp6871
a(S'saf'
p6872
I1
tp6873
a(S'safene'
p6874
I1
tp6875
a(S'safest'
p6876
I1
tp6877
a(S'sald'
p6878
I1
tp6879
a(S'samething'
p6880
I1
tp6881
a(S'sane'
p6882
I1
tp6883
a(S'santurary.in'
p6884
I1
tp6885
a(S'sarrifice'
p6886
I1
tp6887
a(S'saticfied'
p6888
I1
tp6889
a(S'satisfiyed'
p6890
I1
tp6891
a(S'savior'
p6892
I1
tp6893
a(S'say;'
p6894
I1
tp6895
a(S'saye'
p6896
I1
tp6897
a(S'sayin'
p6898
I1
tp6899
a(S'saysin'
p6900
I1
tp6901
a(S'scaring'
p6902
I1
tp6903
a(S'scattered'
p6904
I1
tp6905
a(S'scenery'
p6906
I1
tp6907
a(S'scientist'
p6908
I1
tp6909
a(S'scrifice'
p6910
I1
tp6911
a(S'sea'
p6912
I1
tp6913
a(S'sead'
p6914
I1
tp6915
a(S'seam'
p6916
I1
tp6917
a(S'seconed'
p6918
I1
tp6919
a(S'secrifice'
p6920
I1
tp6921
a(S'secsesful'
p6922
I1
tp6923
a(S'sectional'
p6924
I1
tp6925
a(S'sections.first'
p6926
I1
tp6927
a(S'sed'
p6928
I1
tp6929
a(S'seening'
p6930
I1
tp6931
a(S'segration'
p6932
I1
tp6933
a(S'selectian'
p6934
I1
tp6935
a(S'self-le'
p6936
I1
tp6937
a(S'selfishne'
p6938
I1
tp6939
a(S'selflesne'
p6940
I1
tp6941
a(S'selfless.and'
p6942
I1
tp6943
a(S'selflessely'
p6944
I1
tp6945
a(S'selflessly...to'
p6946
I1
tp6947
a(S'selflessness.according'
p6948
I1
tp6949
a(S'selflessness.the'
p6950
I1
tp6951
a(S'selfnassle'
p6952
I1
tp6953
a(S'sellflly'
p6954
I1
tp6955
a(S'sensation'
p6956
I1
tp6957
a(S'senseof'
p6958
I1
tp6959
a(S'sensory'
p6960
I1
tp6961
a(S'sentence.he'
p6962
I1
tp6963
a(S'sentence.the'
p6964
I1
tp6965
a(S'sentenee'
p6966
I1
tp6967
a(S'serve'
p6968
I1
tp6969
a(S'set.the'
p6970
I1
tp6971
a(S'setted'
p6972
I1
tp6973
a(S'setting.in'
p6974
I1
tp6975
a(S'setting.the'
p6976
I1
tp6977
a(S'settle'
p6978
I1
tp6979
a(S'settled'
p6980
I1
tp6981
a(S'shaky'
p6982
I1
tp6983
a(S'shape'
p6984
I1
tp6985
a(S'shard'
p6986
I1
tp6987
a(S'shine'
p6988
I1
tp6989
a(S'shining'
p6990
I1
tp6991
a(S'ship'
p6992
I1
tp6993
a(S"shoe'"
p6994
I1
tp6995
a(S'shortage'
p6996
I1
tp6997
a(S'shot'
p6998
I1
tp6999
a(S"show'd"
p7000
I1
tp7001
a(S'show.the'
p7002
I1
tp7003
a(S'shown.the'
p7004
I1
tp7005
a(S'showned'
p7006
I1
tp7007
a(S'shure'
p7008
I1
tp7009
a(S'signaled'
p7010
I1
tp7011
a(S'silent'
p7012
I1
tp7013
a(S'simaler'
p7014
I1
tp7015
a(S'simallar'
p7016
I1
tp7017
a(S'simpe'
p7018
I1
tp7019
a(S'simply'
p7020
I1
tp7021
a(S'singing'
p7022
I1
tp7023
a(S'sit'
p7024
I1
tp7025
a(S'sitter'
p7026
I1
tp7027
a(S'sitter)'
p7028
I1
tp7029
a(S'situations.the'
p7030
I1
tp7031
a(S'six)'
p7032
I1
tp7033
a(S'sixth'
p7034
I1
tp7035
a(S'siy'
p7036
I1
tp7037
a(S'skills....a'
p7038
I1
tp7039
a(S'skillsin'
p7040
I1
tp7041
a(S'skillsthe'
p7042
I1
tp7043
a(S'slefli'
p7044
I1
tp7045
a(S'slow'
p7046
I1
tp7047
a(S'smelled'
p7048
I1
tp7049
a(S'sneaking'
p7050
I1
tp7051
a(S'sneek'
p7052
I1
tp7053
a(S'snippet'
p7054
I1
tp7055
a(S'snowing'
p7056
I1
tp7057
a(S'snuck'
p7058
I1
tp7059
a(S'soe'
p7060
I1
tp7061
a(S'soldarity'
p7062
I1
tp7063
a(S'solemn'
p7064
I1
tp7065
a(S'solidarily'
p7066
I1
tp7067
a(S'solidarity".in'
p7068
I1
tp7069
a(S'solidarity.there'
p7070
I1
tp7071
a(S'soliderity'
p7072
I1
tp7073
a(S'solidority'
p7074
I1
tp7075
a(S'solitary'
p7076
I1
tp7077
a(S'someon'
p7078
I1
tp7079
a(S"someone'"
p7080
I1
tp7081
a(S'someone.in'
p7082
I1
tp7083
a(S'somthing'
p7084
I1
tp7085
a(S"son'"
p7086
I1
tp7087
a(S'son.in'
p7088
I1
tp7089
a(S'son.the'
p7090
I1
tp7091
a(S'soomthly'
p7092
I1
tp7093
a(S'soothing'
p7094
I1
tp7095
a(S'sorta'
p7096
I1
tp7097
a(S'soul'
p7098
I1
tp7099
a(S'sounded'
p7100
I1
tp7101
a(S'sounding'
p7102
I1
tp7103
a(S'space.the'
p7104
I1
tp7105
a(S'spacethe'
p7106
I1
tp7107
a(S'spanish.i'
p7108
I1
tp7109
a(S'special.in'
p7110
I1
tp7111
a(S'spesific'
p7112
I1
tp7113
a(S'spicecfic'
p7114
I1
tp7115
a(S'spine'
p7116
I1
tp7117
a(S'spint'
p7118
I1
tp7119
a(S'spirited'
p7120
I1
tp7121
a(S'spoken'
p7122
I1
tp7123
a(S'sport'
p7124
I1
tp7125
a(S'spread'
p7126
I1
tp7127
a(S'squeezed'
p7128
I1
tp7129
a(S'srprised'
p7130
I1
tp7131
a(S'stage'
p7132
I1
tp7133
a(S'stair'
p7134
I1
tp7135
a(S'starte'
p7136
I1
tp7137
a(S'starter'
p7138
I1
tp7139
a(S'startover.in'
p7140
I1
tp7141
a(S'starve'
p7142
I1
tp7143
a(S'states"i'
p7144
I1
tp7145
a(S'states.i'
p7146
I1
tp7147
a(S'states.in'
p7148
I1
tp7149
a(S'states.narciso'
p7150
I1
tp7151
a(S'states.the'
p7152
I1
tp7153
a(S'stateted'
p7154
I1
tp7155
a(S'stay.finally'
p7156
I1
tp7157
a(S'steping'
p7158
I1
tp7159
a(S'sticked'
p7160
I1
tp7161
a(S'stile'
p7162
I1
tp7163
a(S'stoped'
p7164
I1
tp7165
a(S'stoping'
p7166
I1
tp7167
a(S'stopped'
p7168
I1
tp7169
a(S'story.hi'
p7170
I1
tp7171
a(S'story.i'
p7172
I1
tp7173
a(S'story.one'
p7174
I1
tp7175
a(S'story.well'
p7176
I1
tp7177
a(S'storythe'
p7178
I1
tp7179
a(S'strag'
p7180
I1
tp7181
a(S'street'
p7182
I1
tp7183
a(S'strengthen'
p7184
I1
tp7185
a(S'strengthened'
p7186
I1
tp7187
a(S'strenth'
p7188
I1
tp7189
a(S'stressing'
p7190
I1
tp7191
a(S'stretche'
p7192
I1
tp7193
a(S'strict'
p7194
I1
tp7195
a(S'stride'
p7196
I1
tp7197
a(S'strife'
p7198
I1
tp7199
a(S'stronger'
p7200
I1
tp7201
a(S'struggled.the'
p7202
I1
tp7203
a(S'struggleing'
p7204
I1
tp7205
a(S'student'
p7206
I1
tp7207
a(S'stunning'
p7208
I1
tp7209
a(S'style;'
p7210
I1
tp7211
a(S'subdued'
p7212
I1
tp7213
a(S'subtle'
p7214
I1
tp7215
a(S'succedy'
p7216
I1
tp7217
a(S'successfull'
p7218
I1
tp7219
a(S'such;'
p7220
I1
tp7221
a(S'suddenly'
p7222
I1
tp7223
a(S'suit'
p7224
I1
tp7225
a(S'summary'
p7226
I1
tp7227
a(S'summertime'
p7228
I1
tp7229
a(S'sunlight'
p7230
I1
tp7231
a(S'sunny'
p7232
I1
tp7233
a(S'supoorted'
p7234
I1
tp7235
a(S'suppost'
p7236
I1
tp7237
a(S'suprised'
p7238
I1
tp7239
a(S'suprizing'
p7240
I1
tp7241
a(S'surrogated'
p7242
I1
tp7243
a(S'surten'
p7244
I1
tp7245
a(S'sweet.the'
p7246
I1
tp7247
a(S'swift'
p7248
I1
tp7249
a(S'symbolize'
p7250
I1
tp7251
a(S'synonym'
p7252
I1
tp7253
a(S'table.in'
p7254
I1
tp7255
a(S'tacke'
p7256
I1
tp7257
a(S'takeing'
p7258
I1
tp7259
a(S'talke'
p7260
I1
tp7261
a(S'taste'
p7262
I1
tp7263
a(S'tasty'
p7264
I1
tp7265
a(S'teaaching'
p7266
I1
tp7267
a(S'teached'
p7268
I1
tp7269
a(S'technically'
p7270
I1
tp7271
a(S'ted'
p7272
I1
tp7273
a(S'temperally'
p7274
I1
tp7275
a(S'temporaily'
p7276
I1
tp7277
a(S'temporarly'
p7278
I1
tp7279
a(S'temporilily'
p7280
I1
tp7281
a(S'tempory'
p7282
I1
tp7283
a(S'ten'
p7284
I1
tp7285
a(S'tense'
p7286
I1
tp7287
a(S'tension'
p7288
I1
tp7289
a(S'text.in'
p7290
I1
tp7291
a(S'textthe'
p7292
I1
tp7293
a(S'tey'
p7294
I1
tp7295
a(S'thair'
p7296
I1
tp7297
a(S'thair/alway'
p7298
I1
tp7299
a(S'thanked.the'
p7300
I1
tp7301
a(S'thankfulness.the'
p7302
I1
tp7303
a(S'thanksful'
p7304
I1
tp7305
a(S'that.the'
p7306
I1
tp7307
a(S'thatthe'
p7308
I1
tp7309
a(S'thecape'
p7310
I1
tp7311
a(S'theire'
p7312
I1
tp7313
a(S'them.i'
p7314
I1
tp7315
a(S'themnarciso'
p7316
I1
tp7317
a(S'themselfs.the'
p7318
I1
tp7319
a(S'thenthe'
p7320
I1
tp7321
a(S'there.the'
p7322
I1
tp7323
a(S'therefor'
p7324
I1
tp7325
a(S'thereh'
p7326
I1
tp7327
a(S'therethe'
p7328
I1
tp7329
a(S'thesi'
p7330
I1
tp7331
a(S'theworld'
p7332
I1
tp7333
a(S"they'll"
p7334
I1
tp7335
a(S'they-came'
p7336
I1
tp7337
a(S'theywould'
p7338
I1
tp7339
a(S'thin'
p7340
I1
tp7341
a(S"thing'"
p7342
I1
tp7343
a(S'things.in'
p7344
I1
tp7345
a(S'think.the'
p7346
I1
tp7347
a(S'thirdly'
p7348
I1
tp7349
a(S'tho'
p7350
I1
tp7351
a(S'thoe'
p7352
I1
tp7353
a(S'thorought'
p7354
I1
tp7355
a(S'thoughful'
p7356
I1
tp7357
a(S'thoughfull'
p7358
I1
tp7359
a(S'thoughtfully'
p7360
I1
tp7361
a(S'thoughtfulne'
p7362
I1
tp7363
a(S'thouw'
p7364
I1
tp7365
a(S'three-'
p7366
I1
tp7367
a(S'three-bedroom'
p7368
I1
tp7369
a(S'thrilled'
p7370
I1
tp7371
a(S'thrived'
p7372
I1
tp7373
a(S'thro-ugh'
p7374
I1
tp7375
a(S'throghout'
p7376
I1
tp7377
a(S'tie'
p7378
I1
tp7379
a(S'tight'
p7380
I1
tp7381
a(S'tight-knit'
p7382
I1
tp7383
a(S'tightknit'
p7384
I1
tp7385
a(S"time'"
p7386
I1
tp7387
a(S'time.in'
p7388
I1
tp7389
a(S'time1'
p7390
I1
tp7391
a(S'times)'
p7392
I1
tp7393
a(S'times."in'
p7394
I1
tp7395
a(S'times.happy'
p7396
I1
tp7397
a(S'tital'
p7398
I1
tp7399
a(S'today"the'
p7400
I1
tp7401
a(S"today'"
p7402
I1
tp7403
a(S'today)'
p7404
I1
tp7405
a(S'today.narciso'
p7406
I1
tp7407
a(S'today.toward'
p7408
I1
tp7409
a(S'togather'
p7410
I1
tp7411
a(S'together.a'
p7412
I1
tp7413
a(S'together.in'
p7414
I1
tp7415
a(S'togetherness.in'
p7416
I1
tp7417
a(S'togetherness.the'
p7418
I1
tp7419
a(S'toghether'
p7420
I1
tp7421
a(S'toiled'
p7422
I1
tp7423
a(S'too.he'
p7424
I1
tp7425
a(S'too.the'
p7426
I1
tp7427
a(S'top'
p7428
I1
tp7429
a(S'tortilla'
p7430
I1
tp7431
a(S'totally'
p7432
I1
tp7433
a(S'tothe'
p7434
I1
tp7435
a(S'touching.in'
p7436
I1
tp7437
a(S'tougher'
p7438
I1
tp7439
a(S'town.the'
p7440
I1
tp7441
a(S'toworrd'
p7442
I1
tp7443
a(S'trade'
p7444
I1
tp7445
a(S'traditional-cuban'
p7446
I1
tp7447
a(S'traditionally'
p7448
I1
tp7449
a(S'tragedie'
p7450
I1
tp7451
a(S'tranquil'
p7452
I1
tp7453
a(S'transferred'
p7454
I1
tp7455
a(S'translate'
p7456
I1
tp7457
a(S'translated'
p7458
I1
tp7459
a(S'transpire'
p7460
I1
tp7461
a(S'traveled'
p7462
I1
tp7463
a(S'treasured'
p7464
I1
tp7465
a(S'treating'
p7466
I1
tp7467
a(S'tridition'
p7468
I1
tp7469
a(S'truning'
p7470
I1
tp7471
a(S'turened'
p7472
I1
tp7473
a(S'twent-seven'
p7474
I1
tp7475
a(S'twenty-one-year-old'
p7476
I1
tp7477
a(S'twenty-sevem-year-old'
p7478
I1
tp7479
a(S'twenty-seven-year-old'
p7480
I1
tp7481
a(S'twist'
p7482
I1
tp7483
a(S'tword'
p7484
I1
tp7485
a(S'typesof'
p7486
I1
tp7487
a(S'typical'
p7488
I1
tp7489
a(S'un'
p7490
I1
tp7491
a(S'unbelievably'
p7492
I1
tp7493
a(S'uncany'
p7494
I1
tp7495
a(S'uncle.home'
p7496
I1
tp7497
a(S'unconditional'
p7498
I1
tp7499
a(S'undefind.the'
p7500
I1
tp7501
a(S'undeniable'
p7502
I1
tp7503
a(S'underneath'
p7504
I1
tp7505
a(S'understandable'
p7506
I1
tp7507
a(S'understood'
p7508
I1
tp7509
a(S'undoubtably'
p7510
I1
tp7511
a(S'uneek'
p7512
I1
tp7513
a(S'unexpected'
p7514
I1
tp7515
a(S'unfadeable'
p7516
I1
tp7517
a(S'unintense'
p7518
I1
tp7519
a(S'uniting'
p7520
I1
tp7521
a(S'unity.thi'
p7522
I1
tp7523
a(S'unknowingly'
p7524
I1
tp7525
a(S'unknown'
p7526
I1
tp7527
a(S'unlike'
p7528
I1
tp7529
a(S'unlucky'
p7530
I1
tp7531
a(S'unofficial'
p7532
I1
tp7533
a(S'unsatisfying'
p7534
I1
tp7535
a(S'unselfish.the'
p7536
I1
tp7537
a(S'unserious.the'
p7538
I1
tp7539
a(S'unstanding'
p7540
I1
tp7541
a(S'unstead'
p7542
I1
tp7543
a(S'up!it'
p7544
I1
tp7545
a(S'up-beat'
p7546
I1
tp7547
a(S'up.also'
p7548
I1
tp7549
a(S'upin'
p7550
I1
tp7551
a(S'uplifting.the'
p7552
I1
tp7553
a(S'upon.the'
p7554
I1
tp7555
a(S'upto'
p7556
I1
tp7557
a(S'us)'
p7558
I1
tp7559
a(S'us."@caps1'
p7560
I1
tp7561
a(S'us."@caps2'
p7562
I1
tp7563
a(S'us."when'
p7564
I1
tp7565
a(S'us.those'
p7566
I1
tp7567
a(S'usally'
p7568
I1
tp7569
a(S'usual'
p7570
I1
tp7571
a(S'utter'
p7572
I1
tp7573
a(S'valued'
p7574
I1
tp7575
a(S'victim'
p7576
I1
tp7577
a(S'village'
p7578
I1
tp7579
a(S'visited'
p7580
I1
tp7581
a(S'visiting'
p7582
I1
tp7583
a(S'vocabulary'
p7584
I1
tp7585
a(S'voice'
p7586
I1
tp7587
a(S'wait'
p7588
I1
tp7589
a(S'ward'
p7590
I1
tp7591
a(S'warm-hearted'
p7592
I1
tp7593
a(S'warm.in'
p7594
I1
tp7595
a(S'warmer'
p7596
I1
tp7597
a(S'warming!)in'
p7598
I1
tp7599
a(S'warmth.the'
p7600
I1
tp7601
a(S'warmthne'
p7602
I1
tp7603
a(S'warth'
p7604
I1
tp7605
a(S'washe'
p7606
I1
tp7607
a(S'ways.one'
p7608
I1
tp7609
a(S"we're"
p7610
I1
tp7611
a(S'wealth'
p7612
I1
tp7613
a(S'weather'
p7614
I1
tp7615
a(S'weave'
p7616
I1
tp7617
a(S'weird'
p7618
I1
tp7619
a(S'welcamed'
p7620
I1
tp7621
a(S'well-being'
p7622
I1
tp7623
a(S'well-told'
p7624
I1
tp7625
a(S'well-written'
p7626
I1
tp7627
a(S'well.i'
p7628
I1
tp7629
a(S'well.the'
p7630
I1
tp7631
a(S'well.when'
p7632
I1
tp7633
a(S'went--'
p7634
I1
tp7635
a(S'went...my'
p7636
I1
tp7637
a(S'wer'
p7638
I1
tp7639
a(S'were.he'
p7640
I1
tp7641
a(S'were.in'
p7642
I1
tp7643
a(S'were.the'
p7644
I1
tp7645
a(S'werestruggling'
p7646
I1
tp7647
a(S'wether'
p7648
I1
tp7649
a(S"what'"
p7650
I1
tp7651
a(S'whenhi'
p7652
I1
tp7653
a(S'whent-and'
p7654
I1
tp7655
a(S'whenthey'
p7656
I1
tp7657
a(S'whith'
p7658
I1
tp7659
a(S'whose'
p7660
I1
tp7661
a(S'whoyouare'
p7662
I1
tp7663
a(S"why.they'd"
p7664
I1
tp7665
a(S'willpower'
p7666
I1
tp7667
a(S'window'
p7668
I1
tp7669
a(S'with.narciso'
p7670
I1
tp7671
a(S'with.the'
p7672
I1
tp7673
a(S'withthe'
p7674
I1
tp7675
a(S'wittingly'
p7676
I1
tp7677
a(S"woldn't"
p7678
I1
tp7679
a(S"won't"
p7680
I1
tp7681
a(S'wonderful.the'
p7682
I1
tp7683
a(S'wondrou'
p7684
I1
tp7685
a(S'worded'
p7686
I1
tp7687
a(S'work.lastly'
p7688
I1
tp7689
a(S'work.the'
p7690
I1
tp7691
a(S'working.in'
p7692
I1
tp7693
a(S'world.@organization1'
p7694
I1
tp7695
a(S'worried'
p7696
I1
tp7697
a(S'worthy'
p7698
I1
tp7699
a(S"would've"
p7700
I1
tp7701
a(S'wound'
p7702
I1
tp7703
a(S'wounderful'
p7704
I1
tp7705
a(S'writen'
p7706
I1
tp7707
a(S'yard'
p7708
I1
tp7709
a(S'yea'
p7710
I1
tp7711
a(S'yellow'
p7712
I1
tp7713
a(S'you.in'
p7714
I1
tp7715
a(S'younger'
p7716
I1
tp7717
a.