(lp1
(S'story'
p2
I1242
tp3
a(S'saeng'
p4
I1143
tp5
a(S'author'
p6
I1100
tp7
a(S'test'
p8
I1098
tp9
a(S'hibiscus'
p10
I751
tp11
a(S'paragraph'
p12
I731
tp13
a(S'take'
p14
I516
tp15
a(S'concludes'
p16
I494
tp17
a(S'new'
p18
I480
tp19
a(S'spring'
p20
I478
tp21
a(S'geese'
p22
I447
tp23
a(S'home'
p24
I403
tp25
a(S'plant'
p26
I385
tp27
a(S'back'
p28
I384
tp29
a(S'like'
p30
I354
tp31
a(S'also'
p32
I275
tp33
a(S'think'
p34
I272
tp35
a(S'come'
p36
I254
tp37
a(S'show'
p38
I254
tp39
a(S'flower'
p40
I249
tp41
a(S'shows'
p42
I249
tp43
a(S'budding'
p44
I247
tp45
a(S'time'
p46
I245
tp47
a(S'winter'
p48
I244
tp49
a(S'return'
p50
I232
tp51
a(S'going'
p52
I214
tp53
a(S'failed'
p54
I207
tp55
a(S'end'
p56
I197
tp57
a(S'pass'
p58
I190
tp59
a(S'life'
p60
I187
tp61
a(S'things'
p62
I186
tp63
a(S'mother'
p64
I179
tp65
a(S'give'
p66
I166
tp67
a(S'try'
p68
I160
tp69
a(S'way'
p70
I160
tp71
a(S'melt'
p72
I159
tp73
a(S'says'
p74
I154
tp75
a(S'wants'
p76
I152
tp77
a(S'snow'
p78
I148
tp79
a(S'hope'
p80
I147
tp81
a(S'last'
p82
I144
tp83
a(S'caps1'
p84
I140
tp85
a(S'make'
p86
I131
tp87
a(S'reader'
p88
I131
tp89
a(S'country'
p90
I124
tp91
a(S'vowed'
p92
I124
tp93
a(S'get'
p94
I122
tp95
a(S'example'
p96
I121
tp97
a(S'snows'
p98
I121
tp99
a(S'would'
p100
I116
tp101
a(S'start'
p102
I115
tp103
a(S'reason'
p104
I113
tp105
a(S'driving'
p106
I112
tp107
a(S'trying'
p108
I112
tp109
a(S'silently'
p110
I109
tp111
a(S'plants'
p112
I108
tp113
a(S'saying'
p114
I107
tp115
a(S'next'
p116
I106
tp117
a(S'\x93winter'
p118
I106
tp119
a(S'girl'
p120
I102
tp121
a(S'concluded'
p122
I101
tp123
a(S'good'
p124
I101
tp125
a(S'one'
p126
I100
tp127
a(S'flowers'
p128
I99
tp129
a(S'said'
p130
I97
tp131
a(S'memories'
p132
I95
tp133
a(S'old'
p134
I95
tp135
a(S'vietnam'
p136
I95
tp137
a(S'conclusion'
p138
I93
tp139
a(S'ending'
p140
I93
tp141
a(S'even'
p142
I93
tp143
a(S'used'
p144
I93
tp145
a(S'adapt'
p146
I92
tp147
a(S'change'
p148
I92
tp149
a(S'homeland'
p150
I92
tp151
a(S'saeng\x92s'
p152
I90
tp153
a(S'\x93when'
p154
I90
tp155
a(S'ends'
p156
I88
tp157
a(S'feel'
p158
I88
tp159
a(S'feels'
p160
I88
tp161
a(S'could'
p162
I86
tp163
a(S'say'
p164
I85
tp165
a(S'drivers'
p166
I84
tp167
a(S'ended'
p168
I84
tp169
a(S'hibiscus\x94'
p170
I84
tp171
a(S'know'
p172
I83
tp173
a(S'many'
p174
I83
tp175
a(S'another'
p176
I82
tp177
a(S'everything'
p178
I82
tp179
a(S'comes'
p180
I79
tp181
a(S'season'
p182
I79
tp183
a(S'familiar'
p184
I78
tp185
a(S''
I77
tp186
a(S'wanted'
p187
I76
tp188
a(S'ho'
p189
I73
tp190
a(S'better'
p191
I72
tp192
a(S'something'
p193
I72
tp194
a(S'determination'
p195
I71
tp196
a(S'failing'
p197
I71
tp198
a(S'go'
p199
I71
tp200
a(S'sentence'
p201
I71
tp202
a(S'past'
p203
I69
tp204
a(S'ready'
p205
I69
tp206
a(S'though'
p207
I69
tp208
a(S'much'
p209
I68
tp210
a(S'place'
p211
I68
tp212
a(S'strong'
p213
I67
tp214
a(S'help'
p215
I66
tp216
a(S'overcome'
p217
I66
tp218
a(S'first'
p219
I65
tp220
a(S'see'
p221
I65
tp222
a(S'still'
p223
I64
tp224
a(S'want'
p225
I64
tp226
a(S'year'
p227
I64
tp228
a(S'garden'
p229
I63
tp230
a(S'melts'
p231
I63
tp232
a(S'beginning'
p233
I62
tp234
a(S'location1'
p235
I62
tp236
a(S'means'
p237
I62
tp238
a(S'minfong'
p239
I62
tp240
a(S'states'
p241
I62
tp242
a(S'again.\x94'
p243
I61
tp244
a(S'believe'
p245
I61
tp246
a(S'keep'
p247
I60
tp248
a(S'makes'
p249
I59
tp250
a(S'gives'
p251
I58
tp252
a(S'determined'
p253
I57
tp254
a(S'it\x92s'
p255
I57
tp256
a(S'reminds'
p257
I57
tp258
a(S'comfort'
p259
I54
tp260
a(S'different'
p261
I54
tp262
a(S'grow'
p263
I53
tp264
a(S'really'
p265
I53
tp266
a(S'retake'
p267
I53
tp268
a(S'almost'
p269
I52
tp270
a(S'made'
p271
I52
tp272
a(S'hard'
p273
I51
tp274
a(S'important'
p275
I51
tp276
a(S'thing'
p277
I51
tp278
a(S'put'
p279
I50
tp280
a(S'thought'
p281
I50
tp282
a(S'well'
p283
I50
tp284
a(S'cold'
p285
I49
tp286
a(S'reasons'
p287
I49
tp288
a(S'chance'
p289
I48
tp290
a(S'character'
p291
I48
tp292
a(S'able'
p293
I47
tp294
a(S'month1'
p295
I46
tp296
a(S'become'
p297
I45
tp298
a(S'mom'
p299
I45
tp300
a(S'around'
p301
I44
tp302
a(S'knows'
p303
I44
tp304
a(S'always'
p305
I43
tp306
a(S'realized'
p307
I43
tp308
a(S'sad'
p309
I43
tp310
a(S'us'
p311
I43
tp312
a(S'main'
p313
I42
tp314
a(S'sees'
p315
I42
tp316
a(S'again\x94'
p317
I41
tp318
a(S'confidence'
p319
I41
tp320
a(S'planting'
p321
I41
tp322
a(S'quote'
p323
I41
tp324
a(S'sense'
p325
I41
tp326
a(S'survive'
p327
I41
tp328
a(S'uses'
p329
I41
tp330
a(S'bought'
p331
I40
tp332
a(S'conclude'
p333
I40
tp334
a(S'grandmother'
p335
I40
tp336
a(S'live'
p337
I40
tp338
a(S'right'
p339
I40
tp340
a(S'upset'
p341
I40
tp342
a(S'found'
p343
I39
tp344
a(S'nature'
p345
I39
tp346
a(S'represents'
p347
I39
tp348
a(S'felt'
p349
I38
tp350
a(S'future'
p351
I38
tp352
a(S'misses'
p353
I38
tp354
a(S'starting'
p355
I38
tp356
a(S'strange'
p357
I38
tp358
a(S'wait'
p359
I38
tp360
a(S'feeling'
p361
I37
tp362
a(S'never'
p363
I37
tp364
a(S'obstacles'
p365
I37
tp366
a(S'strength'
p367
I37
tp368
a(S'symbolizes'
p369
I37
tp370
a(S'&'
I36
tp371
a(S'didn\x92t'
p372
I36
tp373
a(S'happy'
p374
I36
tp375
a(S'moved'
p376
I36
tp377
a(S'people'
p378
I36
tp379
a(S'remind'
p380
I36
tp381
a(S'reminded'
p382
I36
tp383
a(S'starts'
p384
I36
tp385
a(S'thinks'
p386
I36
tp387
a(S'\x93'
I36
tp388
a(S'chose'
p389
I35
tp390
a(S'fail'
p391
I35
tp392
a(S'lot'
p393
I35
tp394
a(S'taking'
p395
I35
tp396
a(S'beautiful'
p397
I34
tp398
a(S'showing'
p399
I34
tp400
a(S'bud'
p401
I33
tp402
a(S'got'
p403
I33
tp404
a(S'meaning'
p405
I33
tp406
a(S'takes'
p407
I33
tp408
a(S'coming'
p409
I32
tp410
a(S'goes'
p411
I32
tp412
a(S'must'
p413
I32
tp414
a(S'saw'
p415
I32
tp416
a(S'since'
p417
I32
tp418
a(S'adapting'
p419
I31
tp420
a(S'away'
p421
I31
tp422
a(S'came'
p423
I31
tp424
a(S'confident'
p425
I31
tp426
a(S'driver\x92s'
p427
I31
tp428
a(S'growing'
p429
I31
tp430
a(S'mean'
p431
I31
tp432
a(S'needs'
p433
I31
tp434
a(S'united'
p435
I31
tp436
a(S'again.the'
p437
I30
tp438
a(S'doesn\x92t'
p439
I30
tp440
a(S'enough'
p441
I30
tp442
a(S'gets'
p443
I30
tp444
a(S'helps'
p445
I30
tp446
a(S'passing'
p447
I30
tp448
a(S'thats'
p449
I30
tp450
a(S'move'
p451
I29
tp452
a(S'realizes'
p453
I29
tp454
a(S'she\x92s'
p455
I29
tp456
a(S'statement'
p457
I29
tp458
a(S'succeed'
p459
I29
tp460
a(S'tell'
p461
I29
tp462
a(S'test.the'
p463
I29
tp464
a(S'work'
p465
I29
tp466
a(S'changes'
p467
I28
tp468
a(S'concluding'
p469
I28
tp470
a(S'environment'
p471
I28
tp472
a(S'fresh'
p473
I28
tp474
a(S'kind'
p475
I28
tp476
a(S'let'
p477
I28
tp478
a(S'little'
p479
I28
tp480
a(S'represent'
p481
I28
tp482
a(S'seeing'
p483
I28
tp484
a(S'text'
p485
I28
tp486
a(S'upon'
p487
I28
tp488
a(S'caps2'
p489
I27
tp490
a(S'don\x92t'
p491
I27
tp492
a(S'family'
p493
I27
tp494
a(S'believes'
p495
I26
tp496
a(S'comfortable'
p497
I26
tp498
a(S'continue'
p499
I26
tp500
a(S'giving'
p501
I26
tp502
a(S'seems'
p503
I26
tp504
a(S'she\x92ll'
p505
I26
tp506
a(S'tells'
p507
I26
tp508
a(S'use'
p509
I26
tp510
a(S'blooming'
p511
I25
tp512
a(S'day'
p513
I25
tp514
a(S'fact'
p515
I25
tp516
a(S'leaves'
p517
I25
tp518
a(S'living'
p519
I25
tp520
a(S"saeng's"
p521
I25
tp522
a(S'times'
p523
I25
tp524
a(S'gave'
p525
I24
tp526
a(S'happen'
p527
I24
tp528
a(S'look'
p529
I24
tp530
a(S'might'
p531
I24
tp532
a(S'paragraph.the'
p533
I24
tp534
a(S'talking'
p535
I24
tp536
a(S'that\x92s'
p537
I24
tp538
a(S'throughout'
p539
I24
tp540
a(S'willing'
p541
I24
tp542
a(S'adjust'
p543
I23
tp544
a(S'bad'
p545
I23
tp546
a(S'bloom'
p547
I23
tp548
a(S'bring'
p549
I23
tp550
a(S'buds'
p551
I23
tp552
a(S'includes'
p553
I23
tp554
a(S'location2'
p555
I23
tp556
a(S'moving'
p557
I23
tp558
a(S'probably'
p559
I23
tp560
a(S'readers'
p561
I23
tp562
a(S'surroundings'
p563
I23
tp564
a(S'therefore'
p565
I23
tp566
a(S'took'
p567
I23
tp568
a(S'words'
p569
I23
tp570
a(S'\x93i'
p571
I23
tp572
a(S'\x93in'
p573
I23
tp574
a(S'disappointed'
p575
I22
tp576
a(S'final'
p577
I22
tp578
a(S'getting'
p579
I22
tp580
a(S'likes'
p581
I22
tp582
a(S'making'
p583
I22
tp584
a(S'months'
p585
I22
tp586
a(S'best'
p587
I21
tp588
a(S'blooms'
p589
I21
tp590
a(S'every'
p591
I21
tp592
a(S'grew'
p593
I21
tp594
a(S'idea'
p595
I21
tp596
a(S'leave'
p597
I21
tp598
a(S'left'
p599
I21
tp600
a(S'loves'
p601
I21
tp602
a(S'matter'
p603
I21
tp604
a(S'maybe'
p605
I21
tp606
a(S'point'
p607
I21
tp608
a(S'school'
p609
I21
tp610
a(S'shop'
p611
I21
tp612
a(S'situation'
p613
I21
tp614
a(S'vow'
p615
I21
tp616
a(S'warm'
p617
I21
tp618
a(S'went'
p619
I21
tp620
a(S'care'
p621
I20
tp622
a(S'connection'
p623
I20
tp624
a(S'fly'
p625
I20
tp626
a(S'flying'
p627
I20
tp628
a(S'however'
p629
I20
tp630
a(S'narrator'
p631
I20
tp632
a(S'pretty'
p633
I20
tp634
a(S'quiet'
p635
I20
tp636
a(S'together'
p637
I20
tp638
a(S'fails'
p639
I19
tp640
a(S'missed'
p641
I19
tp642
a(S'read'
p643
I19
tp644
a(S'seasons'
p645
I19
tp646
a(S'second'
p647
I19
tp648
a(S'started'
p649
I19
tp650
a(S'theme'
p651
I19
tp652
a(S'adapted'
p653
I18
tp654
a(S'brings'
p655
I18
tp656
a(S'buys'
p657
I18
tp658
a(S'decides'
p659
I18
tp660
a(S'done'
p661
I18
tp662
a(S'friends'
p663
I18
tp664
a(S'gardening'
p665
I18
tp666
a(S'included'
p667
I18
tp668
a(S'land'
p669
I18
tp670
a(S'part'
p671
I18
tp672
a(S'repetition'
p673
I18
tp674
a(S'short'
p675
I18
tp676
a(S'showed'
p677
I18
tp678
a(S'thinking'
p679
I18
tp680
a(S'\x94'
I18
tp681
a(S'ability'
p682
I17
tp683
a(S'added'
p684
I17
tp685
a(S'again,\x94'
p686
I17
tp687
a(S'finally'
p688
I17
tp689
a(S'find'
p690
I17
tp691
a(S'learn'
p692
I17
tp693
a(S'passage'
p694
I17
tp695
a(S'person'
p696
I17
tp697
a(S'symbolize'
p698
I17
tp699
a(S'tone'
p700
I17
tp701
a(S'whole'
p702
I17
tp703
a(S'accept'
p704
I16
tp705
a(S'auther'
p706
I16
tp707
a(S'cause'
p708
I16
tp709
a(S'courage'
p710
I16
tp711
a(S'daughter'
p712
I16
tp713
a(S'gone'
p714
I16
tp715
a(S'head'
p716
I16
tp717
a(S'importance'
p718
I16
tp719
a(S'isn\x92t'
p720
I16
tp721
a(S'lives'
p722
I16
tp723
a(S'memory'
p724
I16
tp725
a(S'order'
p726
I16
tp727
a(S'positive'
p728
I16
tp729
a(S'remember'
p730
I16
tp731
a(S'story.the'
p732
I16
tp733
a(S'symbol'
p734
I16
tp735
a(S'telling'
p736
I16
tp737
a(S'understand'
p738
I16
tp739
a(S'waiting'
p740
I16
tp741
a(S'walking'
p742
I16
tp743
a(S'yet'
p744
I16
tp745
a(S'\x93the'
p746
I16
tp747
a(S'attitude'
p748
I15
tp749
a(S'comforted'
p750
I15
tp751
a(S'cry'
p752
I15
tp753
a(S'finds'
p754
I15
tp755
a(S'forget'
p756
I15
tp757
a(S'given'
p758
I15
tp759
a(S'green'
p760
I15
tp761
a(S'happened'
p762
I15
tp763
a(S'knew'
p764
I15
tp765
a(S'love'
p766
I15
tp767
a(S'need'
p768
I15
tp769
a(S'obstacle'
p770
I15
tp771
a(S'sadness'
p772
I15
tp773
a(S'similar'
p774
I15
tp775
a(S'understanding'
p776
I15
tp777
a(S'ways'
p778
I15
tp779
a(S'weather'
p780
I15
tp781
a(S'world'
p782
I15
tp783
a(S'\x93almost'
p784
I15
tp785
a(S'adjusting'
p786
I14
tp787
a(S'brought'
p788
I14
tp789
a(S'eyes'
p790
I14
tp791
a(S'fit'
p792
I14
tp793
a(S'greenhouse'
p794
I14
tp795
a(S'harsh'
p796
I14
tp797
a(S'house'
p798
I14
tp799
a(S'luck'
p800
I14
tp801
a(S'mind'
p802
I14
tp803
a(S'passed'
p804
I14
tp805
a(S'reading'
p806
I14
tp807
a(S'real'
p808
I14
tp809
a(S'shaky'
p810
I14
tp811
a(S'shes'
p812
I14
tp813
a(S'two'
p814
I14
tp815
a(S'vows'
p816
I14
tp817
a(S'wrote'
p818
I14
tp819
a(S'\x93she'
p820
I14
tp821
a(S'buy'
p822
I13
tp823
a(S'buying'
p824
I13
tp825
a(S'crying'
p826
I13
tp827
a(S'experience'
p828
I13
tp829
a(S'explains'
p830
I13
tp831
a(S'great'
p832
I13
tp833
a(S'looking'
p834
I13
tp835
a(S'loved'
p836
I13
tp837
a(S'missing'
p838
I13
tp839
a(S'needed'
p840
I13
tp841
a(S'note'
p842
I13
tp843
a(S'now.\x94'
p844
I13
tp845
a(S'ones'
p846
I13
tp847
a(S'passes'
p848
I13
tp849
a(S'promise'
p850
I13
tp851
a(S'reluctantly'
p852
I13
tp853
a(S'returning'
p854
I13
tp855
a(S'seemed'
p856
I13
tp857
a(S'stop'
p858
I13
tp859
a(S'told'
p860
I13
tp861
a(S'vowing'
p862
I13
tp863
a(S'along'
p864
I12
tp865
a(S'aren\x92t'
p866
I12
tp867
a(S'basically'
p868
I12
tp869
a(S'beauty'
p870
I12
tp871
a(S'begins'
p872
I12
tp873
a(S'big'
p874
I12
tp875
a(S'comforts'
p876
I12
tp877
a(S'depressed'
p878
I12
tp879
a(S'die'
p880
I12
tp881
a(S'disappointment'
p882
I12
tp883
a(S'explain'
p884
I12
tp885
a(S'explaining'
p886
I12
tp887
a(S'goal'
p888
I12
tp889
a(S'knowing'
p890
I12
tp891
a(S'leaving'
p892
I12
tp893
a(S'loss'
p894
I12
tp895
a(S'miss'
p896
I12
tp897
a(S'planted'
p898
I12
tp899
a(S'rebirth'
p900
I12
tp901
a(S'relates'
p902
I12
tp903
a(S'returns'
p904
I12
tp905
a(S'talks'
p906
I12
tp907
a(S'without'
p908
I12
tp909
a(S'\x93i-i'
p910
I12
tp911
a(S'\x96'
I12
tp912
a(S'can\x92t'
p913
I11
tp914
a(S'clear'
p915
I11
tp916
a(S'complete'
p917
I11
tp918
a(S'culture'
p919
I11
tp920
a(S'deep'
p921
I11
tp922
a(S'experiences'
p923
I11
tp924
a(S'express'
p925
I11
tp926
a(S'finish'
p927
I11
tp928
a(S'forward'
p929
I11
tp930
a(S'hibiscus,\x94'
p931
I11
tp932
a(S'hopes'
p933
I11
tp934
a(S'inspiration'
p935
I11
tp936
a(S'lifestyle'
p937
I11
tp938
a(S'long'
p939
I11
tp940
a(S'message'
p941
I11
tp942
a(S'motivation'
p943
I11
tp944
a(S'nice'
p945
I11
tp946
a(S'overcoming'
p947
I11
tp948
a(S'person1'
p949
I11
tp950
a(S'quit'
p951
I11
tp952
a(S'relate'
p953
I11
tp954
a(S'self'
p955
I11
tp956
a(S'small'
p957
I11
tp958
a(S'sounds'
p959
I11
tp960
a(S'south'
p961
I11
tp962
a(S'stronger'
p963
I11
tp964
a(S'symbolism'
p965
I11
tp966
a(S'wasn\x92t'
p967
I11
tp968
a(S'author\x92s'
p969
I10
tp970
a(S'becoming'
p971
I10
tp972
a(S'canada'
p973
I10
tp974
a(S'childhood'
p975
I10
tp976
a(S'emphasize'
p977
I10
tp978
a(S'enjoy'
p979
I10
tp980
a(S'ground'
p981
I10
tp982
a(S'hair'
p983
I10
tp984
a(S'happens'
p985
I10
tp986
a(S'homesick'
p987
I10
tp988
a(S'hopeful'
p989
I10
tp990
a(S'instead'
p991
I10
tp992
a(S"it's"
p993
I10
tp994
a(S'life.the'
p995
I10
tp996
a(S'line'
p997
I10
tp998
a(S'normal'
p999
I10
tp1000
a(S'overall'
p1001
I10
tp1002
a(S'rather'
p1003
I10
tp1004
a(S'realize'
p1005
I10
tp1006
a(S'remembers'
p1007
I10
tp1008
a(S'spent'
p1009
I10
tp1010
a(S'stay'
p1011
I10
tp1012
a(S'tears'
p1013
I10
tp1014
a(S'trouble'
p1015
I10
tp1016
a(S'v'
I10
tp1017
a(S'won\x92t'
p1018
I10
tp1019
a(S'\x93then'
p1020
I10
tp1021
a(S'already'
p1022
I9
tp1023
a(S'authors'
p1024
I9
tp1025
a(S'bitter'
p1026
I9
tp1027
a(S'budding\x94'
p1028
I9
tp1029
a(S'changed'
p1030
I9
tp1031
a(S'deal'
p1032
I9
tp1033
a(S'drive'
p1034
I9
tp1035
a(S'events'
p1036
I9
tp1037
a(S'face'
p1038
I9
tp1039
a(S'feelings'
p1040
I9
tp1041
a(S'flew'
p1042
I9
tp1043
a(S'flock'
p1044
I9
tp1045
a(S'florist'
p1046
I9
tp1047
a(S'grown'
p1048
I9
tp1049
a(S'grows'
p1050
I9
tp1051
a(S'her.the'
p1052
I9
tp1053
a(S'homesickness'
p1054
I9
tp1055
a(S'it.the'
p1056
I9
tp1057
a(S'later'
p1058
I9
tp1059
a(S'lesson'
p1060
I9
tp1061
a(S'money'
p1062
I9
tp1063
a(S'num1)'
p1064
I9
tp1065
a(S'outside'
p1066
I9
tp1067
a(S'pain'
p1068
I9
tp1069
a(S'phrase'
p1070
I9
tp1071
a(S'proud'
p1072
I9
tp1073
a(S'purpose'
p1074
I9
tp1075
a(S'puts'
p1076
I9
tp1077
a(S'reminder'
p1078
I9
tp1079
a(S'retaking'
p1080
I9
tp1081
a(S'seeds'
p1082
I9
tp1083
a(S'seen'
p1084
I9
tp1085
a(S'several'
p1086
I9
tp1087
a(S"she's"
p1088
I9
tp1089
a(S'shelter'
p1090
I9
tp1091
a(S'shown'
p1092
I9
tp1093
a(S'soil'
p1094
I9
tp1095
a(S'state'
p1096
I9
tp1097
a(S'struggle'
p1098
I9
tp1099
a(S'stuff'
p1100
I9
tp1101
a(S'symbolized'
p1102
I9
tp1103
a(S'test\x94'
p1104
I9
tp1105
a(S'time.the'
p1106
I9
tp1107
a(S'towards'
p1108
I9
tp1109
a(S'writes'
p1110
I9
tp1111
a(S'\x93saeng'
p1112
I9
tp1113
a(S'across'
p1114
I8
tp1115
a(S'adds'
p1116
I8
tp1117
a(S'adjusted'
p1118
I8
tp1119
a(S'allow'
p1120
I8
tp1121
a(S'although'
p1122
I8
tp1123
a(S'attempt'
p1124
I8
tp1125
a(S'broke'
p1126
I8
tp1127
a(S'burst'
p1128
I8
tp1129
a(S'caps3'
p1130
I8
tp1131
a(S'comforting'
p1132
I8
tp1133
a(S'decided'
p1134
I8
tp1135
a(S'deeply'
p1136
I8
tp1137
a(S'distinctive'
p1138
I8
tp1139
a(S"don't"
p1140
I8
tp1141
a(S"driver's"
p1142
I8
tp1143
a(S'emotion'
p1144
I8
tp1145
a(S'growth'
p1146
I8
tp1147
a(S'harder'
p1148
I8
tp1149
a(S'hardships'
p1150
I8
tp1151
a(S'home.the'
p1152
I8
tp1153
a(S'hopefully'
p1154
I8
tp1155
a(S'known'
p1156
I8
tp1157
a(S'lost'
p1158
I8
tp1159
a(S'meant'
p1160
I8
tp1161
a(S'mentions'
p1162
I8
tp1163
a(S'money1'
p1164
I8
tp1165
a(S'num1'
p1166
I8
tp1167
a(S'piece'
p1168
I8
tp1169
a(S'pot'
p1170
I8
tp1171
a(S'prepare'
p1172
I8
tp1173
a(S'problems'
p1174
I8
tp1175
a(S'prove'
p1176
I8
tp1177
a(S'putting'
p1178
I8
tp1179
a(S'sign'
p1180
I8
tp1181
a(S'sound'
p1182
I8
tp1183
a(S'store'
p1184
I8
tp1185
a(S'study'
p1186
I8
tp1187
a(S'sums'
p1188
I8
tp1189
a(S'sure'
p1190
I8
tp1191
a(S'swept'
p1192
I8
tp1193
a(S'talk'
p1194
I8
tp1195
a(S'wave'
p1196
I8
tp1197
a(S'wild'
p1198
I8
tp1199
a(S'wonder'
p1200
I8
tp1201
a(S'written'
p1202
I8
tp1203
a(S'young'
p1204
I8
tp1205
a(S'\x93and'
p1206
I8
tp1207
a(S'\x93this'
p1208
I8
tp1209
a(S'adaptation'
p1210
I7
tp1211
a(S'add'
p1212
I7
tp1213
a(S'alone'
p1214
I7
tp1215
a(S'area'
p1216
I7
tp1217
a(S'began'
p1218
I7
tp1219
a(S'begining'
p1220
I7
tp1221
a(S'bit'
p1222
I7
tp1223
a(S'blossom'
p1224
I7
tp1225
a(S'changing'
p1226
I7
tp1227
a(S'choice'
p1228
I7
tp1229
a(S'choose'
p1230
I7
tp1231
a(S'circumstances'
p1232
I7
tp1233
a(S'closure'
p1234
I7
tp1235
a(S'demonstrates'
p1236
I7
tp1237
a(S'describing'
p1238
I7
tp1239
a(S'difficult'
p1240
I7
tp1241
a(S'else'
p1242
I7
tp1243
a(S'ever'
p1244
I7
tp1245
a(S'failure'
p1246
I7
tp1247
a(S'faith'
p1248
I7
tp1249
a(S'finishes'
p1250
I7
tp1251
a(S'fitting'
p1252
I7
tp1253
a(S'full'
p1254
I7
tp1255
a(S'he/she'
p1256
I7
tp1257
a(S'hibiscus.the'
p1258
I7
tp1259
a(S'hole'
p1260
I7
tp1261
a(S'interesting'
p1262
I7
tp1263
a(S'keeps'
p1264
I7
tp1265
a(S'learned'
p1266
I7
tp1267
a(S'less'
p1268
I7
tp1269
a(S'lest'
p1270
I7
tp1271
a(S'letting'
p1272
I7
tp1273
a(S'longer'
p1274
I7
tp1275
a(S'looked'
p1276
I7
tp1277
a(S'moist'
p1278
I7
tp1279
a(S'mood'
p1280
I7
tp1281
a(S'native'
p1282
I7
tp1283
a(S'nothing'
p1284
I7
tp1285
a(S'ok'
p1286
I7
tp1287
a(S'opportunity'
p1288
I7
tp1289
a(S'overhead'
p1290
I7
tp1291
a(S'peace'
p1292
I7
tp1293
a(S'provides'
p1294
I7
tp1295
a(S'push'
p1296
I7
tp1297
a(S'referring'
p1298
I7
tp1299
a(S'remembering'
p1300
I7
tp1301
a(S'return\x94'
p1302
I7
tp1303
a(S'seem'
p1304
I7
tp1305
a(S'sets'
p1306
I7
tp1307
a(S'slowly'
p1308
I7
tp1309
a(S'someone'
p1310
I7
tp1311
a(S'soon'
p1312
I7
tp1313
a(S'struggles'
p1314
I7
tp1315
a(S'stung'
p1316
I7
tp1317
a(S'test,\x94'
p1318
I7
tp1319
a(S'test.i'
p1320
I7
tp1321
a(S'test.\x94'
p1322
I7
tp1323
a(S'ties'
p1324
I7
tp1325
a(S'tough'
p1326
I7
tp1327
a(S'tropical'
p1328
I7
tp1329
a(S'using'
p1330
I7
tp1331
a(S'within'
p1332
I7
tp1333
a(S'wont'
p1334
I7
tp1335
a(S'working'
p1336
I7
tp1337
a(S'\x93a'
p1338
I7
tp1339
a(S'(ho'
p1340
I6
tp1341
a(S'accepted'
p1342
I6
tp1343
a(S'agin'
p1344
I6
tp1345
a(S'alive'
p1346
I6
tp1347
a(S'becomes'
p1348
I6
tp1349
a(S'begin'
p1350
I6
tp1351
a(S'beginnings'
p1352
I6
tp1353
a(S'behind'
p1354
I6
tp1355
a(S'book'
p1356
I6
tp1357
a(S'cares'
p1358
I6
tp1359
a(S'certain'
p1360
I6
tp1361
a(S'challenges'
p1362
I6
tp1363
a(S'closing'
p1364
I6
tp1365
a(S'compare'
p1366
I6
tp1367
a(S'comparing'
p1368
I6
tp1369
a(S'create'
p1370
I6
tp1371
a(S'cycle'
p1372
I6
tp1373
a(S'date1'
p1374
I6
tp1375
a(S'describes'
p1376
I6
tp1377
a(S'despite'
p1378
I6
tp1379
a(S"didn't"
p1380
I6
tp1381
a(S'dissapointed'
p1382
I6
tp1383
a(S'ease'
p1384
I6
tp1385
a(S'emotions'
p1386
I6
tp1387
a(S'faint'
p1388
I6
tp1389
a(S'filled'
p1390
I6
tp1391
a(S'finding'
p1392
I6
tp1393
a(S'food'
p1394
I6
tp1395
a(S'girls'
p1396
I6
tp1397
a(S'guess'
p1398
I6
tp1399
a(S'heart'
p1400
I6
tp1401
a(S'helped'
p1402
I6
tp1403
a(S'her.\x94'
p1404
I6
tp1405
a(S'hold'
p1406
I6
tp1407
a(S'implies'
p1408
I6
tp1409
a(S'include'
p1410
I6
tp1411
a(S'job'
p1412
I6
tp1413
a(S'keeping'
p1414
I6
tp1415
a(S'lastly'
p1416
I6
tp1417
a(S'lead'
p1418
I6
tp1419
a(S'learning'
p1420
I6
tp1421
a(S'lifted'
p1422
I6
tp1423
a(S'likely'
p1424
I6
tp1425
a(S'lines'
p1426
I6
tp1427
a(S'ment'
p1428
I6
tp1429
a(S'moves'
p1430
I6
tp1431
a(S'named'
p1432
I6
tp1433
a(S'objects'
p1434
I6
tp1435
a(S'obviously'
p1436
I6
tp1437
a(S'organization1'
p1438
I6
tp1439
a(S'others'
p1440
I6
tp1441
a(S'places'
p1442
I6
tp1443
a(S'plans'
p1444
I6
tp1445
a(S'power'
p1446
I6
tp1447
a(S'prepared'
p1448
I6
tp1449
a(S'present'
p1450
I6
tp1451
a(S're-take'
p1452
I6
tp1453
a(S'realizing'
p1454
I6
tp1455
a(S'remembered'
p1456
I6
tp1457
a(S'renewed'
p1458
I6
tp1459
a(S'resolution'
p1460
I6
tp1461
a(S'retry'
p1462
I6
tp1463
a(S'set'
p1464
I6
tp1465
a(S'simple'
p1466
I6
tp1467
a(S'simply'
p1468
I6
tp1469
a(S'sky'
p1470
I6
tp1471
a(S'sort'
p1472
I6
tp1473
a(S'special'
p1474
I6
tp1475
a(S'spend'
p1476
I6
tp1477
a(S'spring.the'
p1478
I6
tp1479
a(S'stared'
p1480
I6
tp1481
a(S'support'
p1482
I6
tp1483
a(S'suspense'
p1484
I6
tp1485
a(S'sweet'
p1486
I6
tp1487
a(S'symbolic'
p1488
I6
tp1489
a(S'symbols'
p1490
I6
tp1491
a(S'taken'
p1492
I6
tp1493
a(S'task'
p1494
I6
tp1495
a(S'thoughts'
p1496
I6
tp1497
a(S'town'
p1498
I6
tp1499
a(S'winter.the'
p1500
I6
tp1501
a(S'write'
p1502
I6
tp1503
a(S'\x93it\x92s'
p1504
I6
tp1505
a(S'adaption'
p1506
I5
tp1507
a(S'adapts'
p1508
I5
tp1509
a(S'again.in'
p1510
I5
tp1511
a(S'allows'
p1512
I5
tp1513
a(S'alot'
p1514
I5
tp1515
a(S'animals'
p1516
I5
tp1517
a(S'anything'
p1518
I5
tp1519
a(S'authour'
p1520
I5
tp1521
a(S'believed'
p1522
I5
tp1523
a(S'belive'
p1524
I5
tp1525
a(S'birds'
p1526
I5
tp1527
a(S'break'
p1528
I5
tp1529
a(S'budding.\x94'
p1530
I5
tp1531
a(S'carefully'
p1532
I5
tp1533
a(S'clearly'
p1534
I5
tp1535
a(S'close'
p1536
I5
tp1537
a(S'closed'
p1538
I5
tp1539
a(S'commitment'
p1540
I5
tp1541
a(S'connect'
p1542
I5
tp1543
a(S'cost'
p1544
I5
tp1545
a(S'couldn\x92t'
p1546
I5
tp1547
a(S'cracks'
p1548
I5
tp1549
a(S'creates'
p1550
I5
tp1551
a(S'cries'
p1552
I5
tp1553
a(S'decide'
p1554
I5
tp1555
a(S'despair'
p1556
I5
tp1557
a(S'dinner'
p1558
I5
tp1559
a(S'disapointed'
p1560
I5
tp1561
a(S"doesn't"
p1562
I5
tp1563
a(S'driver'
p1564
I5
tp1565
a(S'due'
p1566
I5
tp1567
a(S'effect'
p1568
I5
tp1569
a(S'effort'
p1570
I5
tp1571
a(S'encouragement'
p1572
I5
tp1573
a(S'enjoys'
p1574
I5
tp1575
a(S'especially'
p1576
I5
tp1577
a(S'everyone'
p1578
I5
tp1579
a(S'familiarity'
p1580
I5
tp1581
a(S'fight'
p1582
I5
tp1583
a(S'finished'
p1584
I5
tp1585
a(S'focus'
p1586
I5
tp1587
a(S'focused'
p1588
I5
tp1589
a(S'foreign'
p1590
I5
tp1591
a(S'forgotten'
p1592
I5
tp1593
a(S'gonna'
p1594
I5
tp1595
a(S'grandma'
p1596
I5
tp1597
a(S'gray'
p1598
I5
tp1599
a(S'helping'
p1600
I5
tp1601
a(S'her.i'
p1602
I5
tp1603
a(S'inspired'
p1604
I5
tp1605
a(S'lets'
p1606
I5
tp1607
a(S'license'
p1608
I5
tp1609
a(S'light'
p1610
I5
tp1611
a(S'location3'
p1612
I5
tp1613
a(S'losing'
p1614
I5
tp1615
a(S'mature'
p1616
I5
tp1617
a(S'meaningful'
p1618
I5
tp1619
a(S'melted'
p1620
I5
tp1621
a(S'near'
p1622
I5
tp1623
a(S'now\x94'
p1624
I5
tp1625
a(S'open'
p1626
I5
tp1627
a(S'over.the'
p1628
I5
tp1629
a(S'paragraph.in'
p1630
I5
tp1631
a(S'particular'
p1632
I5
tp1633
a(S'picture'
p1634
I5
tp1635
a(S'practice'
p1636
I5
tp1637
a(S'puffy'
p1638
I5
tp1639
a(S'reads'
p1640
I5
tp1641
a(S'recognizes'
p1642
I5
tp1643
a(S'renewal'
p1644
I5
tp1645
a(S'repitition'
p1646
I5
tp1647
a(S'represented'
p1648
I5
tp1649
a(S'response'
p1650
I5
tp1651
a(S'result'
p1652
I5
tp1653
a(S'sequel'
p1654
I5
tp1655
a(S'smell'
p1656
I5
tp1657
a(S'sometimes'
p1658
I5
tp1659
a(S'somewhat'
p1660
I5
tp1661
a(S'stand'
p1662
I5
tp1663
a(S'stated'
p1664
I5
tp1665
a(S'stating'
p1666
I5
tp1667
a(S'stories'
p1668
I5
tp1669
a(S'struggling'
p1670
I5
tp1671
a(S'sun'
p1672
I5
tp1673
a(S'surrounding'
p1674
I5
tp1675
a(S'teach'
p1676
I5
tp1677
a(S'that.the'
p1678
I5
tp1679
a(S'things.the'
p1680
I5
tp1681
a(S'till'
p1682
I5
tp1683
a(S'touched'
p1684
I5
tp1685
a(S'tries'
p1686
I5
tp1687
a(S'unable'
p1688
I5
tp1689
a(S'unique'
p1690
I5
tp1691
a(S'vegetable'
p1692
I5
tp1693
a(S'walked'
p1694
I5
tp1695
a(S'wanting'
p1696
I5
tp1697
a(S'watched'
p1698
I5
tp1699
a(S'wept.\x94'
p1700
I5
tp1701
a(S'wondering'
p1702
I5
tp1703
a(S'\x93hibiscus'
p1704
I5
tp1705
a(S'\x94when'
p1706
I5
tp1707
a(S'acceptance'
p1708
I4
tp1709
a(S'accepting'
p1710
I4
tp1711
a(S'accepts'
p1712
I4
tp1713
a(S'accomplish'
p1714
I4
tp1715
a(S'actually'
p1716
I4
tp1717
a(S'admitted'
p1718
I4
tp1719
a(S'adopting'
p1720
I4
tp1721
a(S'affection'
p1722
I4
tp1723
a(S'againthe'
p1724
I4
tp1725
a(S'anew'
p1726
I4
tp1727
a(S'became'
p1728
I4
tp1729
a(S'becaus'
p1730
I4
tp1731
a(S'before.\x94'
p1732
I4
tp1733
a(S'blossoms'
p1734
I4
tp1735
a(S'builds'
p1736
I4
tp1737
a(S'case'
p1738
I4
tp1739
a(S'cheeks'
p1740
I4
tp1741
a(S'compares'
p1742
I4
tp1743
a(S'conflict'
p1744
I4
tp1745
a(S'connects'
p1746
I4
tp1747
a(S'continues'
p1748
I4
tp1749
a(S'creating'
p1750
I4
tp1751
a(S'cried'
p1752
I4
tp1753
a(S'date2'
p1754
I4
tp1755
a(S'daughter\x92s'
p1756
I4
tp1757
a(S'decision'
p1758
I4
tp1759
a(S'demonstrate'
p1760
I4
tp1761
a(S'described'
p1762
I4
tp1763
a(S'differences'
p1764
I4
tp1765
a(S'displays'
p1766
I4
tp1767
a(S'doesnt'
p1768
I4
tp1769
a(S'dollars'
p1770
I4
tp1771
a(S'earlier'
p1772
I4
tp1773
a(S'easier'
p1774
I4
tp1775
a(S'etched'
p1776
I4
tp1777
a(S'evening'
p1778
I4
tp1779
a(S'eventually'
p1780
I4
tp1781
a(S'excerpt'
p1782
I4
tp1783
a(S'expensive'
p1784
I4
tp1785
a(S'expresses'
p1786
I4
tp1787
a(S'eye'
p1788
I4
tp1789
a(S'fall'
p1790
I4
tp1791
a(S'farmiliar'
p1792
I4
tp1793
a(S'favorite'
p1794
I4
tp1795
a(S'fells'
p1796
I4
tp1797
a(S'figures'
p1798
I4
tp1799
a(S'form'
p1800
I4
tp1801
a(S'geese.\x94'
p1802
I4
tp1803
a(S'happiness'
p1804
I4
tp1805
a(S'hardship'
p1806
I4
tp1807
a(S'held'
p1808
I4
tp1809
a(S'helpful'
p1810
I4
tp1811
a(S'hibiscus,\x92\x92'
p1812
I4
tp1813
a(S'high'
p1814
I4
tp1815
a(S'hometown'
p1816
I4
tp1817
a(S'illustrates'
p1818
I4
tp1819
a(S'including'
p1820
I4
tp1821
a(S"isn't"
p1822
I4
tp1823
a(S'leaf'
p1824
I4
tp1825
a(S'liked'
p1826
I4
tp1827
a(S'mad'
p1828
I4
tp1829
a(S'mainly'
p1830
I4
tp1831
a(S'major'
p1832
I4
tp1833
a(S'makeing'
p1834
I4
tp1835
a(S'melon'
p1836
I4
tp1837
a(S'melting'
p1838
I4
tp1839
a(S'mentioned'
p1840
I4
tp1841
a(S'moment'
p1842
I4
tp1843
a(S'mostly'
p1844
I4
tp1845
a(S'motivated'
p1846
I4
tp1847
a(S'motivates'
p1848
I4
tp1849
a(S'nineteen'
p1850
I4
tp1851
a(S'obsticles'
p1852
I4
tp1853
a(S'often'
p1854
I4
tp1855
a(S'okay'
p1856
I4
tp1857
a(S'on.the'
p1858
I4
tp1859
a(S'opinion'
p1860
I4
tp1861
a(S'optimism'
p1862
I4
tp1863
a(S'originally'
p1864
I4
tp1865
a(S'paid'
p1866
I4
tp1867
a(S'paragraphs'
p1868
I4
tp1869
a(S'parents'
p1870
I4
tp1871
a(S'perfect'
p1872
I4
tp1873
a(S'perservering'
p1874
I4
tp1875
a(S'previous'
p1876
I4
tp1877
a(S'proves'
p1878
I4
tp1879
a(S'purchased'
p1880
I4
tp1881
a(S'quite'
p1882
I4
tp1883
a(S'raise'
p1884
I4
tp1885
a(S'realization'
p1886
I4
tp1887
a(S'relaxed'
p1888
I4
tp1889
a(S'relief'
p1890
I4
tp1891
a(S'representation'
p1892
I4
tp1893
a(S'seed'
p1894
I4
tp1895
a(S'sentimental'
p1896
I4
tp1897
a(S'shell'
p1898
I4
tp1899
a(S'sight'
p1900
I4
tp1901
a(S'signify'
p1902
I4
tp1903
a(S'spirits'
p1904
I4
tp1905
a(S'success'
p1906
I4
tp1907
a(S'surrounded'
p1908
I4
tp1909
a(S'teenage'
p1910
I4
tp1911
a(S"that's"
p1912
I4
tp1913
a(S'thrive'
p1914
I4
tp1915
a(S'throught'
p1916
I4
tp1917
a(S'top'
p1918
I4
tp1919
a(S'touch'
p1920
I4
tp1921
a(S'trees'
p1922
I4
tp1923
a(S'tried'
p1924
I4
tp1925
a(S'truly'
p1926
I4
tp1927
a(S'turn'
p1928
I4
tp1929
a(S'understands'
p1930
I4
tp1931
a(S'vowe'
p1932
I4
tp1933
a(S'walks'
p1934
I4
tp1935
a(S'walls'
p1936
I4
tp1937
a(S'whats'
p1938
I4
tp1939
a(S'white'
p1940
I4
tp1941
a(S'wind'
p1942
I4
tp1943
a(S'wishes'
p1944
I4
tp1945
a(S'wit'
p1946
I4
tp1947
a(S'wonderful'
p1948
I4
tp1949
a(S'word'
p1950
I4
tp1951
a(S'writing'
p1952
I4
tp1953
a(S'\x93@caps1'
p1954
I4
tp1955
a(S'\x93its'
p1956
I4
tp1957
a(S'\x93strong'
p1958
I4
tp1959
a(S'\x93through'
p1960
I4
tp1961
a(S'&the'
p1962
I3
tp1963
a(S'(ho)'
p1964
I3
tp1965
a(S'-'
I3
tp1966
a(S'/'
I3
tp1967
a(S'???'
p1968
I3
tp1969
a(S'accomplished'
p1970
I3
tp1971
a(S'addition'
p1972
I3
tp1973
a(S'adopt'
p1974
I3
tp1975
a(S'affect'
p1976
I3
tp1977
a(S'again.i'
p1978
I3
tp1979
a(S'agian'
p1980
I3
tp1981
a(S'alright'
p1982
I3
tp1983
a(S'amount'
p1984
I3
tp1985
a(S'anymore'
p1986
I3
tp1987
a(S"aren't"
p1988
I3
tp1989
a(S'ashamed'
p1990
I3
tp1991
a(S'ask'
p1992
I3
tp1993
a(S'attention'
p1994
I3
tp1995
a(S'aurthor'
p1996
I3
tp1997
a(S'back\x94'
p1998
I3
tp1999
a(S'beggining'
p2000
I3
tp2001
a(S'better.the'
p2002
I3
tp2003
a(S'bigger'
p2004
I3
tp2005
a(S'bloms'
p2006
I3
tp2007
a(S'bloom.in'
p2008
I3
tp2009
a(S'body'
p2010
I3
tp2011
a(S'breathed'
p2012
I3
tp2013
a(S'brick'
p2014
I3
tp2015
a(S'brighter'
p2016
I3
tp2017
a(S'budd'
p2018
I3
tp2019
a(S'budding,\x94'
p2020
I3
tp2021
a(S'budds'
p2022
I3
tp2023
a(S'called'
p2024
I3
tp2025
a(S"can't"
p2026
I3
tp2027
a(S'cant'
p2028
I3
tp2029
a(S'caps4'
p2030
I3
tp2031
a(S'carry'
p2032
I3
tp2033
a(S'chances'
p2034
I3
tp2035
a(S'change.the'
p2036
I3
tp2037
a(S'characters'
p2038
I3
tp2039
a(S'character\x92s'
p2040
I3
tp2041
a(S'charm'
p2042
I3
tp2043
a(S'cheer'
p2044
I3
tp2045
a(S'child'
p2046
I3
tp2047
a(S'chooses'
p2048
I3
tp2049
a(S'completely'
p2050
I3
tp2051
a(S'connected'
p2052
I3
tp2053
a(S'contributes'
p2054
I3
tp2055
a(S'cool'
p2056
I3
tp2057
a(S'couple'
p2058
I3
tp2059
a(S'dead'
p2060
I3
tp2061
a(S'dedication'
p2062
I3
tp2063
a(S'deeper'
p2064
I3
tp2065
a(S'depressing'
p2066
I3
tp2067
a(S'details'
p2068
I3
tp2069
a(S'determination.the'
p2070
I3
tp2071
a(S'develop'
p2072
I3
tp2073
a(S'development'
p2074
I3
tp2075
a(S'dies'
p2076
I3
tp2077
a(S'difficulties'
p2078
I3
tp2079
a(S'digging'
p2080
I3
tp2081
a(S'distance'
p2082
I3
tp2083
a(S'dying'
p2084
I3
tp2085
a(S'easily'
p2086
I3
tp2087
a(S'effective'
p2088
I3
tp2089
a(S'else.the'
p2090
I3
tp2091
a(S'emotional'
p2092
I3
tp2093
a(S'emphasizes'
p2094
I3
tp2095
a(S'entire'
p2096
I3
tp2097
a(S'essay'
p2098
I3
tp2099
a(S'expect'
p2100
I3
tp2101
a(S'faild'
p2102
I3
tp2103
a(S'familier'
p2104
I3
tp2105
a(S'figure'
p2106
I3
tp2107
a(S'fine'
p2108
I3
tp2109
a(S'flow'
p2110
I3
tp2111
a(S'following'
p2112
I3
tp2113
a(S'formation'
p2114
I3
tp2115
a(S'freshly'
p2116
I3
tp2117
a(S'fully'
p2118
I3
tp2119
a(S'gains'
p2120
I3
tp2121
a(S'gees'
p2122
I3
tp2123
a(S'geese.the'
p2124
I3
tp2125
a(S'grandmothers'
p2126
I3
tp2127
a(S'greatly'
p2128
I3
tp2129
a(S'hanging'
p2130
I3
tp2131
a(S'happening'
p2132
I3
tp2133
a(S'happier'
p2134
I3
tp2135
a(S'he\x92s'
p2136
I3
tp2137
a(S'hibicus'
p2138
I3
tp2139
a(S'hibiscus.\x94'
p2140
I3
tp2141
a(S'hibiscuses'
p2142
I3
tp2143
a(S'home.in'
p2144
I3
tp2145
a(S'honks'
p2146
I3
tp2147
a(S'huge'
p2148
I3
tp2149
a(S'i-i'
p2150
I3
tp2151
a(S'ideas'
p2152
I3
tp2153
a(S'imagery'
p2154
I3
tp2155
a(S'immigrants'
p2156
I3
tp2157
a(S'improve'
p2158
I3
tp2159
a(S'instance'
p2160
I3
tp2161
a(S'internal'
p2162
I3
tp2163
a(S'interpret'
p2164
I3
tp2165
a(S'it,\x94'
p2166
I3
tp2167
a(S'item'
p2168
I3
tp2169
a(S'journey'
p2170
I3
tp2171
a(S'kept'
p2172
I3
tp2173
a(S'learns'
p2174
I3
tp2175
a(S'least'
p2176
I3
tp2177
a(S'lessons'
p2178
I3
tp2179
a(S'lifethe'
p2180
I3
tp2181
a(S'lived'
p2182
I3
tp2183
a(S'location1.the'
p2184
I3
tp2185
a(S'longing'
p2186
I3
tp2187
a(S'looks'
p2188
I3
tp2189
a(S'lowered'
p2190
I3
tp2191
a(S'lush'
p2192
I3
tp2193
a(S'matured'
p2194
I3
tp2195
a(S'melons'
p2196
I3
tp2197
a(S'memorys'
p2198
I3
tp2199
a(S'mental'
p2200
I3
tp2201
a(S'mentally'
p2202
I3
tp2203
a(S'mention'
p2204
I3
tp2205
a(S'mistake'
p2206
I3
tp2207
a(S'moral'
p2208
I3
tp2209
a(S'mother.\x94'
p2210
I3
tp2211
a(S'mum'
p2212
I3
tp2213
a(S'narration'
p2214
I3
tp2215
a(S'obvious'
p2216
I3
tp2217
a(S'offers'
p2218
I3
tp2219
a(S'one\x94'
p2220
I3
tp2221
a(S'optimistic'
p2222
I3
tp2223
a(S'outlook'
p2224
I3
tp2225
a(S'paragraph.i'
p2226
I3
tp2227
a(S'passion'
p2228
I3
tp2229
a(S'perfectly'
p2230
I3
tp2231
a(S'perserverance'
p2232
I3
tp2233
a(S'persistence'
p2234
I3
tp2235
a(S'petals'
p2236
I3
tp2237
a(S'plants.the'
p2238
I3
tp2239
a(S'previously'
p2240
I3
tp2241
a(S'problem'
p2242
I3
tp2243
a(S'process'
p2244
I3
tp2245
a(S'purchases'
p2246
I3
tp2247
a(S'questions'
p2248
I3
tp2249
a(S'reasoning'
p2250
I3
tp2251
a(S'regret'
p2252
I3
tp2253
a(S'related'
p2254
I3
tp2255
a(S'relationship'
p2256
I3
tp2257
a(S'reminding'
p2258
I3
tp2259
a(S'repeat'
p2260
I3
tp2261
a(S'respect'
p2262
I3
tp2263
a(S'rest'
p2264
I3
tp2265
a(S'return.\x94'
p2266
I3
tp2267
a(S'returned'
p2268
I3
tp2269
a(S'revolves'
p2270
I3
tp2271
a(S'rich'
p2272
I3
tp2273
a(S'right.the'
p2274
I3
tp2275
a(S'roofs'
p2276
I3
tp2277
a(S'rough'
p2278
I3
tp2279
a(S'saebba'
p2280
I3
tp2281
a(S'saeg'
p2282
I3
tp2283
a(S'save'
p2284
I3
tp2285
a(S'sence'
p2286
I3
tp2287
a(S'setting'
p2288
I3
tp2289
a(S'shall'
p2290
I3
tp2291
a(S"she'll"
p2292
I3
tp2293
a(S'shock'
p2294
I3
tp2295
a(S'shovel'
p2296
I3
tp2297
a(S'smart'
p2298
I3
tp2299
a(S'smooth'
p2300
I3
tp2301
a(S'snowed'
p2302
I3
tp2303
a(S'snowing'
p2304
I3
tp2305
a(S'solution'
p2306
I3
tp2307
a(S'somewhere'
p2308
I3
tp2309
a(S'sorrow'
p2310
I3
tp2311
a(S'sounded'
p2312
I3
tp2313
a(S'specific'
p2314
I3
tp2315
a(S'spends'
p2316
I3
tp2317
a(S'sping'
p2318
I3
tp2319
a(S'stayed'
p2320
I3
tp2321
a(S'step'
p2322
I3
tp2323
a(S'story\x92s'
p2324
I3
tp2325
a(S'stress'
p2326
I3
tp2327
a(S'successfully'
p2328
I3
tp2329
a(S'summarize'
p2330
I3
tp2331
a(S'summarizes'
p2332
I3
tp2333
a(S'survival'
p2334
I3
tp2335
a(S'tamped'
p2336
I3
tp2337
a(S'taste'
p2338
I3
tp2339
a(S'tearstains'
p2340
I3
tp2341
a(S'teenager'
p2342
I3
tp2343
a(S'th'
p2344
I3
tp2345
a(S'tool'
p2346
I3
tp2347
a(S'toward'
p2348
I3
tp2349
a(S'type'
p2350
I3
tp2351
a(S'understood'
p2352
I3
tp2353
a(S'untill'
p2354
I3
tp2355
a(S'value'
p2356
I3
tp2357
a(S'values'
p2358
I3
tp2359
a(S'wasnt'
p2360
I3
tp2361
a(S'water'
p2362
I3
tp2363
a(S'way.i'
p2364
I3
tp2365
a(S'way.the'
p2366
I3
tp2367
a(S'weakness'
p2368
I3
tp2369
a(S'weird'
p2370
I3
tp2371
a(S'whether'
p2372
I3
tp2373
a(S'wi'
p2374
I3
tp2375
a(S'willingness'
p2376
I3
tp2377
a(S'wishing'
p2378
I3
tp2379
a(S'works'
p2380
I3
tp2381
a(S'wouldnt'
p2382
I3
tp2383
a(S'wrap'
p2384
I3
tp2385
a(S'wraps'
p2386
I3
tp2387
a(S'writer'
p2388
I3
tp2389
a(S'wrong'
p2390
I3
tp2391
a(S'years'
p2392
I3
tp2393
a(S'\x91s'
p2394
I3
tp2395
a(S'\x93but'
p2396
I3
tp2397
a(S'\x93here'
p2398
I3
tp2399
a(S'\x93many'
p2400
I3
tp2401
a(S'\x93not'
p2402
I3
tp2403
a(S'\x93take'
p2404
I3
tp2405
a(S'\x93test\x94'
p2406
I3
tp2407
a(S'(\x93'
p2408
I2
tp2409
a(S'*the'
p2410
I2
tp2411
a(S'[@num1]'
p2412
I2
tp2413
a(S'[ho'
p2414
I2
tp2415
a(S'about.i'
p2416
I2
tp2417
a(S'accustom'
p2418
I2
tp2419
a(S'accustomed'
p2420
I2
tp2421
a(S'achieve'
p2422
I2
tp2423
a(S'acting'
p2424
I2
tp2425
a(S'actions'
p2426
I2
tp2427
a(S'adding'
p2428
I2
tp2429
a(S'adversity'
p2430
I2
tp2431
a(S'affected'
p2432
I2
tp2433
a(S'afternoon'
p2434
I2
tp2435
a(S'again."the'
p2436
I2
tp2437
a(S'again.when'
p2438
I2
tp2439
a(S'againg'
p2440
I2
tp2441
a(S'agan'
p2442
I2
tp2443
a(S'ahead'
p2444
I2
tp2445
a(S'aint'
p2446
I2
tp2447
a(S'alien'
p2448
I2
tp2449
a(S'allowing'
p2450
I2
tp2451
a(S'ambition'
p2452
I2
tp2453
a(S'america'
p2454
I2
tp2455
a(S'anymore.the'
p2456
I2
tp2457
a(S'anyone'
p2458
I2
tp2459
a(S'apparent'
p2460
I2
tp2461
a(S'apply'
p2462
I2
tp2463
a(S'appreciate'
p2464
I2
tp2465
a(S'archetype'
p2466
I2
tp2467
a(S'ard'
p2468
I2
tp2469
a(S'ariving'
p2470
I2
tp2471
a(S'arrives'
p2472
I2
tp2473
a(S'arthur'
p2474
I2
tp2475
a(S'asked'
p2476
I2
tp2477
a(S'aspect'
p2478
I2
tp2479
a(S'at-at'
p2480
I2
tp2481
a(S'attached'
p2482
I2
tp2483
a(S'audience'
p2484
I2
tp2485
a(S'aware'
p2486
I2
tp2487
a(S'back...then'
p2488
I2
tp2489
a(S'backyard'
p2490
I2
tp2491
a(S'balance'
p2492
I2
tp2493
a(S'batter'
p2494
I2
tp2495
a(S'beat'
p2496
I2
tp2497
a(S'becauses'
p2498
I2
tp2499
a(S'becuse'
p2500
I2
tp2501
a(S'befor'
p2502
I2
tp2503
a(S'begans'
p2504
I2
tp2505
a(S'beginings'
p2506
I2
tp2507
a(S'beginning.the'
p2508
I2
tp2509
a(S'besides'
p2510
I2
tp2511
a(S'best.the'
p2512
I2
tp2513
a(S'birth'
p2514
I2
tp2515
a(S'blooming.the'
p2516
I2
tp2517
a(S'blossoming'
p2518
I2
tp2519
a(S'bond'
p2520
I2
tp2521
a(S'bout'
p2522
I2
tp2523
a(S'breaking'
p2524
I2
tp2525
a(S'breaks'
p2526
I2
tp2527
a(S'bringing'
p2528
I2
tp2529
a(S'budded'
p2530
I2
tp2531
a(S'budding,then'
p2532
I2
tp2533
a(S'build'
p2534
I2
tp2535
a(S'bushes'
p2536
I2
tp2537
a(S'caps1.the'
p2538
I2
tp2539
a(S'caps1\x94'
p2540
I2
tp2541
a(S'caused'
p2542
I2
tp2543
a(S'causing'
p2544
I2
tp2545
a(S'challenge'
p2546
I2
tp2547
a(S'chance.i'
p2548
I2
tp2549
a(S'change.i'
p2550
I2
tp2551
a(S'changed.the'
p2552
I2
tp2553
a(S'cheers'
p2554
I2
tp2555
a(S'city'
p2556
I2
tp2557
a(S'clean'
p2558
I2
tp2559
a(S'closer'
p2560
I2
tp2561
a(S'closes'
p2562
I2
tp2563
a(S'color'
p2564
I2
tp2565
a(S'comfertable'
p2566
I2
tp2567
a(S'comment'
p2568
I2
tp2569
a(S'comming'
p2570
I2
tp2571
a(S'common'
p2572
I2
tp2573
a(S'compared'
p2574
I2
tp2575
a(S'comparison'
p2576
I2
tp2577
a(S'concluds'
p2578
I2
tp2579
a(S'conditions'
p2580
I2
tp2581
a(S'confent'
p2582
I2
tp2583
a(S'confidence.the'
p2584
I2
tp2585
a(S'confort'
p2586
I2
tp2587
a(S'conforted'
p2588
I2
tp2589
a(S'confused'
p2590
I2
tp2591
a(S'contible'
p2592
I2
tp2593
a(S'continuing'
p2594
I2
tp2595
a(S'convey'
p2596
I2
tp2597
a(S'cope'
p2598
I2
tp2599
a(S'correct'
p2600
I2
tp2601
a(S"couldn't"
p2602
I2
tp2603
a(S'count'
p2604
I2
tp2605
a(S'country.i'
p2606
I2
tp2607
a(S'country.the'
p2608
I2
tp2609
a(S'course'
p2610
I2
tp2611
a(S'covered'
p2612
I2
tp2613
a(S'creatures'
p2614
I2
tp2615
a(S'cultures'
p2616
I2
tp2617
a(S'curiosity'
p2618
I2
tp2619
a(S'dainty'
p2620
I2
tp2621
a(S'dare'
p2622
I2
tp2623
a(S'days'
p2624
I2
tp2625
a(S'dealing'
p2626
I2
tp2627
a(S'defeat'
p2628
I2
tp2629
a(S'depicts'
p2630
I2
tp2631
a(S'depression'
p2632
I2
tp2633
a(S'detail'
p2634
I2
tp2635
a(S'determin'
p2636
I2
tp2637
a(S'diction'
p2638
I2
tp2639
a(S'died'
p2640
I2
tp2641
a(S'differently'
p2642
I2
tp2643
a(S'dig'
p2644
I2
tp2645
a(S'disappoint'
p2646
I2
tp2647
a(S'discovers'
p2648
I2
tp2649
a(S'dissappointed'
p2650
I2
tp2651
a(S'do.in'
p2652
I2
tp2653
a(S'do.the'
p2654
I2
tp2655
a(S'dok'
p2656
I2
tp2657
a(S'dont'
p2658
I2
tp2659
a(S'dose'
p2660
I2
tp2661
a(S'draw'
p2662
I2
tp2663
a(S'drew'
p2664
I2
tp2665
a(S'drives'
p2666
I2
tp2667
a(S'drive\x92s'
p2668
I2
tp2669
a(S'dug'
p2670
I2
tp2671
a(S'durring'
p2672
I2
tp2673
a(S'e'
I2
tp2674
a(S'early'
p2675
I2
tp2676
a(S'earn'
p2677
I2
tp2678
a(S'easy'
p2679
I2
tp2680
a(S'eat'
p2681
I2
tp2682
a(S'eating'
p2683
I2
tp2684
a(S'edge'
p2685
I2
tp2686
a(S'effects'
p2687
I2
tp2688
a(S'either'
p2689
I2
tp2690
a(S'embrace'
p2691
I2
tp2692
a(S'encourage'
p2693
I2
tp2694
a(S'end.the'
p2695
I2
tp2696
a(S'endings'
p2697
I2
tp2698
a(S'energy'
p2699
I2
tp2700
a(S'enjoyed'
p2701
I2
tp2702
a(S'essentially'
p2703
I2
tp2704
a(S'etc'
p2705
I2
tp2706
a(S'ethic'
p2707
I2
tp2708
a(S'eventhough'
p2709
I2
tp2710
a(S'everybody'
p2711
I2
tp2712
a(S'everyday'
p2713
I2
tp2714
a(S'evidence'
p2715
I2
tp2716
a(S'exactly'
p2717
I2
tp2718
a(S'exam'
p2719
I2
tp2720
a(S'examples'
p2721
I2
tp2722
a(S'excellent'
p2723
I2
tp2724
a(S'excited'
p2725
I2
tp2726
a(S'exerpt'
p2727
I2
tp2728
a(S'explore'
p2729
I2
tp2730
a(S'exposure'
p2731
I2
tp2732
a(S'expressed'
p2733
I2
tp2734
a(S'expression'
p2735
I2
tp2736
a(S'faced'
p2737
I2
tp2738
a(S'faces'
p2739
I2
tp2740
a(S'fading'
p2741
I2
tp2742
a(S'fairly'
p2743
I2
tp2744
a(S'familiar.\x94'
p2745
I2
tp2746
a(S'far'
p2747
I2
tp2748
a(S'fast'
p2749
I2
tp2750
a(S'fears'
p2751
I2
tp2752
a(S'fell'
p2753
I2
tp2754
a(S'fights'
p2755
I2
tp2756
a(S'fill'
p2757
I2
tp2758
a(S'flower.the'
p2759
I2
tp2760
a(S'flowers.the'
p2761
I2
tp2762
a(S'flowershop'
p2763
I2
tp2764
a(S'focusing'
p2765
I2
tp2766
a(S'follow'
p2767
I2
tp2768
a(S'fond'
p2769
I2
tp2770
a(S'foods'
p2771
I2
tp2772
a(S'foreshadow'
p2773
I2
tp2774
a(S'forever'
p2775
I2
tp2776
a(S'forgets'
p2777
I2
tp2778
a(S'forgetting'
p2779
I2
tp2780
a(S'forgot'
p2781
I2
tp2782
a(S'forth'
p2783
I2
tp2784
a(S'foward'
p2785
I2
tp2786
a(S'fragile'
p2787
I2
tp2788
a(S'fragrance'
p2789
I2
tp2790
a(S'frail'
p2791
I2
tp2792
a(S'free'
p2793
I2
tp2794
a(S'freely'
p2795
I2
tp2796
a(S'friend'
p2797
I2
tp2798
a(S'fun'
p2799
I2
tp2800
a(S'furthermore'
p2801
I2
tp2802
a(S'gained'
p2803
I2
tp2804
a(S'geeses'
p2805
I2
tp2806
a(S'gentle'
p2807
I2
tp2808
a(S'gently'
p2809
I2
tp2810
a(S'gesse'
p2811
I2
tp2812
a(S'glad'
p2813
I2
tp2814
a(S'goal.the'
p2815
I2
tp2816
a(S'goals'
p2817
I2
tp2818
a(S'going.the'
p2819
I2
tp2820
a(S'goods'
p2821
I2
tp2822
a(S'gotten'
p2823
I2
tp2824
a(S'grab'
p2825
I2
tp2826
a(S'grade'
p2827
I2
tp2828
a(S"grandmother's"
p2829
I2
tp2830
a(S'grandmother\x92s'
p2831
I2
tp2832
a(S'grandparents'
p2833
I2
tp2834
a(S'greenery'
p2835
I2
tp2836
a(S'greeted'
p2837
I2
tp2838
a(S'grey'
p2839
I2
tp2840
a(S'grief'
p2841
I2
tp2842
a(S'grips'
p2843
I2
tp2844
a(S'growing.the'
p2845
I2
tp2846
a(S'guessing'
p2847
I2
tp2848
a(S'hand'
p2849
I2
tp2850
a(S'handle'
p2851
I2
tp2852
a(S'hands'
p2853
I2
tp2854
a(S'hang'
p2855
I2
tp2856
a(S'happily'
p2857
I2
tp2858
a(S'hasn\x92t'
p2859
I2
tp2860
a(S'healthy'
p2861
I2
tp2862
a(S'hearing'
p2863
I2
tp2864
a(S'hears'
p2865
I2
tp2866
a(S'hedge'
p2867
I2
tp2868
a(S'hedge?'
p2869
I2
tp2870
a(S'her.he'
p2871
I2
tp2872
a(S'here.\x94'
p2873
I2
tp2874
a(S'here\x94'
p2875
I2
tp2876
a(S'her\x94'
p2877
I2
tp2878
a(S'hes'
p2879
I2
tp2880
a(S'hibiscuse'
p2881
I2
tp2882
a(S'higher'
p2883
I2
tp2884
a(S'hits'
p2885
I2
tp2886
a(S'hobby'
p2887
I2
tp2888
a(S'holding'
p2889
I2
tp2890
a(S'holds'
p2891
I2
tp2892
a(S'home.saeng'
p2893
I2
tp2894
a(S'home.\x94'
p2895
I2
tp2896
a(S'homes'
p2897
I2
tp2898
a(S'home\x94'
p2899
I2
tp2900
a(S'hope.the'
p2901
I2
tp2902
a(S'hopeless'
p2903
I2
tp2904
a(S'hoping'
p2905
I2
tp2906
a(S'human'
p2907
I2
tp2908
a(S'hurt'
p2909
I2
tp2910
a(S'image'
p2911
I2
tp2912
a(S'imagination'
p2913
I2
tp2914
a(S'immigrating'
p2915
I2
tp2916
a(S'in.the'
p2917
I2
tp2918
a(S'indicates'
p2919
I2
tp2920
a(S'indication'
p2921
I2
tp2922
a(S'inside'
p2923
I2
tp2924
a(S'insince'
p2925
I2
tp2926
a(S'inspires'
p2927
I2
tp2928
a(S'inspiring'
p2929
I2
tp2930
a(S'intense'
p2931
I2
tp2932
a(S'interested'
p2933
I2
tp2934
a(S'interseting'
p2935
I2
tp2936
a(S'intresting'
p2937
I2
tp2938
a(S'involving'
p2939
I2
tp2940
a(S'it.in'
p2941
I2
tp2942
a(S'itthe'
p2943
I2
tp2944
a(S'it\x94'
p2945
I2
tp2946
a(S'i\x92ll'
p2947
I2
tp2948
a(S'jutting'
p2949
I2
tp2950
a(S'key'
p2951
I2
tp2952
a(S'kids'
p2953
I2
tp2954
a(S'kinda'
p2955
I2
tp2956
a(S'knot'
p2957
I2
tp2958
a(S'l'
I2
tp2959
a(S'lady'
p2960
I2
tp2961
a(S'lake'
p2962
I2
tp2963
a(S'late'
p2964
I2
tp2965
a(S'learnt'
p2966
I2
tp2967
a(S'licens'
p2968
I2
tp2969
a(S'link'
p2970
I2
tp2971
a(S'list'
p2972
I2
tp2973
a(S'literal'
p2974
I2
tp2975
a(S'lives.in'
p2976
I2
tp2977
a(S'lungs'
p2978
I2
tp2979
a(S'man'
p2980
I2
tp2981
a(S'matters'
p2982
I2
tp2983
a(S'matters.\x94'
p2984
I2
tp2985
a(S'mentioning'
p2986
I2
tp2987
a(S'met'
p2988
I2
tp2989
a(S'metaphor'
p2990
I2
tp2991
a(S'migrate'
p2992
I2
tp2993
a(S'mingfong'
p2994
I2
tp2995
a(S'moments'
p2996
I2
tp2997
a(S'mom\x92s'
p2998
I2
tp2999
a(S'mother.i'
p3000
I2
tp3001
a(S'mothers'
p3002
I2
tp3003
a(S'mother\x92s'
p3004
I2
tp3005
a(S'mumbled'
p3006
I2
tp3007
a(S'name'
p3008
I2
tp3009
a(S'names'
p3010
I2
tp3011
a(S'narrarator'
p3012
I2
tp3013
a(S'narrater'
p3014
I2
tp3015
a(S'natural'
p3016
I2
tp3017
a(S'nearly'
p3018
I2
tp3019
a(S'negative'
p3020
I2
tp3021
a(S'nobody'
p3022
I2
tp3023
a(S'none'
p3024
I2
tp3025
a(S'noticed'
p3026
I2
tp3027
a(S'notices'
p3028
I2
tp3029
a(S'now,\x94'
p3030
I2
tp3031
a(S'now.the'
p3032
I2
tp3033
a(S'num2)'
p3034
I2
tp3035
a(S'nutura'
p3036
I2
tp3037
a(S'object'
p3038
I2
tp3039
a(S'obstictes'
p3040
I2
tp3041
a(S'occur'
p3042
I2
tp3043
a(S'odd'
p3044
I2
tp3045
a(S'odds'
p3046
I2
tp3047
a(S'offered'
p3048
I2
tp3049
a(S'older'
p3050
I2
tp3051
a(S'one,\x94'
p3052
I2
tp3053
a(S'opon'
p3054
I2
tp3055
a(S'opportunities'
p3056
I2
tp3057
a(S'otherwise'
p3058
I2
tp3059
a(S'overcame'
p3060
I2
tp3061
a(S'overwhelmed'
p3062
I2
tp3063
a(S'page'
p3064
I2
tp3065
a(S'paragraphthe'
p3066
I2
tp3067
a(S'parts'
p3068
I2
tp3069
a(S'pasionate'
p3070
I2
tp3071
a(S'peppers'
p3072
I2
tp3073
a(S'periwinkle\x94'
p3074
I2
tp3075
a(S'perseverence'
p3076
I2
tp3077
a(S'persistance'
p3078
I2
tp3079
a(S'personal'
p3080
I2
tp3081
a(S'personality'
p3082
I2
tp3083
a(S'petal'
p3084
I2
tp3085
a(S'peuney'
p3086
I2
tp3087
a(S'phase'
p3088
I2
tp3089
a(S'physical'
p3090
I2
tp3091
a(S'physically'
p3092
I2
tp3093
a(S'picking'
p3094
I2
tp3095
a(S'place.in'
p3096
I2
tp3097
a(S'placed'
p3098
I2
tp3099
a(S'plan'
p3100
I2
tp3101
a(S'planning'
p3102
I2
tp3103
a(S'plant.the'
p3104
I2
tp3105
a(S'plot'
p3106
I2
tp3107
a(S'plus'
p3108
I2
tp3109
a(S'possible'
p3110
I2
tp3111
a(S'possibly'
p3112
I2
tp3113
a(S'pots'
p3114
I2
tp3115
a(S'presence'
p3116
I2
tp3117
a(S'presented'
p3118
I2
tp3119
a(S'principal'
p3120
I2
tp3121
a(S'probaly'
p3122
I2
tp3123
a(S'promises'
p3124
I2
tp3125
a(S'promising'
p3126
I2
tp3127
a(S'proved'
p3128
I2
tp3129
a(S'provide'
p3130
I2
tp3131
a(S'proving'
p3132
I2
tp3133
a(S'purchase'
p3134
I2
tp3135
a(S'purplish'
p3136
I2
tp3137
a(S'pursue'
p3138
I2
tp3139
a(S'quiz'
p3140
I2
tp3141
a(S're'
p3142
I2
tp3143
a(S'reach'
p3144
I2
tp3145
a(S'reached'
p3146
I2
tp3147
a(S'reaction'
p3148
I2
tp3149
a(S'ready.the'
p3150
I2
tp3151
a(S'realised'
p3152
I2
tp3153
a(S'realy'
p3154
I2
tp3155
a(S'rebuilding'
p3156
I2
tp3157
a(S'recognition'
p3158
I2
tp3159
a(S'reference'
p3160
I2
tp3161
a(S'refering'
p3162
I2
tp3163
a(S'refers'
p3164
I2
tp3165
a(S'reflecting'
p3166
I2
tp3167
a(S'rejuvinate'
p3168
I2
tp3169
a(S'relating'
p3170
I2
tp3171
a(S'reliable'
p3172
I2
tp3173
a(S'relive'
p3174
I2
tp3175
a(S'relizes'
p3176
I2
tp3177
a(S'remembrance'
p3178
I2
tp3179
a(S'reminders'
p3180
I2
tp3181
a(S'remined'
p3182
I2
tp3183
a(S'repition'
p3184
I2
tp3185
a(S'replace'
p3186
I2
tp3187
a(S'representing'
p3188
I2
tp3189
a(S'resolve'
p3190
I2
tp3191
a(S'reson'
p3192
I2
tp3193
a(S'responsibility'
p3194
I2
tp3195
a(S'restart'
p3196
I2
tp3197
a(S'restarts'
p3198
I2
tp3199
a(S'restored'
p3200
I2
tp3201
a(S'reward'
p3202
I2
tp3203
a(S'rise'
p3204
I2
tp3205
a(S'role'
p3206
I2
tp3207
a(S'room'
p3208
I2
tp3209
a(S'saeng.the'
p3210
I2
tp3211
a(S'saeng\x91s'
p3212
I2
tp3213
a(S'satisfied'
p3214
I2
tp3215
a(S'says\x94'
p3216
I2
tp3217
a(S'scene'
p3218
I2
tp3219
a(S'scent-'
p3220
I2
tp3221
a(S'seat'
p3222
I2
tp3223
a(S'security'
p3224
I2
tp3225
a(S'sell'
p3226
I2
tp3227
a(S'senses'
p3228
I2
tp3229
a(S'sentance'
p3230
I2
tp3231
a(S'sentences'
p3232
I2
tp3233
a(S'sequal'
p3234
I2
tp3235
a(S'sh'
p3236
I2
tp3237
a(S'shape'
p3238
I2
tp3239
a(S'she\x92d'
p3240
I2
tp3241
a(S'she\xe2\x80\x99s'
p3242
I2
tp3243
a(S'shocked'
p3244
I2
tp3245
a(S'shot'
p3246
I2
tp3247
a(S'side'
p3248
I2
tp3249
a(S'significance'
p3250
I2
tp3251
a(S'signifies'
p3252
I2
tp3253
a(S'silent'
p3254
I2
tp3255
a(S'situations'
p3256
I2
tp3257
a(S'slate'
p3258
I2
tp3259
a(S'smelled'
p3260
I2
tp3261
a(S'smelling'
p3262
I2
tp3263
a(S'snows!'
p3264
I2
tp3265
a(S'society'
p3266
I2
tp3267
a(S'someday'
p3268
I2
tp3269
a(S'sometime'
p3270
I2
tp3271
a(S'sorry'
p3272
I2
tp3273
a(S'spring.i'
p3274
I2
tp3275
a(S'springs'
p3276
I2
tp3277
a(S'stable'
p3278
I2
tp3279
a(S'story.i'
p3280
I2
tp3281
a(S'strands'
p3282
I2
tp3283
a(S'strive'
p3284
I2
tp3285
a(S'strong.the'
p3286
I2
tp3287
a(S'stuck'
p3288
I2
tp3289
a(S'studying'
p3290
I2
tp3291
a(S'style'
p3292
I2
tp3293
a(S'succeeds'
p3294
I2
tp3295
a(S'sucede'
p3296
I2
tp3297
a(S'sudden'
p3298
I2
tp3299
a(S'sunlight'
p3300
I2
tp3301
a(S'supposed'
p3302
I2
tp3303
a(S'survial'
p3304
I2
tp3305
a(S'survive.the'
p3306
I2
tp3307
a(S'surviving'
p3308
I2
tp3309
a(S'symbolizing'
p3310
I2
tp3311
a(S'sympathetic'
p3312
I2
tp3313
a(S'sympathy'
p3314
I2
tp3315
a(S'talked'
p3316
I2
tp3317
a(S'talkin'
p3318
I2
tp3319
a(S'tall'
p3320
I2
tp3321
a(S'tasks'
p3322
I2
tp3323
a(S'teaches'
p3324
I2
tp3325
a(S'tear'
p3326
I2
tp3327
a(S'tearing'
p3328
I2
tp3329
a(S'terms'
p3330
I2
tp3331
a(S'test)'
p3332
I2
tp3333
a(S'test.in'
p3334
I2
tp3335
a(S'test.saeng'
p3336
I2
tp3337
a(S'tests'
p3338
I2
tp3339
a(S'thanks'
p3340
I2
tp3341
a(S'thee'
p3342
I2
tp3343
a(S'they\x92re'
p3344
I2
tp3345
a(S'third'
p3346
I2
tp3347
a(S'this.the'
p3348
I2
tp3349
a(S'tho'
p3350
I2
tp3351
a(S'three'
p3352
I2
tp3353
a(S'threw'
p3354
I2
tp3355
a(S'thriving'
p3356
I2
tp3357
a(S'throug'
p3358
I2
tp3359
a(S'through.the'
p3360
I2
tp3361
a(S'thus'
p3362
I2
tp3363
a(S'til'
p3364
I2
tp3365
a(S'tiled'
p3366
I2
tp3367
a(S'title'
p3368
I2
tp3369
a(S'tore'
p3370
I2
tp3371
a(S'touching'
p3372
I2
tp3373
a(S'tradition'
p3374
I2
tp3375
a(S'tring'
p3376
I2
tp3377
a(S'true'
p3378
I2
tp3379
a(S'turns'
p3380
I2
tp3381
a(S'twist'
p3382
I2
tp3383
a(S'u.s'
p3384
I2
tp3385
a(S'ultimately'
p3386
I2
tp3387
a(S'unfamiliar'
p3388
I2
tp3389
a(S'unfimiliar'
p3390
I2
tp3391
a(S'up.i'
p3392
I2
tp3393
a(S'up.the'
p3394
I2
tp3395
a(S'upsets'
p3396
I2
tp3397
a(S'various'
p3398
I2
tp3399
a(S'visceral.\x94'
p3400
I2
tp3401
a(S'vowel'
p3402
I2
tp3403
a(S'vowes'
p3404
I2
tp3405
a(S'wai\x92t'
p3406
I2
tp3407
a(S'warmer'
p3408
I2
tp3409
a(S'watch'
p3410
I2
tp3411
a(S'well.the'
p3412
I2
tp3413
a(S'whenever'
p3414
I2
tp3415
a(S'whent'
p3416
I2
tp3417
a(S'whot'
p3418
I2
tp3419
a(S'wile'
p3420
I2
tp3421
a(S'winters'
p3422
I2
tp3423
a(S'wish'
p3424
I2
tp3425
a(S'withe'
p3426
I2
tp3427
a(S"won't"
p3428
I2
tp3429
a(S'worked'
p3430
I2
tp3431
a(S'worlds'
p3432
I2
tp3433
a(S'worry'
p3434
I2
tp3435
a(S'worst'
p3436
I2
tp3437
a(S'worth'
p3438
I2
tp3439
a(S'wouldn\x92t'
p3440
I2
tp3441
a(S'yes'
p3442
I2
tp3443
a(S'you?'
p3444
I2
tp3445
a(S'\x91\x92when'
p3446
I2
tp3447
a(S'\x91\x92winter'
p3448
I2
tp3449
a(S'\x92\x92'
p3450
I2
tp3451
a(S'\x92\x92@caps1'
p3452
I2
tp3453
a(S'\x92\x92when'
p3454
I2
tp3455
a(S'\x92\x92winter'
p3456
I2
tp3457
a(S'\x93(ho'
p3458
I2
tp3459
a(S'\x93@caps1\x92s'
p3460
I2
tp3461
a(S'\x93as'
p3462
I2
tp3463
a(S'\x93at'
p3464
I2
tp3465
a(S'\x93comfort'
p3466
I2
tp3467
a(S'\x93how'
p3468
I2
tp3469
a(S'\x93it'
p3470
I2
tp3471
a(S'\x93let\x92s'
p3472
I2
tp3473
a(S'\x93like'
p3474
I2
tp3475
a(S'\x93madagascar'
p3476
I2
tp3477
a(S'\x93overhead'
p3478
I2
tp3479
a(S'\x93plants'
p3480
I2
tp3481
a(S'\x93realized'
p3482
I2
tp3483
a(S'\x93start'
p3484
I2
tp3485
a(S'\x93strange'
p3486
I2
tp3487
a(S'\x93that'
p3488
I2
tp3489
a(S'\x93v\x94'
p3490
I2
tp3491
a(S'\x93what'
p3492
I2
tp3493
a(S'\x94)'
p3494
I2
tp3495
a(S'\x94i'
p3496
I2
tp3497
a(S'&challenges'
p3498
I1
tp3499
a(S"''winter''"
p3500
I1
tp3501
a(S"'at"
p3502
I1
tp3503
a(S"'its"
p3504
I1
tp3505
a(S"'the"
p3506
I1
tp3507
a(S"'winter"
p3508
I1
tp3509
a(S'(@num1)'
p3510
I1
tp3511
a(S'(@num1).she'
p3512
I1
tp3513
a(S'(another'
p3514
I1
tp3515
a(S'(dollars)'
p3516
I1
tp3517
a(S'(no'
p3518
I1
tp3519
a(S'(not'
p3520
I1
tp3521
a(S'(perhaps'
p3522
I1
tp3523
a(S'(she)'
p3524
I1
tp3525
a(S'(shows'
p3526
I1
tp3527
a(S'(stay'
p3528
I1
tp3529
a(S'(the'
p3530
I1
tp3531
a(S'(who'
p3532
I1
tp3533
a(S'(words'
p3534
I1
tp3535
a(S'(\x93plants'
p3536
I1
tp3537
a(S'-yes-'
p3538
I1
tp3539
a(S'/person'
p3540
I1
tp3541
a(S'/reader'
p3542
I1
tp3543
a(S'1'
I1
tp3544
a(S'1).when'
p3545
I1
tp3546
a(S'??)'
p3547
I1
tp3548
a(S'?\x94.the'
p3549
I1
tp3550
a(S'[]'
p3551
I1
tp3552
a(S'[and]'
p3553
I1
tp3554
a(S'[the'
p3555
I1
tp3556
a(S'aas'
p3557
I1
tp3558
a(S'aasked'
p3559
I1
tp3560
a(S'abilities'
p3561
I1
tp3562
a(S'abought'
p3563
I1
tp3564
a(S'abount'
p3565
I1
tp3566
a(S'about.one'
p3567
I1
tp3568
a(S'about.the'
p3569
I1
tp3570
a(S'about?'
p3571
I1
tp3572
a(S'abouts'
p3573
I1
tp3574
a(S'abrupt'
p3575
I1
tp3576
a(S'abruptly'
p3577
I1
tp3578
a(S'absent'
p3579
I1
tp3580
a(S'abtein'
p3581
I1
tp3582
a(S'abut'
p3583
I1
tp3584
a(S'accentuate'
p3585
I1
tp3586
a(S'accident'
p3587
I1
tp3588
a(S'accomidate'
p3589
I1
tp3590
a(S'accomplishes'
p3591
I1
tp3592
a(S'accostomed'
p3593
I1
tp3594
a(S'accostumed'
p3595
I1
tp3596
a(S'acentric'
p3597
I1
tp3598
a(S'act'
p3599
I1
tp3600
a(S'action'
p3601
I1
tp3602
a(S'action.i'
p3603
I1
tp3604
a(S'actor'
p3605
I1
tp3606
a(S'acts'
p3607
I1
tp3608
a(S'adappting'
p3609
I1
tp3610
a(S'adaptating'
p3611
I1
tp3612
a(S'adapte'
p3613
I1
tp3614
a(S'addapt'
p3615
I1
tp3616
a(S'addapted'
p3617
I1
tp3618
a(S'addapts'
p3619
I1
tp3620
a(S'addittude'
p3621
I1
tp3622
a(S'adjusts'
p3623
I1
tp3624
a(S'admits'
p3625
I1
tp3626
a(S'adoptthe'
p3627
I1
tp3628
a(S'adores'
p3629
I1
tp3630
a(S'adventurous'
p3631
I1
tp3632
a(S'afraid'
p3633
I1
tp3634
a(S'afters'
p3635
I1
tp3636
a(S'afterwards'
p3637
I1
tp3638
a(S'again!'
p3639
I1
tp3640
a(S'again".by'
p3641
I1
tp3642
a(S'again,\x93'
p3643
I1
tp3644
a(S'again.after'
p3645
I1
tp3646
a(S'again.also,she'
p3647
I1
tp3648
a(S'again.cause'
p3649
I1
tp3650
a(S'again.emotions,symbolizim'
p3651
I1
tp3652
a(S'again.life'
p3653
I1
tp3654
a(S'again.now'
p3655
I1
tp3656
a(S'again.saeng'
p3657
I1
tp3658
a(S'again.so'
p3659
I1
tp3660
a(S'again.\x92\x92all'
p3661
I1
tp3662
a(S'again.\x92\x94'
p3663
I1
tp3664
a(S'again.\x93you'
p3665
I1
tp3666
a(S'again.\x94(ho'
p3667
I1
tp3668
a(S'again.\x94in'
p3669
I1
tp3670
a(S'again.\x94the'
p3671
I1
tp3672
a(S'again.\x94this'
p3673
I1
tp3674
a(S'againin'
p3675
I1
tp3676
a(S'againthes'
p3677
I1
tp3678
a(S'again\x92\x92'
p3679
I1
tp3680
a(S'again\x92\x92(ho)'
p3681
I1
tp3682
a(S'again\x94(no'
p3683
I1
tp3684
a(S'again\x94.because'
p3685
I1
tp3686
a(S'again\x94.the'
p3687
I1
tp3688
a(S'age'
p3689
I1
tp3690
a(S'agein'
p3691
I1
tp3692
a(S'agen'
p3693
I1
tp3694
a(S'agien'
p3695
I1
tp3696
a(S'agree'
p3697
I1
tp3698
a(S'air'
p3699
I1
tp3700
a(S'aiudieres'
p3701
I1
tp3702
a(S'alike'
p3703
I1
tp3704
a(S'alittle'
p3705
I1
tp3706
a(S'all.no'
p3707
I1
tp3708
a(S'all.she'
p3709
I1
tp3710
a(S'alli'
p3711
I1
tp3712
a(S'allowed'
p3713
I1
tp3714
a(S'alluded'
p3715
I1
tp3716
a(S'along.saeng'
p3717
I1
tp3718
a(S'alrenated'
p3719
I1
tp3720
a(S'also.i'
p3721
I1
tp3722
a(S'also.the'
p3723
I1
tp3724
a(S'alsole'
p3725
I1
tp3726
a(S'alway'
p3727
I1
tp3728
a(S'alway\x92s'
p3729
I1
tp3730
a(S'american'
p3731
I1
tp3732
a(S'amidst'
p3733
I1
tp3734
a(S'amphasis'
p3735
I1
tp3736
a(S'analogies'
p3737
I1
tp3738
a(S'analyzed'
p3739
I1
tp3740
a(S'ancious'
p3741
I1
tp3742
a(S'anddissappointed'
p3743
I1
tp3744
a(S'ands'
p3745
I1
tp3746
a(S'andthis'
p3747
I1
tp3748
a(S'anew.in'
p3749
I1
tp3750
a(S'anges'
p3751
I1
tp3752
a(S'angry'
p3753
I1
tp3754
a(S'anierpaady'
p3755
I1
tp3756
a(S'annoyed'
p3757
I1
tp3758
a(S'anothe'
p3759
I1
tp3760
a(S'another.after'
p3761
I1
tp3762
a(S'answer'
p3763
I1
tp3764
a(S'answer.in'
p3765
I1
tp3766
a(S'answered'
p3767
I1
tp3768
a(S'ant'
p3769
I1
tp3770
a(S'anther'
p3771
I1
tp3772
a(S'anti-depressent'
p3773
I1
tp3774
a(S'anticipating'
p3775
I1
tp3776
a(S'anxious'
p3777
I1
tp3778
a(S'anythin'
p3779
I1
tp3780
a(S'anything.the'
p3781
I1
tp3782
a(S'anything.when'
p3783
I1
tp3784
a(S'anyways'
p3785
I1
tp3786
a(S'apart'
p3787
I1
tp3788
a(S'apon'
p3789
I1
tp3790
a(S'appear'
p3791
I1
tp3792
a(S'appeared'
p3793
I1
tp3794
a(S'appears'
p3795
I1
tp3796
a(S'applied'
p3797
I1
tp3798
a(S'appreciate.i'
p3799
I1
tp3800
a(S'appreciates'
p3801
I1
tp3802
a(S'appreciation'
p3803
I1
tp3804
a(S'apprecite'
p3805
I1
tp3806
a(S'approach'
p3807
I1
tp3808
a(S'appropriate'
p3809
I1
tp3810
a(S'apreciate'
p3811
I1
tp3812
a(S'ar'
p3813
I1
tp3814
a(S'archetypically'
p3815
I1
tp3816
a(S'archetyple'
p3817
I1
tp3818
a(S'are.i'
p3819
I1
tp3820
a(S'areas'
p3821
I1
tp3822
a(S'arhuror'
p3823
I1
tp3824
a(S'arise'
p3825
I1
tp3826
a(S'around.there'
p3827
I1
tp3828
a(S'aroused'
p3829
I1
tp3830
a(S'arrangement'
p3831
I1
tp3832
a(S'arrangements'
p3833
I1
tp3834
a(S'arriving'
p3835
I1
tp3836
a(S'arround'
p3837
I1
tp3838
a(S'article'
p3839
I1
tp3840
a(S'as,\x94'
p3841
I1
tp3842
a(S'asking'
p3843
I1
tp3844
a(S'asks'
p3845
I1
tp3846
a(S'aspects'
p3847
I1
tp3848
a(S'asserts'
p3849
I1
tp3850
a(S'associates'
p3851
I1
tp3852
a(S'assortment'
p3853
I1
tp3854
a(S'assuming'
p3855
I1
tp3856
a(S'assumption'
p3857
I1
tp3858
a(S'at-'
p3859
I1
tp3860
a(S"at-at'"
p3861
I1
tp3862
a(S'at-at-'
p3863
I1
tp3864
a(S'at-at-,\x94'
p3865
I1
tp3866
a(S'atempt'
p3867
I1
tp3868
a(S'atire'
p3869
I1
tp3870
a(S'atleast'
p3871
I1
tp3872
a(S'attempting'
p3873
I1
tp3874
a(S'at\x96at-\x94'
p3875
I1
tp3876
a(S'audience.i\x92ll'
p3877
I1
tp3878
a(S'auomaticaly'
p3879
I1
tp3880
a(S'authore'
p3881
I1
tp3882
a(S'authur'
p3883
I1
tp3884
a(S'autor'
p3885
I1
tp3886
a(S'awareness'
p3887
I1
tp3888
a(S'away;'
p3889
I1
tp3890
a(S'aways'
p3891
I1
tp3892
a(S'awhave'
p3893
I1
tp3894
a(S'awhile'
p3895
I1
tp3896
a(S'awkward'
p3897
I1
tp3898
a(S'b/c'
p3899
I1
tp3900
a(S'back,and'
p3901
I1
tp3902
a(S'back,\x92'
p3903
I1
tp3904
a(S'back.by'
p3905
I1
tp3906
a(S'back.i'
p3907
I1
tp3908
a(S'back.in'
p3909
I1
tp3910
a(S'back.saeng'
p3911
I1
tp3912
a(S'back.that'
p3913
I1
tp3914
a(S'back.the'
p3915
I1
tp3916
a(S'backin'
p3917
I1
tp3918
a(S'backthe'
p3919
I1
tp3920
a(S'bacuse'
p3921
I1
tp3922
a(S'bads'
p3923
I1
tp3924
a(S'baised'
p3925
I1
tp3926
a(S'banks'
p3927
I1
tp3928
a(S'based'
p3929
I1
tp3930
a(S'basically.the'
p3931
I1
tp3932
a(S'basiclly'
p3933
I1
tp3934
a(S'basis'
p3935
I1
tp3936
a(S'battle'
p3937
I1
tp3938
a(S'bays'
p3939
I1
tp3940
a(S'be.the'
p3941
I1
tp3942
a(S'beable'
p3943
I1
tp3944
a(S'beach'
p3945
I1
tp3946
a(S'beatiful'
p3947
I1
tp3948
a(S'beautie'
p3949
I1
tp3950
a(S'beautifly'
p3951
I1
tp3952
a(S'beautifu'
p3953
I1
tp3954
a(S'beautiful.it'
p3955
I1
tp3956
a(S'beautiful.to'
p3957
I1
tp3958
a(S'beautifulthe'
p3959
I1
tp3960
a(S'beauttiful'
p3961
I1
tp3962
a(S'becaming'
p3963
I1
tp3964
a(S'becaue'
p3965
I1
tp3966
a(S'because,the'
p3967
I1
tp3968
a(S'become\x94'
p3969
I1
tp3970
a(S'becuose'
p3971
I1
tp3972
a(S'becus'
p3973
I1
tp3974
a(S'bee-maags\x94'
p3975
I1
tp3976
a(S'beest'
p3977
I1
tp3978
a(S'beet'
p3979
I1
tp3980
a(S'before.the'
p3981
I1
tp3982
a(S'before\x92'
p3983
I1
tp3984
a(S'begaing'
p3985
I1
tp3986
a(S'begains'
p3987
I1
tp3988
a(S'beganing'
p3989
I1
tp3990
a(S'begening'
p3991
I1
tp3992
a(S'begging'
p3993
I1
tp3994
a(S'begginings'
p3995
I1
tp3996
a(S'beginnig'
p3997
I1
tp3998
a(S'beginning;'
p3999
I1
tp4000
a(S'begonias'
p4001
I1
tp4002
a(S'beguin'
p4003
I1
tp4004
a(S'beig'
p4005
I1
tp4006
a(S'beign'
p4007
I1
tp4008
a(S'beining'
p4009
I1
tp4010
a(S'beleives'
p4011
I1
tp4012
a(S'belief'
p4013
I1
tp4014
a(S'believing'
p4015
I1
tp4016
a(S'belong'
p4017
I1
tp4018
a(S'belonged'
p4019
I1
tp4020
a(S'beloved'
p4021
I1
tp4022
a(S'beover'
p4023
I1
tp4024
a(S'best.it'
p4025
I1
tp4026
a(S'beter'
p4027
I1
tp4028
a(S'better.i'
p4029
I1
tp4030
a(S'betters'
p4031
I1
tp4032
a(S'beyond'
p4033
I1
tp4034
a(S'bibiscus'
p4035
I1
tp4036
a(S'bid'
p4037
I1
tp4038
a(S'big-mac.the'
p4039
I1
tp4040
a(S'bind'
p4041
I1
tp4042
a(S'biological'
p4043
I1
tp4044
a(S'biscus'
p4045
I1
tp4046
a(S'bits'
p4047
I1
tp4048
a(S'bits,\x94'
p4049
I1
tp4050
a(S'bitter.i'
p4051
I1
tp4052
a(S'bittermellon'
p4053
I1
tp4054
a(S'bitterness'
p4055
I1
tp4056
a(S'blanked'
p4057
I1
tp4058
a(S'blink'
p4059
I1
tp4060
a(S'bloming'
p4061
I1
tp4062
a(S'blomming'
p4063
I1
tp4064
a(S'bloom.the'
p4065
I1
tp4066
a(S'bloom;'
p4067
I1
tp4068
a(S'bloomability.in'
p4069
I1
tp4070
a(S'bloomed'
p4071
I1
tp4072
a(S'bloomsthe'
p4073
I1
tp4074
a(S'bloomthe'
p4075
I1
tp4076
a(S'bloosom'
p4077
I1
tp4078
a(S'blosom'
p4079
I1
tp4080
a(S'blosomed'
p4081
I1
tp4082
a(S'blossed'
p4083
I1
tp4084
a(S'blossom.the'
p4085
I1
tp4086
a(S'blossomed'
p4087
I1
tp4088
a(S'blowes'
p4089
I1
tp4090
a(S'blowing'
p4091
I1
tp4092
a(S'blume'
p4093
I1
tp4094
a(S'boaght'
p4095
I1
tp4096
a(S'boat'
p4097
I1
tp4098
a(S'boby'
p4099
I1
tp4100
a(S'bonded'
p4101
I1
tp4102
a(S'bonding'
p4103
I1
tp4104
a(S'book.the'
p4105
I1
tp4106
a(S'books'
p4107
I1
tp4108
a(S'boost'
p4109
I1
tp4110
a(S'born'
p4111
I1
tp4112
a(S'bottom'
p4113
I1
tp4114
a(S'bougainvillea'
p4115
I1
tp4116
a(S'bought\x94'
p4117
I1
tp4118
a(S'bougth'
p4119
I1
tp4120
a(S'bound'
p4121
I1
tp4122
a(S'brake'
p4123
I1
tp4124
a(S'brand'
p4125
I1
tp4126
a(S'brave'
p4127
I1
tp4128
a(S'breakdown'
p4129
I1
tp4130
a(S'breeze'
p4131
I1
tp4132
a(S'bricks'
p4133
I1
tp4134
a(S'brief'
p4135
I1
tp4136
a(S'bright'
p4137
I1
tp4138
a(S'brightside'
p4139
I1
tp4140
a(S'brillantly'
p4141
I1
tp4142
a(S'bringback'
p4143
I1
tp4144
a(S'brith'
p4145
I1
tp4146
a(S'brokedown'
p4147
I1
tp4148
a(S'brufield'
p4149
I1
tp4150
a(S'brutal'
p4151
I1
tp4152
a(S'buckling'
p4153
I1
tp4154
a(S'bud/bloom'
p4155
I1
tp4156
a(S"budd's"
p4157
I1
tp4158
a(S'budded.it'
p4159
I1
tp4160
a(S'buddin'
p4161
I1
tp4162
a(S'budding.coming'
p4163
I1
tp4164
a(S'buddings'
p4165
I1
tp4166
a(S'buddling'
p4167
I1
tp4168
a(S'buddng'
p4169
I1
tp4170
a(S'buddy'
p4171
I1
tp4172
a(S'buding'
p4173
I1
tp4174
a(S'budling'
p4175
I1
tp4176
a(S'buetiful'
p4177
I1
tp4178
a(S'building'
p4179
I1
tp4180
a(S'bun'
p4181
I1
tp4182
a(S'burnt'
p4183
I1
tp4184
a(S'bursting'
p4185
I1
tp4186
a(S'butt'
p4187
I1
tp4188
a(S'buyin'
p4189
I1
tp4190
a(S'by,their'
p4191
I1
tp4192
a(S'by\x94'
p4193
I1
tp4194
a(S'caged'
p4195
I1
tp4196
a(S'call'
p4197
I1
tp4198
a(S'calls'
p4199
I1
tp4200
a(S'calmed'
p4201
I1
tp4202
a(S'calms'
p4203
I1
tp4204
a(S'calmwarm'
p4205
I1
tp4206
a(S'camitmint'
p4207
I1
tp4208
a(S'can.the'
p4209
I1
tp4210
a(S'cannot'
p4211
I1
tp4212
a(S'canre'
p4213
I1
tp4214
a(S'capable'
p4215
I1
tp4216
a(S'caps1.r.@caps1'
p4217
I1
tp4218
a(S'caps1.why'
p4219
I1
tp4220
a(S'caps1the'
p4221
I1
tp4222
a(S'caps2)'
p4223
I1
tp4224
a(S'caps2.k'
p4225
I1
tp4226
a(S"caps4't"
p4227
I1
tp4228
a(S'capture'
p4229
I1
tp4230
a(S'cared'
p4231
I1
tp4232
a(S'career'
p4233
I1
tp4234
a(S'carhoined'
p4235
I1
tp4236
a(S'caring'
p4237
I1
tp4238
a(S'carried'
p4239
I1
tp4240
a(S'carries'
p4241
I1
tp4242
a(S'carter'
p4243
I1
tp4244
a(S'cat'
p4245
I1
tp4246
a(S'catches'
p4247
I1
tp4248
a(S'caught'
p4249
I1
tp4250
a(S'ceizors'
p4251
I1
tp4252
a(S'cent'
p4253
I1
tp4254
a(S'centers.\x94'
p4255
I1
tp4256
a(S'centers\x94'
p4257
I1
tp4258
a(S'centry\x94'
p4259
I1
tp4260
a(S'certainly'
p4261
I1
tp4262
a(S'certaint'
p4263
I1
tp4264
a(S'cestain'
p4265
I1
tp4266
a(S'chage'
p4267
I1
tp4268
a(S'change.if'
p4269
I1
tp4270
a(S'changed.i'
p4271
I1
tp4272
a(S'changes.the'
p4273
I1
tp4274
a(S'changes.when'
p4275
I1
tp4276
a(S'channed'
p4277
I1
tp4278
a(S'chapter'
p4279
I1
tp4280
a(S'charact'
p4281
I1
tp4282
a(S'characteristic'
p4283
I1
tp4284
a(S'characteristics'
p4285
I1
tp4286
a(S'chase'
p4287
I1
tp4288
a(S'check'
p4289
I1
tp4290
a(S'cheerful'
p4291
I1
tp4292
a(S'cherished'
p4293
I1
tp4294
a(S'chew'
p4295
I1
tp4296
a(S'chicory'
p4297
I1
tp4298
a(S'children'
p4299
I1
tp4300
a(S'child\x92s'
p4301
I1
tp4302
a(S'chinese'
p4303
I1
tp4304
a(S'choosen'
p4305
I1
tp4306
a(S'chose.the'
p4307
I1
tp4308
a(S'chosee'
p4309
I1
tp4310
a(S'chosen'
p4311
I1
tp4312
a(S'choses'
p4313
I1
tp4314
a(S'circle'
p4315
I1
tp4316
a(S'citizen'
p4317
I1
tp4318
a(S'citizenship'
p4319
I1
tp4320
a(S'clash'
p4321
I1
tp4322
a(S'classes'
p4323
I1
tp4324
a(S'clear,\x94'
p4325
I1
tp4326
a(S'clearer'
p4327
I1
tp4328
a(S'clears'
p4329
I1
tp4330
a(S'cliffhanger'
p4331
I1
tp4332
a(S'cliffhaofer'
p4333
I1
tp4334
a(S'climate'
p4335
I1
tp4336
a(S'cloning'
p4337
I1
tp4338
a(S'closely'
p4339
I1
tp4340
a(S'closet'
p4341
I1
tp4342
a(S'closeur'
p4343
I1
tp4344
a(S'cludes'
p4345
I1
tp4346
a(S'cncludes'
p4347
I1
tp4348
a(S'coaches'
p4349
I1
tp4350
a(S'coarge'
p4351
I1
tp4352
a(S'coins'
p4353
I1
tp4354
a(S'colder'
p4355
I1
tp4356
a(S'coldit'
p4357
I1
tp4358
a(S'colored'
p4359
I1
tp4360
a(S'colorful'
p4361
I1
tp4362
a(S'com'
p4363
I1
tp4364
a(S'comb'
p4365
I1
tp4366
a(S'combined'
p4367
I1
tp4368
a(S'combines'
p4369
I1
tp4370
a(S'come.i'
p4371
I1
tp4372
a(S'come?'
p4373
I1
tp4374
a(S'comeback'
p4375
I1
tp4376
a(S'comeing'
p4377
I1
tp4378
a(S'comes.the'
p4379
I1
tp4380
a(S'comethe'
p4381
I1
tp4382
a(S'comfind'
p4383
I1
tp4384
a(S'comfortablethe'
p4385
I1
tp4386
a(S'comfot'
p4387
I1
tp4388
a(S'comftorable'
p4389
I1
tp4390
a(S'comitmint'
p4391
I1
tp4392
a(S'commited'
p4393
I1
tp4394
a(S'commitment.the'
p4395
I1
tp4396
a(S'committed'
p4397
I1
tp4398
a(S'communicated'
p4399
I1
tp4400
a(S'compair'
p4401
I1
tp4402
a(S'comparisions'
p4403
I1
tp4404
a(S'comparsion'
p4405
I1
tp4406
a(S'complexitier'
p4407
I1
tp4408
a(S'comporting'
p4409
I1
tp4410
a(S'comput'
p4411
I1
tp4412
a(S'comrade'
p4413
I1
tp4414
a(S'coms'
p4415
I1
tp4416
a(S'comunicotes'
p4417
I1
tp4418
a(S'conbidence'
p4419
I1
tp4420
a(S'concentrat'
p4421
I1
tp4422
a(S'concentrate'
p4423
I1
tp4424
a(S'concern'
p4425
I1
tp4426
a(S'concideration'
p4427
I1
tp4428
a(S'conclded'
p4429
I1
tp4430
a(S'conclued'
p4431
I1
tp4432
a(S'conclusion.in'
p4433
I1
tp4434
a(S'conclusion.the'
p4435
I1
tp4436
a(S'conclusions'
p4437
I1
tp4438
a(S'conclution'
p4439
I1
tp4440
a(S'concor'
p4441
I1
tp4442
a(S'conected'
p4443
I1
tp4444
a(S'confessing'
p4445
I1
tp4446
a(S'confidence.i'
p4447
I1
tp4448
a(S'confidense'
p4449
I1
tp4450
a(S'confident.i'
p4451
I1
tp4452
a(S'confident.the'
p4453
I1
tp4454
a(S'confidently'
p4455
I1
tp4456
a(S'conflicts'
p4457
I1
tp4458
a(S'confodence'
p4459
I1
tp4460
a(S'confortable'
p4461
I1
tp4462
a(S'conluds'
p4463
I1
tp4464
a(S'connecting'
p4465
I1
tp4466
a(S'connotation'
p4467
I1
tp4468
a(S'connteced'
p4469
I1
tp4470
a(S'conpleat'
p4471
I1
tp4472
a(S'conquer'
p4473
I1
tp4474
a(S'conquered.in'
p4475
I1
tp4476
a(S'consciously'
p4477
I1
tp4478
a(S'consider'
p4479
I1
tp4480
a(S'considers'
p4481
I1
tp4482
a(S'consist'
p4483
I1
tp4484
a(S'constantly'
p4485
I1
tp4486
a(S'constrited'
p4487
I1
tp4488
a(S'consume'
p4489
I1
tp4490
a(S'content'
p4491
I1
tp4492
a(S'context'
p4493
I1
tp4494
a(S'continuly'
p4495
I1
tp4496
a(S'contrasts'
p4497
I1
tp4498
a(S'contributing'
p4499
I1
tp4500
a(S'control'
p4501
I1
tp4502
a(S'controls.the'
p4503
I1
tp4504
a(S'conversation'
p4505
I1
tp4506
a(S'conveys'
p4507
I1
tp4508
a(S'convinced'
p4509
I1
tp4510
a(S'cooks'
p4511
I1
tp4512
a(S'coped'
p4513
I1
tp4514
a(S'copiuntry'
p4515
I1
tp4516
a(S'corner'
p4517
I1
tp4518
a(S'correction'
p4519
I1
tp4520
a(S'corresponds'
p4521
I1
tp4522
a(S'couage'
p4523
I1
tp4524
a(S'coucluding'
p4525
I1
tp4526
a(S'counters'
p4527
I1
tp4528
a(S'countries'
p4529
I1
tp4530
a(S'country.in'
p4531
I1
tp4532
a(S'country.promise'
p4533
I1
tp4534
a(S'country.there'
p4535
I1
tp4536
a(S'country\x92s'
p4537
I1
tp4538
a(S'couragement..in'
p4539
I1
tp4540
a(S'cover'
p4541
I1
tp4542
a(S'created'
p4543
I1
tp4544
a(S'creatively'
p4545
I1
tp4546
a(S'crops'
p4547
I1
tp4548
a(S'cross'
p4549
I1
tp4550
a(S'crucially'
p4551
I1
tp4552
a(S'crushed'
p4553
I1
tp4554
a(S'crying.\x94'
p4555
I1
tp4556
a(S'crys'
p4557
I1
tp4558
a(S'culture.saeng'
p4559
I1
tp4560
a(S'current'
p4561
I1
tp4562
a(S'currently'
p4563
I1
tp4564
a(S'customed'
p4565
I1
tp4566
a(S'customs'
p4567
I1
tp4568
a(S'cycle.the'
p4569
I1
tp4570
a(S'daily'
p4571
I1
tp4572
a(S'damages'
p4573
I1
tp4574
a(S'dark'
p4575
I1
tp4576
a(S'date1.@caps2'
p4577
I1
tp4578
a(S'date1.emotion'
p4579
I1
tp4580
a(S"daughter's"
p4581
I1
tp4582
a(S'de'
p4583
I1
tp4584
a(S'deafeted'
p4585
I1
tp4586
a(S'deals'
p4587
I1
tp4588
a(S'dearly'
p4589
I1
tp4590
a(S'death'
p4591
I1
tp4592
a(S'decied'
p4593
I1
tp4594
a(S'deciedes'
p4595
I1
tp4596
a(S'declared'
p4597
I1
tp4598
a(S'dedicated'
p4599
I1
tp4600
a(S'defeated'
p4601
I1
tp4602
a(S'definatly'
p4603
I1
tp4604
a(S'deicides'
p4605
I1
tp4606
a(S'dejected'
p4607
I1
tp4608
a(S'delar'
p4609
I1
tp4610
a(S'delicate'
p4611
I1
tp4612
a(S'delights'
p4613
I1
tp4614
a(S'delinlted'
p4615
I1
tp4616
a(S'demanding'
p4617
I1
tp4618
a(S'demension'
p4619
I1
tp4620
a(S'demostrates'
p4621
I1
tp4622
a(S'depict'
p4623
I1
tp4624
a(S'depicted'
p4625
I1
tp4626
a(S'depresing'
p4627
I1
tp4628
a(S'depth'
p4629
I1
tp4630
a(S'describe'
p4631
I1
tp4632
a(S'description'
p4633
I1
tp4634
a(S'descriptive'
p4635
I1
tp4636
a(S'desdion'
p4637
I1
tp4638
a(S'deserve'
p4639
I1
tp4640
a(S'deserves'
p4641
I1
tp4642
a(S'desire'
p4643
I1
tp4644
a(S'desperately'
p4645
I1
tp4646
a(S'desprite'
p4647
I1
tp4648
a(S'desribed'
p4649
I1
tp4650
a(S'destiny'
p4651
I1
tp4652
a(S'detarmand'
p4653
I1
tp4654
a(S'detatchment'
p4655
I1
tp4656
a(S'determained'
p4657
I1
tp4658
a(S'determend'
p4659
I1
tp4660
a(S'determination,i'
p4661
I1
tp4662
a(S'determind'
p4663
I1
tp4664
a(S'determine'
p4665
I1
tp4666
a(S'determined.when'
p4667
I1
tp4668
a(S'determinedness'
p4669
I1
tp4670
a(S'determing'
p4671
I1
tp4672
a(S'detirmen'
p4673
I1
tp4674
a(S'device'
p4675
I1
tp4676
a(S'devoted'
p4677
I1
tp4678
a(S'dicide'
p4679
I1
tp4680
a(S'dicked'
p4681
I1
tp4682
a(S'didnt'
p4683
I1
tp4684
a(S'diff'
p4685
I1
tp4686
a(S'diffent'
p4687
I1
tp4688
a(S'different.the'
p4689
I1
tp4690
a(S'difficuilty'
p4691
I1
tp4692
a(S'difficulties;'
p4693
I1
tp4694
a(S'dinner.the'
p4695
I1
tp4696
a(S'din\x92t'
p4697
I1
tp4698
a(S'disagree'
p4699
I1
tp4700
a(S'disappear'
p4701
I1
tp4702
a(S'disappointments'
p4703
I1
tp4704
a(S'disbelief'
p4705
I1
tp4706
a(S'discomfort.\x94'
p4707
I1
tp4708
a(S'discouraged'
p4709
I1
tp4710
a(S'discover'
p4711
I1
tp4712
a(S'discrepancy'
p4713
I1
tp4714
a(S'discribe'
p4715
I1
tp4716
a(S'discussion'
p4717
I1
tp4718
a(S'dislike'
p4719
I1
tp4720
a(S'disliked'
p4721
I1
tp4722
a(S'display'
p4723
I1
tp4724
a(S'distance\x94'
p4725
I1
tp4726
a(S'distant'
p4727
I1
tp4728
a(S'distract'
p4729
I1
tp4730
a(S'distrout'
p4731
I1
tp4732
a(S'diver'
p4733
I1
tp4734
a(S'do.i'
p4735
I1
tp4736
a(S'does.in'
p4737
I1
tp4738
a(S'doesn\xe2\x80\x99t'
p4739
I1
tp4740
a(S'dollers'
p4741
I1
tp4742
a(S'dollers.i'
p4743
I1
tp4744
a(S'domestic'
p4745
I1
tp4746
a(S'donei'
p4747
I1
tp4748
a(S'door'
p4749
I1
tp4750
a(S'dorl'
p4751
I1
tp4752
a(S'dormant'
p4753
I1
tp4754
a(S'dosent'
p4755
I1
tp4756
a(S'dotted'
p4757
I1
tp4758
a(S'down.maybe'
p4759
I1
tp4760
a(S'down.the'
p4761
I1
tp4762
a(S'downfall'
p4763
I1
tp4764
a(S'dramatic'
p4765
I1
tp4766
a(S'drawing'
p4767
I1
tp4768
a(S'drawn'
p4769
I1
tp4770
a(S'draws'
p4771
I1
tp4772
a(S'dreams'
p4773
I1
tp4774
a(S'dreams.the'
p4775
I1
tp4776
a(S'dreasy'
p4777
I1
tp4778
a(S'drift'
p4779
I1
tp4780
a(S'drivers\x92'
p4781
I1
tp4782
a(S'dry'
p4783
I1
tp4784
a(S'dust'
p4785
I1
tp4786
a(S'dwell'
p4787
I1
tp4788
a(S'dwells'
p4789
I1
tp4790
a(S'dynamic'
p4791
I1
tp4792
a(S'eachother'
p4793
I1
tp4794
a(S'eaither'
p4795
I1
tp4796
a(S'ear'
p4797
I1
tp4798
a(S'earely'
p4799
I1
tp4800
a(S'easly'
p4801
I1
tp4802
a(S'eccentric'
p4803
I1
tp4804
a(S'ech'
p4805
I1
tp4806
a(S'ed'
p4807
I1
tp4808
a(S'effect.he'
p4809
I1
tp4810
a(S'effect.the'
p4811
I1
tp4812
a(S'effected'
p4813
I1
tp4814
a(S'effection'
p4815
I1
tp4816
a(S'effectively'
p4817
I1
tp4818
a(S'egg'
p4819
I1
tp4820
a(S'eldersthe'
p4821
I1
tp4822
a(S'elements'
p4823
I1
tp4824
a(S'elephant'
p4825
I1
tp4826
a(S'else.i'
p4827
I1
tp4828
a(S'embracing'
p4829
I1
tp4830
a(S'emoshond'
p4831
I1
tp4832
a(S'emphasises'
p4833
I1
tp4834
a(S'emphasizing'
p4835
I1
tp4836
a(S'emphisis'
p4837
I1
tp4838
a(S'empowers'
p4839
I1
tp4840
a(S'enable'
p4841
I1
tp4842
a(S'encompasses'
p4843
I1
tp4844
a(S'encouraged'
p4845
I1
tp4846
a(S'encourages'
p4847
I1
tp4848
a(S'encouragment'
p4849
I1
tp4850
a(S'end.she'
p4851
I1
tp4852
a(S'end;'
p4853
I1
tp4854
a(S'endding'
p4855
I1
tp4856
a(S'endend'
p4857
I1
tp4858
a(S'endin'
p4859
I1
tp4860
a(S'ending.in'
p4861
I1
tp4862
a(S'ending.the'
p4863
I1
tp4864
a(S'endit'
p4865
I1
tp4866
a(S'endyat'
p4867
I1
tp4868
a(S'enhance'
p4869
I1
tp4870
a(S'enjoying'
p4871
I1
tp4872
a(S'ensure'
p4873
I1
tp4874
a(S'entered'
p4875
I1
tp4876
a(S'enters'
p4877
I1
tp4878
a(S'enthused'
p4879
I1
tp4880
a(S'ently'
p4881
I1
tp4882
a(S'entwined'
p4883
I1
tp4884
a(S'enviorment'
p4885
I1
tp4886
a(S'envioronment'
p4887
I1
tp4888
a(S'enviroment'
p4889
I1
tp4890
a(S'environments..the'
p4891
I1
tp4892
a(S'envoke'
p4893
I1
tp4894
a(S'envoked'
p4895
I1
tp4896
a(S'equal'
p4897
I1
tp4898
a(S'equiement'
p4899
I1
tp4900
a(S'era\x92s'
p4901
I1
tp4902
a(S'erupted'
p4903
I1
tp4904
a(S'ery'
p4905
I1
tp4906
a(S'escape'
p4907
I1
tp4908
a(S'essential'
p4909
I1
tp4910
a(S'essue'
p4911
I1
tp4912
a(S'etact'
p4913
I1
tp4914
a(S'etches'
p4915
I1
tp4916
a(S'etcs'
p4917
I1
tp4918
a(S'event'
p4919
I1
tp4920
a(S'event\x92s'
p4921
I1
tp4922
a(S'evenyone'
p4923
I1
tp4924
a(S'everthing'
p4925
I1
tp4926
a(S'everything.several'
p4927
I1
tp4928
a(S'everything.they'
p4929
I1
tp4930
a(S'everything\x92s'
p4931
I1
tp4932
a(S'everywhere'
p4933
I1
tp4934
a(S'eviorment'
p4935
I1
tp4936
a(S'evironment'
p4937
I1
tp4938
a(S'exacpe'
p4939
I1
tp4940
a(S'examines'
p4941
I1
tp4942
a(S'example;'
p4943
I1
tp4944
a(S'exccept'
p4945
I1
tp4946
a(S'except'
p4947
I1
tp4948
a(S'excitement'
p4949
I1
tp4950
a(S'exciting'
p4951
I1
tp4952
a(S'exist'
p4953
I1
tp4954
a(S'existence.the'
p4955
I1
tp4956
a(S'exotic'
p4957
I1
tp4958
a(S'expand'
p4959
I1
tp4960
a(S'expected'
p4961
I1
tp4962
a(S'expecting'
p4963
I1
tp4964
a(S'expeirences'
p4965
I1
tp4966
a(S'experience.it'
p4967
I1
tp4968
a(S"experience.saeng's"
p4969
I1
tp4970
a(S'experience.the'
p4971
I1
tp4972
a(S'experienced'
p4973
I1
tp4974
a(S'explained.the'
p4975
I1
tp4976
a(S'explaing'
p4977
I1
tp4978
a(S'explaned'
p4979
I1
tp4980
a(S'explaning'
p4981
I1
tp4982
a(S'exploins'
p4983
I1
tp4984
a(S'exploning'
p4985
I1
tp4986
a(S'exsploring'
p4987
I1
tp4988
a(S'external'
p4989
I1
tp4990
a(S'extract'
p4991
I1
tp4992
a(S'eye,\x94'
p4993
I1
tp4994
a(S'eyes.\x94'
p4995
I1
tp4996
a(S'eyes\x94'
p4997
I1
tp4998
a(S'eyes\x94[no]'
p4999
I1
tp5000
a(S'ezing'
p5001
I1
tp5002
a(S'faces.the'
p5003
I1
tp5004
a(S'facing'
p5005
I1
tp5006
a(S'faeng'
p5007
I1
tp5008
a(S'faeng-noi'
p5009
I1
tp5010
a(S'faeng-noi,\x94'
p5011
I1
tp5012
a(S'fail.i'
p5013
I1
tp5014
a(S'failed.the'
p5015
I1
tp5016
a(S'failedher'
p5017
I1
tp5018
a(S'failer'
p5019
I1
tp5020
a(S'failes'
p5021
I1
tp5022
a(S'failled'
p5023
I1
tp5024
a(S'failur'
p5025
I1
tp5026
a(S'failure.the'
p5027
I1
tp5028
a(S'fake'
p5029
I1
tp5030
a(S'falls'
p5031
I1
tp5032
a(S'famed'
p5033
I1
tp5034
a(S'familarity'
p5035
I1
tp5036
a(S'families'
p5037
I1
tp5038
a(S'family.explains'
p5039
I1
tp5040
a(S'fare'
p5041
I1
tp5042
a(S'farmland'
p5043
I1
tp5044
a(S'fashion'
p5045
I1
tp5046
a(S'fating'
p5047
I1
tp5048
a(S'favirte'
p5049
I1
tp5050
a(S'favorit'
p5051
I1
tp5052
a(S'favourite'
p5053
I1
tp5054
a(S'feature'
p5055
I1
tp5056
a(S'feel.the'
p5057
I1
tp5058
a(S'feeling.in'
p5059
I1
tp5060
a(S'feels.the'
p5061
I1
tp5062
a(S'femiliar'
p5063
I1
tp5064
a(S'fereshadows'
p5065
I1
tp5066
a(S'fighting'
p5067
I1
tp5068
a(S'figurative'
p5069
I1
tp5070
a(S'figured'
p5071
I1
tp5072
a(S'filed'
p5073
I1
tp5074
a(S'fills'
p5075
I1
tp5076
a(S'fimerlary'
p5077
I1
tp5078
a(S'fimilar'
p5079
I1
tp5080
a(S'fine-foothed'
p5081
I1
tp5082
a(S'finising'
p5083
I1
tp5084
a(S'firm'
p5085
I1
tp5086
a(S'firmilar'
p5087
I1
tp5088
a(S'firmly'
p5089
I1
tp5090
a(S'fits'
p5091
I1
tp5092
a(S'fix'
p5093
I1
tp5094
a(S'flashbacks'
p5095
I1
tp5096
a(S'flattened'
p5097
I1
tp5098
a(S'flaver'
p5099
I1
tp5100
a(S'flock/fasten'
p5101
I1
tp5102
a(S'flood'
p5103
I1
tp5104
a(S'floral'
p5105
I1
tp5106
a(S'florists'
p5107
I1
tp5108
a(S'flour'
p5109
I1
tp5110
a(S'flourish'
p5111
I1
tp5112
a(S'flourishing'
p5113
I1
tp5114
a(S"flower's"
p5115
I1
tp5116
a(S'flower.now'
p5117
I1
tp5118
a(S'flower.she'
p5119
I1
tp5120
a(S'flower.when'
p5121
I1
tp5122
a(S'flowers.in'
p5123
I1
tp5124
a(S'flowerthe'
p5125
I1
tp5126
a(S'flowr'
p5127
I1
tp5128
a(S'flowrs'
p5129
I1
tp5130
a(S'focus.the'
p5131
I1
tp5132
a(S'follows'
p5133
I1
tp5134
a(S'fong'
p5135
I1
tp5136
a(S'foot'
p5137
I1
tp5138
a(S'forced'
p5139
I1
tp5140
a(S'foregiveness'
p5141
I1
tp5142
a(S'foreshadows'
p5143
I1
tp5144
a(S'forexample'
p5145
I1
tp5146
a(S'forexemple'
p5147
I1
tp5148
a(S'forges'
p5149
I1
tp5150
a(S'forget.the'
p5151
I1
tp5152
a(S'forgiven'
p5153
I1
tp5154
a(S'forward.determined'
p5155
I1
tp5156
a(S'foward.the'
p5157
I1
tp5158
a(S'free-spirited'
p5159
I1
tp5160
a(S'freedom'
p5161
I1
tp5162
a(S'friends?'
p5163
I1
tp5164
a(S'friendship'
p5165
I1
tp5166
a(S'frogeting'
p5167
I1
tp5168
a(S'from.in'
p5169
I1
tp5170
a(S'fromthe'
p5171
I1
tp5172
a(S'front'
p5173
I1
tp5174
a(S'frosts'
p5175
I1
tp5176
a(S'fruits.the'
p5177
I1
tp5178
a(S'fullest'
p5179
I1
tp5180
a(S'function'
p5181
I1
tp5182
a(S'futher'
p5183
I1
tp5184
a(S'future.in'
p5185
I1
tp5186
a(S'futurei'
p5187
I1
tp5188
a(S'gain'
p5189
I1
tp5190
a(S'game'
p5191
I1
tp5192
a(S'gardeding'
p5193
I1
tp5194
a(S'garden.in'
p5195
I1
tp5196
a(S'gardener'
p5197
I1
tp5198
a(S'gardening.by'
p5199
I1
tp5200
a(S'gardenning'
p5201
I1
tp5202
a(S'gardens'
p5203
I1
tp5204
a(S'garden\x94'
p5205
I1
tp5206
a(S'gardning'
p5207
I1
tp5208
a(S'gathered'
p5209
I1
tp5210
a(S'geese.she'
p5211
I1
tp5212
a(S'geese]'
p5213
I1
tp5214
a(S'geesethe'
p5215
I1
tp5216
a(S'geese\x92s'
p5217
I1
tp5218
a(S'general'
p5219
I1
tp5220
a(S'getall'
p5221
I1
tp5222
a(S'gether'
p5223
I1
tp5224
a(S'geting'
p5225
I1
tp5226
a(S'gil'
p5227
I1
tp5228
a(S'girl;'
p5229
I1
tp5230
a(S'girllwill'
p5231
I1
tp5232
a(S'girlthe'
p5233
I1
tp5234
a(S'gist'
p5235
I1
tp5236
a(S'git'
p5237
I1
tp5238
a(S'glimpse'
p5239
I1
tp5240
a(S'glimpses'
p5241
I1
tp5242
a(S"go'ss"
p5243
I1
tp5244
a(S'go.the'
p5245
I1
tp5246
a(S'goal.after'
p5247
I1
tp5248
a(S'goig'
p5249
I1
tp5250
a(S'goin'
p5251
I1
tp5252
a(S'gone.\x94'
p5253
I1
tp5254
a(S'good-day'
p5255
I1
tp5256
a(S'good.reserved'
p5257
I1
tp5258
a(S'goodluck'
p5259
I1
tp5260
a(S'goodnight'
p5261
I1
tp5262
a(S'gorse'
p5263
I1
tp5264
a(S'goslings'
p5265
I1
tp5266
a(S'grade.i'
p5267
I1
tp5268
a(S'graden'
p5269
I1
tp5270
a(S'grader'
p5271
I1
tp5272
a(S'grades'
p5273
I1
tp5274
a(S'grand'
p5275
I1
tp5276
a(S'grander'
p5277
I1
tp5278
a(S'grandmother?\x94'
p5279
I1
tp5280
a(S'grandmother\x94'
p5281
I1
tp5282
a(S'grarden'
p5283
I1
tp5284
a(S'grasp'
p5285
I1
tp5286
a(S'grass'
p5287
I1
tp5288
a(S'grateful'
p5289
I1
tp5290
a(S'graw'
p5291
I1
tp5292
a(S'grews'
p5293
I1
tp5294
a(S'grif'
p5295
I1
tp5296
a(S'gril'
p5297
I1
tp5298
a(S'ground.i'
p5299
I1
tp5300
a(S'groundthere'
p5301
I1
tp5302
a(S'group'
p5303
I1
tp5304
a(S'gthat'
p5305
I1
tp5306
a(S'guiet'
p5307
I1
tp5308
a(S'guiss'
p5309
I1
tp5310
a(S'gust'
p5311
I1
tp5312
a(S'guts'
p5313
I1
tp5314
a(S'habiscas'
p5315
I1
tp5316
a(S'habiscus'
p5317
I1
tp5318
a(S"hadn't"
p5319
I1
tp5320
a(S'hair....\x94'
p5321
I1
tp5322
a(S'hander'
p5323
I1
tp5324
a(S'handwork'
p5325
I1
tp5326
a(S'hanks'
p5327
I1
tp5328
a(S'happeed'
p5329
I1
tp5330
a(S'happen.i'
p5331
I1
tp5332
a(S'happen.saeng'
p5333
I1
tp5334
a(S'happen.she'
p5335
I1
tp5336
a(S'happen.the'
p5337
I1
tp5338
a(S'happend'
p5339
I1
tp5340
a(S'happened.know'
p5341
I1
tp5342
a(S'happened.the'
p5343
I1
tp5344
a(S'happened.\x94'
p5345
I1
tp5346
a(S'happenings'
p5347
I1
tp5348
a(S'happy.i'
p5349
I1
tp5350
a(S'happy.the'
p5351
I1
tp5352
a(S'hard.the'
p5353
I1
tp5354
a(S'hardest'
p5355
I1
tp5356
a(S'hardestand'
p5357
I1
tp5358
a(S'harm'
p5359
I1
tp5360
a(S'harmony'
p5361
I1
tp5362
a(S'has.the'
p5363
I1
tp5364
a(S'hasent'
p5365
I1
tp5366
a(S'hasen\x92t'
p5367
I1
tp5368
a(S"hasn't"
p5369
I1
tp5370
a(S'haunts'
p5371
I1
tp5372
a(S'have.i'
p5373
I1
tp5374
a(S'have.in'
p5375
I1
tp5376
a(S'haven\x92t'
p5377
I1
tp5378
a(S'headed'
p5379
I1
tp5380
a(S'header'
p5381
I1
tp5382
a(S'headies'
p5383
I1
tp5384
a(S'heading'
p5385
I1
tp5386
a(S'heads'
p5387
I1
tp5388
a(S'heal'
p5389
I1
tp5390
a(S'heal.she'
p5391
I1
tp5392
a(S'hear'
p5393
I1
tp5394
a(S'heartache'
p5395
I1
tp5396
a(S'heartbroken'
p5397
I1
tp5398
a(S'heavy'
p5399
I1
tp5400
a(S'hedpe'
p5401
I1
tp5402
a(S'heer'
p5403
I1
tp5404
a(S'height'
p5405
I1
tp5406
a(S'helpful.she'
p5407
I1
tp5408
a(S'heoked'
p5409
I1
tp5410
a(S'hep'
p5411
I1
tp5412
a(S'heqionqrys.she'
p5413
I1
tp5414
a(S'her.saeng'
p5415
I1
tp5416
a(S'her;'
p5417
I1
tp5418
a(S'herb'
p5419
I1
tp5420
a(S'here.i'
p5421
I1
tp5422
a(S'herhouse'
p5423
I1
tp5424
a(S'heritage'
p5425
I1
tp5426
a(S'herself,the'
p5427
I1
tp5428
a(S'herself,\x92in'
p5429
I1
tp5430
a(S'herself.at'
p5431
I1
tp5432
a(S'herself.saeng'
p5433
I1
tp5434
a(S'herself?'
p5435
I1
tp5436
a(S'herself\x94'
p5437
I1
tp5438
a(S'hiatcus'
p5439
I1
tp5440
a(S'hibernate'
p5441
I1
tp5442
a(S'hibibiscus'
p5443
I1
tp5444
a(S'hibicous'
p5445
I1
tp5446
a(S'hibiscuc'
p5447
I1
tp5448
a(S"hibiscus'"
p5449
I1
tp5450
a(S"hibiscus's"
p5451
I1
tp5452
a(S'hibiscus(a'
p5453
I1
tp5454
a(S'hibiscus,\x91\x92'
p5455
I1
tp5456
a(S'hibiscus,\x93'
p5457
I1
tp5458
a(S'hibiscus,\x94minfong'
p5459
I1
tp5460
a(S'hibiscus.he'
p5461
I1
tp5462
a(S'hibiscus.in'
p5463
I1
tp5464
a(S'hibiscus.that'
p5465
I1
tp5466
a(S'hibiscuss'
p5467
I1
tp5468
a(S'hibiscus\x92s'
p5469
I1
tp5470
a(S'hibiscus\x92\x92'
p5471
I1
tp5472
a(S'hibiscus\x93'
p5473
I1
tp5474
a(S'hibiscus\x94by'
p5475
I1
tp5476
a(S'hibisus'
p5477
I1
tp5478
a(S'hibscus'
p5479
I1
tp5480
a(S'hibsiscus'
p5481
I1
tp5482
a(S'hidden'
p5483
I1
tp5484
a(S'highlights'
p5485
I1
tp5486
a(S'hiliscus'
p5487
I1
tp5488
a(S'hill.the'
p5489
I1
tp5490
a(S'him/her'
p5491
I1
tp5492
a(S'hints'
p5493
I1
tp5494
a(S'hit'
p5495
I1
tp5496
a(S'ho,is'
p5497
I1
tp5498
a(S'ho,put'
p5499
I1
tp5500
a(S'ho,the'
p5501
I1
tp5502
a(S'hod'
p5503
I1
tp5504
a(S'home!the'
p5505
I1
tp5506
a(S'home"when'
p5507
I1
tp5508
a(S"home,'"
p5509
I1
tp5510
a(S'home,\x94'
p5511
I1
tp5512
a(S'home..\x94'
p5513
I1
tp5514
a(S'home.she'
p5515
I1
tp5516
a(S'home.there'
p5517
I1
tp5518
a(S'homein'
p5519
I1
tp5520
a(S'homelad'
p5521
I1
tp5522
a(S'homeland,when'
p5523
I1
tp5524
a(S'homeland.in'
p5525
I1
tp5526
a(S'homeland.the'
p5527
I1
tp5528
a(S'homelandit'
p5529
I1
tp5530
a(S'homelard'
p5531
I1
tp5532
a(S'homememory,promise,life-all'
p5533
I1
tp5534
a(S'homethe'
p5535
I1
tp5536
a(S'homland..the'
p5537
I1
tp5538
a(S'honaor'
p5539
I1
tp5540
a(S'honk'
p5541
I1
tp5542
a(S'honking'
p5543
I1
tp5544
a(S'honor'
p5545
I1
tp5546
a(S'honrs'
p5547
I1
tp5548
a(S'hood'
p5549
I1
tp5550
a(S'hope).\x94and'
p5551
I1
tp5552
a(S'hope.they'
p5553
I1
tp5554
a(S'hope.\x93then'
p5555
I1
tp5556
a(S'hoped'
p5557
I1
tp5558
a(S'hopfully'
p5559
I1
tp5560
a(S'horman'
p5561
I1
tp5562
a(S'horrible'
p5563
I1
tp5564
a(S'hostalgic;'
p5565
I1
tp5566
a(S'hot'
p5567
I1
tp5568
a(S'houever'
p5569
I1
tp5570
a(S'how\x94(no'
p5571
I1
tp5572
a(S'ho\x94'
p5573
I1
tp5574
a(S'hubiscius'
p5575
I1
tp5576
a(S'humanlike'
p5577
I1
tp5578
a(S'humiliating'
p5579
I1
tp5580
a(S'hundreds'
p5581
I1
tp5582
a(S'hung'
p5583
I1
tp5584
a(S'hunks'
p5585
I1
tp5586
a(S'hunting'
p5587
I1
tp5588
a(S'hurriedly'
p5589
I1
tp5590
a(S'hurting'
p5591
I1
tp5592
a(S'hybisus'
p5593
I1
tp5594
a(S'i-@caps1]'
p5595
I1
tp5596
a(S'i.t'
p5597
I1
tp5598
a(S'ibet'
p5599
I1
tp5600
a(S'ic'
p5601
I1
tp5602
a(S'identifies'
p5603
I1
tp5604
a(S'illustrate'
p5605
I1
tp5606
a(S'im'
p5607
I1
tp5608
a(S'imagen'
p5609
I1
tp5610
a(S'imagenation'
p5611
I1
tp5612
a(S'imagethe'
p5613
I1
tp5614
a(S'imagine'
p5615
I1
tp5616
a(S'immigration'
p5617
I1
tp5618
a(S'imotional'
p5619
I1
tp5620
a(S'impacted'
p5621
I1
tp5622
a(S'impart'
p5623
I1
tp5624
a(S'impatient'
p5625
I1
tp5626
a(S'implied'
p5627
I1
tp5628
a(S'implying'
p5629
I1
tp5630
a(S'important\x94'
p5631
I1
tp5632
a(S'importian'
p5633
I1
tp5634
a(S'impossible'
p5635
I1
tp5636
a(S'impotance'
p5637
I1
tp5638
a(S'impowering'
p5639
I1
tp5640
a(S'impression'
p5641
I1
tp5642
a(S'in.i'
p5643
I1
tp5644
a(S'in.now'
p5645
I1
tp5646
a(S'inability'
p5647
I1
tp5648
a(S'inconclusion'
p5649
I1
tp5650
a(S'incredulously'
p5651
I1
tp5652
a(S'increously.\x94'
p5653
I1
tp5654
a(S'indicate'
p5655
I1
tp5656
a(S'indigenous'
p5657
I1
tp5658
a(S'individual'
p5659
I1
tp5660
a(S'individual.the'
p5661
I1
tp5662
a(S'inffuse'
p5663
I1
tp5664
a(S'influence'
p5665
I1
tp5666
a(S'influent'
p5667
I1
tp5668
a(S'inform'
p5669
I1
tp5670
a(S'information'
p5671
I1
tp5672
a(S'informing'
p5673
I1
tp5674
a(S'informs'
p5675
I1
tp5676
a(S'infured'
p5677
I1
tp5678
a(S'initially'
p5679
I1
tp5680
a(S'inner'
p5681
I1
tp5682
a(S'inorder'
p5683
I1
tp5684
a(S'insentive'
p5685
I1
tp5686
a(S'insight'
p5687
I1
tp5688
a(S'inspiration.to'
p5689
I1
tp5690
a(S'inspirational'
p5691
I1
tp5692
a(S'inspire'
p5693
I1
tp5694
a(S'instad'
p5695
I1
tp5696
a(S'instantly'
p5697
I1
tp5698
a(S'instants'
p5699
I1
tp5700
a(S'instinct'
p5701
I1
tp5702
a(S'intends'
p5703
I1
tp5704
a(S'intense\x94'
p5705
I1
tp5706
a(S'intention'
p5707
I1
tp5708
a(S'inter'
p5709
I1
tp5710
a(S'interesiting'
p5711
I1
tp5712
a(S'interfer'
p5713
I1
tp5714
a(S'interprentle'
p5715
I1
tp5716
a(S'interpretation'
p5717
I1
tp5718
a(S'interpreted'
p5719
I1
tp5720
a(S'intill'
p5721
I1
tp5722
a(S'intoto'
p5723
I1
tp5724
a(S'intrigued'
p5725
I1
tp5726
a(S'introduced'
p5727
I1
tp5728
a(S'introduction'
p5729
I1
tp5730
a(S'intwines'
p5731
I1
tp5732
a(S'involved'
p5733
I1
tp5734
a(S'involves'
p5735
I1
tp5736
a(S'in\x94'
p5737
I1
tp5738
a(S'irevitable'
p5739
I1
tp5740
a(S"is'"
p5741
I1
tp5742
a(S'is.the'
p5743
I1
tp5744
a(S'isanters'
p5745
I1
tp5746
a(S'isent'
p5747
I1
tp5748
a(S'isin'
p5749
I1
tp5750
a(S'isnt'
p5751
I1
tp5752
a(S'isn\xe2\x80\x99t'
p5753
I1
tp5754
a(S'isolated'
p5755
I1
tp5756
a(S'ispart'
p5757
I1
tp5758
a(S'it!("again")!.when'
p5759
I1
tp5760
a(S'it.after'
p5761
I1
tp5762
a(S'it.hope'
p5763
I1
tp5764
a(S'it.i'
p5765
I1
tp5766
a(S'it.she'
p5767
I1
tp5768
a(S'it.so'
p5769
I1
tp5770
a(S'it.this'
p5771
I1
tp5772
a(S'it.\x94'
p5773
I1
tp5774
a(S'it?'
p5775
I1
tp5776
a(S'ith'
p5777
I1
tp5778
a(S'iti'
p5779
I1
tp5780
a(S'i\x92m'
p5781
I1
tp5782
a(S'i\x92ve'
p5783
I1
tp5784
a(S'i\x96i'
p5785
I1
tp5786
a(S'jasmine'
p5787
I1
tp5788
a(S'jittering'
p5789
I1
tp5790
a(S'job.the'
p5791
I1
tp5792
a(S'join'
p5793
I1
tp5794
a(S'jolont'
p5795
I1
tp5796
a(S'jouney'
p5797
I1
tp5798
a(S'joyful'
p5799
I1
tp5800
a(S'joyous'
p5801
I1
tp5802
a(S'jst'
p5803
I1
tp5804
a(S'keenlythe'
p5805
I1
tp5806
a(S'keepsakes'
p5807
I1
tp5808
a(S'kid'
p5809
I1
tp5810
a(S'killed'
p5811
I1
tp5812
a(S'kills'
p5813
I1
tp5814
a(S'kindness'
p5815
I1
tp5816
a(S'kinds'
p5817
I1
tp5818
a(S'knee'
p5819
I1
tp5820
a(S'knowledgable'
p5821
I1
tp5822
a(S'labeled'
p5823
I1
tp5824
a(S'lack'
p5825
I1
tp5826
a(S'lack.the'
p5827
I1
tp5828
a(S'lamenting'
p5829
I1
tp5830
a(S'land.the'
p5831
I1
tp5832
a(S'landing'
p5833
I1
tp5834
a(S'landthe'
p5835
I1
tp5836
a(S'language'
p5837
I1
tp5838
a(S'languages'
p5839
I1
tp5840
a(S'lanno'
p5841
I1
tp5842
a(S'large'
p5843
I1
tp5844
a(S'lat'
p5845
I1
tp5846
a(S'launge'
p5847
I1
tp5848
a(S'lavd'
p5849
I1
tp5850
a(S'lays'
p5851
I1
tp5852
a(S'leading'
p5853
I1
tp5854
a(S'leads'
p5855
I1
tp5856
a(S'leafs'
p5857
I1
tp5858
a(S'learning.the'
p5859
I1
tp5860
a(S'learnt.the'
p5861
I1
tp5862
a(S'leavy'
p5863
I1
tp5864
a(S'led'
p5865
I1
tp5866
a(S'leds'
p5867
I1
tp5868
a(S'left.the'
p5869
I1
tp5870
a(S'legible)the'
p5871
I1
tp5872
a(S'lend'
p5873
I1
tp5874
a(S'lessions'
p5875
I1
tp5876
a(S'let\x92s'
p5877
I1
tp5878
a(S'leveing'
p5879
I1
tp5880
a(S'licenc'
p5881
I1
tp5882
a(S'license.the'
p5883
I1
tp5884
a(S'licesies.the'
p5885
I1
tp5886
a(S'life,&'
p5887
I1
tp5888
a(S'life.in'
p5889
I1
tp5890
a(S'life\x92s'
p5891
I1
tp5892
a(S'life\x94'
p5893
I1
tp5894
a(S'lift'
p5895
I1
tp5896
a(S'lighten'
p5897
I1
tp5898
a(S'lighter'
p5899
I1
tp5900
a(S'like.my'
p5901
I1
tp5902
a(S'liking'
p5903
I1
tp5904
a(S'lime'
p5905
I1
tp5906
a(S'limit'
p5907
I1
tp5908
a(S'lineall'
p5909
I1
tp5910
a(S'lingering'
p5911
I1
tp5912
a(S'links'
p5913
I1
tp5914
a(S'liscence'
p5915
I1
tp5916
a(S'lisence'
p5917
I1
tp5918
a(S'listed'
p5919
I1
tp5920
a(S'litter'
p5921
I1
tp5922
a(S'live.she'
p5923
I1
tp5924
a(S'live.the'
p5925
I1
tp5926
a(S'lk'
p5927
I1
tp5928
a(S'location1.so'
p5929
I1
tp5930
a(S'location1.what'
p5931
I1
tp5932
a(S'location1.\x94when'
p5933
I1
tp5934
a(S'location2.the'
p5935
I1
tp5936
a(S'location4'
p5937
I1
tp5938
a(S'lock'
p5939
I1
tp5940
a(S'logic'
p5941
I1
tp5942
a(S'lonely'
p5943
I1
tp5944
a(S'longed'
p5945
I1
tp5946
a(S'longs'
p5947
I1
tp5948
a(S'lonly'
p5949
I1
tp5950
a(S'loose'
p5951
I1
tp5952
a(S'lose'
p5953
I1
tp5954
a(S'loss.\x92\x92'
p5955
I1
tp5956
a(S'lots'
p5957
I1
tp5958
a(S'loving'
p5959
I1
tp5960
a(S'luckin'
p5961
I1
tp5962
a(S'lucky'
p5963
I1
tp5964
a(S'lunch'
p5965
I1
tp5966
a(S'lungs.\x94'
p5967
I1
tp5968
a(S'luteries'
p5969
I1
tp5970
a(S'lyrical'
p5971
I1
tp5972
a(S'mabe'
p5973
I1
tp5974
a(S'mac'
p5975
I1
tp5976
a(S'mac.\x94'
p5977
I1
tp5978
a(S'mach'
p5979
I1
tp5980
a(S'machines'
p5981
I1
tp5982
a(S'mac\x94[ho]'
p5983
I1
tp5984
a(S'madagascar'
p5985
I1
tp5986
a(S'maint'
p5987
I1
tp5988
a(S'majestic'
p5989
I1
tp5990
a(S'mak'
p5991
I1
tp5992
a(S'malance'
p5993
I1
tp5994
a(S'male'
p5995
I1
tp5996
a(S'malik'
p5997
I1
tp5998
a(S'malik\x94'
p5999
I1
tp6000
a(S'manigascar'
p6001
I1
tp6002
a(S'mannered'
p6003
I1
tp6004
a(S'mashed.\x94'
p6005
I1
tp6006
a(S'mather\x92s'
p6007
I1
tp6008
a(S'mattered.the'
p6009
I1
tp6010
a(S'matters,\x94'
p6011
I1
tp6012
a(S'matter\x94'
p6013
I1
tp6014
a(S'maturity'
p6015
I1
tp6016
a(S'me...hibiscus'
p6017
I1
tp6018
a(S'me.the'
p6019
I1
tp6020
a(S'meaning.the'
p6021
I1
tp6022
a(S'meanings'
p6023
I1
tp6024
a(S'meant.the'
p6025
I1
tp6026
a(S'measure'
p6027
I1
tp6028
a(S'meerly'
p6029
I1
tp6030
a(S'meeting'
p6031
I1
tp6032
a(S'meisly'
p6033
I1
tp6034
a(S'melancholy'
p6035
I1
tp6036
a(S'melon.the'
p6037
I1
tp6038
a(S'meloncoly'
p6039
I1
tp6040
a(S'melted.the'
p6041
I1
tp6042
a(S'melts......that'
p6043
I1
tp6044
a(S'melts.after'
p6045
I1
tp6046
a(S'melts.saeng'
p6047
I1
tp6048
a(S'melts\x94'
p6049
I1
tp6050
a(S'melts\x94is'
p6051
I1
tp6052
a(S'melt\x94'
p6053
I1
tp6054
a(S'memoreies'
p6055
I1
tp6056
a(S'memorie'
p6057
I1
tp6058
a(S'memories.the'
p6059
I1
tp6060
a(S'memories;'
p6061
I1
tp6062
a(S'memory\x92s'
p6063
I1
tp6064
a(S'mentaly'
p6065
I1
tp6066
a(S'messages'
p6067
I1
tp6068
a(S'messed'
p6069
I1
tp6070
a(S'metaphor)the'
p6071
I1
tp6072
a(S'metaphorically'
p6073
I1
tp6074
a(S'middle'
p6075
I1
tp6076
a(S'mids'
p6077
I1
tp6078
a(S'midst'
p6079
I1
tp6080
a(S'mignitry'
p6081
I1
tp6082
a(S'migrated'
p6083
I1
tp6084
a(S'migrating'
p6085
I1
tp6086
a(S'migration'
p6087
I1
tp6088
a(S'miles'
p6089
I1
tp6090
a(S'milestone'
p6091
I1
tp6092
a(S'minimal'
p6093
I1
tp6094
a(S'miserable'
p6095
I1
tp6096
a(S'misery'
p6097
I1
tp6098
a(S'misplaced'
p6099
I1
tp6100
a(S'misses.she'
p6101
I1
tp6102
a(S'missis'
p6103
I1
tp6104
a(S'mistake\x92s'
p6105
I1
tp6106
a(S'misunderstood'
p6107
I1
tp6108
a(S'mixed'
p6109
I1
tp6110
a(S'moderate'
p6111
I1
tp6112
a(S'modernist'
p6113
I1
tp6114
a(S'modifation.the'
p6115
I1
tp6116
a(S'molded'
p6117
I1
tp6118
a(S'moment\x94'
p6119
I1
tp6120
a(S'momi'
p6121
I1
tp6122
a(S'moms'
p6123
I1
tp6124
a(S'momthe'
p6125
I1
tp6126
a(S'money.the'
p6127
I1
tp6128
a(S'monfong'
p6129
I1
tp6130
a(S'month'
p6131
I1
tp6132
a(S'months\x94'
p6133
I1
tp6134
a(S'more.i'
p6135
I1
tp6136
a(S'moreover'
p6137
I1
tp6138
a(S'morle'
p6139
I1
tp6140
a(S'most.the'
p6141
I1
tp6142
a(S"mother's"
p6143
I1
tp6144
a(S'mother,she'
p6145
I1
tp6146
a(S'mother,\x94'
p6147
I1
tp6148
a(S'mother,\x94i'
p6149
I1
tp6150
a(S'mother.the'
p6151
I1
tp6152
a(S'mother.try'
p6153
I1
tp6154
a(S'motivate'
p6155
I1
tp6156
a(S'motivating'
p6157
I1
tp6158
a(S'mourning'
p6159
I1
tp6160
a(S'much!\x94'
p6161
I1
tp6162
a(S'much.the'
p6163
I1
tp6164
a(S'mutul'
p6165
I1
tp6166
a(S'n'
I1
tp6167
a(S'namely'
p6168
I1
tp6169
a(S'nand'
p6170
I1
tp6171
a(S'narrates'
p6172
I1
tp6173
a(S'narrative'
p6174
I1
tp6175
a(S'narrator\x92s'
p6176
I1
tp6177
a(S'nations'
p6178
I1
tp6179
a(S'nature.he'
p6180
I1
tp6181
a(S'nature\x92s'
p6182
I1
tp6183
a(S'nav'
p6184
I1
tp6185
a(S'nealing'
p6186
I1
tp6187
a(S'neat'
p6188
I1
tp6189
a(S'nedae'
p6190
I1
tp6191
a(S'negatave'
p6192
I1
tp6193
a(S'nervous'
p6194
I1
tp6195
a(S'nervously'
p6196
I1
tp6197
a(S'ness'
p6198
I1
tp6199
a(S'new-found'
p6200
I1
tp6201
a(S'new.a'
p6202
I1
tp6203
a(S'newcomers'
p6204
I1
tp6205
a(S'newfound'
p6206
I1
tp6207
a(S'newhome'
p6208
I1
tp6209
a(S'newhopes'
p6210
I1
tp6211
a(S'newly'
p6212
I1
tp6213
a(S'newness'
p6214
I1
tp6215
a(S'newoman'
p6216
I1
tp6217
a(S'news'
p6218
I1
tp6219
a(S'newseeds'
p6220
I1
tp6221
a(S'next.i'
p6222
I1
tp6223
a(S'nexttime'
p6224
I1
tp6225
a(S'niche'
p6226
I1
tp6227
a(S'nieve'
p6228
I1
tp6229
a(S'night'
p6230
I1
tp6231
a(S'nit'
p6232
I1
tp6233
a(S'nogistalistic'
p6234
I1
tp6235
a(S'noi'
p6236
I1
tp6237
a(S'normally'
p6238
I1
tp6239
a(S'north'
p6240
I1
tp6241
a(S'nostalgic'
p6242
I1
tp6243
a(S'not.the'
p6244
I1
tp6245
a(S'note.the'
p6246
I1
tp6247
a(S'noted'
p6248
I1
tp6249
a(S'notice'
p6250
I1
tp6251
a(S'noticeable'
p6252
I1
tp6253
a(S'noting'
p6254
I1
tp6255
a(S'now,\x92\x92'
p6256
I1
tp6257
a(S'now.in'
p6258
I1
tp6259
a(S'nows'
p6260
I1
tp6261
a(S'nting'
p6262
I1
tp6263
a(S'nuforment'
p6264
I1
tp6265
a(S'nuggets'
p6266
I1
tp6267
a(S'num1$'
p6268
I1
tp6269
a(S'num1).the'
p6270
I1
tp6271
a(S'num1).this'
p6272
I1
tp6273
a(S'num2'
p6274
I1
tp6275
a(S'num2]'
p6276
I1
tp6277
a(S'num3)'
p6278
I1
tp6279
a(S'num3]'
p6280
I1
tp6281
a(S'number'
p6282
I1
tp6283
a(S'numerous'
p6284
I1
tp6285
a(S'nuste'
p6286
I1
tp6287
a(S'objects.she'
p6288
I1
tp6289
a(S'obliterating'
p6290
I1
tp6291
a(S'oblivious'
p6292
I1
tp6293
a(S'observed'
p6294
I1
tp6295
a(S'observing'
p6296
I1
tp6297
a(S'obstacles.the'
p6298
I1
tp6299
a(S'obstacles.why'
p6300
I1
tp6301
a(S'obstade'
p6302
I1
tp6303
a(S'obstade.i'
p6304
I1
tp6305
a(S'obstcles'
p6306
I1
tp6307
a(S'obtaned'
p6308
I1
tp6309
a(S'obvious.i'
p6310
I1
tp6311
a(S'odvestily'
p6312
I1
tp6313
a(S'oh'
p6314
I1
tp6315
a(S'oho'
p6316
I1
tp6317
a(S'oleanders'
p6318
I1
tp6319
a(S'omlets'
p6320
I1
tp6321
a(S'on.she'
p6322
I1
tp6323
a(S'ond'
p6324
I1
tp6325
a(S"one's"
p6326
I1
tp6327
a(S'one.i'
p6328
I1
tp6329
a(S'onions'
p6330
I1
tp6331
a(S'only.in'
p6332
I1
tp6333
a(S'onto'
p6334
I1
tp6335
a(S'onto.\x94'
p6336
I1
tp6337
a(S'onward'
p6338
I1
tp6339
a(S'opportuniy'
p6340
I1
tp6341
a(S'opposite'
p6342
I1
tp6343
a(S'optimistic.the'
p6344
I1
tp6345
a(S'orchids'
p6346
I1
tp6347
a(S'organization1\x94'
p6348
I1
tp6349
a(S'others.so'
p6350
I1
tp6351
a(S'ourtose'
p6352
I1
tp6353
a(S'out.the'
p6354
I1
tp6355
a(S'oven'
p6356
I1
tp6357
a(S'overcme'
p6358
I1
tp6359
a(S'overcomed'
p6360
I1
tp6361
a(S'overcomes'
p6362
I1
tp6363
a(S'overthe'
p6364
I1
tp6365
a(S'overtones'
p6366
I1
tp6367
a(S'over\x94'
p6368
I1
tp6369
a(S'paces'
p6370
I1
tp6371
a(S'pain.the'
p6372
I1
tp6373
a(S'painful'
p6374
I1
tp6375
a(S'paints'
p6376
I1
tp6377
a(S'palm'
p6378
I1
tp6379
a(S'pant'
p6380
I1
tp6381
a(S'par'
p6382
I1
tp6383
a(S'paragh'
p6384
I1
tp6385
a(S'paraghragh'
p6386
I1
tp6387
a(S'paragragh'
p6388
I1
tp6389
a(S'paragrap'
p6390
I1
tp6391
a(S'paragraph,\x94when'
p6392
I1
tp6393
a(S'paragraph.after'
p6394
I1
tp6395
a(S'paragraph.he'
p6396
I1
tp6397
a(S'paragraph.memories'
p6398
I1
tp6399
a(S'paragraph.minfong'
p6400
I1
tp6401
a(S'paragraph.saeng'
p6402
I1
tp6403
a(S'paragraph.then'
p6404
I1
tp6405
a(S'paragraph.this'
p6406
I1
tp6407
a(S'paragraph.why'
p6408
I1
tp6409
a(S'paragraph?'
p6410
I1
tp6411
a(S'paragraphe'
p6412
I1
tp6413
a(S'paragraphin'
p6414
I1
tp6415
a(S'paragraphy'
p6416
I1
tp6417
a(S'parallels'
p6418
I1
tp6419
a(S'parapraph'
p6420
I1
tp6421
a(S'parragraph'
p6422
I1
tp6423
a(S'party'
p6424
I1
tp6425
a(S'pass.in'
p6426
I1
tp6427
a(S'pass.the'
p6428
I1
tp6429
a(S'passage.i'
p6430
I1
tp6431
a(S'passes.the'
p6432
I1
tp6433
a(S'passes.when'
p6434
I1
tp6435
a(S'passing.the'
p6436
I1
tp6437
a(S'passthe'
p6438
I1
tp6439
a(S'past.@person1'
p6440
I1
tp6441
a(S'past.i'
p6442
I1
tp6443
a(S'past.in'
p6444
I1
tp6445
a(S'past.the'
p6446
I1
tp6447
a(S'past.they'
p6448
I1
tp6449
a(S'pastime'
p6450
I1
tp6451
a(S'path'
p6452
I1
tp6453
a(S'paticular'
p6454
I1
tp6455
a(S'patient'
p6456
I1
tp6457
a(S'patintions'
p6458
I1
tp6459
a(S'patted'
p6460
I1
tp6461
a(S'paused'
p6462
I1
tp6463
a(S'payed'
p6464
I1
tp6465
a(S'pecause'
p6466
I1
tp6467
a(S'peceptions'
p6468
I1
tp6469
a(S'pedals'
p6470
I1
tp6471
a(S'people.the'
p6472
I1
tp6473
a(S'peperd'
p6474
I1
tp6475
a(S'pepper'
p6476
I1
tp6477
a(S'peragraph'
p6478
I1
tp6479
a(S'performance'
p6480
I1
tp6481
a(S'period'
p6482
I1
tp6483
a(S'periwinhle'
p6484
I1
tp6485
a(S'perserveer'
p6486
I1
tp6487
a(S'perserveers'
p6488
I1
tp6489
a(S'perservere'
p6490
I1
tp6491
a(S'perserverence'
p6492
I1
tp6493
a(S'perseverance'
p6494
I1
tp6495
a(S'persevere'
p6496
I1
tp6497
a(S'persistently'
p6498
I1
tp6499
a(S'person.the'
p6500
I1
tp6501
a(S'personely'
p6502
I1
tp6503
a(S'personification'
p6504
I1
tp6505
a(S'persuade'
p6506
I1
tp6507
a(S'pertains'
p6508
I1
tp6509
a(S'perticular'
p6510
I1
tp6511
a(S'peservere'
p6512
I1
tp6513
a(S'pests\x94'
p6514
I1
tp6515
a(S'pharagraph'
p6516
I1
tp6517
a(S'pharagraph.the'
p6518
I1
tp6519
a(S'phrase.the'
p6520
I1
tp6521
a(S'piches'
p6522
I1
tp6523
a(S'pick'
p6524
I1
tp6525
a(S'picked'
p6526
I1
tp6527
a(S'piece.the'
p6528
I1
tp6529
a(S'pieces'
p6530
I1
tp6531
a(S'pla'
p6532
I1
tp6533
a(S'place,and'
p6534
I1
tp6535
a(S'place.i'
p6536
I1
tp6537
a(S'place.the'
p6538
I1
tp6539
a(S'placing'
p6540
I1
tp6541
a(S'placthe'
p6542
I1
tp6543
a(S'plant)'
p6544
I1
tp6545
a(S'plant,the'
p6546
I1
tp6547
a(S'plant.after'
p6548
I1
tp6549
a(S'plants.in'
p6550
I1
tp6551
a(S'plarts'
p6552
I1
tp6553
a(S'plate'
p6554
I1
tp6555
a(S'play'
p6556
I1
tp6557
a(S'plays'
p6558
I1
tp6559
a(S'pleasant'
p6560
I1
tp6561
a(S'pleased.he'
p6562
I1
tp6563
a(S'plown'
p6564
I1
tp6565
a(S'pocify'
p6566
I1
tp6567
a(S'point.the'
p6568
I1
tp6569
a(S'pointes'
p6570
I1
tp6571
a(S'pointless'
p6572
I1
tp6573
a(S'pollin'
p6574
I1
tp6575
a(S'pone'
p6576
I1
tp6577
a(S'poor'
p6578
I1
tp6579
a(S'porpuse'
p6580
I1
tp6581
a(S'portrayed'
p6582
I1
tp6583
a(S'portraying'
p6584
I1
tp6585
a(S'portrays'
p6586
I1
tp6587
a(S'posative'
p6588
I1
tp6589
a(S'position'
p6590
I1
tp6591
a(S'positively'
p6592
I1
tp6593
a(S'positivness'
p6594
I1
tp6595
a(S'possess'
p6596
I1
tp6597
a(S'possessions'
p6598
I1
tp6599
a(S'potintal'
p6600
I1
tp6601
a(S'powerful'
p6602
I1
tp6603
a(S'powering'
p6604
I1
tp6605
a(S'prayer'
p6606
I1
tp6607
a(S'preasnt.the'
p6608
I1
tp6609
a(S'precious'
p6610
I1
tp6611
a(S'predicting'
p6612
I1
tp6613
a(S'preety'
p6614
I1
tp6615
a(S'prefered'
p6616
I1
tp6617
a(S'preferred'
p6618
I1
tp6619
a(S'preparing'
p6620
I1
tp6621
a(S'preprared'
p6622
I1
tp6623
a(S'presecive'
p6624
I1
tp6625
a(S'presents'
p6626
I1
tp6627
a(S'press'
p6628
I1
tp6629
a(S'pressure'
p6630
I1
tp6631
a(S'pressured'
p6632
I1
tp6633
a(S'preticular'
p6634
I1
tp6635
a(S'pretty.the'
p6636
I1
tp6637
a(S'prevented'
p6638
I1
tp6639
a(S'price'
p6640
I1
tp6641
a(S'primarily'
p6642
I1
tp6643
a(S'principle'
p6644
I1
tp6645
a(S'principles'
p6646
I1
tp6647
a(S'prior'
p6648
I1
tp6649
a(S'probalbly'
p6650
I1
tp6651
a(S'probally'
p6652
I1
tp6653
a(S'programe'
p6654
I1
tp6655
a(S'progresses'
p6656
I1
tp6657
a(S'promised'
p6658
I1
tp6659
a(S'promise\x94'
p6660
I1
tp6661
a(S'pronounced'
p6662
I1
tp6663
a(S'pronounces'
p6664
I1
tp6665
a(S'properly'
p6666
I1
tp6667
a(S'proplems'
p6668
I1
tp6669
a(S'prosper'
p6670
I1
tp6671
a(S'pull'
p6672
I1
tp6673
a(S'pushed'
p6674
I1
tp6675
a(S'pushing'
p6676
I1
tp6677
a(S'pysical'
p6678
I1
tp6679
a(S'qualities'
p6680
I1
tp6681
a(S'quavering'
p6682
I1
tp6683
a(S'queit'
p6684
I1
tp6685
a(S'quesition'
p6686
I1
tp6687
a(S'quesiton'
p6688
I1
tp6689
a(S'question'
p6690
I1
tp6691
a(S"quietly'"
p6692
I1
tp6693
a(S'quiter'
p6694
I1
tp6695
a(S'quitter'
p6696
I1
tp6697
a(S'quivering'
p6698
I1
tp6699
a(S'qunet'
p6700
I1
tp6701
a(S'quote)'
p6702
I1
tp6703
a(S'quotes'
p6704
I1
tp6705
a(S'r'
I1
tp6706
a(S'raesons'
p6707
I1
tp6708
a(S'raids'
p6709
I1
tp6710
a(S'rain'
p6711
I1
tp6712
a(S'rapping'
p6713
I1
tp6714
a(S're-bud'
p6715
I1
tp6716
a(S're-endure'
p6717
I1
tp6718
a(S're-establing'
p6719
I1
tp6720
a(S're-live'
p6721
I1
tp6722
a(S're-taking'
p6723
I1
tp6724
a(S're-trying'
p6725
I1
tp6726
a(S're.taking'
p6727
I1
tp6728
a(S'reaches'
p6729
I1
tp6730
a(S'reaching'
p6731
I1
tp6732
a(S'reade'
p6733
I1
tp6734
a(S'reader.the'
p6735
I1
tp6736
a(S'reader\x92s'
p6737
I1
tp6738
a(S'readjusting'
p6739
I1
tp6740
a(S'readon'
p6741
I1
tp6742
a(S'ready.with'
p6743
I1
tp6744
a(S'realativly'
p6745
I1
tp6746
a(S'realise'
p6747
I1
tp6748
a(S'realistics'
p6749
I1
tp6750
a(S'reality'
p6751
I1
tp6752
a(S'realness'
p6753
I1
tp6754
a(S'reason.the'
p6755
I1
tp6756
a(S'reassures'
p6757
I1
tp6758
a(S'reastablished'
p6759
I1
tp6760
a(S'rebud'
p6761
I1
tp6762
a(S'rebuds'
p6763
I1
tp6764
a(S'rebuild'
p6765
I1
tp6766
a(S'recalling'
p6767
I1
tp6768
a(S'recalls'
p6769
I1
tp6770
a(S'recently'
p6771
I1
tp6772
a(S'recognize'
p6773
I1
tp6774
a(S'recollects'
p6775
I1
tp6776
a(S'recover'
p6777
I1
tp6778
a(S'recovering'
p6779
I1
tp6780
a(S'recreate'
p6781
I1
tp6782
a(S'red'
p6783
I1
tp6784
a(S'redeam'
p6785
I1
tp6786
a(S'redeem'
p6787
I1
tp6788
a(S'reduce'
p6789
I1
tp6790
a(S'reffiring'
p6791
I1
tp6792
a(S'reffs'
p6793
I1
tp6794
a(S'reflected'
p6795
I1
tp6796
a(S'reflection'
p6797
I1
tp6798
a(S'reflects'
p6799
I1
tp6800
a(S'refound'
p6801
I1
tp6802
a(S'refuse'
p6803
I1
tp6804
a(S'refuses'
p6805
I1
tp6806
a(S'regain'
p6807
I1
tp6808
a(S'regroup'
p6809
I1
tp6810
a(S'regrow'
p6811
I1
tp6812
a(S'rejected'
p6813
I1
tp6814
a(S'rejoice'
p6815
I1
tp6816
a(S'relasonship'
p6817
I1
tp6818
a(S'relation'
p6819
I1
tp6820
a(S'releive'
p6821
I1
tp6822
a(S'relieving'
p6823
I1
tp6824
a(S'relize'
p6825
I1
tp6826
a(S'reluctant'
p6827
I1
tp6828
a(S'remainded'
p6829
I1
tp6830
a(S'remains'
p6831
I1
tp6832
a(S'rembember'
p6833
I1
tp6834
a(S'rememberances'
p6835
I1
tp6836
a(S'rememberence'
p6837
I1
tp6838
a(S'remeniscent'
p6839
I1
tp6840
a(S'remids'
p6841
I1
tp6842
a(S'reminber'
p6843
I1
tp6844
a(S'reminels'
p6845
I1
tp6846
a(S'remines'
p6847
I1
tp6848
a(S'reminiscing'
p6849
I1
tp6850
a(S'reminising'
p6851
I1
tp6852
a(S'remnants'
p6853
I1
tp6854
a(S'rending'
p6855
I1
tp6856
a(S'renew'
p6857
I1
tp6858
a(S'repeatative'
p6859
I1
tp6860
a(S'repeated'
p6861
I1
tp6862
a(S'repeating'
p6863
I1
tp6864
a(S'repititon'
p6865
I1
tp6866
a(S'replemise'
p6867
I1
tp6868
a(S'replied'
p6869
I1
tp6870
a(S'representative'
p6871
I1
tp6872
a(S'reprimanded'
p6873
I1
tp6874
a(S'resembled'
p6875
I1
tp6876
a(S'resembles'
p6877
I1
tp6878
a(S'resilient'
p6879
I1
tp6880
a(S'resoned'
p6881
I1
tp6882
a(S'resons'
p6883
I1
tp6884
a(S'responds'
p6885
I1
tp6886
a(S'restating'
p6887
I1
tp6888
a(S'retailing'
p6889
I1
tp6890
a(S'retests'
p6891
I1
tp6892
a(S'return,\x94'
p6893
I1
tp6894
a(S'return...\x94'
p6895
I1
tp6896
a(S'return.in'
p6897
I1
tp6898
a(S'returning\x94'
p6899
I1
tp6900
a(S'reunite'
p6901
I1
tp6902
a(S'revealed'
p6903
I1
tp6904
a(S'reveals'
p6905
I1
tp6906
a(S'riddle'
p6907
I1
tp6908
a(S'ride'
p6909
I1
tp6910
a(S'right.mingfong'
p6911
I1
tp6912
a(S'rite.the'
p6913
I1
tp6914
a(S'road'
p6915
I1
tp6916
a(S'roads'
p6917
I1
tp6918
a(S'rolls'
p6919
I1
tp6920
a(S'root'
p6921
I1
tp6922
a(S'roots'
p6923
I1
tp6924
a(S'routins'
p6925
I1
tp6926
a(S'rubs'
p6927
I1
tp6928
a(S'ruler'
p6929
I1
tp6930
a(S'run'
p6931
I1
tp6932
a(S'runs'
p6933
I1
tp6934
a(S'rushing'
p6935
I1
tp6936
a(S'rusty'
p6937
I1
tp6938
a(S'ryt'
p6939
I1
tp6940
a(S"s'aeng"
p6941
I1
tp6942
a(S'sad.in'
p6943
I1
tp6944
a(S'saddened'
p6945
I1
tp6946
a(S'saddens'
p6947
I1
tp6948
a(S'sadder'
p6949
I1
tp6950
a(S'saeng.i'
p6951
I1
tp6952
a(S'saengs'
p6953
I1
tp6954
a(S'sag'
p6955
I1
tp6956
a(S'said,"i-i'
p6957
I1
tp6958
a(S'said,"it\'s'
p6959
I1
tp6960
a(S'said.....she'
p6961
I1
tp6962
a(S'said.\x94'
p6963
I1
tp6964
a(S'said;'
p6965
I1
tp6966
a(S'saids'
p6967
I1
tp6968
a(S'same.the'
p6969
I1
tp6970
a(S'sandwich'
p6971
I1
tp6972
a(S'sayin'
p6973
I1
tp6974
a(S'saying,\x94'
p6975
I1
tp6976
a(S'says,including'
p6977
I1
tp6978
a(S'says,\x94'
p6979
I1
tp6980
a(S'says,\x94and'
p6981
I1
tp6982
a(S'says,\x94the'
p6983
I1
tp6984
a(S'says,\x94when'
p6985
I1
tp6986
a(S'say\x92s'
p6987
I1
tp6988
a(S'scared'
p6989
I1
tp6990
a(S'scarred'
p6991
I1
tp6992
a(S'scent'
p6993
I1
tp6994
a(S'scent.\x94'
p6995
I1
tp6996
a(S'school.i'
p6997
I1
tp6998
a(S'screw'
p6999
I1
tp7000
a(S'se'
p7001
I1
tp7002
a(S'seals'
p7003
I1
tp7004
a(S'seamce'
p7005
I1
tp7006
a(S'seang'
p7007
I1
tp7008
a(S'season,almost'
p7009
I1
tp7010
a(S'season,the'
p7011
I1
tp7012
a(S'season.i'
p7013
I1
tp7014
a(S'season.in'
p7015
I1
tp7016
a(S'season.the'
p7017
I1
tp7018
a(S'seasons.the'
p7019
I1
tp7020
a(S'season\x92s'
p7021
I1
tp7022
a(S'season\x94'
p7023
I1
tp7024
a(S'secnd'
p7025
I1
tp7026
a(S'secondly'
p7027
I1
tp7028
a(S'secretly'
p7029
I1
tp7030
a(S'security.they'
p7031
I1
tp7032
a(S"see's"
p7033
I1
tp7034
a(S'seed.\x94'
p7035
I1
tp7036
a(S'seek'
p7037
I1
tp7038
a(S'seeked'
p7039
I1
tp7040
a(S'seeking'
p7041
I1
tp7042
a(S'see\x92s'
p7043
I1
tp7044
a(S'seing'
p7045
I1
tp7046
a(S'selected.the'
p7047
I1
tp7048
a(S'selfconcious'
p7049
I1
tp7050
a(S'selfs'
p7051
I1
tp7052
a(S'selve'
p7053
I1
tp7054
a(S'semester'
p7055
I1
tp7056
a(S'send'
p7057
I1
tp7058
a(S'sends'
p7059
I1
tp7060
a(S'senerario'
p7061
I1
tp7062
a(S'sent'
p7063
I1
tp7064
a(S'sentances'
p7065
I1
tp7066
a(S'sentemental'
p7067
I1
tp7068
a(S'sentence.the'
p7069
I1
tp7070
a(S'sentense'
p7071
I1
tp7072
a(S'series'
p7073
I1
tp7074
a(S'serious'
p7075
I1
tp7076
a(S'servle'
p7077
I1
tp7078
a(S'sesion'
p7079
I1
tp7080
a(S'seterel'
p7081
I1
tp7082
a(S'setses'
p7083
I1
tp7084
a(S'settings'
p7085
I1
tp7086
a(S'settling'
p7087
I1
tp7088
a(S'setvation'
p7089
I1
tp7090
a(S'shakey'
p7091
I1
tp7092
a(S'shame'
p7093
I1
tp7094
a(S'shared'
p7095
I1
tp7096
a(S'shares'
p7097
I1
tp7098
a(S'sharp'
p7099
I1
tp7100
a(S'she.in'
p7101
I1
tp7102
a(S'sheang'
p7103
I1
tp7104
a(S'shine'
p7105
I1
tp7106
a(S'shines'
p7107
I1
tp7108
a(S'ships'
p7109
I1
tp7110
a(S'sholders.she'
p7111
I1
tp7112
a(S'shops'
p7113
I1
tp7114
a(S'shortness'
p7115
I1
tp7116
a(S'shouldnt'
p7117
I1
tp7118
a(S'shouldn\x92t'
p7119
I1
tp7120
a(S'show\x92s'
p7121
I1
tp7122
a(S'shredding'
p7123
I1
tp7124
a(S'shrub'
p7125
I1
tp7126
a(S'shruddy'
p7127
I1
tp7128
a(S'siad'
p7129
I1
tp7130
a(S'sick'
p7131
I1
tp7132
a(S'sick.the'
p7133
I1
tp7134
a(S'sickness'
p7135
I1
tp7136
a(S'sidewalk'
p7137
I1
tp7138
a(S'significant'
p7139
I1
tp7140
a(S'signs'
p7141
I1
tp7142
a(S'silkly'
p7143
I1
tp7144
a(S'similar.the'
p7145
I1
tp7146
a(S'similarities'
p7147
I1
tp7148
a(S'similarity'
p7149
I1
tp7150
a(S'similizes'
p7151
I1
tp7152
a(S'simpley'
p7153
I1
tp7154
a(S'simular'
p7155
I1
tp7156
a(S'sink'
p7157
I1
tp7158
a(S'sioteero'
p7159
I1
tp7160
a(S'sit'
p7161
I1
tp7162
a(S'situated'
p7163
I1
tp7164
a(S'situation.the'
p7165
I1
tp7166
a(S'six'
p7167
I1
tp7168
a(S'sky.\x94'
p7169
I1
tp7170
a(S'slaming'
p7171
I1
tp7172
a(S'slip'
p7173
I1
tp7174
a(S'slot'
p7175
I1
tp7176
a(S'slow'
p7177
I1
tp7178
a(S'slows'
p7179
I1
tp7180
a(S'smells'
p7181
I1
tp7182
a(S'smelt'
p7183
I1
tp7184
a(S'smelting'
p7185
I1
tp7186
a(S'smile'
p7187
I1
tp7188
a(S'smilled'
p7189
I1
tp7190
a(S'snow.i'
p7191
I1
tp7192
a(S'snowsmelt'
p7193
I1
tp7194
a(S'snowy'
p7195
I1
tp7196
a(S'so.the'
p7197
I1
tp7198
a(S'socceed'
p7199
I1
tp7200
a(S'soit'
p7201
I1
tp7202
a(S'solace'
p7203
I1
tp7204
a(S'sold'
p7205
I1
tp7206
a(S'sole.in'
p7207
I1
tp7208
a(S'solve'
p7209
I1
tp7210
a(S'somebody'
p7211
I1
tp7212
a(S'somehow'
p7213
I1
tp7214
a(S'someone.in'
p7215
I1
tp7216
a(S'something.the'
p7217
I1
tp7218
a(S'somethings'
p7219
I1
tp7220
a(S'somewere'
p7221
I1
tp7222
a(S'son'
p7223
I1
tp7224
a(S'sonds'
p7225
I1
tp7226
a(S'sonip'
p7227
I1
tp7228
a(S'sooner'
p7229
I1
tp7230
a(S'sooth'
p7231
I1
tp7232
a(S'soothes'
p7233
I1
tp7234
a(S'sorely'
p7235
I1
tp7236
a(S'sorroundings'
p7237
I1
tp7238
a(S'sorrounds'
p7239
I1
tp7240
a(S'sorryndings'
p7241
I1
tp7242
a(S'sory'
p7243
I1
tp7244
a(S'sought'
p7245
I1
tp7246
a(S'sound.the'
p7247
I1
tp7248
a(S'source'
p7249
I1
tp7250
a(S'south.the'
p7251
I1
tp7252
a(S'sow'
p7253
I1
tp7254
a(S'spark'
p7255
I1
tp7256
a(S'speaker'
p7257
I1
tp7258
a(S'spending'
p7259
I1
tp7260
a(S'spierit'
p7261
I1
tp7262
a(S'spies'
p7263
I1
tp7264
a(S'spin'
p7265
I1
tp7266
a(S'spiral'
p7267
I1
tp7268
a(S'spirit'
p7269
I1
tp7270
a(S'spiritual'
p7271
I1
tp7272
a(S'spirng'
p7273
I1
tp7274
a(S'spling'
p7275
I1
tp7276
a(S'spot'
p7277
I1
tp7278
a(S'spots'
p7279
I1
tp7280
a(S'spread'
p7281
I1
tp7282
a(S'spring!\x93in'
p7283
I1
tp7284
a(S"spring's"
p7285
I1
tp7286
a(S'spring(end'
p7287
I1
tp7288
a(S'spring,when'
p7289
I1
tp7290
a(S'spring...\x94'
p7291
I1
tp7292
a(S'spring.saeng'
p7293
I1
tp7294
a(S'spring.\x93then'
p7295
I1
tp7296
a(S'spring;'
p7297
I1
tp7298
a(S'springshe'
p7299
I1
tp7300
a(S'springtime'
p7301
I1
tp7302
a(S'springtime.the'
p7303
I1
tp7304
a(S'stability'
p7305
I1
tp7306
a(S'staie'
p7307
I1
tp7308
a(S'stains'
p7309
I1
tp7310
a(S'standing'
p7311
I1
tp7312
a(S'stands'
p7313
I1
tp7314
a(S'stang'
p7315
I1
tp7316
a(S'staping'
p7317
I1
tp7318
a(S'stares'
p7319
I1
tp7320
a(S'starlight.\x94'
p7321
I1
tp7322
a(S'start.i'
p7323
I1
tp7324
a(S'start.the'
p7325
I1
tp7326
a(S'start.this'
p7327
I1
tp7328
a(S'started.also'
p7329
I1
tp7330
a(S'started.the'
p7331
I1
tp7332
a(S'starting.he'
p7333
I1
tp7334
a(S'statement.the'
p7335
I1
tp7336
a(S'static'
p7337
I1
tp7338
a(S'staying'
p7339
I1
tp7340
a(S'stays'
p7341
I1
tp7342
a(S'stelent'
p7343
I1
tp7344
a(S'stength'
p7345
I1
tp7346
a(S'stentment'
p7347
I1
tp7348
a(S'steps'
p7349
I1
tp7350
a(S'stilled'
p7351
I1
tp7352
a(S'stinks'
p7353
I1
tp7354
a(S'stony'
p7355
I1
tp7356
a(S'stoping'
p7357
I1
tp7358
a(S'stopping'
p7359
I1
tp7360
a(S'stopremenising'
p7361
I1
tp7362
a(S'stops'
p7363
I1
tp7364
a(S'storie'
p7365
I1
tp7366
a(S'storm.the'
p7367
I1
tp7368
a(S'story)'
p7369
I1
tp7370
a(S'story.authors'
p7371
I1
tp7372
a(S'story.he'
p7373
I1
tp7374
a(S'story.in'
p7375
I1
tp7376
a(S'story.why'
p7377
I1
tp7378
a(S'story.\x93when'
p7379
I1
tp7380
a(S'story.\x93winter'
p7381
I1
tp7382
a(S'story;'
p7383
I1
tp7384
a(S'storys'
p7385
I1
tp7386
a(S'story\x93if'
p7387
I1
tp7388
a(S'straidth'
p7389
I1
tp7390
a(S'straight'
p7391
I1
tp7392
a(S'stranger;'
p7393
I1
tp7394
a(S'strart'
p7395
I1
tp7396
a(S'streets'
p7397
I1
tp7398
a(S'strenghth'
p7399
I1
tp7400
a(S'striction'
p7401
I1
tp7402
a(S'stright'
p7403
I1
tp7404
a(S'striving'
p7405
I1
tp7406
a(S'strong)'
p7407
I1
tp7408
a(S'stronger.in'
p7409
I1
tp7410
a(S'stronger.the'
p7411
I1
tp7412
a(S'strongly'
p7413
I1
tp7414
a(S'structure'
p7415
I1
tp7416
a(S'structured'
p7417
I1
tp7418
a(S'strugle'
p7419
I1
tp7420
a(S'strures'
p7421
I1
tp7422
a(S'stubborn'
p7423
I1
tp7424
a(S'student'
p7425
I1
tp7426
a(S'students'
p7427
I1
tp7428
a(S'studing'
p7429
I1
tp7430
a(S'stumble'
p7431
I1
tp7432
a(S'stumbling'
p7433
I1
tp7434
a(S'sty'
p7435
I1
tp7436
a(S'subject'
p7437
I1
tp7438
a(S'subject.the'
p7439
I1
tp7440
a(S'succed'
p7441
I1
tp7442
a(S'succede'
p7443
I1
tp7444
a(S'succeeding'
p7445
I1
tp7446
a(S'success.saeng'
p7447
I1
tp7448
a(S'successed'
p7449
I1
tp7450
a(S'successful'
p7451
I1
tp7452
a(S'sucess'
p7453
I1
tp7454
a(S'suddenly'
p7455
I1
tp7456
a(S'suggest'
p7457
I1
tp7458
a(S'suggesting'
p7459
I1
tp7460
a(S'sulding'
p7461
I1
tp7462
a(S'sum'
p7463
I1
tp7464
a(S'summarz'
p7465
I1
tp7466
a(S'sumthin'
p7467
I1
tp7468
a(S'suports'
p7469
I1
tp7470
a(S'supports'
p7471
I1
tp7472
a(S'suprised'
p7473
I1
tp7474
a(S'surive'
p7475
I1
tp7476
a(S'surprizes'
p7477
I1
tp7478
a(S'survival.in'
p7479
I1
tp7480
a(S'survived'
p7481
I1
tp7482
a(S'survives'
p7483
I1
tp7484
a(S'survivor'
p7485
I1
tp7486
a(S'survivor.in'
p7487
I1
tp7488
a(S'sustain'
p7489
I1
tp7490
a(S'switch'
p7491
I1
tp7492
a(S'symble'
p7493
I1
tp7494
a(S'symbolically'
p7495
I1
tp7496
a(S'symbolize\x92s'
p7497
I1
tp7498
a(S'sympathay'
p7499
I1
tp7500
a(S'syr'
p7501
I1
tp7502
a(S'table'
p7503
I1
tp7504
a(S'tag'
p7505
I1
tp7506
a(S'takeing'
p7507
I1
tp7508
a(S'taking.the'
p7509
I1
tp7510
a(S'tale'
p7511
I1
tp7512
a(S'tamed'
p7513
I1
tp7514
a(S'task,try'
p7515
I1
tp7516
a(S'tat'
p7517
I1
tp7518
a(S'taught'
p7519
I1
tp7520
a(S'te'
p7521
I1
tp7522
a(S'team'
p7523
I1
tp7524
a(S'techniques'
p7525
I1
tp7526
a(S'tenth'
p7527
I1
tp7528
a(S'terrain'
p7529
I1
tp7530
a(S'tes'
p7531
I1
tp7532
a(S'test,she'
p7533
I1
tp7534
a(S'test,these'
p7535
I1
tp7536
a(S'test..i'
p7537
I1
tp7538
a(S'test.her'
p7539
I1
tp7540
a(S'test.minfong'
p7541
I1
tp7542
a(S'test.she'
p7543
I1
tp7544
a(S'test.with'
p7545
I1
tp7546
a(S'test.\x93it\x92s'
p7547
I1
tp7548
a(S'test;'
p7549
I1
tp7550
a(S'testhe'
p7551
I1
tp7552
a(S'testi'
p7553
I1
tp7554
a(S'testing'
p7555
I1
tp7556
a(S'tests.the'
p7557
I1
tp7558
a(S'testthe'
p7559
I1
tp7560
a(S'test\xe2\x80\x9d'
p7561
I1
tp7562
a(S'thagh'
p7563
I1
tp7564
a(S'thal'
p7565
I1
tp7566
a(S'thanked'
p7567
I1
tp7568
a(S'thas'
p7569
I1
tp7570
a(S'thatshe'
p7571
I1
tp7572
a(S'thay'
p7573
I1
tp7574
a(S'theauther'
p7575
I1
tp7576
a(S'theauthor'
p7577
I1
tp7578
a(S'them.by'
p7579
I1
tp7580
a(S'them.my'
p7581
I1
tp7582
a(S'theme-wise'
p7583
I1
tp7584
a(S'themes.she'
p7585
I1
tp7586
a(S"there's"
p7587
I1
tp7588
a(S'there.there'
p7589
I1
tp7590
a(S'there.why'
p7591
I1
tp7592
a(S'theres'
p7593
I1
tp7594
a(S'thes'
p7595
I1
tp7596
a(S"they're"
p7597
I1
tp7598
a(S'they\x92ll'
p7599
I1
tp7600
a(S'they\x92ve'
p7601
I1
tp7602
a(S'thing..the'
p7603
I1
tp7604
a(S'thing.the'
p7605
I1
tp7606
a(S'things.many'
p7607
I1
tp7608
a(S'things.she'
p7609
I1
tp7610
a(S'thingsi'
p7611
I1
tp7612
a(S'thingsthe'
p7613
I1
tp7614
a(S'thing\x92s'
p7615
I1
tp7616
a(S'thinking.the'
p7617
I1
tp7618
a(S'thins'
p7619
I1
tp7620
a(S'this.she'
p7621
I1
tp7622
a(S'this;'
p7623
I1
tp7624
a(S'thoes'
p7625
I1
tp7626
a(S'thom'
p7627
I1
tp7628
a(S'thot'
p7629
I1
tp7630
a(S'thought\x92s'
p7631
I1
tp7632
a(S'thourgh'
p7633
I1
tp7634
a(S'thouth'
p7635
I1
tp7636
a(S'thr'
p7637
I1
tp7638
a(S'thrends'
p7639
I1
tp7640
a(S'through,\x94'
p7641
I1
tp7642
a(S'throw'
p7643
I1
tp7644
a(S'throws'
p7645
I1
tp7646
a(S'ths'
p7647
I1
tp7648
a(S'ti'
p7649
I1
tp7650
a(S'tie'
p7651
I1
tp7652
a(S'tieing'
p7653
I1
tp7654
a(S'tight'
p7655
I1
tp7656
a(S'tilled'
p7657
I1
tp7658
a(S'time.i'
p7659
I1
tp7660
a(S'time.in'
p7661
I1
tp7662
a(S'time/'
p7663
I1
tp7664
a(S'times.that'
p7665
I1
tp7666
a(S'times;'
p7667
I1
tp7668
a(S'timethe'
p7669
I1
tp7670
a(S'ting'
p7671
I1
tp7672
a(S'tired'
p7673
I1
tp7674
a(S'tisaeng'
p7675
I1
tp7676
a(S'titel'
p7677
I1
tp7678
a(S'to.i'
p7679
I1
tp7680
a(S'to.\x94'
p7681
I1
tp7682
a(S'toched'
p7683
I1
tp7684
a(S'today'
p7685
I1
tp7686
a(S'together.the'
p7687
I1
tp7688
a(S'togod'
p7689
I1
tp7690
a(S'toils'
p7691
I1
tp7692
a(S'toke'
p7693
I1
tp7694
a(S'toll'
p7695
I1
tp7696
a(S'tommorow'
p7697
I1
tp7698
a(S'ton'
p7699
I1
tp7700
a(S'tone\x94'
p7701
I1
tp7702
a(S'tons'
p7703
I1
tp7704
a(S'too.the'
p7705
I1
tp7706
a(S'toothed'
p7707
I1
tp7708
a(S'too\x94'
p7709
I1
tp7710
a(S'topic'
p7711
I1
tp7712
a(S'torn'
p7713
I1
tp7714
a(S'total'
p7715
I1
tp7716
a(S'totally'
p7717
I1
tp7718
a(S'tough.the'
p7719
I1
tp7720
a(S'tougher'
p7721
I1
tp7722
a(S'toughts'
p7723
I1
tp7724
a(S'tour'
p7725
I1
tp7726
a(S'tow'
p7727
I1
tp7728
a(S'track'
p7729
I1
tp7730
a(S'tragic'
p7731
I1
tp7732
a(S'trait'
p7733
I1
tp7734
a(S'transformed'
p7735
I1
tp7736
a(S'transition'
p7737
I1
tp7738
a(S'translate'
p7739
I1
tp7740
a(S'trapped'
p7741
I1
tp7742
a(S'treasure'
p7743
I1
tp7744
a(S'treated'
p7745
I1
tp7746
a(S'tridition'
p7747
I1
tp7748
a(S'trigger'
p7749
I1
tp7750
a(S'tropick'
p7751
I1
tp7752
a(S'troubles'
p7753
I1
tp7754
a(S'trowel'
p7755
I1
tp7756
a(S'trown'
p7757
I1
tp7758
a(S'troy'
p7759
I1
tp7760
a(S'truley'
p7761
I1
tp7762
a(S'trust'
p7763
I1
tp7764
a(S'try.authors'
p7765
I1
tp7766
a(S'tryed'
p7767
I1
tp7768
a(S'tryin'
p7769
I1
tp7770
a(S'trying.this'
p7771
I1
tp7772
a(S'tryinh'
p7773
I1
tp7774
a(S'trys'
p7775
I1
tp7776
a(S'trys.the'
p7777
I1
tp7778
a(S'tst'
p7779
I1
tp7780
a(S'tthe'
p7781
I1
tp7782
a(S'tuff'
p7783
I1
tp7784
a(S'tuning'
p7785
I1
tp7786
a(S'tunnel'
p7787
I1
tp7788
a(S'turnig'
p7789
I1
tp7790
a(S'turning'
p7791
I1
tp7792
a(S'types'
p7793
I1
tp7794
a(S'u'
I1
tp7795
a(S'ua'
p7796
I1
tp7797
a(S'uhen'
p7798
I1
tp7799
a(S'ultimatly'
p7800
I1
tp7801
a(S'unbearable'
p7802
I1
tp7803
a(S'uncomforatable'
p7804
I1
tp7805
a(S'uncomfort'
p7806
I1
tp7807
a(S'uncomfortable'
p7808
I1
tp7809
a(S'unconfident'
p7810
I1
tp7811
a(S'uncouragement'
p7812
I1
tp7813
a(S'undergoes'
p7814
I1
tp7815
a(S'undergoes.the'
p7816
I1
tp7817
a(S'undergos'
p7818
I1
tp7819
a(S'understant'
p7820
I1
tp7821
a(S'unemove'
p7822
I1
tp7823
a(S'unexpected'
p7824
I1
tp7825
a(S'unhappen'
p7826
I1
tp7827
a(S'unhappy'
p7828
I1
tp7829
a(S'uniqueness'
p7830
I1
tp7831
a(S'unknown'
p7832
I1
tp7833
a(S'unlike'
p7834
I1
tp7835
a(S'unlimited'
p7836
I1
tp7837
a(S'unlocks'
p7838
I1
tp7839
a(S'unsatisfying'
p7840
I1
tp7841
a(S'unsure'
p7842
I1
tp7843
a(S'unwillingness'
p7844
I1
tp7845
a(S'up.she'
p7846
I1
tp7847
a(S'up.\x94i'
p7848
I1
tp7849
a(S'up;'
p7850
I1
tp7851
a(S'upcoming'
p7852
I1
tp7853
a(S'upsetting'
p7854
I1
tp7855
a(S'upto'
p7856
I1
tp7857
a(S'ushers'
p7858
I1
tp7859
a(S'usually'
p7860
I1
tp7861
a(S'v"formation,it'
p7862
I1
tp7863
a(S'valuable'
p7864
I1
tp7865
a(S'valueing'
p7866
I1
tp7867
a(S'vanish'
p7868
I1
tp7869
a(S'variety'
p7870
I1
tp7871
a(S've'
p7872
I1
tp7873
a(S'veelnam'
p7874
I1
tp7875
a(S'veggies'
p7876
I1
tp7877
a(S'velvet'
p7878
I1
tp7879
a(S'ventures'
p7880
I1
tp7881
a(S'ver'
p7882
I1
tp7883
a(S'vermilion'
p7884
I1
tp7885
a(S'vetagables'
p7886
I1
tp7887
a(S'vibe'
p7888
I1
tp7889
a(S'vietnam.i'
p7890
I1
tp7891
a(S'vietnam.it'
p7892
I1
tp7893
a(S'vietnam.the'
p7894
I1
tp7895
a(S'vietnam.\x94'
p7896
I1
tp7897
a(S'vietnamthe'
p7898
I1
tp7899
a(S'view'
p7900
I1
tp7901
a(S'viewed'
p7902
I1
tp7903
a(S'views'
p7904
I1
tp7905
a(S'vires'
p7906
I1
tp7907
a(S'visit'
p7908
I1
tp7909
a(S'visiting'
p7910
I1
tp7911
a(S'visits'
p7912
I1
tp7913
a(S'visual'
p7914
I1
tp7915
a(S'visualize'
p7916
I1
tp7917
a(S'visualizeing.the'
p7918
I1
tp7919
a(S'vital'
p7920
I1
tp7921
a(S'vivid'
p7922
I1
tp7923
a(S'void'
p7924
I1
tp7925
a(S'voweds'
p7926
I1
tp7927
a(S'vows,\x94'
p7928
I1
tp7929
a(S'wa'
p7930
I1
tp7931
a(S'wacth'
p7932
I1
tp7933
a(S'waist'
p7934
I1
tp7935
a(S'waited'
p7936
I1
tp7937
a(S'waits'
p7938
I1
tp7939
a(S'walk'
p7940
I1
tp7941
a(S'walkes'
p7942
I1
tp7943
a(S'wandering'
p7944
I1
tp7945
a(S'want`s'
p7946
I1
tp7947
a(S'wanted.the'
p7948
I1
tp7949
a(S'wanted.this'
p7950
I1
tp7951
a(S'want\x92s'
p7952
I1
tp7953
a(S'wan\x92t\x92s'
p7954
I1
tp7955
a(S'war'
p7956
I1
tp7957
a(S'waring'
p7958
I1
tp7959
a(S'warmed'
p7960
I1
tp7961
a(S'wasedthe'
p7962
I1
tp7963
a(S'wasent'
p7964
I1
tp7965
a(S'washed'
p7966
I1
tp7967
a(S"wasn't"
p7968
I1
tp7969
a(S'waste'
p7970
I1
tp7971
a(S'watching'
p7972
I1
tp7973
a(S'watste'
p7974
I1
tp7975
a(S'waxy'
p7976
I1
tp7977
a(S'weak'
p7978
I1
tp7979
a(S'weaknesses'
p7980
I1
tp7981
a(S'wean'
p7982
I1
tp7983
a(S'weeds.\x94'
p7984
I1
tp7985
a(S'welcome'
p7986
I1
tp7987
a(S'well.why'
p7988
I1
tp7989
a(S'wellin'
p7990
I1
tp7991
a(S'went\x94'
p7992
I1
tp7993
a(S'wen\x92t'
p7994
I1
tp7995
a(S'wept'
p7996
I1
tp7997
a(S'wept,\x94'
p7998
I1
tp7999
a(S'wereing'
p8000
I1
tp8001
a(S'were\x92nt'
p8002
I1
tp8003
a(S'whant'
p8004
I1
tp8005
a(S'whants'
p8006
I1
tp8007
a(S'what!'
p8008
I1
tp8009
a(S'what.i'
p8010
I1
tp8011
a(S'what?'
p8012
I1
tp8013
a(S'what\x92s'
p8014
I1
tp8015
a(S'whch'
p8016
I1
tp8017
a(S'wher'
p8018
I1
tp8019
a(S'wheras'
p8020
I1
tp8021
a(S'whereelse'
p8022
I1
tp8023
a(S'wheres'
p8024
I1
tp8025
a(S'whicvh'
p8026
I1
tp8027
a(S'whispered'
p8028
I1
tp8029
a(S'whispering'
p8030
I1
tp8031
a(S'whispers'
p8032
I1
tp8033
a(S'whose'
p8034
I1
tp8035
a(S'wht'
p8036
I1
tp8037
a(S'wich'
p8038
I1
tp8039
a(S'wild.!!'
p8040
I1
tp8041
a(S'wildly'
p8042
I1
tp8043
a(S'will.the'
p8044
I1
tp8045
a(S'willingly'
p8046
I1
tp8047
a(S'willtake'
p8048
I1
tp8049
a(S'win'
p8050
I1
tp8051
a(S'window'
p8052
I1
tp8053
a(S"winter'"
p8054
I1
tp8055
a(S'winter.because'
p8056
I1
tp8057
a(S'winter.i'
p8058
I1
tp8059
a(S'wisdom'
p8060
I1
tp8061
a(S'wise'
p8062
I1
tp8063
a(S'wise.in'
p8064
I1
tp8065
a(S'wiser'
p8066
I1
tp8067
a(S'witer'
p8068
I1
tp8069
a(S'withstand'
p8070
I1
tp8071
a(S'witness'
p8072
I1
tp8073
a(S'wondeful'
p8074
I1
tp8075
a(S'wonders'
p8076
I1
tp8077
a(S'wones.saeng'
p8078
I1
tp8079
a(S'wording'
p8080
I1
tp8081
a(S'words.the'
p8082
I1
tp8083
a(S'work-candle'
p8084
I1
tp8085
a(S'work.in'
p8086
I1
tp8087
a(S'world,\x94'
p8088
I1
tp8089
a(S'world.they'
p8090
I1
tp8091
a(S'world.\x94'
p8092
I1
tp8093
a(S'world\x94)'
p8094
I1
tp8095
a(S'worries'
p8096
I1
tp8097
a(S'worring'
p8098
I1
tp8099
a(S'worrying'
p8100
I1
tp8101
a(S'worthless'
p8102
I1
tp8103
a(S'worthwhile'
p8104
I1
tp8105
a(S'worthy'
p8106
I1
tp8107
a(S'woud'
p8108
I1
tp8109
a(S"wouldn't"
p8110
I1
tp8111
a(S'wounder'
p8112
I1
tp8113
a(S'wowed'
p8114
I1
tp8115
a(S'writes,\x94'
p8116
I1
tp8117
a(S'writings'
p8118
I1
tp8119
a(S'writting'
p8120
I1
tp8121
a(S'wrost'
p8122
I1
tp8123
a(S'wrotez'
p8124
I1
tp8125
a(S'ww'
p8126
I1
tp8127
a(S'yard'
p8128
I1
tp8129
a(S'year.i'
p8130
I1
tp8131
a(S'year.one'
p8132
I1
tp8133
a(S'year.the'
p8134
I1
tp8135
a(S'year.\x94'
p8136
I1
tp8137
a(S'yearn'
p8138
I1
tp8139
a(S'yearned'
p8140
I1
tp8141
a(S'years.i'
p8142
I1
tp8143
a(S'yell'
p8144
I1
tp8145
a(S'yelling'
p8146
I1
tp8147
a(S'yor'
p8148
I1
tp8149
a(S'youst'
p8150
I1
tp8151
a(S'you\x92ll'
p8152
I1
tp8153
a(S'zone'
p8154
I1
tp8155
a(S'\x91'
I1
tp8156
a(S'\x91i'
p8157
I1
tp8158
a(S'\x91not'
p8159
I1
tp8160
a(S'\x91saeng'
p8161
I1
tp8162
a(S'\x91seem'
p8163
I1
tp8164
a(S'\x91the'
p8165
I1
tp8166
a(S'\x91when'
p8167
I1
tp8168
a(S'\x91\x92'
p8169
I1
tp8170
a(S'\x92\x92take'
p8171
I1
tp8172
a(S'\x93.but'
p8173
I1
tp8174
a(S'\x93.this'
p8175
I1
tp8176
a(S'\x93;,.then'
p8177
I1
tp8178
a(S'\x93@caps2'
p8179
I1
tp8180
a(S'\x93[@num1].saeng'
p8181
I1
tp8182
a(S'\x93and\x94'
p8183
I1
tp8184
a(S'\x93back'
p8185
I1
tp8186
a(S'\x93because'
p8187
I1
tp8188
a(S'\x93blossom\x94'
p8189
I1
tp8190
a(S'\x93budding'
p8191
I1
tp8192
a(S'\x93dok'
p8193
I1
tp8194
a(S'\x93exploding'
p8195
I1
tp8196
a(S'\x93failed'
p8197
I1
tp8198
a(S'\x93familiar'
p8199
I1
tp8200
a(S'\x93familiar\x94'
p8201
I1
tp8202
a(S'\x93geese'
p8203
I1
tp8204
a(S'\x93gently'
p8205
I1
tp8206
a(S'\x93hear\x94'
p8207
I1
tp8208
a(S'\x93hidiscus'
p8209
I1
tp8210
a(S'\x93i-'
p8211
I1
tp8212
a(S'\x93if'
p8213
I1
tp8214
a(S'\x93instead'
p8215
I1
tp8216
a(S'\x93it\x92s-it\x92s'
p8217
I1
tp8218
a(S'\x93i\x91ve'
p8219
I1
tp8220
a(S'\x93i\x92m'
p8221
I1
tp8222
a(S'\x93i\x92ve'
p8223
I1
tp8224
a(S'\x93jasmine\x94'
p8225
I1
tp8226
a(S'\x93left'
p8227
I1
tp8228
a(S'\x93let'
p8229
I1
tp8230
a(S'\x93live'
p8231
I1
tp8232
a(S'\x93long'
p8233
I1
tp8234
a(S'\x93mashaft'
p8235
I1
tp8236
a(S'\x93minfong'
p8237
I1
tp8238
a(S'\x93never'
p8239
I1
tp8240
a(S'\x93next'
p8241
I1
tp8242
a(S'\x93noticed'
p8243
I1
tp8244
a(S'\x93old'
p8245
I1
tp8246
a(S'\x93passage'
p8247
I1
tp8248
a(S'\x93plant'
p8249
I1
tp8250
a(S'\x93plant\x94'
p8251
I1
tp8252
a(S'\x93return\x94'
p8253
I1
tp8254
a(S'\x93saebba'
p8255
I1
tp8256
a(S'\x93snow'
p8257
I1
tp8258
a(S'\x93snows'
p8259
I1
tp8260
a(S'\x93sound'
p8261
I1
tp8262
a(S'\x93spring\x94'
p8263
I1
tp8264
a(S'\x93tear'
p8265
I1
tp8266
a(S'\x93touching\x94'
p8267
I1
tp8268
a(S'\x93try'
p8269
I1
tp8270
a(S'\x93vowed\x94'
p8271
I1
tp8272
a(S'\x93war\x94'
p8273
I1
tp8274
a(S'\x93waxy'
p8275
I1
tp8276
a(S'\x93where'
p8277
I1
tp8278
a(S'\x93while'
p8279
I1
tp8280
a(S'\x93why'
p8281
I1
tp8282
a(S'\x93you'
p8283
I1
tp8284
a(S'\x93\x92when'
p8285
I1
tp8286
a(S'\x94,i'
p8287
I1
tp8288
a(S'\x94by'
p8289
I1
tp8290
a(S'\x94etc'
p8291
I1
tp8292
a(S'\x94its'
p8293
I1
tp8294
a(S'\x94saeng'
p8295
I1
tp8296
a(S'\x94she'
p8297
I1
tp8298
a(S'\x94winter'
p8299
I1
tp8300
a(S'\x96minded'
p8301
I1
tp8302
a(S'\x96yes-'
p8303
I1
tp8304
a(S'\x96yes-fimiliar'
p8305
I1
tp8306
a(S'\xe2\x80\x93'
p8307
I1
tp8308
a(S'\xe2\x80\x9ci-'
p8309
I1
tp8310
a(S'\xe2\x80\x9cwhen'
p8311
I1
tp8312
a.