(lp1
(S'thi'
p2
I1373
tp3
a(S'story'
p4
I1367
tp5
a(S'saeng'
p6
I1318
tp7
a(S'test'
p8
I1251
tp9
a(S'author'
p10
I1234
tp11
a(S'hibiscu'
p12
I877
tp13
a(S'paragraph'
p14
I806
tp15
a(S'take'
p16
I640
tp17
a(S'conclude'
p18
I613
tp19
a(S'show'
p20
I531
tp21
a(S'wa'
p22
I530
tp23
a(S'spring'
p24
I525
tp25
a(S'geese'
p26
I505
tp27
a(S'plant'
p28
I498
tp29
a(S'new'
p30
I467
tp31
a(S'home'
p32
I440
tp33
a(S'back'
p34
I424
tp35
a(S'like'
p36
I385
tp37
a(S'flower'
p38
I362
tp39
a(S'come'
p40
I354
tp41
a(S'think'
p42
I319
tp43
a(S'time'
p44
I312
tp45
a(S'snow'
p46
I306
tp47
a(S'budding'
p48
I294
tp49
a(S'winter'
p50
I291
tp51
a(S'also'
p52
I286
tp53
a(S'say'
p54
I282
tp55
a(S'return'
p56
I281
tp57
a(S'end'
p58
I278
tp59
a(S'thing'
p60
I268
tp61
a(S'ha'
p62
I254
tp63
a(S'melt'
p64
I249
tp65
a(S'want'
p66
I246
tp67
a(S'give'
p68
I239
tp69
a(S'going'
p70
I229
tp71
a(S'failed'
p72
I226
tp73
a(S'make'
p74
I223
tp75
a(S'feel'
p76
I207
tp77
a(S'life'
p78
I206
tp79
a(S'try'
p80
I199
tp81
a(S'pa'
p82
I197
tp83
a(S'mother'
p84
I196
tp85
a(S'reason'
p86
I192
tp87
a(S'caps1'
p88
I173
tp89
a(S'way'
p90
I173
tp91
a(S'last'
p92
I170
tp93
a(S'get'
p94
I169
tp95
a(S'reader'
p96
I165
tp97
a(S'hope'
p98
I162
tp99
a(S'know'
p100
I157
tp101
a(S'start'
p102
I148
tp103
a(S'saying'
p104
I138
tp105
a(S'change'
p106
I135
tp107
a(S'country'
p108
I135
tp109
a(S'vowed'
p110
I131
tp111
a(S'driving'
p112
I127
tp113
a(S'would'
p114
I127
tp115
a(S'example'
p116
I124
tp117
a(S'said'
p118
I124
tp119
a(S'silently'
p120
I123
tp121
a(S'memorie'
p122
I122
tp123
a(S'one'
p124
I122
tp125
a(S'see'
p126
I119
tp127
a(S'concluded'
p128
I118
tp129
a(S'mean'
p130
I116
tp131
a(S'next'
p132
I116
tp133
a(S'season'
p134
I116
tp135
a(S'\x93winter'
p136
I116
tp137
a(S'vietnam'
p138
I112
tp139
a(S'remind'
p140
I105
tp141
a(S'familiar'
p142
I104
tp143
a(S'good'
p144
I104
tp145
a(S'trying'
p146
I103
tp147
a(S'help'
p148
I102
tp149
a(S'many'
p150
I102
tp151
a(S'girl'
p152
I100
tp153
a(S'conclusion'
p154
I97
tp155
a(S'another'
p156
I95
tp157
a(S'believe'
p158
I95
tp159
a(S'ended'
p160
I95
tp161
a(S'could'
p162
I93
tp163
a(S'strong'
p164
I92
tp165
a(S'ready'
p166
I91
tp167
a(S'wanted'
p168
I91
tp169
a(S'even'
p170
I90
tp171
a(S'hibiscus\x94'
p172
I90
tp173
a(S'used'
p174
I89
tp175
a(S'driver'
p176
I88
tp177
a(S'saeng\x92'
p178
I88
tp179
a(S'homeland'
p180
I87
tp181
a(S'something'
p182
I87
tp183
a(S'grow'
p184
I86
tp185
a(S'sentence'
p186
I86
tp187
a(S'failing'
p188
I85
tp189
a(S'everything'
p190
I84
tp191
a(S'\x93when'
p192
I84
tp193
a(S'overcome'
p194
I81
tp195
a(S'old'
p196
I80
tp197
a(S'comfort'
p198
I78
tp199
a(S'determined'
p200
I78
tp201
a(S'go'
p202
I78
tp203
a(S'year'
p204
I78
tp205
a(S'use'
p206
I77
tp207
a(S'keep'
p208
I76
tp209
a(S'state'
p210
I76
tp211
a(S''
I75
tp212
a(S'again.\x94'
p213
I75
tp214
a(S'beginning'
p215
I75
tp216
a(S'first'
p217
I75
tp218
a(S'past'
p219
I75
tp220
a(S'still'
p221
I75
tp222
a(S'thought'
p223
I75
tp224
a(S'better'
p225
I74
tp226
a(S'it\x92'
p227
I74
tp228
a(S'tell'
p229
I74
tp230
a(S'represent'
p231
I73
tp232
a(S'ho'
p233
I72
tp234
a(S'adapt'
p235
I71
tp236
a(S'ending'
p237
I68
tp238
a(S'though'
p239
I67
tp240
a(S'obstacle'
p241
I66
tp242
a(S'become'
p243
I65
tp244
a(S'determination'
p245
I63
tp246
a(S'hard'
p247
I63
tp248
a(S'almost'
p249
I62
tp250
a(S'garden'
p251
I61
tp252
a(S'&'
I59
tp253
a(S'place'
p254
I59
tp255
a(S'cold'
p256
I58
tp257
a(S'made'
p258
I58
tp259
a(S'much'
p260
I58
tp261
a(S'grandmother'
p262
I57
tp263
a(S'fail'
p264
I56
tp265
a(S'starting'
p266
I56
tp267
a(S'alway'
p268
I55
tp269
a(S'retake'
p270
I55
tp271
a(S'upset'
p272
I55
tp273
a(S'able'
p274
I54
tp275
a(S'bud'
p276
I54
tp277
a(S'different'
p278
I54
tp279
a(S'live'
p280
I54
tp281
a(S'realized'
p282
I54
tp283
a(S'doe'
p284
I53
tp285
a(S'important'
p286
I53
tp287
a(S'put'
p288
I53
tp289
a(S'minfong'
p290
I52
tp291
a(S'wait'
p292
I52
tp293
a(S'bloom'
p294
I51
tp295
a(S'character'
p296
I51
tp297
a(S'feeling'
p298
I51
tp299
a(S'strange'
p300
I50
tp301
a(S'quote'
p302
I49
tp303
a(S'sad'
p304
I49
tp305
a(S'showing'
p306
I49
tp307
a(S'beautiful'
p308
I48
tp309
a(S'really'
p310
I48
tp311
a(S'right'
p312
I48
tp313
a(S'around'
p314
I47
tp315
a(S'bring'
p316
I47
tp317
a(S'survive'
p318
I47
tp319
a(S'little'
p320
I46
tp321
a(S'strength'
p322
I46
tp323
a(S'u'
I46
tp324
a(S'well'
p325
I46
tp326
a(S'happy'
p327
I45
tp328
a(S'let'
p329
I45
tp330
a(S'again\x94'
p331
I44
tp332
a(S'need'
p333
I44
tp334
a(S'chance'
p335
I43
tp336
a(S'enough'
p337
I43
tp338
a(S'found'
p339
I43
tp340
a(S'mom'
p341
I43
tp342
a(S'confidence'
p343
I42
tp344
a(S'statement'
p345
I42
tp346
a(S'bought'
p347
I41
tp348
a(S'felt'
p349
I41
tp350
a(S'happen'
p351
I41
tp352
a(S'main'
p353
I41
tp354
a(S'goe'
p355
I40
tp356
a(S'lot'
p357
I40
tp358
a(S'reminded'
p359
I40
tp360
a(S'saw'
p361
I40
tp362
a(S'since'
p363
I40
tp364
a(S'theme'
p365
I40
tp366
a(S'caps2'
p367
I39
tp368
a(S'got'
p369
I39
tp370
a(S'growing'
p371
I39
tp372
a(S'location1'
p373
I39
tp374
a(S'nature'
p375
I39
tp376
a(S'never'
p377
I39
tp378
a(S'came'
p379
I38
tp380
a(S'driver\x92'
p381
I38
tp382
a(S'future'
p383
I38
tp384
a(S'kind'
p385
I38
tp386
a(S'leave'
p387
I38
tp388
a(S'must'
p389
I38
tp390
a(S'passing'
p391
I38
tp392
a(S'didn\x92t'
p393
I37
tp394
a(S'explain'
p395
I37
tp396
a(S'love'
p397
I37
tp398
a(S'might'
p399
I37
tp400
a(S'sense'
p401
I37
tp402
a(S'\x93'
I37
tp403
a(S'away'
p404
I36
tp405
a(S'she\x92ll'
p406
I36
tp407
a(S'symbolize'
p408
I36
tp409
a(S'taking'
p410
I36
tp411
a(S'adapting'
p412
I35
tp413
a(S'coming'
p414
I35
tp415
a(S'every'
p416
I35
tp417
a(S'misse'
p418
I35
tp419
a(S'moved'
p420
I35
tp421
a(S'symbol'
p422
I35
tp423
a(S'vow'
p424
I35
tp425
a(S'concluding'
p426
I34
tp427
a(S'find'
p428
I34
tp429
a(S'move'
p430
I34
tp431
a(S'she\x92'
p432
I34
tp433
a(S'fresh'
p434
I33
tp435
a(S'getting'
p436
I33
tp437
a(S'idea'
p438
I33
tp439
a(S'month1'
p440
I33
tp441
a(S'again.the'
p442
I32
tp443
a(S'people'
p444
I32
tp445
a(S'realize'
p446
I32
tp447
a(S'talking'
p448
I32
tp449
a(S'text'
p450
I32
tp451
a(S'upon'
p452
I32
tp453
a(S'blooming'
p454
I31
tp455
a(S'family'
p456
I31
tp457
a(S'include'
p458
I31
tp459
a(S'look'
p460
I31
tp461
a(S'part'
p462
I31
tp463
a(S'planting'
p464
I31
tp465
a(S'united'
p466
I31
tp467
a(S'went'
p468
I31
tp469
a(S'chose'
p470
I30
tp471
a(S'maybe'
p472
I30
tp473
a(S'pretty'
p474
I30
tp475
a(S'seeing'
p476
I30
tp477
a(S'\x93in'
p478
I30
tp479
a(S'final'
p480
I29
tp481
a(S'month'
p482
I29
tp483
a(S'school'
p484
I29
tp485
a(S'second'
p486
I29
tp487
a(S'word'
p488
I29
tp489
a(S'buy'
p490
I27
tp491
a(S'confident'
p492
I27
tp493
a(S'location2'
p494
I27
tp495
a(S'matter'
p496
I27
tp497
a(S'paragraph.the'
p498
I27
tp499
a(S'person'
p500
I27
tp501
a(S'seem'
p502
I27
tp503
a(S'that\x92'
p504
I27
tp505
a(S'took'
p506
I27
tp507
a(S'work'
p508
I27
tp509
a(S'doesn\x92t'
p510
I26
tp511
a(S'meaning'
p512
I26
tp513
a(S'passage'
p514
I26
tp515
a(S'test.the'
p516
I26
tp517
a(S'adjust'
p518
I25
tp519
a(S'care'
p520
I25
tp521
a(S'giving'
p522
I25
tp523
a(S'narrator'
p524
I25
tp525
a(S'remember'
p526
I25
tp527
a(S'started'
p528
I25
tp529
a(S'therefore'
p530
I25
tp531
a(S'best'
p532
I24
tp533
a(S'day'
p534
I24
tp535
a(S'fact'
p536
I24
tp537
a(S'moving'
p538
I24
tp539
a(S'situation'
p540
I24
tp541
a(S'toward'
p542
I24
tp543
a(S'understand'
p544
I24
tp545
a(S'\x93i'
p546
I24
tp547
a(S'accept'
p548
I23
tp549
a(S'comfortable'
p550
I23
tp551
a(S'don\x92t'
p552
I23
tp553
a(S'finally'
p554
I23
tp555
a(S'gave'
p556
I23
tp557
a(S'learn'
p558
I23
tp559
a(S'missed'
p560
I23
tp561
a(S'probably'
p562
I23
tp563
a(S'quiet'
p564
I23
tp565
a(S'relate'
p566
I23
tp567
a(S'repetition'
p568
I23
tp569
a(S'succeed'
p570
I23
tp571
a(S'surrounding'
p572
I23
tp573
a(S'\x93the'
p574
I23
tp575
a(S'add'
p576
I22
tp577
a(S'bad'
p578
I22
tp579
a(S'disappointed'
p580
I22
tp581
a(S'eye'
p582
I22
tp583
a(S'hi'
p584
I22
tp585
a(S'land'
p586
I22
tp587
a(S'long'
p588
I22
tp589
a(S'read'
p590
I22
tp591
a(S'\x94'
I22
tp592
a(S'continue'
p593
I21
tp594
a(S'done'
p595
I21
tp596
a(S'environment'
p597
I21
tp598
a(S'line'
p599
I21
tp600
a(S'lo'
p601
I21
tp602
a(S'memory'
p603
I21
tp604
a(S'planted'
p605
I21
tp606
a(S'weather'
p607
I21
tp608
a(S'willing'
p609
I21
tp610
a(S'world'
p611
I21
tp612
a(S'again,\x94'
p613
I20
tp614
a(S'begin'
p615
I20
tp616
a(S'flying'
p617
I20
tp618
a(S'friend'
p619
I20
tp620
a(S'given'
p621
I20
tp622
a(S'gone'
p623
I20
tp624
a(S'left'
p625
I20
tp626
a(S'real'
p627
I20
tp628
a(S'reluctantly'
p629
I20
tp630
a(S"saeng'"
p631
I20
tp632
a(S'shop'
p633
I20
tp634
a(S'story.the'
p635
I20
tp636
a(S'warm'
p637
I20
tp638
a(S'whole'
p639
I20
tp640
a(S'yet'
p641
I20
tp642
a(S'\x93she'
p643
I20
tp644
a(S'cause'
p645
I19
tp646
a(S'fly'
p647
I19
tp648
a(S'goal'
p649
I19
tp650
a(S'knew'
p651
I19
tp652
a(S'telling'
p653
I19
tp654
a(S'throughout'
p655
I19
tp656
a(S'till'
p657
I19
tp658
a(S'wrote'
p659
I19
tp660
a(S'\x93almost'
p661
I19
tp662
a(S'brought'
p663
I18
tp664
a(S'comforted'
p665
I18
tp666
a(S'head'
p667
I18
tp668
a(S'hold'
p669
I18
tp670
a(S'making'
p671
I18
tp672
a(S'message'
p673
I18
tp674
a(S'talk'
p675
I18
tp676
a(S'added'
p677
I17
tp678
a(S'along'
p679
I17
tp680
a(S'auther'
p681
I17
tp682
a(S'basically'
p683
I17
tp684
a(S'deep'
p685
I17
tp686
a(S'experience'
p687
I17
tp688
a(S'forget'
p689
I17
tp690
a(S'gardening'
p691
I17
tp692
a(S'ground'
p693
I17
tp694
a(S'hardship'
p695
I17
tp696
a(S'importance'
p697
I17
tp698
a(S'living'
p699
I17
tp700
a(S'looking'
p701
I17
tp702
a(S'now.\x94'
p703
I17
tp704
a(S'order'
p705
I17
tp706
a(S'positive'
p707
I17
tp708
a(S'self'
p709
I17
tp710
a(S'set'
p711
I17
tp712
a(S'showed'
p713
I17
tp714
a(S'thinking'
p715
I17
tp716
a(S'tone'
p717
I17
tp718
a(S'vowing'
p719
I17
tp720
a(S'\x96'
I17
tp721
a(S'adjusting'
p722
I16
tp723
a(S'attitude'
p724
I16
tp725
a(S'blossom'
p726
I16
tp727
a(S'comforting'
p728
I16
tp729
a(S'face'
p730
I16
tp731
a(S'greenhouse'
p732
I16
tp733
a(S'hibiscus,\x94'
p734
I16
tp735
a(S'hopeful'
p736
I16
tp737
a(S'however'
p738
I16
tp739
a(S'included'
p740
I16
tp741
a(S'it.the'
p742
I16
tp743
a(S'luck'
p744
I16
tp745
a(S'num1'
p746
I16
tp747
a(S'reading'
p748
I16
tp749
a(S'south'
p750
I16
tp751
a(S'\x93and'
p752
I16
tp753
a(S'already'
p754
I15
tp755
a(S'big'
p756
I15
tp757
a(S'buying'
p758
I15
tp759
a(S'die'
p760
I15
tp761
a(S'finish'
p762
I15
tp763
a(S'grew'
p764
I15
tp765
a(S'leaving'
p766
I15
tp767
a(S'melting'
p768
I15
tp769
a(S'mind'
p770
I15
tp771
a(S'money'
p772
I15
tp773
a(S'needed'
p774
I15
tp775
a(S'rebirth'
p776
I15
tp777
a(S'shaky'
p778
I15
tp779
a(S'small'
p780
I15
tp781
a(S'together'
p782
I15
tp783
a(S'two'
p784
I15
tp785
a(S'waiting'
p786
I15
tp787
a(S'won\x92t'
p788
I15
tp789
a(S'\x93then'
p790
I15
tp791
a(S'ability'
p792
I14
tp793
a(S'aren\x92t'
p794
I14
tp795
a(S'bit'
p796
I14
tp797
a(S'cry'
p798
I14
tp799
a(S'daughter'
p800
I14
tp801
a(S'growth'
p802
I14
tp803
a(S'likely'
p804
I14
tp805
a(S'loved'
p806
I14
tp807
a(S'overcoming'
p808
I14
tp809
a(S'returning'
p810
I14
tp811
a(S'seen'
p812
I14
tp813
a(S'short'
p814
I14
tp815
a(S'similar'
p816
I14
tp817
a(S'stronger'
p818
I14
tp819
a(S'wasn\x92t'
p820
I14
tp821
a(S'young'
p822
I14
tp823
a(S'\x93it'
p824
I14
tp825
a(S'adapted'
p826
I13
tp827
a(S'budding\x94'
p828
I13
tp829
a(S'can\x92t'
p830
I13
tp831
a(S'connection'
p832
I13
tp833
a(S'convey'
p834
I13
tp835
a(S'courage'
p836
I13
tp837
a(S'crying'
p838
I13
tp839
a(S'decide'
p840
I13
tp841
a(S'decided'
p842
I13
tp843
a(S'forward'
p844
I13
tp845
a(S'green'
p846
I13
tp847
a(S'house'
p848
I13
tp849
a(S'knowing'
p850
I13
tp851
a(S'lesson'
p852
I13
tp853
a(S'nice'
p854
I13
tp855
a(S'promise'
p856
I13
tp857
a(S'stop'
p858
I13
tp859
a(S'time.the'
p860
I13
tp861
a(S'walking'
p862
I13
tp863
a(S'wave'
p864
I13
tp865
a(S'without'
p866
I13
tp867
a(S'wont'
p868
I13
tp869
a(S'write'
p870
I13
tp871
a(S'\x93i-i'
p872
I13
tp873
a(S'allow'
p874
I12
tp875
a(S'bird'
p876
I12
tp877
a(S'challenge'
p878
I12
tp879
a(S'choose'
p880
I12
tp881
a(S'clear'
p882
I12
tp883
a(S'difficult'
p884
I12
tp885
a(S'drive'
p886
I12
tp887
a(S'explaining'
p888
I12
tp889
a(S'fit'
p890
I12
tp891
a(S'inspiration'
p892
I12
tp893
a(S'isn\x92t'
p894
I12
tp895
a(S'known'
p896
I12
tp897
a(S'passe'
p898
I12
tp899
a(S'piece'
p900
I12
tp901
a(S'problem'
p902
I12
tp903
a(S'sadne'
p904
I12
tp905
a(S'struggle'
p906
I12
tp907
a(S'stung'
p908
I12
tp909
a(S'swept'
p910
I12
tp911
a(S'told'
p912
I12
tp913
a(S'trie'
p914
I12
tp915
a(S'understanding'
p916
I12
tp917
a(S'\x93a'
p918
I12
tp919
a(S'adaptation'
p920
I11
tp921
a(S'although'
p922
I11
tp923
a(S'canada'
p924
I11
tp925
a(S'caps3'
p926
I11
tp927
a(S'childhood'
p928
I11
tp929
a(S'choice'
p930
I11
tp931
a(S'connect'
p932
I11
tp933
a(S'deal'
p934
I11
tp935
a(S'depressed'
p936
I11
tp937
a(S'disappointment'
p938
I11
tp939
a(S"driver'"
p940
I11
tp941
a(S'expre'
p942
I11
tp943
a(S'finished'
p944
I11
tp945
a(S'flew'
p946
I11
tp947
a(S'florist'
p948
I11
tp949
a(S'happened'
p950
I11
tp951
a(S'harder'
p952
I11
tp953
a(S'her.the'
p954
I11
tp955
a(S'later'
p956
I11
tp957
a(S'learned'
p958
I11
tp959
a(S'nothing'
p960
I11
tp961
a(S'organization1'
p962
I11
tp963
a(S'reminder'
p964
I11
tp965
a(S'slowly'
p966
I11
tp967
a(S'sometime'
p968
I11
tp969
a(S'stay'
p970
I11
tp971
a(S'v'
I11
tp972
a(S'alive'
p973
I10
tp974
a(S'anything'
p975
I10
tp976
a(S'audience'
p977
I10
tp978
a(S'beauty'
p979
I10
tp980
a(S'belive'
p981
I10
tp982
a(S'circumstance'
p983
I10
tp984
a(S'describe'
p985
I10
tp986
a(S'distinctive'
p987
I10
tp988
a(S'event'
p989
I10
tp990
a(S'failure'
p991
I10
tp992
a(S'fight'
p993
I10
tp994
a(S'hair'
p995
I10
tp996
a(S'harsh'
p997
I10
tp998
a(S'hint'
p999
I10
tp1000
a(S"it'"
p1001
I10
tp1002
a(S'letting'
p1003
I10
tp1004
a(S'lifestyle'
p1005
I10
tp1006
a(S'missing'
p1007
I10
tp1008
a(S'note'
p1009
I10
tp1010
a(S'num1)'
p1011
I10
tp1012
a(S'petal'
p1013
I10
tp1014
a(S'plan'
p1015
I10
tp1016
a(S'quite'
p1017
I10
tp1018
a(S'rough'
p1019
I10
tp1020
a(S'seemed'
p1021
I10
tp1022
a(S'several'
p1023
I10
tp1024
a(S'shelter'
p1025
I10
tp1026
a(S'soil'
p1027
I10
tp1028
a(S'soon'
p1029
I10
tp1030
a(S'sort'
p1031
I10
tp1032
a(S'sound'
p1033
I10
tp1034
a(S'spent'
p1035
I10
tp1036
a(S'study'
p1037
I10
tp1038
a(S'tear'
p1039
I10
tp1040
a(S'trouble'
p1041
I10
tp1042
a(S'\x93it\x92'
p1043
I10
tp1044
a(S'\x93saeng'
p1045
I10
tp1046
a(S'\x93test\x94'
p1047
I10
tp1048
a(S'again.i'
p1049
I9
tp1050
a(S'agin'
p1051
I9
tp1052
a(S'alot'
p1053
I9
tp1054
a(S'author\x92'
p1055
I9
tp1056
a(S'began'
p1057
I9
tp1058
a(S'bitter'
p1059
I9
tp1060
a(S'book'
p1061
I9
tp1062
a(S'break'
p1063
I9
tp1064
a(S'broke'
p1065
I9
tp1066
a(S'burst'
p1067
I9
tp1068
a(S'called'
p1069
I9
tp1070
a(S'changed'
p1071
I9
tp1072
a(S'changing'
p1073
I9
tp1074
a(S'close'
p1075
I9
tp1076
a(S'demonstrate'
p1077
I9
tp1078
a(S'despite'
p1079
I9
tp1080
a(S"don't"
p1081
I9
tp1082
a(S'everyone'
p1083
I9
tp1084
a(S'faith'
p1085
I9
tp1086
a(S'filled'
p1087
I9
tp1088
a(S'flock'
p1089
I9
tp1090
a(S'great'
p1091
I9
tp1092
a(S'hole'
p1093
I9
tp1094
a(S'hopefully'
p1095
I9
tp1096
a(S'learning'
p1097
I9
tp1098
a(S'meant'
p1099
I9
tp1100
a(S'mi'
p1101
I9
tp1102
a(S'moist'
p1103
I9
tp1104
a(S'mood'
p1105
I9
tp1106
a(S'native'
p1107
I9
tp1108
a(S'phrase'
p1109
I9
tp1110
a(S'prepared'
p1111
I9
tp1112
a(S'purchase'
p1113
I9
tp1114
a(S'rest'
p1115
I9
tp1116
a(S'retaking'
p1117
I9
tp1118
a(S'sky'
p1119
I9
tp1120
a(S'special'
p1121
I9
tp1122
a(S'spirit'
p1123
I9
tp1124
a(S'stand'
p1125
I9
tp1126
a(S'stating'
p1127
I9
tp1128
a(S'summarize'
p1129
I9
tp1130
a(S'symbolic'
p1131
I9
tp1132
a(S'test.\x94'
p1133
I9
tp1134
a(S'action'
p1135
I8
tp1136
a(S'area'
p1137
I8
tp1138
a(S'became'
p1139
I8
tp1140
a(S'compare'
p1141
I8
tp1142
a(S'comparing'
p1143
I8
tp1144
a(S'complete'
p1145
I8
tp1146
a(S'cool'
p1147
I8
tp1148
a(S'couldn\x92t'
p1149
I8
tp1150
a(S'culture'
p1151
I8
tp1152
a(S'dollar'
p1153
I8
tp1154
a(S'draw'
p1155
I8
tp1156
a(S'due'
p1157
I8
tp1158
a(S'else'
p1159
I8
tp1160
a(S'emotion'
p1161
I8
tp1162
a(S'emphasize'
p1163
I8
tp1164
a(S'encourage'
p1165
I8
tp1166
a(S'enjoy'
p1167
I8
tp1168
a(S'faint'
p1169
I8
tp1170
a(S'finding'
p1171
I8
tp1172
a(S'gonna'
p1173
I8
tp1174
a(S'grown'
p1175
I8
tp1176
a(S'he/she'
p1177
I8
tp1178
a(S'helped'
p1179
I8
tp1180
a(S'helping'
p1181
I8
tp1182
a(S'homesick'
p1183
I8
tp1184
a(S'homesickne'
p1185
I8
tp1186
a(S'lifted'
p1187
I8
tp1188
a(S'light'
p1189
I8
tp1190
a(S'lost'
p1191
I8
tp1192
a(S'mad'
p1193
I8
tp1194
a(S'motivated'
p1195
I8
tp1196
a(S'motivation'
p1197
I8
tp1198
a(S'ok'
p1199
I8
tp1200
a(S'okay'
p1201
I8
tp1202
a(S'outside'
p1203
I8
tp1204
a(S'particular'
p1205
I8
tp1206
a(S'passed'
p1207
I8
tp1208
a(S'peace'
p1209
I8
tp1210
a(S'proud'
p1211
I8
tp1212
a(S'purpose'
p1213
I8
tp1214
a(S'rather'
p1215
I8
tp1216
a(S'referring'
p1217
I8
tp1218
a(S'seed'
p1219
I8
tp1220
a(S"she'"
p1221
I8
tp1222
a(S'shown'
p1223
I8
tp1224
a(S'smooth'
p1225
I8
tp1226
a(S'symbolism'
p1227
I8
tp1228
a(S'thrive'
p1229
I8
tp1230
a(S'vegetable'
p1231
I8
tp1232
a(S'walk'
p1233
I8
tp1234
a(S'working'
p1235
I8
tp1236
a(S'(ho)'
p1237
I7
tp1238
a(S'-'
I7
tp1239
a(S'actually'
p1240
I7
tp1241
a(S'adjusted'
p1242
I7
tp1243
a(S'afraid'
p1244
I7
tp1245
a(S'anymore'
p1246
I7
tp1247
a(S'becoming'
p1248
I7
tp1249
a(S'bloomed'
p1250
I7
tp1251
a(S'budd'
p1252
I7
tp1253
a(S'closed'
p1254
I7
tp1255
a(S'closure'
p1256
I7
tp1257
a(S'conflict'
p1258
I7
tp1259
a(S'cost'
p1260
I7
tp1261
a(S'date1'
p1262
I7
tp1263
a(S'decision'
p1264
I7
tp1265
a(S'detail'
p1266
I7
tp1267
a(S"doesn't"
p1268
I7
tp1269
a(S'effort'
p1270
I7
tp1271
a(S'evening'
p1272
I7
tp1273
a(S'food'
p1274
I7
tp1275
a(S'foreign'
p1276
I7
tp1277
a(S'full'
p1278
I7
tp1279
a(S'habiscu'
p1280
I7
tp1281
a(S'her.\x94'
p1282
I7
tp1283
a(S'illustrate'
p1284
I7
tp1285
a(S'implie'
p1286
I7
tp1287
a(S'instead'
p1288
I7
tp1289
a(S'job'
p1290
I7
tp1291
a(S'lastly'
p1292
I7
tp1293
a(S'life.the'
p1294
I7
tp1295
a(S'longer'
p1296
I7
tp1297
a(S'mainly'
p1298
I7
tp1299
a(S'mature'
p1300
I7
tp1301
a(S'melon'
p1302
I7
tp1303
a(S'mention'
p1304
I7
tp1305
a(S'nineteen'
p1306
I7
tp1307
a(S'now\x94'
p1308
I7
tp1309
a(S'over.the'
p1310
I7
tp1311
a(S'overall'
p1312
I7
tp1313
a(S'paragraph.i'
p1314
I7
tp1315
a(S'power'
p1316
I7
tp1317
a(S'provide'
p1318
I7
tp1319
a(S'remembering'
p1320
I7
tp1321
a(S'representing'
p1322
I7
tp1323
a(S'simply'
p1324
I7
tp1325
a(S'smell'
p1326
I7
tp1327
a(S'someone'
p1328
I7
tp1329
a(S'spring.the'
p1330
I7
tp1331
a(S'step'
p1332
I7
tp1333
a(S'storie'
p1334
I7
tp1335
a(S'stuff'
p1336
I7
tp1337
a(S'sum'
p1338
I7
tp1339
a(S'support'
p1340
I7
tp1341
a(S'sweet'
p1342
I7
tp1343
a(S'task'
p1344
I7
tp1345
a(S'test.i'
p1346
I7
tp1347
a(S'test\x94'
p1348
I7
tp1349
a(S'top'
p1350
I7
tp1351
a(S'tough'
p1352
I7
tp1353
a(S'tropical'
p1354
I7
tp1355
a(S'using'
p1356
I7
tp1357
a(S'watched'
p1358
I7
tp1359
a(S'way.the'
p1360
I7
tp1361
a(S'wept.\x94'
p1362
I7
tp1363
a(S'white'
p1364
I7
tp1365
a(S'wild'
p1366
I7
tp1367
a(S'within'
p1368
I7
tp1369
a(S'wrap'
p1370
I7
tp1371
a(S'\x93not'
p1372
I7
tp1373
a(S'\x93thi'
p1374
I7
tp1375
a(S'(ho'
p1376
I6
tp1377
a(S'acceptance'
p1378
I6
tp1379
a(S'accepted'
p1380
I6
tp1381
a(S'accustomed'
p1382
I6
tp1383
a(S'achieve'
p1384
I6
tp1385
a(S'acro'
p1386
I6
tp1387
a(S'adopt'
p1388
I6
tp1389
a(S'alone'
p1390
I6
tp1391
a(S'aspect'
p1392
I6
tp1393
a(S'attempt'
p1394
I6
tp1395
a(S'b/c'
p1396
I6
tp1397
a(S'begining'
p1398
I6
tp1399
a(S'behind'
p1400
I6
tp1401
a(S'budding,\x94'
p1402
I6
tp1403
a(S'build'
p1404
I6
tp1405
a(S'certain'
p1406
I6
tp1407
a(S'connected'
p1408
I6
tp1409
a(S'create'
p1410
I6
tp1411
a(S'cycle'
p1412
I6
tp1413
a(S'describing'
p1414
I6
tp1415
a(S'dinner'
p1416
I6
tp1417
a(S'etched'
p1418
I6
tp1419
a(S'ever'
p1420
I6
tp1421
a(S'expresse'
p1422
I6
tp1423
a(S'familiarity'
p1424
I6
tp1425
a(S'favorite'
p1426
I6
tp1427
a(S'figure'
p1428
I6
tp1429
a(S'finishe'
p1430
I6
tp1431
a(S'focu'
p1432
I6
tp1433
a(S'forgotten'
p1434
I6
tp1435
a(S'glad'
p1436
I6
tp1437
a(S'gra'
p1438
I6
tp1439
a(S'gray'
p1440
I6
tp1441
a(S'guessing'
p1442
I6
tp1443
a(S'happine'
p1444
I6
tp1445
a(S'heart'
p1446
I6
tp1447
a(S'high'
p1448
I6
tp1449
a(S'home.the'
p1450
I6
tp1451
a(S'honk'
p1452
I6
tp1453
a(S'image'
p1454
I6
tp1455
a(S'inspire'
p1456
I6
tp1457
a(S'inspired'
p1458
I6
tp1459
a(S'instance'
p1460
I6
tp1461
a(S'interested'
p1462
I6
tp1463
a(S"isn't"
p1464
I6
tp1465
a(S'lead'
p1466
I6
tp1467
a(S'lest'
p1468
I6
tp1469
a(S'license'
p1470
I6
tp1471
a(S'melted'
p1472
I6
tp1473
a(S'ment'
p1474
I6
tp1475
a(S'moment'
p1476
I6
tp1477
a(S'money1'
p1478
I6
tp1479
a(S'mostly'
p1480
I6
tp1481
a(S'motivate'
p1482
I6
tp1483
a(S'named'
p1484
I6
tp1485
a(S'overhead'
p1486
I6
tp1487
a(S'paid'
p1488
I6
tp1489
a(S'person1'
p1490
I6
tp1491
a(S'point'
p1492
I6
tp1493
a(S'previou'
p1494
I6
tp1495
a(S'prove'
p1496
I6
tp1497
a(S'putting'
p1498
I6
tp1499
a(S're-take'
p1500
I6
tp1501
a(S'realizing'
p1502
I6
tp1503
a(S'remembered'
p1504
I6
tp1505
a(S'represented'
p1506
I6
tp1507
a(S'response'
p1508
I6
tp1509
a(S'sentimental'
p1510
I6
tp1511
a(S'stared'
p1512
I6
tp1513
a(S'strive'
p1514
I6
tp1515
a(S'symbolized'
p1516
I6
tp1517
a(S'taken'
p1518
I6
tp1519
a(S'test,\x94'
p1520
I6
tp1521
a(S'tree'
p1522
I6
tp1523
a(S'understood'
p1524
I6
tp1525
a(S'up.the'
p1526
I6
tp1527
a(S'velvet'
p1528
I6
tp1529
a(S'winter.the'
p1530
I6
tp1531
a(S'wonder'
p1532
I6
tp1533
a(S'\x93hibiscu'
p1534
I6
tp1535
a(S'\x94when'
p1536
I6
tp1537
a(S'(the'
p1538
I5
tp1539
a(S'again.in'
p1540
I5
tp1541
a(S'america'
p1542
I5
tp1543
a(S'appreciate'
p1544
I5
tp1545
a(S'article'
p1546
I5
tp1547
a(S'attention'
p1548
I5
tp1549
a(S'beside'
p1550
I5
tp1551
a(S'budding.\x94'
p1552
I5
tp1553
a(S'caps4'
p1554
I5
tp1555
a(S'carefully'
p1556
I5
tp1557
a(S'center'
p1558
I5
tp1559
a(S'comparison'
p1560
I5
tp1561
a(S'conclud'
p1562
I5
tp1563
a(S'curiosity'
p1564
I5
tp1565
a(S'dare'
p1566
I5
tp1567
a(S'deeply'
p1568
I5
tp1569
a(S'depict'
p1570
I5
tp1571
a(S'disappoint'
p1572
I5
tp1573
a(S'dissapointed'
p1574
I5
tp1575
a(S'doesnt'
p1576
I5
tp1577
a(S'dok'
p1578
I5
tp1579
a(S'easy'
p1580
I5
tp1581
a(S'emotional'
p1582
I5
tp1583
a(S'especially'
p1584
I5
tp1585
a(S'excerpt'
p1586
I5
tp1587
a(S'fitting'
p1588
I5
tp1589
a(S'form'
p1590
I5
tp1591
a(S'gain'
p1592
I5
tp1593
a(S'gotten'
p1594
I5
tp1595
a(S'gue'
p1596
I5
tp1597
a(S'hasn\x92t'
p1598
I5
tp1599
a(S'heal'
p1600
I5
tp1601
a(S'hear'
p1602
I5
tp1603
a(S'held'
p1604
I5
tp1605
a(S'helpful'
p1606
I5
tp1607
a(S'herself.the'
p1608
I5
tp1609
a(S'hot'
p1610
I5
tp1611
a(S'indicate'
p1612
I5
tp1613
a(S'inside'
p1614
I5
tp1615
a(S'it.\x94'
p1616
I5
tp1617
a(S'lake'
p1618
I5
tp1619
a(S'location3'
p1620
I5
tp1621
a(S'mabe'
p1622
I5
tp1623
a(S'metaphor'
p1624
I5
tp1625
a(S'mumbled'
p1626
I5
tp1627
a(S'object'
p1628
I5
tp1629
a(S'obviously'
p1630
I5
tp1631
a(S'open'
p1632
I5
tp1633
a(S'opinion'
p1634
I5
tp1635
a(S'parent'
p1636
I5
tp1637
a(S'perservering'
p1638
I5
tp1639
a(S'personal'
p1640
I5
tp1641
a(S'picked'
p1642
I5
tp1643
a(S'picture'
p1644
I5
tp1645
a(S'practice'
p1646
I5
tp1647
a(S'present'
p1648
I5
tp1649
a(S'question'
p1650
I5
tp1651
a(S'quit'
p1652
I5
tp1653
a(S'reached'
p1654
I5
tp1655
a(S'recognize'
p1656
I5
tp1657
a(S'refer'
p1658
I5
tp1659
a(S'relating'
p1660
I5
tp1661
a(S'repeat'
p1662
I5
tp1663
a(S'respect'
p1664
I5
tp1665
a(S'saeng.the'
p1666
I5
tp1667
a(S'scent'
p1668
I5
tp1669
a(S'setting'
p1670
I5
tp1671
a(S'signify'
p1672
I5
tp1673
a(S'silent'
p1674
I5
tp1675
a(S'simple'
p1676
I5
tp1677
a(S'spend'
p1678
I5
tp1679
a(S'stated'
p1680
I5
tp1681
a(S'survival'
p1682
I5
tp1683
a(S'suspense'
p1684
I5
tp1685
a(S'test.in'
p1686
I5
tp1687
a(S'th'
p1688
I5
tp1689
a(S"that'"
p1690
I5
tp1691
a(S'that.the'
p1692
I5
tp1693
a(S'tie'
p1694
I5
tp1695
a(S'touch'
p1696
I5
tp1697
a(S'touched'
p1698
I5
tp1699
a(S'town'
p1700
I5
tp1701
a(S'type'
p1702
I5
tp1703
a(S'vowe'
p1704
I5
tp1705
a(S'wind'
p1706
I5
tp1707
a(S'wit'
p1708
I5
tp1709
a(S'written'
p1710
I5
tp1711
a(S'ye'
p1712
I5
tp1713
a(S'\x92\x92'
p1714
I5
tp1715
a(S'\x93@caps1'
p1716
I5
tp1717
a(S'\x93but'
p1718
I5
tp1719
a(S'\x93here'
p1720
I5
tp1721
a(S'???'
p1722
I4
tp1723
a(S'accepting'
p1724
I4
tp1725
a(S'adaption'
p1726
I4
tp1727
a(S'addition'
p1728
I4
tp1729
a(S'againthe'
p1730
I4
tp1731
a(S'aurthor'
p1732
I4
tp1733
a(S'beggining'
p1734
I4
tp1735
a(S'beleieve'
p1736
I4
tp1737
a(S'belief'
p1738
I4
tp1739
a(S'better.the'
p1740
I4
tp1741
a(S'budding.the'
p1742
I4
tp1743
a(S'calm'
p1744
I4
tp1745
a(S'cant'
p1746
I4
tp1747
a(S'change.the'
p1748
I4
tp1749
a(S'child'
p1750
I4
tp1751
a(S'clearly'
p1752
I4
tp1753
a(S'closing'
p1754
I4
tp1755
a(S'com'
p1756
I4
tp1757
a(S'confort'
p1758
I4
tp1759
a(S'cope'
p1760
I4
tp1761
a(S'couple'
p1762
I4
tp1763
a(S'crack'
p1764
I4
tp1765
a(S'dainty'
p1766
I4
tp1767
a(S'despair'
p1768
I4
tp1769
a(S'did.the'
p1770
I4
tp1771
a(S'dig'
p1772
I4
tp1773
a(S'disapointed'
p1774
I4
tp1775
a(S'display'
p1776
I4
tp1777
a(S'do.the'
p1778
I4
tp1779
a(S'dying'
p1780
I4
tp1781
a(S'earlier'
p1782
I4
tp1783
a(S'either'
p1784
I4
tp1785
a(S'entire'
p1786
I4
tp1787
a(S'etc'
p1788
I4
tp1789
a(S'exactly'
p1790
I4
tp1791
a(S'expect'
p1792
I4
tp1793
a(S'expensive'
p1794
I4
tp1795
a(S'expressed'
p1796
I4
tp1797
a(S'facing'
p1798
I4
tp1799
a(S'fading'
p1800
I4
tp1801
a(S'faeng-noi'
p1802
I4
tp1803
a(S'fall'
p1804
I4
tp1805
a(S'farmiliar'
p1806
I4
tp1807
a(S'fell'
p1808
I4
tp1809
a(S'fill'
p1810
I4
tp1811
a(S'fine'
p1812
I4
tp1813
a(S'flow'
p1814
I4
tp1815
a(S'focused'
p1816
I4
tp1817
a(S'follow'
p1818
I4
tp1819
a(S'following'
p1820
I4
tp1821
a(S'foreshadow'
p1822
I4
tp1823
a(S'geese.\x94'
p1824
I4
tp1825
a(S'gently'
p1826
I4
tp1827
a(S'grandma'
p1828
I4
tp1829
a(S'grandmother\x92'
p1830
I4
tp1831
a(S'hang'
p1832
I4
tp1833
a(S'healed'
p1834
I4
tp1835
a(S'he\x92'
p1836
I4
tp1837
a(S'hibicu'
p1838
I4
tp1839
a(S'hibiscus.the'
p1840
I4
tp1841
a(S'hobby'
p1842
I4
tp1843
a(S'huge'
p1844
I4
tp1845
a(S'i-i'
p1846
I4
tp1847
a(S'inform'
p1848
I4
tp1849
a(S'inorder'
p1850
I4
tp1851
a(S'inspiring'
p1852
I4
tp1853
a(S'intense'
p1854
I4
tp1855
a(S'isnt'
p1856
I4
tp1857
a(S'joy'
p1858
I4
tp1859
a(S'keeping'
p1860
I4
tp1861
a(S'le'
p1862
I4
tp1863
a(S'least'
p1864
I4
tp1865
a(S'lift'
p1866
I4
tp1867
a(S'liked'
p1868
I4
tp1869
a(S'looked'
p1870
I4
tp1871
a(S'lowered'
p1872
I4
tp1873
a(S'matured'
p1874
I4
tp1875
a(S'mentioned'
p1876
I4
tp1877
a(S'met'
p1878
I4
tp1879
a(S'narration'
p1880
I4
tp1881
a(S'natural'
p1882
I4
tp1883
a(S'normal'
p1884
I4
tp1885
a(S'noticed'
p1886
I4
tp1887
a(S'obviou'
p1888
I4
tp1889
a(S'on.the'
p1890
I4
tp1891
a(S'opportunity'
p1892
I4
tp1893
a(S'optimism'
p1894
I4
tp1895
a(S'originally'
p1896
I4
tp1897
a(S'outlook'
p1898
I4
tp1899
a(S'pick'
p1900
I4
tp1901
a(S'plant.the'
p1902
I4
tp1903
a(S'powerful'
p1904
I4
tp1905
a(S'prepare'
p1906
I4
tp1907
a(S'proce'
p1908
I4
tp1909
a(S'provided'
p1910
I4
tp1911
a(S'purchased'
p1912
I4
tp1913
a(S'purplish'
p1914
I4
tp1915
a(S'reality'
p1916
I4
tp1917
a(S'realization'
p1918
I4
tp1919
a(S'recognition'
p1920
I4
tp1921
a(S'reference'
p1922
I4
tp1923
a(S'relationship'
p1924
I4
tp1925
a(S'relaxed'
p1926
I4
tp1927
a(S'relief'
p1928
I4
tp1929
a(S'remain'
p1930
I4
tp1931
a(S'renewal'
p1932
I4
tp1933
a(S'renewed'
p1934
I4
tp1935
a(S'restart'
p1936
I4
tp1937
a(S'retry'
p1938
I4
tp1939
a(S'returned'
p1940
I4
tp1941
a(S'return\x94'
p1942
I4
tp1943
a(S'rich'
p1944
I4
tp1945
a(S'saeng\x91'
p1946
I4
tp1947
a(S'says,\x94'
p1948
I4
tp1949
a(S'sence'
p1950
I4
tp1951
a(S'send'
p1952
I4
tp1953
a(S'shock'
p1954
I4
tp1955
a(S'sight'
p1956
I4
tp1957
a(S'sign'
p1958
I4
tp1959
a(S'similaritie'
p1960
I4
tp1961
a(S'smelled'
p1962
I4
tp1963
a(S'somewhat'
p1964
I4
tp1965
a(S'story\x92'
p1966
I4
tp1967
a(S'stre'
p1968
I4
tp1969
a(S'stuck'
p1970
I4
tp1971
a(S'sure'
p1972
I4
tp1973
a(S'sympathy'
p1974
I4
tp1975
a(S'tamped'
p1976
I4
tp1977
a(S'te'
p1978
I4
tp1979
a(S'teach'
p1980
I4
tp1981
a(S'test)'
p1982
I4
tp1983
a(S'things.the'
p1984
I4
tp1985
a(S'threw'
p1986
I4
tp1987
a(S'throught'
p1988
I4
tp1989
a(S'true'
p1990
I4
tp1991
a(S'untill'
p1992
I4
tp1993
a(S'value'
p1994
I4
tp1995
a(S'wanting'
p1996
I4
tp1997
a(S'watching'
p1998
I4
tp1999
a(S'water'
p2000
I4
tp2001
a(S'willingne'
p2002
I4
tp2003
a(S'wondering'
p2004
I4
tp2005
a(S'wouldnt'
p2006
I4
tp2007
a(S'wouldn\x92t'
p2008
I4
tp2009
a(S'writing'
p2010
I4
tp2011
a(S'you?'
p2012
I4
tp2013
a(S'\x92\x92winter'
p2014
I4
tp2015
a(S'\x93take'
p2016
I4
tp2017
a(S'\x93that'
p2018
I4
tp2019
a(S'\x94winter'
p2020
I4
tp2021
a(S'(@num1)'
p2022
I3
tp2023
a(S'+'
I3
tp2024
a(S'/'
I3
tp2025
a(S'accomplish'
p2026
I3
tp2027
a(S'adjustment'
p2028
I3
tp2029
a(S'admitted'
p2030
I3
tp2031
a(S'adopting'
p2032
I3
tp2033
a(S'adversity'
p2034
I3
tp2035
a(S'affected'
p2036
I3
tp2037
a(S'agian'
p2038
I3
tp2039
a(S'alright'
p2040
I3
tp2041
a(S'amount'
p2042
I3
tp2043
a(S'animal'
p2044
I3
tp2045
a(S'arrive'
p2046
I3
tp2047
a(S'authour'
p2048
I3
tp2049
a(S'back.the'
p2050
I3
tp2051
a(S'becu'
p2052
I3
tp2053
a(S'befor'
p2054
I3
tp2055
a(S'before.\x94'
p2056
I3
tp2057
a(S'behavior'
p2058
I3
tp2059
a(S'beleive'
p2060
I3
tp2061
a(S'believed'
p2062
I3
tp2063
a(S'bigger'
p2064
I3
tp2065
a(S'blom'
p2066
I3
tp2067
a(S'bloom.the'
p2068
I3
tp2069
a(S'boost'
p2070
I3
tp2071
a(S'breaking'
p2072
I3
tp2073
a(S'breathed'
p2074
I3
tp2075
a(S'buding'
p2076
I3
tp2077
a(S'cannot'
p2078
I3
tp2079
a(S'caps1\x94'
p2080
I3
tp2081
a(S'caring'
p2082
I3
tp2083
a(S'carry'
p2084
I3
tp2085
a(S'case'
p2086
I3
tp2087
a(S'chance.the'
p2088
I3
tp2089
a(S'charm'
p2090
I3
tp2091
a(S'cheer'
p2092
I3
tp2093
a(S'comb'
p2094
I3
tp2095
a(S'compared'
p2096
I3
tp2097
a(S'condition'
p2098
I3
tp2099
a(S'continu'
p2100
I3
tp2101
a(S'country.the'
p2102
I3
tp2103
a(S'creature'
p2104
I3
tp2105
a(S'date2'
p2106
I3
tp2107
a(S'depressing'
p2108
I3
tp2109
a(S'develop'
p2110
I3
tp2111
a(S'development'
p2112
I3
tp2113
a(S"didn't"
p2114
I3
tp2115
a(S'died'
p2116
I3
tp2117
a(S'difficultie'
p2118
I3
tp2119
a(S'discover'
p2120
I3
tp2121
a(S'distance'
p2122
I3
tp2123
a(S'doubt'
p2124
I3
tp2125
a(S'drew'
p2126
I3
tp2127
a(S'e'
I3
tp2128
a(S'ease'
p2129
I3
tp2130
a(S'easily'
p2131
I3
tp2132
a(S'eat'
p2133
I3
tp2134
a(S'effect'
p2135
I3
tp2136
a(S'encouragement'
p2137
I3
tp2138
a(S'ending.the'
p2139
I3
tp2140
a(S'enhance'
p2141
I3
tp2142
a(S'essay'
p2143
I3
tp2144
a(S'eventhough'
p2145
I3
tp2146
a(S'eventually'
p2147
I3
tp2148
a(S'evidence'
p2149
I3
tp2150
a(S'except'
p2151
I3
tp2152
a(S'excited'
p2153
I3
tp2154
a(S'experienced'
p2155
I3
tp2156
a(S'faced'
p2157
I3
tp2158
a(S'faild'
p2159
I3
tp2160
a(S'fallen'
p2161
I3
tp2162
a(S'feel.\x94'
p2163
I3
tp2164
a(S'flood'
p2165
I3
tp2166
a(S'fond'
p2167
I3
tp2168
a(S'forever'
p2169
I3
tp2170
a(S'forgot'
p2171
I3
tp2172
a(S'formation'
p2173
I3
tp2174
a(S'fragrance'
p2175
I3
tp2176
a(S'freshly'
p2177
I3
tp2178
a(S'fun'
p2179
I3
tp2180
a(S'gee'
p2181
I3
tp2182
a(S'geese.the'
p2183
I3
tp2184
a(S'grandparent'
p2185
I3
tp2186
a(S'greatly'
p2187
I3
tp2188
a(S'grief'
p2189
I3
tp2190
a(S'hand'
p2191
I3
tp2192
a(S'happen.the'
p2193
I3
tp2194
a(S'happening'
p2195
I3
tp2196
a(S'hedge'
p2197
I3
tp2198
a(S'hibernation'
p2199
I3
tp2200
a(S'hibiscus,\x92\x92'
p2201
I3
tp2202
a(S'hibiscus.\x94'
p2203
I3
tp2204
a(S'hibiscus\x92'
p2205
I3
tp2206
a(S'homeland.the'
p2207
I3
tp2208
a(S'hope.the'
p2209
I3
tp2210
a(S'hopele'
p2211
I3
tp2212
a(S'hoping'
p2213
I3
tp2214
a(S'hurt'
p2215
I3
tp2216
a(S'impossible'
p2217
I3
tp2218
a(S'insight'
p2219
I3
tp2220
a(S'interesting'
p2221
I3
tp2222
a(S'it,\x94'
p2223
I3
tp2224
a(S'it.in'
p2225
I3
tp2226
a(S'i\x92ll'
p2227
I3
tp2228
a(S'journey'
p2229
I3
tp2230
a(S'key'
p2231
I3
tp2232
a(S'late'
p2233
I3
tp2234
a(S'licen'
p2235
I3
tp2236
a(S'lived'
p2237
I3
tp2238
a(S'lung'
p2239
I3
tp2240
a(S'mac'
p2241
I3
tp2242
a(S'major'
p2243
I3
tp2244
a(S'makeing'
p2245
I3
tp2246
a(S'matters.\x94'
p2247
I3
tp2248
a(S'maturity'
p2249
I3
tp2250
a(S'meaningful'
p2251
I3
tp2252
a(S'mentally'
p2253
I3
tp2254
a(S'mistake'
p2255
I3
tp2256
a(S'moral'
p2257
I3
tp2258
a(S"mother'"
p2259
I3
tp2260
a(S'mother\x92'
p2261
I3
tp2262
a(S'mum'
p2263
I3
tp2264
a(S'nearly'
p2265
I3
tp2266
a(S'novel'
p2267
I3
tp2268
a(S'occur'
p2269
I3
tp2270
a(S'offer'
p2271
I3
tp2272
a(S'older'
p2273
I3
tp2274
a(S'one\x94'
p2275
I3
tp2276
a(S'opportunitie'
p2277
I3
tp2278
a(S'optimistic'
p2279
I3
tp2280
a(S'pain'
p2281
I3
tp2282
a(S'painful'
p2283
I3
tp2284
a(S'paragraph.in'
p2285
I3
tp2286
a(S'pass.the'
p2287
I3
tp2288
a(S'perfectly'
p2289
I3
tp2290
a(S'perseverance'
p2291
I3
tp2292
a(S'persistance'
p2293
I3
tp2294
a(S'persistant'
p2295
I3
tp2296
a(S'persistence'
p2297
I3
tp2298
a(S'pharagraph'
p2299
I3
tp2300
a(S'picking'
p2301
I3
tp2302
a(S'planning'
p2303
I3
tp2304
a(S'play'
p2305
I3
tp2306
a(S'plu'
p2307
I3
tp2308
a(S'portray'
p2309
I3
tp2310
a(S'possibly'
p2311
I3
tp2312
a(S'pot'
p2313
I3
tp2314
a(S'presence'
p2315
I3
tp2316
a(S'previously'
p2317
I3
tp2318
a(S'proving'
p2319
I3
tp2320
a(S'puffy'
p2321
I3
tp2322
a(S'push'
p2323
I3
tp2324
a(S'raise'
p2325
I3
tp2326
a(S're'
p2327
I3
tp2328
a(S'reaction'
p2329
I3
tp2330
a(S'refering'
p2331
I3
tp2332
a(S'regain'
p2333
I3
tp2334
a(S'regret'
p2335
I3
tp2336
a(S'relize'
p2337
I3
tp2338
a(S'reminding'
p2339
I3
tp2340
a(S'repition'
p2341
I3
tp2342
a(S'repitition'
p2343
I3
tp2344
a(S'result'
p2345
I3
tp2346
a(S'return,\x94'
p2347
I3
tp2348
a(S'room'
p2349
I3
tp2350
a(S'saeg'
p2351
I3
tp2352
a(S'season\x94'
p2353
I3
tp2354
a(S'sh'
p2355
I3
tp2356
a(S'shadowing'
p2357
I3
tp2358
a(S'shape'
p2359
I3
tp2360
a(S'shell'
p2361
I3
tp2362
a(S'shovel'
p2363
I3
tp2364
a(S'shrub'
p2365
I3
tp2366
a(S'sickne'
p2367
I3
tp2368
a(S'side'
p2369
I3
tp2370
a(S'significant'
p2371
I3
tp2372
a(S'smallest'
p2373
I3
tp2374
a(S'somewhere'
p2375
I3
tp2376
a(S'sorrow'
p2377
I3
tp2378
a(S'speaker'
p2379
I3
tp2380
a(S'spending'
p2381
I3
tp2382
a(S'sping'
p2383
I3
tp2384
a(S'springtime'
p2385
I3
tp2386
a(S'stable'
p2387
I3
tp2388
a(S'statement.the'
p2389
I3
tp2390
a(S'store'
p2391
I3
tp2392
a(S'story.i'
p2393
I3
tp2394
a(S'strand'
p2395
I3
tp2396
a(S'strongly'
p2397
I3
tp2398
a(S'struggling'
p2399
I3
tp2400
a(S'subject'
p2401
I3
tp2402
a(S'succe'
p2403
I3
tp2404
a(S'successful'
p2405
I3
tp2406
a(S'supposed'
p2407
I3
tp2408
a(S'surrounded'
p2409
I3
tp2410
a(S'symbolizing'
p2411
I3
tp2412
a(S'talked'
p2413
I3
tp2414
a(S'tall'
p2415
I3
tp2416
a(S'taste'
p2417
I3
tp2418
a(S'teache'
p2419
I3
tp2420
a(S'tested'
p2421
I3
tp2422
a(S'third'
p2423
I3
tp2424
a(S'thriving'
p2425
I3
tp2426
a(S'thu'
p2427
I3
tp2428
a(S'too.the'
p2429
I3
tp2430
a(S'tradition'
p2431
I3
tp2432
a(S'tried'
p2433
I3
tp2434
a(S'turn'
p2435
I3
tp2436
a(S'unable'
p2437
I3
tp2438
a(S'unfamiliar'
p2439
I3
tp2440
a(S'valuable'
p2441
I3
tp2442
a(S'view'
p2443
I3
tp2444
a(S'visceral.\x94'
p2445
I3
tp2446
a(S'walked'
p2447
I3
tp2448
a(S"wasn't"
p2449
I3
tp2450
a(S'watch'
p2451
I3
tp2452
a(S'waxy'
p2453
I3
tp2454
a(S'whatever'
p2455
I3
tp2456
a(S'whenever'
p2457
I3
tp2458
a(S'whether'
p2459
I3
tp2460
a(S'wishe'
p2461
I3
tp2462
a(S'wo'
p2463
I3
tp2464
a(S"won't"
p2465
I3
tp2466
a(S'wonderful'
p2467
I3
tp2468
a(S'worrie'
p2469
I3
tp2470
a(S'worry'
p2471
I3
tp2472
a(S'wrong'
p2473
I3
tp2474
a(S'\x91\x92when'
p2475
I3
tp2476
a(S'\x93overhead'
p2477
I3
tp2478
a(S'\x93plant'
p2479
I3
tp2480
a(S'\x93snow'
p2481
I3
tp2482
a(S'\x93through'
p2483
I3
tp2484
a(S'\x93v\x94'
p2485
I3
tp2486
a(S'\x94i'
p2487
I3
tp2488
a(S'&the'
p2489
I2
tp2490
a(S'(\x93'
p2491
I2
tp2492
a(S'*the'
p2493
I2
tp2494
a(S'[she]'
p2495
I2
tp2496
a(S'about.the'
p2497
I2
tp2498
a(S'achievement'
p2499
I2
tp2500
a(S'adapt.the'
p2501
I2
tp2502
a(S'addapt'
p2503
I2
tp2504
a(S'admire'
p2505
I2
tp2506
a(S'affection'
p2507
I2
tp2508
a(S'again.minfong'
p2509
I2
tp2510
a(S'ago'
p2511
I2
tp2512
a(S'agree'
p2513
I2
tp2514
a(S'ahead'
p2515
I2
tp2516
a(S'aint'
p2517
I2
tp2518
a(S'al'
p2519
I2
tp2520
a(S'alien'
p2521
I2
tp2522
a(S'alike'
p2523
I2
tp2524
a(S'allowing'
p2525
I2
tp2526
a(S'ambition'
p2527
I2
tp2528
a(S'angry'
p2529
I2
tp2530
a(S'anyone'
p2531
I2
tp2532
a(S'anyway'
p2533
I2
tp2534
a(S'appeared'
p2535
I2
tp2536
a(S'applied'
p2537
I2
tp2538
a(S'apply'
p2539
I2
tp2540
a(S'archetype'
p2541
I2
tp2542
a(S'ard'
p2543
I2
tp2544
a(S"aren't"
p2545
I2
tp2546
a(S'ariving'
p2547
I2
tp2548
a(S'arrived'
p2549
I2
tp2550
a(S'arthur'
p2551
I2
tp2552
a(S'ashamed'
p2553
I2
tp2554
a(S'at-'
p2555
I2
tp2556
a(S'at-at-'
p2557
I2
tp2558
a(S'atleast'
p2559
I2
tp2560
a(S'atmosphere'
p2561
I2
tp2562
a(S'attached'
p2563
I2
tp2564
a(S'attempting'
p2565
I2
tp2566
a(S'back,saeng'
p2567
I2
tp2568
a(S'back\x94'
p2569
I2
tp2570
a(S'beat'
p2571
I2
tp2572
a(S'becase'
p2573
I2
tp2574
a(S'becau'
p2575
I2
tp2576
a(S'before.the'
p2577
I2
tp2578
a(S'beging'
p2579
I2
tp2580
a(S'beyond'
p2581
I2
tp2582
a(S'bidding'
p2583
I2
tp2584
a(S'birth'
p2585
I2
tp2586
a(S'blossomed'
p2587
I2
tp2588
a(S'blossoming'
p2589
I2
tp2590
a(S'blowing'
p2591
I2
tp2592
a(S'body'
p2593
I2
tp2594
a(S'born'
p2595
I2
tp2596
a(S'bout'
p2597
I2
tp2598
a(S'brave'
p2599
I2
tp2600
a(S'bright'
p2601
I2
tp2602
a(S'brighter'
p2603
I2
tp2604
a(S'budding,then'
p2605
I2
tp2606
a(S'call'
p2607
I2
tp2608
a(S"can't"
p2609
I2
tp2610
a(S'cared'
p2611
I2
tp2612
a(S'carring'
p2613
I2
tp2614
a(S'carter'
p2615
I2
tp2616
a(S'catch'
p2617
I2
tp2618
a(S'caused'
p2619
I2
tp2620
a(S'centers.\x94'
p2621
I2
tp2622
a(S'certainly'
p2623
I2
tp2624
a(S'chage'
p2625
I2
tp2626
a(S'characteristic'
p2627
I2
tp2628
a(S'character\x92'
p2629
I2
tp2630
a(S'charater'
p2631
I2
tp2632
a(S'cheek'
p2633
I2
tp2634
a(S'chicory'
p2635
I2
tp2636
a(S'circle'
p2637
I2
tp2638
a(S'citizen'
p2639
I2
tp2640
a(S'cla'
p2641
I2
tp2642
a(S'closer'
p2643
I2
tp2644
a(S'color'
p2645
I2
tp2646
a(S'combination'
p2647
I2
tp2648
a(S'combine'
p2649
I2
tp2650
a(S'combined'
p2651
I2
tp2652
a(S'come.the'
p2653
I2
tp2654
a(S'comeback'
p2655
I2
tp2656
a(S'comfertable'
p2657
I2
tp2658
a(S'completely'
p2659
I2
tp2660
a(S'concentrate'
p2661
I2
tp2662
a(S'concern'
p2663
I2
tp2664
a(S'conclusion.the'
p2665
I2
tp2666
a(S'confent'
p2667
I2
tp2668
a(S'confused'
p2669
I2
tp2670
a(S'connecting'
p2671
I2
tp2672
a(S'considered'
p2673
I2
tp2674
a(S'constantly'
p2675
I2
tp2676
a(S'container'
p2677
I2
tp2678
a(S'contible'
p2679
I2
tp2680
a(S'continuing'
p2681
I2
tp2682
a(S'contribute'
p2683
I2
tp2684
a(S'control'
p2685
I2
tp2686
a(S'cooking'
p2687
I2
tp2688
a(S'corner'
p2689
I2
tp2690
a(S'correction'
p2691
I2
tp2692
a(S'created'
p2693
I2
tp2694
a(S'crie'
p2695
I2
tp2696
a(S'cried'
p2697
I2
tp2698
a(S'current'
p2699
I2
tp2700
a(S'custom'
p2701
I2
tp2702
a(S'daughter\x92'
p2703
I2
tp2704
a(S'dead'
p2705
I2
tp2706
a(S'decied'
p2707
I2
tp2708
a(S'deeper'
p2709
I2
tp2710
a(S'def'
p2711
I2
tp2712
a(S'depression'
p2713
I2
tp2714
a(S'depth'
p2715
I2
tp2716
a(S'description'
p2717
I2
tp2718
a(S'device'
p2719
I2
tp2720
a(S'diction'
p2721
I2
tp2722
a(S'didnt'
p2723
I2
tp2724
a(S'difference'
p2725
I2
tp2726
a(S'differently'
p2727
I2
tp2728
a(S'digging'
p2729
I2
tp2730
a(S'direct'
p2731
I2
tp2732
a(S'dissappointed'
p2733
I2
tp2734
a(S'distance.\x94'
p2735
I2
tp2736
a(S'distance\x94'
p2737
I2
tp2738
a(S'does.the'
p2739
I2
tp2740
a(S'done.the'
p2741
I2
tp2742
a(S'dont'
p2743
I2
tp2744
a(S'dose'
p2745
I2
tp2746
a(S'dream'
p2747
I2
tp2748
a(S'driven'
p2749
I2
tp2750
a(S'drive\x92'
p2751
I2
tp2752
a(S'dug'
p2753
I2
tp2754
a(S'durring'
p2755
I2
tp2756
a(S'early'
p2757
I2
tp2758
a(S'earn'
p2759
I2
tp2760
a(S'eased'
p2761
I2
tp2762
a(S'easier'
p2763
I2
tp2764
a(S'edge'
p2765
I2
tp2766
a(S'effective'
p2767
I2
tp2768
a(S'eger'
p2769
I2
tp2770
a(S'encouraged'
p2771
I2
tp2772
a(S'end.i'
p2773
I2
tp2774
a(S'energy'
p2775
I2
tp2776
a(S'enjoying'
p2777
I2
tp2778
a(S'ensure'
p2779
I2
tp2780
a(S'enviroment'
p2781
I2
tp2782
a(S'essentially'
p2783
I2
tp2784
a(S'eve'
p2785
I2
tp2786
a(S'everybody'
p2787
I2
tp2788
a(S'everyday'
p2789
I2
tp2790
a(S'exerpt'
p2791
I2
tp2792
a(S'experience.the'
p2793
I2
tp2794
a(S'experiencing'
p2795
I2
tp2796
a(S'eyes.\x94'
p2797
I2
tp2798
a(S'fail.the'
p2799
I2
tp2800
a(S'familier'
p2801
I2
tp2802
a(S'far'
p2803
I2
tp2804
a(S'fighter'
p2805
I2
tp2806
a(S'fimilar'
p2807
I2
tp2808
a(S'fine-toothed'
p2809
I2
tp2810
a(S'flourist'
p2811
I2
tp2812
a(S'focusing'
p2813
I2
tp2814
a(S'for.the'
p2815
I2
tp2816
a(S'forced'
p2817
I2
tp2818
a(S'forexample'
p2819
I2
tp2820
a(S'foward'
p2821
I2
tp2822
a(S'fragile'
p2823
I2
tp2824
a(S'frail'
p2825
I2
tp2826
a(S'free'
p2827
I2
tp2828
a(S'frend'
p2829
I2
tp2830
a(S'fully'
p2831
I2
tp2832
a(S'furthermore'
p2833
I2
tp2834
a(S'future.the'
p2835
I2
tp2836
a(S'gentle'
p2837
I2
tp2838
a(S'gesse'
p2839
I2
tp2840
a(S'geting'
p2841
I2
tp2842
a(S'go.the'
p2843
I2
tp2844
a(S'goin'
p2845
I2
tp2846
a(S'grab'
p2847
I2
tp2848
a(S'grasp'
p2849
I2
tp2850
a(S'greenery'
p2851
I2
tp2852
a(S'grip'
p2853
I2
tp2854
a(S'ground.the'
p2855
I2
tp2856
a(S'growin'
p2857
I2
tp2858
a(S'happily'
p2859
I2
tp2860
a(S'happly'
p2861
I2
tp2862
a(S'happy.i'
p2863
I2
tp2864
a(S'hard.the'
p2865
I2
tp2866
a(S'hate'
p2867
I2
tp2868
a(S'hearing'
p2869
I2
tp2870
a(S'hedge?'
p2871
I2
tp2872
a(S'her;'
p2873
I2
tp2874
a(S'herself\x94'
p2875
I2
tp2876
a(S'her\x94'
p2877
I2
tp2878
a(S"hibiscus'"
p2879
I2
tp2880
a(S'hibiscus;'
p2881
I2
tp2882
a(S'hibisu'
p2883
I2
tp2884
a(S'highlight'
p2885
I2
tp2886
a(S'holding'
p2887
I2
tp2888
a(S'home.in'
p2889
I2
tp2890
a(S'hometown'
p2891
I2
tp2892
a(S"i've"
p2893
I2
tp2894
a(S'imagination'
p2895
I2
tp2896
a(S'immigrant'
p2897
I2
tp2898
a(S'immigrating'
p2899
I2
tp2900
a(S'imply'
p2901
I2
tp2902
a(S'improve'
p2903
I2
tp2904
a(S'including'
p2905
I2
tp2906
a(S'indeed'
p2907
I2
tp2908
a(S'indication'
p2909
I2
tp2910
a(S'infer'
p2911
I2
tp2912
a(S'insince'
p2913
I2
tp2914
a(S'integrity'
p2915
I2
tp2916
a(S'intend'
p2917
I2
tp2918
a(S'interest'
p2919
I2
tp2920
a(S'internal'
p2921
I2
tp2922
a(S'interpret'
p2923
I2
tp2924
a(S'interpreted'
p2925
I2
tp2926
a(S'interseting'
p2927
I2
tp2928
a(S'is.the'
p2929
I2
tp2930
a(S'it.i'
p2931
I2
tp2932
a(S'item'
p2933
I2
tp2934
a(S'iti'
p2935
I2
tp2936
a(S'it\x94'
p2937
I2
tp2938
a(S'kept'
p2939
I2
tp2940
a(S'kill'
p2941
I2
tp2942
a(S'kinda'
p2943
I2
tp2944
a(S'kindne'
p2945
I2
tp2946
a(S'knowledge'
p2947
I2
tp2948
a(S'l'
I2
tp2949
a(S'land.the'
p2950
I2
tp2951
a(S'language'
p2952
I2
tp2953
a(S'leaf'
p2954
I2
tp2955
a(S'led'
p2956
I2
tp2957
a(S'level'
p2958
I2
tp2959
a(S'life.i'
p2960
I2
tp2961
a(S'lifethe'
p2962
I2
tp2963
a(S'life\x92'
p2964
I2
tp2965
a(S'lifting'
p2966
I2
tp2967
a(S'lisence'
p2968
I2
tp2969
a(S'list'
p2970
I2
tp2971
a(S'literal'
p2972
I2
tp2973
a(S'location2.the'
p2974
I2
tp2975
a(S'lonely'
p2976
I2
tp2977
a(S'longed'
p2978
I2
tp2979
a(S'lose'
p2980
I2
tp2981
a(S'loss.\x92\x92'
p2982
I2
tp2983
a(S'lucky'
p2984
I2
tp2985
a(S'lush'
p2986
I2
tp2987
a(S'manner'
p2988
I2
tp2989
a(S'mast'
p2990
I2
tp2991
a(S'matter\x94'
p2992
I2
tp2993
a(S'memories.the'
p2994
I2
tp2995
a(S'mental'
p2996
I2
tp2997
a(S'mentioning'
p2998
I2
tp2999
a(S'migration'
p3000
I2
tp3001
a(S'misery'
p3002
I2
tp3003
a(S'mom\x92'
p3004
I2
tp3005
a(S'mother,she'
p3006
I2
tp3007
a(S'mother.\x94'
p3008
I2
tp3009
a(S'motivating'
p3010
I2
tp3011
a(S'mr'
p3012
I2
tp3013
a(S'mud'
p3014
I2
tp3015
a(S'narrative'
p3016
I2
tp3017
a(S'near'
p3018
I2
tp3019
a(S'negative'
p3020
I2
tp3021
a(S'nervou'
p3022
I2
tp3023
a(S'newfound'
p3024
I2
tp3025
a(S'nicely'
p3026
I2
tp3027
a(S'nobody'
p3028
I2
tp3029
a(S'north'
p3030
I2
tp3031
a(S'not.the'
p3032
I2
tp3033
a(S'notice'
p3034
I2
tp3035
a(S'now,\x92\x92'
p3036
I2
tp3037
a(S'num1]'
p3038
I2
tp3039
a(S'num2)'
p3040
I2
tp3041
a(S'nutura'
p3042
I2
tp3043
a(S'obstacle.the'
p3044
I2
tp3045
a(S'obsticte'
p3046
I2
tp3047
a(S'odd'
p3048
I2
tp3049
a(S'often'
p3050
I2
tp3051
a(S'ond'
p3052
I2
tp3053
a(S'one,\x94'
p3054
I2
tp3055
a(S'onto'
p3056
I2
tp3057
a(S'onto.\x94'
p3058
I2
tp3059
a(S'original'
p3060
I2
tp3061
a(S'othe'
p3062
I2
tp3063
a(S'otherwise'
p3064
I2
tp3065
a(S'overcame'
p3066
I2
tp3067
a(S'overwhelmed'
p3068
I2
tp3069
a(S'page'
p3070
I2
tp3071
a(S'palm'
p3072
I2
tp3073
a(S'pan'
p3074
I2
tp3075
a(S'paragraph.it'
p3076
I2
tp3077
a(S'paragraph.she'
p3078
I2
tp3079
a(S'paragraphthe'
p3080
I2
tp3081
a(S'parallel'
p3082
I2
tp3083
a(S'passage.the'
p3084
I2
tp3085
a(S'past.i'
p3086
I2
tp3087
a(S'past.the'
p3088
I2
tp3089
a(S'patch'
p3090
I2
tp3091
a(S'paused'
p3092
I2
tp3093
a(S'pay'
p3094
I2
tp3095
a(S'pedal'
p3096
I2
tp3097
a(S'perfect'
p3098
I2
tp3099
a(S'perserveer'
p3100
I2
tp3101
a(S'perserverance'
p3102
I2
tp3103
a(S'perseverence'
p3104
I2
tp3105
a(S'physical'
p3106
I2
tp3107
a(S'place,and'
p3108
I2
tp3109
a(S'place.the'
p3110
I2
tp3111
a(S'plants.the'
p3112
I2
tp3113
a(S'please'
p3114
I2
tp3115
a(S'plot'
p3116
I2
tp3117
a(S'point.the'
p3118
I2
tp3119
a(S'preparing'
p3120
I2
tp3121
a(S'presented'
p3122
I2
tp3123
a(S'pressure'
p3124
I2
tp3125
a(S'prevail'
p3126
I2
tp3127
a(S'pride'
p3128
I2
tp3129
a(S'principal'
p3130
I2
tp3131
a(S'principle'
p3132
I2
tp3133
a(S'probaly'
p3134
I2
tp3135
a(S'properly'
p3136
I2
tp3137
a(S'pull'
p3138
I2
tp3139
a(S'pungent'
p3140
I2
tp3141
a(S'qualitie'
p3142
I2
tp3143
a(S'quest'
p3144
I2
tp3145
a(S'quietly'
p3146
I2
tp3147
a(S'quitter'
p3148
I2
tp3149
a(S'reach'
p3150
I2
tp3151
a(S'reader\x92'
p3152
I2
tp3153
a(S'realy'
p3154
I2
tp3155
a(S'reasoning'
p3156
I2
tp3157
a(S'reborn'
p3158
I2
tp3159
a(S'rebud'
p3160
I2
tp3161
a(S'rebuild'
p3162
I2
tp3163
a(S'rebuilding'
p3164
I2
tp3165
a(S'recall'
p3166
I2
tp3167
a(S'received'
p3168
I2
tp3169
a(S'reflect'
p3170
I2
tp3171
a(S'reflected'
p3172
I2
tp3173
a(S'reflection'
p3174
I2
tp3175
a(S'related'
p3176
I2
tp3177
a(S'relation'
p3178
I2
tp3179
a(S'reliable'
p3180
I2
tp3181
a(S'remembrance'
p3182
I2
tp3183
a(S'renew'
p3184
I2
tp3185
a(S'replace'
p3186
I2
tp3187
a(S'resolution'
p3188
I2
tp3189
a(S'resolutive'
p3190
I2
tp3191
a(S'resolve'
p3192
I2
tp3193
a(S'reson'
p3194
I2
tp3195
a(S'responsibility'
p3196
I2
tp3197
a(S'restored'
p3198
I2
tp3199
a(S'restricted'
p3200
I2
tp3201
a(S'return.the'
p3202
I2
tp3203
a(S'return.\x94'
p3204
I2
tp3205
a(S'reveal'
p3206
I2
tp3207
a(S'revival'
p3208
I2
tp3209
a(S'reward'
p3210
I2
tp3211
a(S'road'
p3212
I2
tp3213
a(S'root'
p3214
I2
tp3215
a(S'rushing'
p3216
I2
tp3217
a(S'saebba'
p3218
I2
tp3219
a(S"saeng's"
p3220
I2
tp3221
a(S'sand'
p3222
I2
tp3223
a(S'say\x92'
p3224
I2
tp3225
a(S'scared'
p3226
I2
tp3227
a(S'scent-'
p3228
I2
tp3229
a(S'school.the'
p3230
I2
tp3231
a(S'score'
p3232
I2
tp3233
a(S'seang'
p3234
I2
tp3235
a(S'seasons.the'
p3236
I2
tp3237
a(S'secondly'
p3238
I2
tp3239
a(S'seemingly'
p3240
I2
tp3241
a(S'see\x92'
p3242
I2
tp3243
a(S'selection'
p3244
I2
tp3245
a(S'selve'
p3246
I2
tp3247
a(S'sent'
p3248
I2
tp3249
a(S'sentence.saeng'
p3250
I2
tp3251
a(S'sequal'
p3252
I2
tp3253
a(S'sequel'
p3254
I2
tp3255
a(S"she'll"
p3256
I2
tp3257
a(S'shore'
p3258
I2
tp3259
a(S'shouldn\x92t'
p3260
I2
tp3261
a(S'significance'
p3262
I2
tp3263
a(S'signifie'
p3264
I2
tp3265
a(S'similarity'
p3266
I2
tp3267
a(S'situation.after'
p3268
I2
tp3269
a(S'skip'
p3270
I2
tp3271
a(S'slow'
p3272
I2
tp3273
a(S'slowing'
p3274
I2
tp3275
a(S'smart'
p3276
I2
tp3277
a(S'smelling'
p3278
I2
tp3279
a(S'snowing'
p3280
I2
tp3281
a(S'snows!'
p3282
I2
tp3283
a(S'snowy'
p3284
I2
tp3285
a(S'snow\x92'
p3286
I2
tp3287
a(S'solution'
p3288
I2
tp3289
a(S'solve'
p3290
I2
tp3291
a(S'sooner'
p3292
I2
tp3293
a(S'soothe'
p3294
I2
tp3295
a(S'sorry'
p3296
I2
tp3297
a(S'spark'
p3298
I2
tp3299
a(S'speak'
p3300
I2
tp3301
a(S'spring;'
p3302
I2
tp3303
a(S'stability'
p3304
I2
tp3305
a(S'start.the'
p3306
I2
tp3307
a(S'started.the'
p3308
I2
tp3309
a(S'stayed'
p3310
I2
tp3311
a(S'staying'
p3312
I2
tp3313
a(S'stength'
p3314
I2
tp3315
a(S'story.in'
p3316
I2
tp3317
a(S'story.saeng'
p3318
I2
tp3319
a(S'story;'
p3320
I2
tp3321
a(S'stressed'
p3322
I2
tp3323
a(S'string'
p3324
I2
tp3325
a(S'succed'
p3326
I2
tp3327
a(S'successfully'
p3328
I2
tp3329
a(S'suggest'
p3330
I2
tp3331
a(S'summary'
p3332
I2
tp3333
a(S'sunlight'
p3334
I2
tp3335
a(S'table'
p3336
I2
tp3337
a(S'taught'
p3338
I2
tp3339
a(S'tearing'
p3340
I2
tp3341
a(S'tearstain'
p3342
I2
tp3343
a(S'teenage'
p3344
I2
tp3345
a(S'teenager'
p3346
I2
tp3347
a(S'term'
p3348
I2
tp3349
a(S'testing'
p3350
I2
tp3351
a(S'tha'
p3352
I2
tp3353
a(S'thee'
p3354
I2
tp3355
a(S'themes.the'
p3356
I2
tp3357
a(S'there\x92'
p3358
I2
tp3359
a(S"they're"
p3360
I2
tp3361
a(S'they\x92re'
p3362
I2
tp3363
a(S'tho'
p3364
I2
tp3365
a(S'thot'
p3366
I2
tp3367
a(S'three'
p3368
I2
tp3369
a(S'through.the'
p3370
I2
tp3371
a(S'ti'
p3372
I2
tp3373
a(S'tight'
p3374
I2
tp3375
a(S'time.in'
p3376
I2
tp3377
a(S'time.saeng'
p3378
I2
tp3379
a(S'tipped'
p3380
I2
tp3381
a(S'title'
p3382
I2
tp3383
a(S'to.the'
p3384
I2
tp3385
a(S'tock'
p3386
I2
tp3387
a(S'tool'
p3388
I2
tp3389
a(S'toothed'
p3390
I2
tp3391
a(S'topic'
p3392
I2
tp3393
a(S'tought'
p3394
I2
tp3395
a(S'track'
p3396
I2
tp3397
a(S'transition'
p3398
I2
tp3399
a(S'trigger'
p3400
I2
tp3401
a(S'tring'
p3402
I2
tp3403
a(S'triumph'
p3404
I2
tp3405
a(S'truly'
p3406
I2
tp3407
a(S'uncomfortable'
p3408
I2
tp3409
a(S'unhappy'
p3410
I2
tp3411
a(S'unique'
p3412
I2
tp3413
a(S'unlike'
p3414
I2
tp3415
a(S'unsure'
p3416
I2
tp3417
a(S'uplifting'
p3418
I2
tp3419
a(S'vary'
p3420
I2
tp3421
a(S'veggie'
p3422
I2
tp3423
a(S'visceral'
p3424
I2
tp3425
a(S'visit'
p3426
I2
tp3427
a(S'visualize'
p3428
I2
tp3429
a(S'vowel'
p3430
I2
tp3431
a(S'w/thi'
p3432
I2
tp3433
a(S'wall'
p3434
I2
tp3435
a(S'warmed'
p3436
I2
tp3437
a(S'warmer'
p3438
I2
tp3439
a(S'washed'
p3440
I2
tp3441
a(S'watche'
p3442
I2
tp3443
a(S'ways.the'
p3444
I2
tp3445
a(S'weed'
p3446
I2
tp3447
a(S'weird'
p3448
I2
tp3449
a(S'welcome'
p3450
I2
tp3451
a(S'wept'
p3452
I2
tp3453
a(S'what?'
p3454
I2
tp3455
a(S'what\x92'
p3456
I2
tp3457
a(S'whent'
p3458
I2
tp3459
a(S'wile'
p3460
I2
tp3461
a(S'wish'
p3462
I2
tp3463
a(S'withstand'
p3464
I2
tp3465
a(S'words.the'
p3466
I2
tp3467
a(S'worked'
p3468
I2
tp3469
a(S'worried'
p3470
I2
tp3471
a(S'worrying'
p3472
I2
tp3473
a(S'worse'
p3474
I2
tp3475
a(S"wouldn't"
p3476
I2
tp3477
a(S'year.i'
p3478
I2
tp3479
a(S'yelling'
p3480
I2
tp3481
a(S'\x91'
I2
tp3482
a(S'\x91saeng'
p3483
I2
tp3484
a(S'\x92\x92take'
p3485
I2
tp3486
a(S'\x92\x92when'
p3487
I2
tp3488
a(S'\x93(@num1)'
p3489
I2
tp3490
a(S'\x93(ho'
p3491
I2
tp3492
a(S'\x93.thi'
p3493
I2
tp3494
a(S'\x93decided'
p3495
I2
tp3496
a(S'\x93familiar'
p3497
I2
tp3498
a(S'\x93gently'
p3499
I2
tp3500
a(S'\x93her'
p3501
I2
tp3502
a(S'\x93i\x92m'
p3503
I2
tp3504
a(S'\x93i\x92ve'
p3505
I2
tp3506
a(S'\x93let\x92'
p3507
I2
tp3508
a(S'\x93like'
p3509
I2
tp3510
a(S'\x93many'
p3511
I2
tp3512
a(S'\x93strong'
p3513
I2
tp3514
a(S'\x93vowed'
p3515
I2
tp3516
a(S'\x93why'
p3517
I2
tp3518
a(S'\x93you'
p3519
I2
tp3520
a(S'\x94)'
p3521
I2
tp3522
a(S'\x94she'
p3523
I2
tp3524
a(S'&challenge'
p3525
I1
tp3526
a(S"'at"
p3527
I1
tp3528
a(S"'i"
p3529
I1
tp3530
a(S"'it"
p3531
I1
tp3532
a(S"'winter"
p3533
I1
tp3534
a(S'(@num1).the'
p3535
I1
tp3536
a(S'(@num2)'
p3537
I1
tp3538
a(S'(@num2),she'
p3539
I1
tp3540
a(S'(another'
p3541
I1
tp3542
a(S'(dollars)'
p3543
I1
tp3544
a(S'(failing'
p3545
I1
tp3546
a(S'(for'
p3547
I1
tp3548
a(S'(geese)'
p3549
I1
tp3550
a(S'(ho).the'
p3551
I1
tp3552
a(S'(last'
p3553
I1
tp3554
a(S'(minfong'
p3555
I1
tp3556
a(S'(not'
p3557
I1
tp3558
a(S'(perhap'
p3559
I1
tp3560
a(S'(saeng'
p3561
I1
tp3562
a(S'(saeng)'
p3563
I1
tp3564
a(S'(she)'
p3565
I1
tp3566
a(S'(show'
p3567
I1
tp3568
a(S'(this'
p3569
I1
tp3570
a(S'(when'
p3571
I1
tp3572
a(S'(who'
p3573
I1
tp3574
a(S'(writer'
p3575
I1
tp3576
a(S')'
I1
tp3577
a(S'-yes-'
p3578
I1
tp3579
a(S'-yes-familiar'
p3580
I1
tp3581
a(S'-\x93'
p3582
I1
tp3583
a(S'/person'
p3584
I1
tp3585
a(S'/reader'
p3586
I1
tp3587
a(S'1'
I1
tp3588
a(S'?\x94.the'
p3589
I1
tp3590
a(S'[]'
p3591
I1
tp3592
a(S'`@caps1'
p3593
I1
tp3594
a(S'a???'
p3595
I1
tp3596
a(S'aa'
p3597
I1
tp3598
a(S'aasked'
p3599
I1
tp3600
a(S'abilitie'
p3601
I1
tp3602
a(S'abought'
p3603
I1
tp3604
a(S'about.i'
p3605
I1
tp3606
a(S'about.she'
p3607
I1
tp3608
a(S'about.when'
p3609
I1
tp3610
a(S'aboutincluding'
p3611
I1
tp3612
a(S'abrupt'
p3613
I1
tp3614
a(S'abruptly'
p3615
I1
tp3616
a(S'absent'
p3617
I1
tp3618
a(S'accentuate'
p3619
I1
tp3620
a(S'accomplished'
p3621
I1
tp3622
a(S'according'
p3623
I1
tp3624
a(S'accostomed'
p3625
I1
tp3626
a(S'accostumed'
p3627
I1
tp3628
a(S'accustom'
p3629
I1
tp3630
a(S'acentric'
p3631
I1
tp3632
a(S'achieved'
p3633
I1
tp3634
a(S'achievedi'
p3635
I1
tp3636
a(S'act'
p3637
I1
tp3638
a(S'acting'
p3639
I1
tp3640
a(S'acustomed'
p3641
I1
tp3642
a(S'adapte'
p3643
I1
tp3644
a(S'adding'
p3645
I1
tp3646
a(S'addittude'
p3647
I1
tp3648
a(S'adjustment-all'
p3649
I1
tp3650
a(S'adjustment.the'
p3651
I1
tp3652
a(S'adopted'
p3653
I1
tp3654
a(S'adoption'
p3655
I1
tp3656
a(S'adore'
p3657
I1
tp3658
a(S'affect'
p3659
I1
tp3660
a(S'affine'
p3661
I1
tp3662
a(S'afternoon'
p3663
I1
tp3664
a(S'afterward'
p3665
I1
tp3666
a(S'again!'
p3667
I1
tp3668
a(S'again"(ho)'
p3669
I1
tp3670
a(S'again)'
p3671
I1
tp3672
a(S'again,\x93'
p3673
I1
tp3674
a(S'again."i'
p3675
I1
tp3676
a(S'again.also,the'
p3677
I1
tp3678
a(S'again.if'
p3679
I1
tp3680
a(S'again.life'
p3681
I1
tp3682
a(S'again.reson'
p3683
I1
tp3684
a(S'again.saeng'
p3685
I1
tp3686
a(S'again.so'
p3687
I1
tp3688
a(S'again.thi'
p3689
I1
tp3690
a(S'again.why'
p3691
I1
tp3692
a(S'again.winter'
p3693
I1
tp3694
a(S'again.\x92'
p3695
I1
tp3696
a(S'again.\x92\x92'
p3697
I1
tp3698
a(S'again.\x92\x92all'
p3699
I1
tp3700
a(S'again.\x92\x94'
p3701
I1
tp3702
a(S'again.\x93you'
p3703
I1
tp3704
a(S'again.\x94the'
p3705
I1
tp3706
a(S'again.\x94therefore'
p3707
I1
tp3708
a(S'again;'
p3709
I1
tp3710
a(S'againg'
p3711
I1
tp3712
a(S'againin'
p3713
I1
tp3714
a(S'again\x92\x92'
p3715
I1
tp3716
a(S'again\x92\x92(ho)'
p3717
I1
tp3718
a(S'again\x94.the'
p3719
I1
tp3720
a(S'again\x94[@num2]'
p3721
I1
tp3722
a(S'agan'
p3723
I1
tp3724
a(S'agein'
p3725
I1
tp3726
a(S'agien'
p3727
I1
tp3728
a(S'agin.the'
p3729
I1
tp3730
a(S'agonizingly'
p3731
I1
tp3732
a(S'ain\x92t'
p3733
I1
tp3734
a(S'air'
p3735
I1
tp3736
a(S'ajusted'
p3737
I1
tp3738
a(S'alittle'
p3739
I1
tp3740
a(S'all.in'
p3741
I1
tp3742
a(S'all.there'
p3743
I1
tp3744
a(S'alleinate'
p3745
I1
tp3746
a(S'allowed'
p3747
I1
tp3748
a(S'allready'
p3749
I1
tp3750
a(S'allthe'
p3751
I1
tp3752
a(S'alluded'
p3753
I1
tp3754
a(S'along.i'
p3755
I1
tp3756
a(S'aloud'
p3757
I1
tp3758
a(S'also.the'
p3759
I1
tp3760
a(S'alsole'
p3761
I1
tp3762
a(S'american'
p3763
I1
tp3764
a(S'amidst'
p3765
I1
tp3766
a(S'ampasize'
p3767
I1
tp3768
a(S'amphasi'
p3769
I1
tp3770
a(S'analyzed'
p3771
I1
tp3772
a(S'anciou'
p3773
I1
tp3774
a(S'ane'
p3775
I1
tp3776
a(S'anew.the'
p3777
I1
tp3778
a(S'ange'
p3779
I1
tp3780
a(S'anierpaady'
p3781
I1
tp3782
a(S'annoyed'
p3783
I1
tp3784
a(S'annual'
p3785
I1
tp3786
a(S'answer'
p3787
I1
tp3788
a(S'anther'
p3789
I1
tp3790
a(S'anythin'
p3791
I1
tp3792
a(S'anythings.thi'
p3793
I1
tp3794
a(S'aphrase'
p3795
I1
tp3796
a(S'apologize'
p3797
I1
tp3798
a(S'apon'
p3799
I1
tp3800
a(S'appear'
p3801
I1
tp3802
a(S'appreciated'
p3803
I1
tp3804
a(S'appreciation'
p3805
I1
tp3806
a(S'apprecite'
p3807
I1
tp3808
a(S'appriate'
p3809
I1
tp3810
a(S'approach'
p3811
I1
tp3812
a(S'approval'
p3813
I1
tp3814
a(S'approve'
p3815
I1
tp3816
a(S'apreciate'
p3817
I1
tp3818
a(S'archotyal'
p3819
I1
tp3820
a(S'arent'
p3821
I1
tp3822
a(S'ark'
p3823
I1
tp3824
a(S"arn't"
p3825
I1
tp3826
a(S'arn\x92t'
p3827
I1
tp3828
a(S'around.the'
p3829
I1
tp3830
a(S'around.\x93when'
p3831
I1
tp3832
a(S'arrangement'
p3833
I1
tp3834
a(S'as,\x94'
p3835
I1
tp3836
a(S'asia'
p3837
I1
tp3838
a(S'ask'
p3839
I1
tp3840
a(S'asked'
p3841
I1
tp3842
a(S'asking'
p3843
I1
tp3844
a(S'associated'
p3845
I1
tp3846
a(S'assume'
p3847
I1
tp3848
a(S'assumption'
p3849
I1
tp3850
a(S'assure'
p3851
I1
tp3852
a(S'asymbol'
p3853
I1
tp3854
a(S'at-at'
p3855
I1
tp3856
a(S"at-at'"
p3857
I1
tp3858
a(S'at-at-".thi'
p3859
I1
tp3860
a(S'at-at-,\x94'
p3861
I1
tp3862
a(S'at-at\x92'
p3863
I1
tp3864
a(S'ate'
p3865
I1
tp3866
a(S'atempt'
p3867
I1
tp3868
a(S'atey'
p3869
I1
tp3870
a(S'athor'
p3871
I1
tp3872
a(S'atmoshere'
p3873
I1
tp3874
a(S'ator'
p3875
I1
tp3876
a(S'attempted'
p3877
I1
tp3878
a(S'attentive'
p3879
I1
tp3880
a(S'auethor'
p3881
I1
tp3882
a(S'authar'
p3883
I1
tp3884
a(S"author'"
p3885
I1
tp3886
a(S'authorby'
p3887
I1
tp3888
a(S'authore'
p3889
I1
tp3890
a(S'authr'
p3891
I1
tp3892
a(S'autor'
p3893
I1
tp3894
a(S'aware'
p3895
I1
tp3896
a(S'away.i'
p3897
I1
tp3898
a(S'away.saeng'
p3899
I1
tp3900
a(S'away;'
p3901
I1
tp3902
a(S'awkward'
p3903
I1
tp3904
a(S'babie'
p3905
I1
tp3906
a(S'back,\x92'
p3907
I1
tp3908
a(S'back,\x94'
p3909
I1
tp3910
a(S'back...then'
p3911
I1
tp3912
a(S'back.that'
p3913
I1
tp3914
a(S'back.when'
p3915
I1
tp3916
a(S'back.will'
p3917
I1
tp3918
a(S'backabout'
p3919
I1
tp3920
a(S'badly'
p3921
I1
tp3922
a(S'baety.when'
p3923
I1
tp3924
a(S'baised'
p3925
I1
tp3926
a(S'balance'
p3927
I1
tp3928
a(S'balancing'
p3929
I1
tp3930
a(S'ball'
p3931
I1
tp3932
a(S'bank'
p3933
I1
tp3934
a(S'base'
p3935
I1
tp3936
a(S'based'
p3937
I1
tp3938
a(S'basi'
p3939
I1
tp3940
a(S'basically.thi'
p3941
I1
tp3942
a(S'basiclly'
p3943
I1
tp3944
a(S'batter'
p3945
I1
tp3946
a(S'be.the'
p3947
I1
tp3948
a(S'beach'
p3949
I1
tp3950
a(S'bease'
p3951
I1
tp3952
a(S'beatiful'
p3953
I1
tp3954
a(S'beating'
p3955
I1
tp3956
a(S'beauitful'
p3957
I1
tp3958
a(S'beautie'
p3959
I1
tp3960
a(S'beautiful.it'
p3961
I1
tp3962
a(S'beautiful.the'
p3963
I1
tp3964
a(S'beautifully'
p3965
I1
tp3966
a(S'beautifulthe'
p3967
I1
tp3968
a(S'becaming'
p3969
I1
tp3970
a(S'become\x94'
p3971
I1
tp3972
a(S'becuose'
p3973
I1
tp3974
a(S'becuse'
p3975
I1
tp3976
a(S'bee-maags\x94'
p3977
I1
tp3978
a(S'beest'
p3979
I1
tp3980
a(S'beet'
p3981
I1
tp3982
a(S'befall'
p3983
I1
tp3984
a(S'before.\x94thi'
p3985
I1
tp3986
a(S'before\x92'
p3987
I1
tp3988
a(S'before\x94'
p3989
I1
tp3990
a(S'begain'
p3991
I1
tp3992
a(S'begaing'
p3993
I1
tp3994
a(S'began.i'
p3995
I1
tp3996
a(S'beggening'
p3997
I1
tp3998
a(S'beginging'
p3999
I1
tp4000
a(S'begininig'
p4001
I1
tp4002
a(S'beginnig'
p4003
I1
tp4004
a(S'beginning.maybe'
p4005
I1
tp4006
a(S'beginning.the'
p4007
I1
tp4008
a(S'beginningin'
p4009
I1
tp4010
a(S'beginnings.she'
p4011
I1
tp4012
a(S'beginnings.what'
p4013
I1
tp4014
a(S'beginningthe'
p4015
I1
tp4016
a(S'beguin'
p4017
I1
tp4018
a(S'begun'
p4019
I1
tp4020
a(S'behavoir-all'
p4021
I1
tp4022
a(S'beign'
p4023
I1
tp4024
a(S'believing'
p4025
I1
tp4026
a(S'belive.the'
p4027
I1
tp4028
a(S'belonged'
p4029
I1
tp4030
a(S'benefit'
p4031
I1
tp4032
a(S'best.the'
p4033
I1
tp4034
a(S'better.why'
p4035
I1
tp4036
a(S'beuttifl'
p4037
I1
tp4038
a(S'bibiscu'
p4039
I1
tp4040
a(S'bidding)'
p4041
I1
tp4042
a(S'bidding\x94'
p4043
I1
tp4044
a(S'big-mac.the'
p4045
I1
tp4046
a(S'bind'
p4047
I1
tp4048
a(S'biological'
p4049
I1
tp4050
a(S'biscu'
p4051
I1
tp4052
a(S'bits\x94'
p4053
I1
tp4054
a(S'bitter.minfong'
p4055
I1
tp4056
a(S'bitterne'
p4057
I1
tp4058
a(S'blese'
p4059
I1
tp4060
a(S'blessings.i'
p4061
I1
tp4062
a(S'blink.\x94'
p4063
I1
tp4064
a(S'blive'
p4065
I1
tp4066
a(S'blizzared'
p4067
I1
tp4068
a(S'bloming'
p4069
I1
tp4070
a(S'blomming'
p4071
I1
tp4072
a(S'blommming'
p4073
I1
tp4074
a(S'blooming.the'
p4075
I1
tp4076
a(S'blooms.the'
p4077
I1
tp4078
a(S'blossed'
p4079
I1
tp4080
a(S'blossom.to'
p4081
I1
tp4082
a(S'blossome.the'
p4083
I1
tp4084
a(S'blossoms.the'
p4085
I1
tp4086
a(S'blown'
p4087
I1
tp4088
a(S'blue'
p4089
I1
tp4090
a(S'blume'
p4091
I1
tp4092
a(S'blutal'
p4093
I1
tp4094
a(S'boaght'
p4095
I1
tp4096
a(S'boby'
p4097
I1
tp4098
a(S'bock'
p4099
I1
tp4100
a(S'bond'
p4101
I1
tp4102
a(S'book.the'
p4103
I1
tp4104
a(S'bottom'
p4105
I1
tp4106
a(S'bought\x94'
p4107
I1
tp4108
a(S'bougth'
p4109
I1
tp4110
a(S'bound'
p4111
I1
tp4112
a(S'bowl'
p4113
I1
tp4114
a(S'box'
p4115
I1
tp4116
a(S'brake'
p4117
I1
tp4118
a(S'brand'
p4119
I1
tp4120
a(S'breakdown'
p4121
I1
tp4122
a(S'breeze'
p4123
I1
tp4124
a(S'brick'
p4125
I1
tp4126
a(S'brief'
p4127
I1
tp4128
a(S'bringing'
p4129
I1
tp4130
a(S'brining'
p4131
I1
tp4132
a(S'brong'
p4133
I1
tp4134
a(S'brutal'
p4135
I1
tp4136
a(S'bucking'
p4137
I1
tp4138
a(S'bud/bloom'
p4139
I1
tp4140
a(S'budded'
p4141
I1
tp4142
a(S'budded.the'
p4143
I1
tp4144
a(S'buddin'
p4145
I1
tp4146
a(S'budding(being'
p4147
I1
tp4148
a(S'budding,\x93'
p4149
I1
tp4150
a(S'budding...\x94'
p4151
I1
tp4152
a(S'buddling'
p4153
I1
tp4154
a(S'buddng'
p4155
I1
tp4156
a(S'budds.the'
p4157
I1
tp4158
a(S'buddy'
p4159
I1
tp4160
a(S'buds'
p4161
I1
tp4162
a(S'buds.in'
p4163
I1
tp4164
a(S'buetiful'
p4165
I1
tp4166
a(S'buffalo-horn'
p4167
I1
tp4168
a(S'building'
p4169
I1
tp4170
a(S'bump'
p4171
I1
tp4172
a(S'burnt'
p4173
I1
tp4174
a(S'bush'
p4175
I1
tp4176
a(S'bushe'
p4177
I1
tp4178
a(S'butt'
p4179
I1
tp4180
a(S'buyin'
p4181
I1
tp4182
a(S'by,their'
p4183
I1
tp4184
a(S'by.\x94when'
p4185
I1
tp4186
a(S'by\x94'
p4187
I1
tp4188
a(S'calming\x94'
p4189
I1
tp4190
a(S'cam'
p4191
I1
tp4192
a(S'camitmint'
p4193
I1
tp4194
a(S'canadian'
p4195
I1
tp4196
a(S'canre'
p4197
I1
tp4198
a(S'capable'
p4199
I1
tp4200
a(S'capacity'
p4201
I1
tp4202
a(S'caps1.s'
p4203
I1
tp4204
a(S'caps1.the'
p4205
I1
tp4206
a(S'caps1i'
p4207
I1
tp4208
a(S"caps2'"
p4209
I1
tp4210
a(S'caps2)she'
p4211
I1
tp4212
a(S'caps2.k'
p4213
I1
tp4214
a(S'caps2.the'
p4215
I1
tp4216
a(S'caps2/@caps3'
p4217
I1
tp4218
a(S'caps3.saeng'
p4219
I1
tp4220
a(S"caps4't"
p4221
I1
tp4222
a(S'capture'
p4223
I1
tp4224
a(S"care'"
p4225
I1
tp4226
a(S'carrie'
p4227
I1
tp4228
a(S'carried'
p4229
I1
tp4230
a(S'cat'
p4231
I1
tp4232
a(S'caught'
p4233
I1
tp4234
a(S'causing'
p4235
I1
tp4236
a(S'ceizor'
p4237
I1
tp4238
a(S'cent'
p4239
I1
tp4240
a(S'center-'
p4241
I1
tp4242
a(S'centers\x94'
p4243
I1
tp4244
a(S'central'
p4245
I1
tp4246
a(S'centre\x94'
p4247
I1
tp4248
a(S'certaint'
p4249
I1
tp4250
a(S'chanellge'
p4251
I1
tp4252
a(S'chang'
p4253
I1
tp4254
a(S'change.i'
p4255
I1
tp4256
a(S'change.in'
p4257
I1
tp4258
a(S'changed.i'
p4259
I1
tp4260
a(S'changeing'
p4261
I1
tp4262
a(S'changes.the'
p4263
I1
tp4264
a(S'changes.well'
p4265
I1
tp4266
a(S'changesthe'
p4267
I1
tp4268
a(S'changing.the'
p4269
I1
tp4270
a(S'chase'
p4271
I1
tp4272
a(S'cheeck'
p4273
I1
tp4274
a(S'cheerful'
p4275
I1
tp4276
a(S'cheerfully\x94'
p4277
I1
tp4278
a(S'children'
p4279
I1
tp4280
a(S'child\x92'
p4281
I1
tp4282
a(S'chosen'
p4283
I1
tp4284
a(S'circle.i'
p4285
I1
tp4286
a(S'citizenship'
p4287
I1
tp4288
a(S'city'
p4289
I1
tp4290
a(S'clash'
p4291
I1
tp4292
a(S'classe'
p4293
I1
tp4294
a(S'clean'
p4295
I1
tp4296
a(S'cleaning'
p4297
I1
tp4298
a(S'clear,\x94'
p4299
I1
tp4300
a(S'cliff'
p4301
I1
tp4302
a(S'cliff-hange'
p4303
I1
tp4304
a(S'cliffhanger'
p4305
I1
tp4306
a(S'cliffhaofer'
p4307
I1
tp4308
a(S'clock'
p4309
I1
tp4310
a(S'closet'
p4311
I1
tp4312
a(S'closeur'
p4313
I1
tp4314
a(S'clude'
p4315
I1
tp4316
a(S'cnclude'
p4317
I1
tp4318
a(S'coache'
p4319
I1
tp4320
a(S'coarge'
p4321
I1
tp4322
a(S'coin'
p4323
I1
tp4324
a(S'cold.\x93when'
p4325
I1
tp4326
a(S'colder'
p4327
I1
tp4328
a(S'collective'
p4329
I1
tp4330
a(S'colorful'
p4331
I1
tp4332
a(S'colosing'
p4333
I1
tp4334
a(S'comb?'
p4335
I1
tp4336
a(S'combed'
p4337
I1
tp4338
a(S'combided'
p4339
I1
tp4340
a(S'combining'
p4341
I1
tp4342
a(S'come?'
p4343
I1
tp4344
a(S'comei'
p4345
I1
tp4346
a(S'comes.i'
p4347
I1
tp4348
a(S'comes.in'
p4349
I1
tp4350
a(S'comfirtable'
p4351
I1
tp4352
a(S'comfortably'
p4353
I1
tp4354
a(S'comforte'
p4355
I1
tp4356
a(S'comited'
p4357
I1
tp4358
a(S'comitmint'
p4359
I1
tp4360
a(S'comittment'
p4361
I1
tp4362
a(S'comming'
p4363
I1
tp4364
a(S'commiting'
p4365
I1
tp4366
a(S'commitment'
p4367
I1
tp4368
a(S'committed'
p4369
I1
tp4370
a(S'common'
p4371
I1
tp4372
a(S'communicating'
p4373
I1
tp4374
a(S'comng'
p4375
I1
tp4376
a(S'completing'
p4377
I1
tp4378
a(S'completly'
p4379
I1
tp4380
a(S'complex'
p4381
I1
tp4382
a(S'comrade'
p4383
I1
tp4384
a(S'concentrat'
p4385
I1
tp4386
a(S'concentrating'
p4387
I1
tp4388
a(S'concentratted'
p4389
I1
tp4390
a(S'concerned'
p4391
I1
tp4392
a(S'concideration'
p4393
I1
tp4394
a(S'conclde'
p4395
I1
tp4396
a(S'conclded'
p4397
I1
tp4398
a(S'conclued'
p4399
I1
tp4400
a(S'conclusion.saeng'
p4401
I1
tp4402
a(S'conclution'
p4403
I1
tp4404
a(S'concor'
p4405
I1
tp4406
a(S'conditions.the'
p4407
I1
tp4408
a(S'conferdence'
p4409
I1
tp4410
a(S'confidance'
p4411
I1
tp4412
a(S'confidence.the'
p4413
I1
tp4414
a(S'confidence.thi'
p4415
I1
tp4416
a(S'confident.the'
p4417
I1
tp4418
a(S'confident.thi'
p4419
I1
tp4420
a(S'confined'
p4421
I1
tp4422
a(S'conflicts.the'
p4423
I1
tp4424
a(S'confodence'
p4425
I1
tp4426
a(S'confortable'
p4427
I1
tp4428
a(S'conforted'
p4429
I1
tp4430
a(S'confusion'
p4431
I1
tp4432
a(S'conlud'
p4433
I1
tp4434
a(S'conlude'
p4435
I1
tp4436
a(S'connent'
p4437
I1
tp4438
a(S'connteced'
p4439
I1
tp4440
a(S'conquered.in'
p4441
I1
tp4442
a(S'consider'
p4443
I1
tp4444
a(S'consist'
p4445
I1
tp4446
a(S'consolte'
p4447
I1
tp4448
a(S'constant'
p4449
I1
tp4450
a(S'consume'
p4451
I1
tp4452
a(S'consumer'
p4453
I1
tp4454
a(S'contain'
p4455
I1
tp4456
a(S'continuation'
p4457
I1
tp4458
a(S'continueation'
p4459
I1
tp4460
a(S'continued'
p4461
I1
tp4462
a(S'continuly'
p4463
I1
tp4464
a(S'contrey'
p4465
I1
tp4466
a(S'contrury'
p4467
I1
tp4468
a(S'cook'
p4469
I1
tp4470
a(S'coped'
p4471
I1
tp4472
a(S'coping'
p4473
I1
tp4474
a(S'core'
p4475
I1
tp4476
a(S'correct'
p4477
I1
tp4478
a(S'correspond'
p4479
I1
tp4480
a(S'coucluding'
p4481
I1
tp4482
a(S"couldn't"
p4483
I1
tp4484
a(S'couldnt'
p4485
I1
tp4486
a(S'counclude'
p4487
I1
tp4488
a(S'count'
p4489
I1
tp4490
a(S'countrie'
p4491
I1
tp4492
a(S'country.i'
p4493
I1
tp4494
a(S'country.in'
p4495
I1
tp4496
a(S'country.mingfong'
p4497
I1
tp4498
a(S'country.promise'
p4499
I1
tp4500
a(S'country.\x94'
p4501
I1
tp4502
a(S'country\x92'
p4503
I1
tp4504
a(S'course'
p4505
I1
tp4506
a(S'covered'
p4507
I1
tp4508
a(S'cran'
p4509
I1
tp4510
a(S'creating'
p4511
I1
tp4512
a(S'creatively'
p4513
I1
tp4514
a(S'crushed'
p4515
I1
tp4516
a(S'cry.the'
p4517
I1
tp4518
a(S'crying.\x94'
p4519
I1
tp4520
a(S'customer'
p4521
I1
tp4522
a(S'cynical'
p4523
I1
tp4524
a(S'd-d'
p4525
I1
tp4526
a(S'daily'
p4527
I1
tp4528
a(S'damage'
p4529
I1
tp4530
a(S'damn'
p4531
I1
tp4532
a(S'danger'
p4533
I1
tp4534
a(S'dark'
p4535
I1
tp4536
a(S"daughter'"
p4537
I1
tp4538
a(S'de'
p4539
I1
tp4540
a(S'deafeted'
p4541
I1
tp4542
a(S'dealhtith'
p4543
I1
tp4544
a(S'dealing'
p4545
I1
tp4546
a(S'dear'
p4547
I1
tp4548
a(S'dearly'
p4549
I1
tp4550
a(S'death'
p4551
I1
tp4552
a(S'deciede'
p4553
I1
tp4554
a(S'declare'
p4555
I1
tp4556
a(S'dedicated'
p4557
I1
tp4558
a(S'dedication'
p4559
I1
tp4560
a(S'deeply\x94'
p4561
I1
tp4562
a(S'defeat'
p4563
I1
tp4564
a(S'defeated'
p4565
I1
tp4566
a(S'definatly'
p4567
I1
tp4568
a(S'definetly'
p4569
I1
tp4570
a(S'deftly'
p4571
I1
tp4572
a(S'deicide'
p4573
I1
tp4574
a(S'dejected'
p4575
I1
tp4576
a(S'delicate'
p4577
I1
tp4578
a(S'delight'
p4579
I1
tp4580
a(S'delight.\x94'
p4581
I1
tp4582
a(S'delinlted'
p4583
I1
tp4584
a(S'demanding'
p4585
I1
tp4586
a(S'depend'
p4587
I1
tp4588
a(S'depicted'
p4589
I1
tp4590
a(S'deppresed'
p4591
I1
tp4592
a(S'depre'
p4593
I1
tp4594
a(S'descovered'
p4595
I1
tp4596
a(S'described'
p4597
I1
tp4598
a(S'desdion'
p4599
I1
tp4600
a(S'deserve'
p4601
I1
tp4602
a(S'desirable'
p4603
I1
tp4604
a(S'desperately'
p4605
I1
tp4606
a(S'despise'
p4607
I1
tp4608
a(S'destroy'
p4609
I1
tp4610
a(S'detatchment'
p4611
I1
tp4612
a(S'deterimined'
p4613
I1
tp4614
a(S'determed'
p4615
I1
tp4616
a(S'determinated'
p4617
I1
tp4618
a(S'determination.in'
p4619
I1
tp4620
a(S'determind'
p4621
I1
tp4622
a(S'determinded'
p4623
I1
tp4624
a(S'determine'
p4625
I1
tp4626
a(S'determined.the'
p4627
I1
tp4628
a(S'determinedne'
p4629
I1
tp4630
a(S'determing'
p4631
I1
tp4632
a(S'detirmen'
p4633
I1
tp4634
a(S'devoted'
p4635
I1
tp4636
a(S'dheredulously'
p4637
I1
tp4638
a(S'dialogue'
p4639
I1
tp4640
a(S'dicide'
p4641
I1
tp4642
a(S'did.i'
p4643
I1
tp4644
a(S'did.in'
p4645
I1
tp4646
a(S'did.saeng'
p4647
I1
tp4648
a(S'die.in'
p4649
I1
tp4650
a(S'diff'
p4651
I1
tp4652
a(S'diffent'
p4653
I1
tp4654
a(S'difficuilty'
p4655
I1
tp4656
a(S'difficultly'
p4657
I1
tp4658
a(S'difficulty'
p4659
I1
tp4660
a(S'dilemma'
p4661
I1
tp4662
a(S'dinner.he'
p4663
I1
tp4664
a(S'din\x92t'
p4665
I1
tp4666
a(S'direction'
p4667
I1
tp4668
a(S'disagree'
p4669
I1
tp4670
a(S'disapear'
p4671
I1
tp4672
a(S'disappearing'
p4673
I1
tp4674
a(S'disappointe'
p4675
I1
tp4676
a(S'disbelief'
p4677
I1
tp4678
a(S'discomfort'
p4679
I1
tp4680
a(S'discourage'
p4681
I1
tp4682
a(S'discouraged'
p4683
I1
tp4684
a(S'discovered'
p4685
I1
tp4686
a(S'discrepancy'
p4687
I1
tp4688
a(S'discribe'
p4689
I1
tp4690
a(S'discussed'
p4691
I1
tp4692
a(S'discussion'
p4693
I1
tp4694
a(S'dishearted'
p4695
I1
tp4696
a(S'disheartened'
p4697
I1
tp4698
a(S'disliked'
p4699
I1
tp4700
a(S'dispite'
p4701
I1
tp4702
a(S'displease'
p4703
I1
tp4704
a(S'displeased'
p4705
I1
tp4706
a(S'dissapointment'
p4707
I1
tp4708
a(S'dissappoinment'
p4709
I1
tp4710
a(S'dissatisified'
p4711
I1
tp4712
a(S'distant'
p4713
I1
tp4714
a(S'distract'
p4715
I1
tp4716
a(S'distraught.in'
p4717
I1
tp4718
a(S'distress\x94'
p4719
I1
tp4720
a(S'distrout'
p4721
I1
tp4722
a(S'distsnt'
p4723
I1
tp4724
a(S'diver'
p4725
I1
tp4726
a(S'diving'
p4727
I1
tp4728
a(S'do.he'
p4729
I1
tp4730
a(S'do.to'
p4731
I1
tp4732
a(S'doesn\xe2\x80\x99t'
p4733
I1
tp4734
a(S'dollars\x94'
p4735
I1
tp4736
a(S'domestic'
p4737
I1
tp4738
a(S'done.\x93if'
p4739
I1
tp4740
a(S'donethe'
p4741
I1
tp4742
a(S'dorl'
p4743
I1
tp4744
a(S'dormant'
p4745
I1
tp4746
a(S'dosene'
p4747
I1
tp4748
a(S'dosent'
p4749
I1
tp4750
a(S'dotted'
p4751
I1
tp4752
a(S'down.the'
p4753
I1
tp4754
a(S'downfall'
p4755
I1
tp4756
a(S'drama'
p4757
I1
tp4758
a(S'dramatic'
p4759
I1
tp4760
a(S'drawing'
p4761
I1
tp4762
a(S'drawn'
p4763
I1
tp4764
a(S'dre'
p4765
I1
tp4766
a(S'dreaming'
p4767
I1
tp4768
a(S'drift'
p4769
I1
tp4770
a(S'driverd'
p4771
I1
tp4772
a(S'drivers\x92'
p4773
I1
tp4774
a(S'duck'
p4775
I1
tp4776
a(S'dusk'
p4777
I1
tp4778
a(S'dust'
p4779
I1
tp4780
a(S'dwelling'
p4781
I1
tp4782
a(S'eaither'
p4783
I1
tp4784
a(S'earely'
p4785
I1
tp4786
a(S'earth'
p4787
I1
tp4788
a(S'easly'
p4789
I1
tp4790
a(S'easyer'
p4791
I1
tp4792
a(S'eating'
p4793
I1
tp4794
a(S'ed'
p4795
I1
tp4796
a(S'effect.i'
p4797
I1
tp4798
a(S'effect.the'
p4799
I1
tp4800
a(S'effectively'
p4801
I1
tp4802
a(S'efficient'
p4803
I1
tp4804
a(S'egg'
p4805
I1
tp4806
a(S'eld'
p4807
I1
tp4808
a(S'elder'
p4809
I1
tp4810
a(S'eldersin'
p4811
I1
tp4812
a(S'element'
p4813
I1
tp4814
a(S'else.the'
p4815
I1
tp4816
a(S'emblem'
p4817
I1
tp4818
a(S'embrace'
p4819
I1
tp4820
a(S'embracing'
p4821
I1
tp4822
a(S'emotionally'
p4823
I1
tp4824
a(S'emphasi'
p4825
I1
tp4826
a(S'emphasises'
p4827
I1
tp4828
a(S'emphasizing'
p4829
I1
tp4830
a(S'emphazing'
p4831
I1
tp4832
a(S'emphesi'
p4833
I1
tp4834
a(S'emphisise'
p4835
I1
tp4836
a(S'employee'
p4837
I1
tp4838
a(S'emptied'
p4839
I1
tp4840
a(S'encompasse'
p4841
I1
tp4842
a(S'encouragment'
p4843
I1
tp4844
a(S'end.in'
p4845
I1
tp4846
a(S'end.the'
p4847
I1
tp4848
a(S'end;'
p4849
I1
tp4850
a(S'endding'
p4851
I1
tp4852
a(S'endeded'
p4853
I1
tp4854
a(S'endend'
p4855
I1
tp4856
a(S'ending.i'
p4857
I1
tp4858
a(S'endthe'
p4859
I1
tp4860
a(S'endurance'
p4861
I1
tp4862
a(S'endyat'
p4863
I1
tp4864
a(S'ened'
p4865
I1
tp4866
a(S'english'
p4867
I1
tp4868
a(S'enlightened'
p4869
I1
tp4870
a(S'enlightenment'
p4871
I1
tp4872
a(S'entered'
p4873
I1
tp4874
a(S'ently'
p4875
I1
tp4876
a(S'entwined'
p4877
I1
tp4878
a(S'enuff'
p4879
I1
tp4880
a(S'enviorment'
p4881
I1
tp4882
a(S'environments..the'
p4883
I1
tp4884
a(S'envoke'
p4885
I1
tp4886
a(S'envoked'
p4887
I1
tp4888
a(S'epiphany'
p4889
I1
tp4890
a(S'equal'
p4891
I1
tp4892
a(S'equate'
p4893
I1
tp4894
a(S'equivlent'
p4895
I1
tp4896
a(S'erlier'
p4897
I1
tp4898
a(S'ery'
p4899
I1
tp4900
a(S'escaping'
p4901
I1
tp4902
a(S'esteem'
p4903
I1
tp4904
a(S'etact'
p4905
I1
tp4906
a(S'etche'
p4907
I1
tp4908
a(S'etered'
p4909
I1
tp4910
a(S'event\x92'
p4911
I1
tp4912
a(S'evenyone'
p4913
I1
tp4914
a(S'everlasting'
p4915
I1
tp4916
a(S'everthing'
p4917
I1
tp4918
a(S'everything.in'
p4919
I1
tp4920
a(S'everytime'
p4921
I1
tp4922
a(S'everywhere'
p4923
I1
tp4924
a(S'eviorment'
p4925
I1
tp4926
a(S'evironment'
p4927
I1
tp4928
a(S'exact'
p4929
I1
tp4930
a(S'exam'
p4931
I1
tp4932
a(S'examine'
p4933
I1
tp4934
a(S'excellent'
p4935
I1
tp4936
a(S'exciting'
p4937
I1
tp4938
a(S'exhibit'
p4939
I1
tp4940
a(S'exotic'
p4941
I1
tp4942
a(S'expectance'
p4943
I1
tp4944
a(S'expecting'
p4945
I1
tp4946
a(S'experiance'
p4947
I1
tp4948
a(S'experience.i'
p4949
I1
tp4950
a(S'experiment'
p4951
I1
tp4952
a(S'expierance'
p4953
I1
tp4954
a(S'explained'
p4955
I1
tp4956
a(S'explaing'
p4957
I1
tp4958
a(S'explan'
p4959
I1
tp4960
a(S'explaning'
p4961
I1
tp4962
a(S'explayn'
p4963
I1
tp4964
a(S'explayne'
p4965
I1
tp4966
a(S'exploding'
p4967
I1
tp4968
a(S'exploin'
p4969
I1
tp4970
a(S'explore'
p4971
I1
tp4972
a(S'exposure'
p4973
I1
tp4974
a(S'expressing'
p4975
I1
tp4976
a(S'expression'
p4977
I1
tp4978
a(S'exsploring'
p4979
I1
tp4980
a(S'external'
p4981
I1
tp4982
a(S'extract'
p4983
I1
tp4984
a(S'extraordinary'
p4985
I1
tp4986
a(S'extremely'
p4987
I1
tp4988
a(S'eye,\x94'
p4989
I1
tp4990
a(S'eye\x94'
p4991
I1
tp4992
a(S'faces.in'
p4993
I1
tp4994
a(S'faces.why'
p4995
I1
tp4996
a(S'faeled'
p4997
I1
tp4998
a(S'faeng'
p4999
I1
tp5000
a(S'faeng-'
p5001
I1
tp5002
a(S'faeng-nor\x94'
p5003
I1
tp5004
a(S'failing.i'
p5005
I1
tp5006
a(S'failingthere'
p5007
I1
tp5008
a(S'failled'
p5009
I1
tp5010
a(S'failure.the'
p5011
I1
tp5012
a(S'failurecome'
p5013
I1
tp5014
a(S'fair'
p5015
I1
tp5016
a(S'fake'
p5017
I1
tp5018
a(S'faldse'
p5019
I1
tp5020
a(S'faled'
p5021
I1
tp5022
a(S'falled'
p5023
I1
tp5024
a(S'famed'
p5025
I1
tp5026
a(S'familar'
p5027
I1
tp5028
a(S'familarity'
p5029
I1
tp5030
a(S'fare'
p5031
I1
tp5032
a(S'farmland'
p5033
I1
tp5034
a(S'farmllular'
p5035
I1
tp5036
a(S'fashion'
p5037
I1
tp5038
a(S'fast'
p5039
I1
tp5040
a(S'fating'
p5041
I1
tp5042
a(S'favirte'
p5043
I1
tp5044
a(S'favoriteplant'
p5045
I1
tp5046
a(S'fear'
p5047
I1
tp5048
a(S'feature'
p5049
I1
tp5050
a(S'feeling.the'
p5051
I1
tp5052
a(S'feelingsshe'
p5053
I1
tp5054
a(S'feels.the'
p5055
I1
tp5056
a(S'feel\x94'
p5057
I1
tp5058
a(S'felling'
p5059
I1
tp5060
a(S'femiliar'
p5061
I1
tp5062
a(S'fence'
p5063
I1
tp5064
a(S'fereshadow'
p5065
I1
tp5066
a(S'figurative'
p5067
I1
tp5068
a(S'figured'
p5069
I1
tp5070
a(S'figurer'
p5071
I1
tp5072
a(S'fil'
p5073
I1
tp5074
a(S'fine-foothed'
p5075
I1
tp5076
a(S'finising'
p5077
I1
tp5078
a(S'firm'
p5079
I1
tp5080
a(S'firmilar'
p5081
I1
tp5082
a(S'firmiliar'
p5083
I1
tp5084
a(S'first;'
p5085
I1
tp5086
a(S'fix'
p5087
I1
tp5088
a(S'flawall'
p5089
I1
tp5090
a(S'fleeing'
p5091
I1
tp5092
a(S'flewaway'
p5093
I1
tp5094
a(S'flock/fasten'
p5095
I1
tp5096
a(S'floral'
p5097
I1
tp5098
a(S'florishing'
p5099
I1
tp5100
a(S'florist\x92'
p5101
I1
tp5102
a(S'florizd'
p5103
I1
tp5104
a(S'flour'
p5105
I1
tp5106
a(S'flourish'
p5107
I1
tp5108
a(S'flourishing'
p5109
I1
tp5110
a(S"flower'"
p5111
I1
tp5112
a(S'flower.i'
p5113
I1
tp5114
a(S'flower.in'
p5115
I1
tp5116
a(S'flower.now'
p5117
I1
tp5118
a(S'flower.saeng'
p5119
I1
tp5120
a(S'flower/plant'
p5121
I1
tp5122
a(S'flowering'
p5123
I1
tp5124
a(S'flowers'
p5125
I1
tp5126
a(S'flowers.i'
p5127
I1
tp5128
a(S'flowers.the'
p5129
I1
tp5130
a(S'flowershop'
p5131
I1
tp5132
a(S'flowerthe'
p5133
I1
tp5134
a(S'flowr'
p5135
I1
tp5136
a(S'flowrist'
p5137
I1
tp5138
a(S'focus.i'
p5139
I1
tp5140
a(S'focuse'
p5141
I1
tp5142
a(S'foe'
p5143
I1
tp5144
a(S'fon'
p5145
I1
tp5146
a(S'fong'
p5147
I1
tp5148
a(S'foot'
p5149
I1
tp5150
a(S'ford'
p5151
I1
tp5152
a(S'foregivene'
p5153
I1
tp5154
a(S'foreward'
p5155
I1
tp5156
a(S'forexemple'
p5157
I1
tp5158
a(S'forgave'
p5159
I1
tp5160
a(S'forge'
p5161
I1
tp5162
a(S'forget.the'
p5163
I1
tp5164
a(S'formingthe'
p5165
I1
tp5166
a(S'fort'
p5167
I1
tp5168
a(S'foward.i'
p5169
I1
tp5170
a(S'frame'
p5171
I1
tp5172
a(S'fresh/new'
p5173
I1
tp5174
a(S'fried'
p5175
I1
tp5176
a(S'friend.\x94'
p5177
I1
tp5178
a(S'friendship'
p5179
I1
tp5180
a(S'friends\x94'
p5181
I1
tp5182
a(S'friend\x94'
p5183
I1
tp5184
a(S'frogrence'
p5185
I1
tp5186
a(S'from.the'
p5187
I1
tp5188
a(S'frome'
p5189
I1
tp5190
a(S'front'
p5191
I1
tp5192
a(S'frst'
p5193
I1
tp5194
a(S'fruit'
p5195
I1
tp5196
a(S'fullest'
p5197
I1
tp5198
a(S'function'
p5199
I1
tp5200
a(S'future.i'
p5201
I1
tp5202
a(S'future.why'
p5203
I1
tp5204
a(S'futurethe'
p5205
I1
tp5206
a(S'gained'
p5207
I1
tp5208
a(S'game'
p5209
I1
tp5210
a(S'garden.for'
p5211
I1
tp5212
a(S'garden.the'
p5213
I1
tp5214
a(S'garden.\x94'
p5215
I1
tp5216
a(S'gardening.in'
p5217
I1
tp5218
a(S'gardening.the'
p5219
I1
tp5220
a(S'gardning'
p5221
I1
tp5222
a(S'gathered'
p5223
I1
tp5224
a(S'gaving'
p5225
I1
tp5226
a(S'geasse'
p5227
I1
tp5228
a(S"geese'"
p5229
I1
tp5230
a(S'geese,\x94'
p5231
I1
tp5232
a(S'geese.i'
p5233
I1
tp5234
a(S'geesein'
p5235
I1
tp5236
a(S'geese\x92'
p5237
I1
tp5238
a(S'generate'
p5239
I1
tp5240
a(S"get'"
p5241
I1
tp5242
a(S'getall'
p5243
I1
tp5244
a(S'gether'
p5245
I1
tp5246
a(S'geve'
p5247
I1
tp5248
a(S'gil'
p5249
I1
tp5250
a(S'girl)'
p5251
I1
tp5252
a(S'girl.the'
p5253
I1
tp5254
a(S'girl;'
p5255
I1
tp5256
a(S'girllwill'
p5257
I1
tp5258
a(S'girlthe'
p5259
I1
tp5260
a(S'girl\x92'
p5261
I1
tp5262
a(S'gist'
p5263
I1
tp5264
a(S'git'
p5265
I1
tp5266
a(S'giver'
p5267
I1
tp5268
a(S'glimmer'
p5269
I1
tp5270
a(S'glimpse'
p5271
I1
tp5272
a(S'go?'
p5273
I1
tp5274
a(S'golden'
p5275
I1
tp5276
a(S'good-day'
p5277
I1
tp5278
a(S'good.i'
p5279
I1
tp5280
a(S'goodluck'
p5281
I1
tp5282
a(S'gosling'
p5283
I1
tp5284
a(S'grade'
p5285
I1
tp5286
a(S'graden'
p5287
I1
tp5288
a(S'grader'
p5289
I1
tp5290
a(S'grander'
p5291
I1
tp5292
a(S"grandmother'"
p5293
I1
tp5294
a(S'grandmother.she\x92'
p5295
I1
tp5296
a(S'grandmother?\x94'
p5297
I1
tp5298
a(S'grandmother\x94'
p5299
I1
tp5300
a(S'grarden'
p5301
I1
tp5302
a(S'grateful'
p5303
I1
tp5304
a(S'graw'
p5305
I1
tp5306
a(S'great.saeng'
p5307
I1
tp5308
a(S'greene'
p5309
I1
tp5310
a(S'greenhouse.the'
p5311
I1
tp5312
a(S'grieve'
p5313
I1
tp5314
a(S'grieving'
p5315
I1
tp5316
a(S'grif'
p5317
I1
tp5318
a(S'groundthe'
p5319
I1
tp5320
a(S'group'
p5321
I1
tp5322
a(S'grow.he'
p5323
I1
tp5324
a(S'growing.the'
p5325
I1
tp5326
a(S'guaranteed'
p5327
I1
tp5328
a(S'guest'
p5329
I1
tp5330
a(S'guiding'
p5331
I1
tp5332
a(S'gust'
p5333
I1
tp5334
a(S'gut'
p5335
I1
tp5336
a(S'habisca'
p5337
I1
tp5338
a(S'habitat'
p5339
I1
tp5340
a(S"hadn't"
p5341
I1
tp5342
a(S'haft'
p5343
I1
tp5344
a(S'hair.\x94'
p5345
I1
tp5346
a(S'hand.\x94'
p5347
I1
tp5348
a(S'hander'
p5349
I1
tp5350
a(S'handle'
p5351
I1
tp5352
a(S'handtime'
p5353
I1
tp5354
a(S'handwork'
p5355
I1
tp5356
a(S'hanging'
p5357
I1
tp5358
a(S'hangs.in'
p5359
I1
tp5360
a(S'hapine'
p5361
I1
tp5362
a(S'happ'
p5363
I1
tp5364
a(S'happe'
p5365
I1
tp5366
a(S'happed'
p5367
I1
tp5368
a(S'happeed'
p5369
I1
tp5370
a(S'happen.i'
p5371
I1
tp5372
a(S'happened.know'
p5373
I1
tp5374
a(S'happened?\x94'
p5375
I1
tp5376
a(S'happier'
p5377
I1
tp5378
a(S'happiest'
p5379
I1
tp5380
a(S'happiness.the'
p5381
I1
tp5382
a(S'happy.the'
p5383
I1
tp5384
a(S'hardestand'
p5385
I1
tp5386
a(S'hardships.the'
p5387
I1
tp5388
a(S'hardtime'
p5389
I1
tp5390
a(S'hardy'
p5391
I1
tp5392
a(S'harmony'
p5393
I1
tp5394
a(S'hasent'
p5395
I1
tp5396
a(S'hasen\x92t'
p5397
I1
tp5398
a(S'hath'
p5399
I1
tp5400
a(S'haunt'
p5401
I1
tp5402
a(S'have.in'
p5403
I1
tp5404
a(S'have.the'
p5405
I1
tp5406
a(S'haven\x92t'
p5407
I1
tp5408
a(S'headed'
p5409
I1
tp5410
a(S'heading'
p5411
I1
tp5412
a(S'heal.the'
p5413
I1
tp5414
a(S'healthy'
p5415
I1
tp5416
a(S'heartache'
p5417
I1
tp5418
a(S'hedid'
p5419
I1
tp5420
a(S'hedpe'
p5421
I1
tp5422
a(S'height'
p5423
I1
tp5424
a(S'helpful.i'
p5425
I1
tp5426
a(S'heoked'
p5427
I1
tp5428
a(S'hep'
p5429
I1
tp5430
a(S'her-self'
p5431
I1
tp5432
a(S'her.cause'
p5433
I1
tp5434
a(S'her.i'
p5435
I1
tp5436
a(S'her.in'
p5437
I1
tp5438
a(S'her.saeng'
p5439
I1
tp5440
a(S'here.\x94'
p5441
I1
tp5442
a(S'here\x94'
p5443
I1
tp5444
a(S'heritage'
p5445
I1
tp5446
a(S'hers.the'
p5447
I1
tp5448
a(S'hersef'
p5449
I1
tp5450
a(S'herself,\x92in'
p5451
I1
tp5452
a(S'herself,\x94'
p5453
I1
tp5454
a(S'hesitate'
p5455
I1
tp5456
a(S'hey'
p5457
I1
tp5458
a(S'hibcu'
p5459
I1
tp5460
a(S'hibibiscu'
p5461
I1
tp5462
a(S'hibicou'
p5463
I1
tp5464
a(S'hibisci'
p5465
I1
tp5466
a(S'hibiscud'
p5467
I1
tp5468
a(S'hibiscus'
p5469
I1
tp5470
a(S'hibiscus)'
p5471
I1
tp5472
a(S'hibiscus,\x93'
p5473
I1
tp5474
a(S'hibiscus,\x94minfong'
p5475
I1
tp5476
a(S'hibiscus.for'
p5477
I1
tp5478
a(S'hibiscus.i'
p5479
I1
tp5480
a(S'hibiscus.in'
p5481
I1
tp5482
a(S'hibiscus.she'
p5483
I1
tp5484
a(S'hibiscus.that'
p5485
I1
tp5486
a(S'hibiscus.\x94it'
p5487
I1
tp5488
a(S'hibiscus\x92\x92'
p5489
I1
tp5490
a(S'hibiscus\x93'
p5491
I1
tp5492
a(S'hibiscus\x94by'
p5493
I1
tp5494
a(S'hibiscus\x94chose'
p5495
I1
tp5496
a(S'hibisuse'
p5497
I1
tp5498
a(S'hibscu'
p5499
I1
tp5500
a(S'hibuscu'
p5501
I1
tp5502
a(S'hidden'
p5503
I1
tp5504
a(S'higher'
p5505
I1
tp5506
a(S'highly'
p5507
I1
tp5508
a(S'highway'
p5509
I1
tp5510
a(S'hiliscu'
p5511
I1
tp5512
a(S'hill.the'
p5513
I1
tp5514
a(S'him/her'
p5515
I1
tp5516
a(S'hisbiiscu'
p5517
I1
tp5518
a(S'hisbiscu'
p5519
I1
tp5520
a(S'hiscubu'
p5521
I1
tp5522
a(S'hishiscu'
p5523
I1
tp5524
a(S'hit'
p5525
I1
tp5526
a(S'ho)'
p5527
I1
tp5528
a(S'ho,put'
p5529
I1
tp5530
a(S'ho,the'
p5531
I1
tp5532
a(S'hole\x94'
p5533
I1
tp5534
a(S'home"when'
p5535
I1
tp5536
a(S"home,'"
p5537
I1
tp5538
a(S'home-'
p5539
I1
tp5540
a(S'home-sickne'
p5541
I1
tp5542
a(S'home..\x94'
p5543
I1
tp5544
a(S'home.hope'
p5545
I1
tp5546
a(S'home.i'
p5547
I1
tp5548
a(S'home.once'
p5549
I1
tp5550
a(S'home.so'
p5551
I1
tp5552
a(S'home.\x94'
p5553
I1
tp5554
a(S'homelad'
p5555
I1
tp5556
a(S'homeland,when'
p5557
I1
tp5558
a(S'homelandthe'
p5559
I1
tp5560
a(S'homelard'
p5561
I1
tp5562
a(S'home\x94'
p5563
I1
tp5564
a(S'honaor'
p5565
I1
tp5566
a(S'hone'
p5567
I1
tp5568
a(S'honor'
p5569
I1
tp5570
a(S'hood'
p5571
I1
tp5572
a(S'hope).\x94and'
p5573
I1
tp5574
a(S'hope.i'
p5575
I1
tp5576
a(S'hope.saeng'
p5577
I1
tp5578
a(S'hope.\x93then'
p5579
I1
tp5580
a(S'hoped'
p5581
I1
tp5582
a(S'hopefoly'
p5583
I1
tp5584
a(S'hopfully'
p5585
I1
tp5586
a(S'hopping'
p5587
I1
tp5588
a(S'horribly'
p5589
I1
tp5590
a(S'how:-'
p5591
I1
tp5592
a(S'ho\x92'
p5593
I1
tp5594
a(S'hubisciu'
p5595
I1
tp5596
a(S'human'
p5597
I1
tp5598
a(S'hunk'
p5599
I1
tp5600
a(S'hunting'
p5601
I1
tp5602
a(S'hurdle'
p5603
I1
tp5604
a(S'hurting'
p5605
I1
tp5606
a(S'ib'
p5607
I1
tp5608
a(S'ibet'
p5609
I1
tp5610
a(S'ideas.the'
p5611
I1
tp5612
a(S'illustrates'
p5613
I1
tp5614
a(S'illustration'
p5615
I1
tp5616
a(S'imagein'
p5617
I1
tp5618
a(S'imagen'
p5619
I1
tp5620
a(S'imagenation'
p5621
I1
tp5622
a(S'imagethe'
p5623
I1
tp5624
a(S'ime'
p5625
I1
tp5626
a(S'immense'
p5627
I1
tp5628
a(S'impacted'
p5629
I1
tp5630
a(S'impatient'
p5631
I1
tp5632
a(S'implied'
p5633
I1
tp5634
a(S'important\x94'
p5635
I1
tp5636
a(S'importian'
p5637
I1
tp5638
a(S'impowering'
p5639
I1
tp5640
a(S'impre'
p5641
I1
tp5642
a(S'impression'
p5643
I1
tp5644
a(S'improvement.the'
p5645
I1
tp5646
a(S'improving'
p5647
I1
tp5648
a(S'in.in'
p5649
I1
tp5650
a(S'in.the'
p5651
I1
tp5652
a(S'inability'
p5653
I1
tp5654
a(S'inconclusion'
p5655
I1
tp5656
a(S'incorperating'
p5657
I1
tp5658
a(S'incorporate'
p5659
I1
tp5660
a(S'incorporated'
p5661
I1
tp5662
a(S'incorporating'
p5663
I1
tp5664
a(S'incredulously'
p5665
I1
tp5666
a(S'incredulously"(ho'
p5667
I1
tp5668
a(S'incredulously\x94'
p5669
I1
tp5670
a(S'increously.\x94'
p5671
I1
tp5672
a(S'indicating'
p5673
I1
tp5674
a(S'indifferent'
p5675
I1
tp5676
a(S'individual'
p5677
I1
tp5678
a(S'indomitable'
p5679
I1
tp5680
a(S'inevitable'
p5681
I1
tp5682
a(S'inffuse'
p5683
I1
tp5684
a(S'influent'
p5685
I1
tp5686
a(S'informing'
p5687
I1
tp5688
a(S'infured'
p5689
I1
tp5690
a(S'initially'
p5691
I1
tp5692
a(S'inkling'
p5693
I1
tp5694
a(S'insentive'
p5695
I1
tp5696
a(S'inspiration.to'
p5697
I1
tp5698
a(S'instant'
p5699
I1
tp5700
a(S'instantly'
p5701
I1
tp5702
a(S'insted'
p5703
I1
tp5704
a(S'instilled'
p5705
I1
tp5706
a(S'intended'
p5707
I1
tp5708
a(S'inter'
p5709
I1
tp5710
a(S'inthe'
p5711
I1
tp5712
a(S'intial'
p5713
I1
tp5714
a(S'intill'
p5715
I1
tp5716
a(S'intoto'
p5717
I1
tp5718
a(S'intrested'
p5719
I1
tp5720
a(S'intresting'
p5721
I1
tp5722
a(S'introduce'
p5723
I1
tp5724
a(S'introduced'
p5725
I1
tp5726
a(S'intwine'
p5727
I1
tp5728
a(S'involved'
p5729
I1
tp5730
a(S'involving'
p5731
I1
tp5732
a(S'in\x94'
p5733
I1
tp5734
a(S"is'"
p5735
I1
tp5736
a(S'is,the'
p5737
I1
tp5738
a(S'isanter'
p5739
I1
tp5740
a(S'isin'
p5741
I1
tp5742
a(S"it'll"
p5743
I1
tp5744
a(S'it.everything'
p5745
I1
tp5746
a(S'it.she'
p5747
I1
tp5748
a(S'it.there'
p5749
I1
tp5750
a(S'it.\x94the'
p5751
I1
tp5752
a(S'it?'
p5753
I1
tp5754
a(S'it`'
p5755
I1
tp5756
a(S'ith'
p5757
I1
tp5758
a(S'itshow'
p5759
I1
tp5760
a(S'it\x92ll'
p5761
I1
tp5762
a(S"it\x92s-it'"
p5763
I1
tp5764
a(S'it\x92s-it\x92'
p5765
I1
tp5766
a(S'it\x94(no)'
p5767
I1
tp5768
a(S'i\x92d'
p5769
I1
tp5770
a(S'i\x92m'
p5771
I1
tp5772
a(S'i\x96i'
p5773
I1
tp5774
a(S'jasmine'
p5775
I1
tp5776
a(S'jittering'
p5777
I1
tp5778
a(S'joyed'
p5779
I1
tp5780
a(S'joyful'
p5781
I1
tp5782
a(S'jump,it'
p5783
I1
tp5784
a(S'jutting'
p5785
I1
tp5786
a(S'keepsake'
p5787
I1
tp5788
a(S'kid'
p5789
I1
tp5790
a(S'kindly'
p5791
I1
tp5792
a(S'kindof'
p5793
I1
tp5794
a(S'kitchen'
p5795
I1
tp5796
a(S'kno'
p5797
I1
tp5798
a(S'knock'
p5799
I1
tp5800
a(S'knocked'
p5801
I1
tp5802
a(S'knolageble'
p5803
I1
tp5804
a(S'la'
p5805
I1
tp5806
a(S'labeled'
p5807
I1
tp5808
a(S'lack'
p5809
I1
tp5810
a(S'lack.i'
p5811
I1
tp5812
a(S'lady'
p5813
I1
tp5814
a(S'lambert\x94'
p5815
I1
tp5816
a(S'landmark'
p5817
I1
tp5818
a(S'landthe'
p5819
I1
tp5820
a(S'later.but'
p5821
I1
tp5822
a(S'law'
p5823
I1
tp5824
a(S'lay'
p5825
I1
tp5826
a(S'leab,shredding'
p5827
I1
tp5828
a(S'leading'
p5829
I1
tp5830
a(S'lean'
p5831
I1
tp5832
a(S'learning.@caps2'
p5833
I1
tp5834
a(S'leaver'
p5835
I1
tp5836
a(S'leavy'
p5837
I1
tp5838
a(S'ledge'
p5839
I1
tp5840
a(S'left.the'
p5841
I1
tp5842
a(S'legible)i'
p5843
I1
tp5844
a(S'lend'
p5845
I1
tp5846
a(S'lession'
p5847
I1
tp5848
a(S'let\x92'
p5849
I1
tp5850
a(S'leveing'
p5851
I1
tp5852
a(S'licenc'
p5853
I1
tp5854
a(S'license.i'
p5855
I1
tp5856
a(S'licesies.the'
p5857
I1
tp5858
a(S'life,&'
p5859
I1
tp5860
a(S'life.many'
p5861
I1
tp5862
a(S'life.saeng'
p5863
I1
tp5864
a(S'life;'
p5865
I1
tp5866
a(S'lifebecause'
p5867
I1
tp5868
a(S'lifei'
p5869
I1
tp5870
a(S'lighten'
p5871
I1
tp5872
a(S'lightened'
p5873
I1
tp5874
a(S'like.after'
p5875
I1
tp5876
a(S'likewise'
p5877
I1
tp5878
a(S'liking'
p5879
I1
tp5880
a(S'limiting'
p5881
I1
tp5882
a(S'linethe'
p5883
I1
tp5884
a(S'linting'
p5885
I1
tp5886
a(S'liscence'
p5887
I1
tp5888
a(S'lisense'
p5889
I1
tp5890
a(S'litter'
p5891
I1
tp5892
a(S'live.i'
p5893
I1
tp5894
a(S'live.she'
p5895
I1
tp5896
a(S'lively'
p5897
I1
tp5898
a(S'lives.saeng'
p5899
I1
tp5900
a(S'living."i'
p5901
I1
tp5902
a(S'location1.in'
p5903
I1
tp5904
a(S'location1.the'
p5905
I1
tp5906
a(S'location4'
p5907
I1
tp5908
a(S'lock'
p5909
I1
tp5910
a(S'locked'
p5911
I1
tp5912
a(S'logic'
p5913
I1
tp5914
a(S'logical'
p5915
I1
tp5916
a(S'lone'
p5917
I1
tp5918
a(S'lonesome'
p5919
I1
tp5920
a(S'long?'
p5921
I1
tp5922
a(S'longing'
p5923
I1
tp5924
a(S'longtime'
p5925
I1
tp5926
a(S'losing'
p5927
I1
tp5928
a(S'love\x92'
p5929
I1
tp5930
a(S'loving'
p5931
I1
tp5932
a(S'lungs.\x94'
p5933
I1
tp5934
a(S'ly'
p5935
I1
tp5936
a(S'lyrical'
p5937
I1
tp5938
a(S'mac.\x94'
p5939
I1
tp5940
a(S'maint'
p5941
I1
tp5942
a(S'mak'
p5943
I1
tp5944
a(S'malik\x94'
p5945
I1
tp5946
a(S'man'
p5947
I1
tp5948
a(S'manage'
p5949
I1
tp5950
a(S'maner'
p5951
I1
tp5952
a(S'mate'
p5953
I1
tp5954
a(S'math'
p5955
I1
tp5956
a(S'mattered.well'
p5957
I1
tp5958
a(S'matters,\x94'
p5959
I1
tp5960
a(S'me.i'
p5961
I1
tp5962
a(S"mean't"
p5963
I1
tp5964
a(S'means.in'
p5965
I1
tp5966
a(S'means.they'
p5967
I1
tp5968
a(S'means.when'
p5969
I1
tp5970
a(S'meant.the'
p5971
I1
tp5972
a(S'meanwhile'
p5973
I1
tp5974
a(S'meerly'
p5975
I1
tp5976
a(S'meet'
p5977
I1
tp5978
a(S'meeting'
p5979
I1
tp5980
a(S'meisly'
p5981
I1
tp5982
a(S'melancholy'
p5983
I1
tp5984
a(S'melon?'
p5985
I1
tp5986
a(S'melst'
p5987
I1
tp5988
a(S'melt.the'
p5989
I1
tp5990
a(S'melting\x94'
p5991
I1
tp5992
a(S'melts.the'
p5993
I1
tp5994
a(S'melt\x94'
p5995
I1
tp5996
a(S'memone'
p5997
I1
tp5998
a(S'memories'
p5999
I1
tp6000
a(S'memories.i'
p6001
I1
tp6002
a(S'memorise'
p6003
I1
tp6004
a(S'memorize'
p6005
I1
tp6006
a(S'memory\x92'
p6007
I1
tp6008
a(S'mentaly'
p6009
I1
tp6010
a(S'meqan'
p6011
I1
tp6012
a(S'metaphor)i'
p6013
I1
tp6014
a(S'metaphorically'
p6015
I1
tp6016
a(S'middle'
p6017
I1
tp6018
a(S'migrate'
p6019
I1
tp6020
a(S'migrating'
p6021
I1
tp6022
a(S'milestone'
p6023
I1
tp6024
a(S'mine'
p6025
I1
tp6026
a(S'ming'
p6027
I1
tp6028
a(S'mingled'
p6029
I1
tp6030
a(S'minimal'
p6031
I1
tp6032
a(S'misses.i'
p6033
I1
tp6034
a(S'missi'
p6035
I1
tp6036
a(S'mistake\x92'
p6037
I1
tp6038
a(S'misunderstood'
p6039
I1
tp6040
a(S'mite'
p6041
I1
tp6042
a(S'moderatly'
p6043
I1
tp6044
a(S'modilate'
p6045
I1
tp6046
a(S'modivation'
p6047
I1
tp6048
a(S'momhe'
p6049
I1
tp6050
a(S'monfong'
p6051
I1
tp6052
a(S'months.i'
p6053
I1
tp6054
a(S'months.\x94'
p6055
I1
tp6056
a(S'morale'
p6057
I1
tp6058
a(S'moreover'
p6059
I1
tp6060
a(S'most.the'
p6061
I1
tp6062
a(S'most.\x94the'
p6063
I1
tp6064
a(S'mother,\x94'
p6065
I1
tp6066
a(S'mother.i'
p6067
I1
tp6068
a(S'mother.in'
p6069
I1
tp6070
a(S'mother.try'
p6071
I1
tp6072
a(S'motheri'
p6073
I1
tp6074
a(S'mothesaid'
p6075
I1
tp6076
a(S'motivation.saeng'
p6077
I1
tp6078
a(S'motivational'
p6079
I1
tp6080
a(S'mouth'
p6081
I1
tp6082
a(S'mre'
p6083
I1
tp6084
a(S'mrs'
p6085
I1
tp6086
a(S'much!\x94'
p6087
I1
tp6088
a(S'much.the'
p6089
I1
tp6090
a(S'muddy'
p6091
I1
tp6092
a(S'mutul'
p6093
I1
tp6094
a(S'mystery'
p6095
I1
tp6096
a(S'n'
I1
tp6097
a(S'na'
p6098
I1
tp6099
a(S'name'
p6100
I1
tp6101
a(S'nand'
p6102
I1
tp6103
a(S'narrator\x92'
p6104
I1
tp6105
a(S'nather'
p6106
I1
tp6107
a(S'nature.in'
p6108
I1
tp6109
a(S'nature.the'
p6110
I1
tp6111
a(S'nature\x92'
p6112
I1
tp6113
a(S'nav'
p6114
I1
tp6115
a(S'negatave'
p6116
I1
tp6117
a(S'nervously'
p6118
I1
tp6119
a(S'new.the'
p6120
I1
tp6121
a(S'newby'
p6122
I1
tp6123
a(S'newcomer'
p6124
I1
tp6125
a(S'newhome'
p6126
I1
tp6127
a(S'newhope'
p6128
I1
tp6129
a(S'newlife'
p6130
I1
tp6131
a(S'newly'
p6132
I1
tp6133
a(S'newne'
p6134
I1
tp6135
a(S'newoman'
p6136
I1
tp6137
a(S'newseed'
p6138
I1
tp6139
a(S'newsra'
p6140
I1
tp6141
a(S'next.the'
p6142
I1
tp6143
a(S'nicer'
p6144
I1
tp6145
a(S'nieve'
p6146
I1
tp6147
a(S'noi'
p6148
I1
tp6149
a(S'noi,\x94'
p6150
I1
tp6151
a(S'nomore'
p6152
I1
tp6153
a(S'non-natve'
p6154
I1
tp6155
a(S'none'
p6156
I1
tp6157
a(S'normally'
p6158
I1
tp6159
a(S'normol'
p6160
I1
tp6161
a(S'nostalgiaover'
p6162
I1
tp6163
a(S'nostalgic'
p6164
I1
tp6165
a(S'nosty'
p6166
I1
tp6167
a(S'note.the'
p6168
I1
tp6169
a(S'noticeable'
p6170
I1
tp6171
a(S'noting'
p6172
I1
tp6173
a(S'novel.the'
p6174
I1
tp6175
a(S'now,\x94'
p6176
I1
tp6177
a(S'now.in'
p6178
I1
tp6179
a(S'now.the'
p6180
I1
tp6181
a(S'now.\x94(@num2)'
p6182
I1
tp6183
a(S'nting'
p6184
I1
tp6185
a(S'nuforment'
p6186
I1
tp6187
a(S'num1$'
p6188
I1
tp6189
a(S'num2'
p6190
I1
tp6191
a(S'num2]'
p6192
I1
tp6193
a(S'num3)'
p6194
I1
tp6195
a(S'number'
p6196
I1
tp6197
a(S'numerou'
p6198
I1
tp6199
a(S'nuste'
p6200
I1
tp6201
a(S'o'
I1
tp6202
a(S'observe'
p6203
I1
tp6204
a(S'observed'
p6205
I1
tp6206
a(S'observing'
p6207
I1
tp6208
a(S'obstacles.author'
p6209
I1
tp6210
a(S'obstacles.i'
p6211
I1
tp6212
a(S'obstacles.minfong'
p6213
I1
tp6214
a(S'obstacles.the'
p6215
I1
tp6216
a(S'obsticale'
p6217
I1
tp6218
a(S'obsticate'
p6219
I1
tp6220
a(S'obsticle'
p6221
I1
tp6222
a(S'occurred'
p6223
I1
tp6224
a(S'odvestily'
p6225
I1
tp6226
a(S'offered'
p6227
I1
tp6228
a(S'offered\x94'
p6229
I1
tp6230
a(S'ofplace'
p6231
I1
tp6232
a(S'of\x94winter'
p6233
I1
tp6234
a(S'oho'
p6235
I1
tp6236
a(S'oil'
p6237
I1
tp6238
a(S'okey'
p6239
I1
tp6240
a(S'omelet'
p6241
I1
tp6242
a(S'on.i'
p6243
I1
tp6244
a(S'on.i\x92ll'
p6245
I1
tp6246
a(S'on.she'
p6247
I1
tp6248
a(S'on.\x94'
p6249
I1
tp6250
a(S"one'"
p6251
I1
tp6252
a(S'one...i'
p6253
I1
tp6254
a(S'one.the'
p6255
I1
tp6256
a(S'one.well'
p6257
I1
tp6258
a(S'only.i'
p6259
I1
tp6260
a(S'onpion'
p6261
I1
tp6262
a(S'opened'
p6263
I1
tp6264
a(S'opening'
p6265
I1
tp6266
a(S'opon'
p6267
I1
tp6268
a(S'opportuniy'
p6269
I1
tp6270
a(S'opposite'
p6271
I1
tp6272
a(S'optimistic.the'
p6273
I1
tp6274
a(S'ore'
p6275
I1
tp6276
a(S'organization1i'
p6277
I1
tp6278
a(S'organization1why'
p6279
I1
tp6280
a(S'others.so'
p6281
I1
tp6282
a(S'othersi'
p6283
I1
tp6284
a(S'ourtose'
p6285
I1
tp6286
a(S'out.the'
p6287
I1
tp6288
a(S'outsider'
p6289
I1
tp6290
a(S'ouvong'
p6291
I1
tp6292
a(S'over)'
p6293
I1
tp6294
a(S'over.in'
p6295
I1
tp6296
a(S'overconsistent'
p6297
I1
tp6298
a(S'overthe'
p6299
I1
tp6300
a(S'overtime'
p6301
I1
tp6302
a(S'overtone'
p6303
I1
tp6304
a(S'over\x92\x92'
p6305
I1
tp6306
a(S'paid.\x94'
p6307
I1
tp6308
a(S'pain.she'
p6309
I1
tp6310
a(S'panouvong'
p6311
I1
tp6312
a(S'pant'
p6313
I1
tp6314
a(S'paped'
p6315
I1
tp6316
a(S'par'
p6317
I1
tp6318
a(S'paragaph'
p6319
I1
tp6320
a(S'paragragh'
p6321
I1
tp6322
a(S'paragrap'
p6323
I1
tp6324
a(S'paragraped'
p6325
I1
tp6326
a(S'paragraph)'
p6327
I1
tp6328
a(S'paragraph,\x94'
p6329
I1
tp6330
a(S'paragraph..the'
p6331
I1
tp6332
a(S'paragraph.because'
p6333
I1
tp6334
a(S'paragraph.memorie'
p6335
I1
tp6336
a(S'paragraph.these'
p6337
I1
tp6338
a(S'paragraph.thi'
p6339
I1
tp6340
a(S'paragraph.\x93in'
p6341
I1
tp6342
a(S'paragraphe'
p6343
I1
tp6344
a(S'paragraphthere'
p6345
I1
tp6346
a(S'paragraphto'
p6347
I1
tp6348
a(S'paragraph\x93winter'
p6349
I1
tp6350
a(S'parapraph'
p6351
I1
tp6352
a(S'parchase'
p6353
I1
tp6354
a(S'parents;'
p6355
I1
tp6356
a(S'pargraphthe'
p6357
I1
tp6358
a(S'parography'
p6359
I1
tp6360
a(S'parragraph'
p6361
I1
tp6362
a(S'party'
p6363
I1
tp6364
a(S'pasage.i'
p6365
I1
tp6366
a(S'pass.in'
p6367
I1
tp6368
a(S'pass.saeng'
p6369
I1
tp6370
a(S'pass.there'
p6371
I1
tp6372
a(S'passes.so'
p6373
I1
tp6374
a(S'passes.the'
p6375
I1
tp6376
a(S'passthe'
p6377
I1
tp6378
a(S'pastthe'
p6379
I1
tp6380
a(S'path'
p6381
I1
tp6382
a(S'patience'
p6383
I1
tp6384
a(S'patient'
p6385
I1
tp6386
a(S'patintion'
p6387
I1
tp6388
a(S'pattern'
p6389
I1
tp6390
a(S'patterns.i'
p6391
I1
tp6392
a(S'payed'
p6393
I1
tp6394
a(S'peaceful'
p6395
I1
tp6396
a(S'pecause'
p6397
I1
tp6398
a(S'peddle'
p6399
I1
tp6400
a(S'peice'
p6401
I1
tp6402
a(S'penwinhle\x94'
p6403
I1
tp6404
a(S'peolpe'
p6405
I1
tp6406
a(S'peperd'
p6407
I1
tp6408
a(S'pepper'
p6409
I1
tp6410
a(S'peragraph'
p6411
I1
tp6412
a(S'percent1'
p6413
I1
tp6414
a(S'perfection'
p6415
I1
tp6416
a(S'performance'
p6417
I1
tp6418
a(S'perhap'
p6419
I1
tp6420
a(S'period'
p6421
I1
tp6422
a(S'permit'
p6423
I1
tp6424
a(S'perservere'
p6425
I1
tp6426
a(S'perserverence'
p6427
I1
tp6428
a(S'perservirance'
p6429
I1
tp6430
a(S'persevere'
p6431
I1
tp6432
a(S'perseveriance'
p6433
I1
tp6434
a(S'persistently'
p6435
I1
tp6436
a(S'person.in'
p6437
I1
tp6438
a(S'personality'
p6439
I1
tp6440
a(S'personality.i'
p6441
I1
tp6442
a(S'personally'
p6443
I1
tp6444
a(S'personely'
p6445
I1
tp6446
a(S'peservere'
p6447
I1
tp6448
a(S'pharagraph.she'
p6449
I1
tp6450
a(S'phrase.the'
p6451
I1
tp6452
a(S'physically'
p6453
I1
tp6454
a(S'physicaly'
p6455
I1
tp6456
a(S'piche'
p6457
I1
tp6458
a(S'piece.the'
p6459
I1
tp6460
a(S'pig'
p6461
I1
tp6462
a(S'pla'
p6463
I1
tp6464
a(S'placed'
p6465
I1
tp6466
a(S'placing'
p6467
I1
tp6468
a(S'placthe'
p6469
I1
tp6470
a(S'plan.the'
p6471
I1
tp6472
a(S'planned'
p6473
I1
tp6474
a(S'plant.why'
p6475
I1
tp6476
a(S'plant.\x94'
p6477
I1
tp6478
a(S'plantation'
p6479
I1
tp6480
a(S'planting.the'
p6481
I1
tp6482
a(S'plants.i'
p6483
I1
tp6484
a(S'planty'
p6485
I1
tp6486
a(S'plant\x92'
p6487
I1
tp6488
a(S'plart'
p6489
I1
tp6490
a(S'plastic'
p6491
I1
tp6492
a(S'plate'
p6493
I1
tp6494
a(S'pleasant'
p6495
I1
tp6496
a(S'plown'
p6497
I1
tp6498
a(S'pocify'
p6499
I1
tp6500
a(S'pointe'
p6501
I1
tp6502
a(S'pointed'
p6503
I1
tp6504
a(S'pointle'
p6505
I1
tp6506
a(S'pollen'
p6507
I1
tp6508
a(S'pond.i'
p6509
I1
tp6510
a(S'ponder'
p6511
I1
tp6512
a(S'pone'
p6513
I1
tp6514
a(S'poor'
p6515
I1
tp6516
a(S'popular'
p6517
I1
tp6518
a(S'porpuse'
p6519
I1
tp6520
a(S'portrayed'
p6521
I1
tp6522
a(S'portraying'
p6523
I1
tp6524
a(S'posative'
p6525
I1
tp6526
a(S'position'
p6527
I1
tp6528
a(S'positively'
p6529
I1
tp6530
a(S'positivly'
p6531
I1
tp6532
a(S'positivne'
p6533
I1
tp6534
a(S'possibilitie'
p6535
I1
tp6536
a(S'poter'
p6537
I1
tp6538
a(S'poto'
p6539
I1
tp6540
a(S'potted'
p6541
I1
tp6542
a(S'pot\x94'
p6543
I1
tp6544
a(S'powering'
p6545
I1
tp6546
a(S'powoful'
p6547
I1
tp6548
a(S'prag'
p6549
I1
tp6550
a(S'praying'
p6551
I1
tp6552
a(S'preasnt.saeng'
p6553
I1
tp6554
a(S'preciou'
p6555
I1
tp6556
a(S'preety'
p6557
I1
tp6558
a(S'prefer'
p6559
I1
tp6560
a(S'prefered'
p6561
I1
tp6562
a(S'preferring'
p6563
I1
tp6564
a(S'premise'
p6565
I1
tp6566
a(S'prepared.in'
p6567
I1
tp6568
a(S'preprared'
p6569
I1
tp6570
a(S'preticular'
p6571
I1
tp6572
a(S'pretty.the'
p6573
I1
tp6574
a(S'prevented'
p6575
I1
tp6576
a(S'price'
p6577
I1
tp6578
a(S'pridicshon'
p6579
I1
tp6580
a(S'primarily'
p6581
I1
tp6582
a(S'prior'
p6583
I1
tp6584
a(S'probally'
p6585
I1
tp6586
a(S'probley'
p6587
I1
tp6588
a(S'proceeded'
p6589
I1
tp6590
a(S'profusion'
p6591
I1
tp6592
a(S'project'
p6593
I1
tp6594
a(S'prolonged'
p6595
I1
tp6596
a(S'promise\x94'
p6597
I1
tp6598
a(S'promising'
p6599
I1
tp6600
a(S'proper'
p6601
I1
tp6602
a(S'proplem'
p6603
I1
tp6604
a(S'proved'
p6605
I1
tp6606
a(S'pushed'
p6607
I1
tp6608
a(S'pysical'
p6609
I1
tp6610
a(S'quesition'
p6611
I1
tp6612
a(S'quesiton'
p6613
I1
tp6614
a(S'quick'
p6615
I1
tp6616
a(S'quickly'
p6617
I1
tp6618
a(S"quietly'"
p6619
I1
tp6620
a(S'quiter'
p6621
I1
tp6622
a(S'quivering'
p6623
I1
tp6624
a(S'quotation'
p6625
I1
tp6626
a(S'quote)'
p6627
I1
tp6628
a(S'quote,\x94'
p6629
I1
tp6630
a(S'quote.saeng'
p6631
I1
tp6632
a(S'raid'
p6633
I1
tp6634
a(S'rain'
p6635
I1
tp6636
a(S'random'
p6637
I1
tp6638
a(S'rare'
p6639
I1
tp6640
a(S're-bud'
p6641
I1
tp6642
a(S're-establing'
p6643
I1
tp6644
a(S're-taking'
p6645
I1
tp6646
a(S're-trying'
p6647
I1
tp6648
a(S're-visit'
p6649
I1
tp6650
a(S're.taking'
p6651
I1
tp6652
a(S'reaching'
p6653
I1
tp6654
a(S'reade'
p6655
I1
tp6656
a(S'readjusting'
p6657
I1
tp6658
a(S'readon'
p6659
I1
tp6660
a(S'ready.she'
p6661
I1
tp6662
a(S'ready.the'
p6663
I1
tp6664
a(S'readythe'
p6665
I1
tp6666
a(S'realised'
p6667
I1
tp6668
a(S'realistic'
p6669
I1
tp6670
a(S'realizese'
p6671
I1
tp6672
a(S'realne'
p6673
I1
tp6674
a(S'reamder'
p6675
I1
tp6676
a(S'reason.in'
p6677
I1
tp6678
a(S'reason.the'
p6679
I1
tp6680
a(S'reasonable'
p6681
I1
tp6682
a(S'reasons.memory,promise,life-all'
p6683
I1
tp6684
a(S'reasons.she'
p6685
I1
tp6686
a(S'reasons.thi'
p6687
I1
tp6688
a(S'reassure'
p6689
I1
tp6690
a(S'reasurrance'
p6691
I1
tp6692
a(S'reborn)'
p6693
I1
tp6694
a(S'recalled'
p6695
I1
tp6696
a(S'receive'
p6697
I1
tp6698
a(S'recent'
p6699
I1
tp6700
a(S'recently'
p6701
I1
tp6702
a(S'recognized'
p6703
I1
tp6704
a(S'recollect'
p6705
I1
tp6706
a(S'recollection'
p6707
I1
tp6708
a(S'recommend'
p6709
I1
tp6710
a(S'reconize'
p6711
I1
tp6712
a(S'reconized'
p6713
I1
tp6714
a(S'recover'
p6715
I1
tp6716
a(S'recovering'
p6717
I1
tp6718
a(S'recovery'
p6719
I1
tp6720
a(S'recreate'
p6721
I1
tp6722
a(S'recrop'
p6723
I1
tp6724
a(S'red'
p6725
I1
tp6726
a(S'redeam'
p6727
I1
tp6728
a(S'redeem'
p6729
I1
tp6730
a(S'reeder'
p6731
I1
tp6732
a(S'reenforce'
p6733
I1
tp6734
a(S'refers'
p6735
I1
tp6736
a(S'reff'
p6737
I1
tp6738
a(S'reffiring'
p6739
I1
tp6740
a(S'reflecting'
p6741
I1
tp6742
a(S'refound'
p6743
I1
tp6744
a(S'refrencing'
p6745
I1
tp6746
a(S'refuse'
p6747
I1
tp6748
a(S'regard'
p6749
I1
tp6750
a(S'regroup'
p6751
I1
tp6752
a(S'reinforce'
p6753
I1
tp6754
a(S'rejected'
p6755
I1
tp6756
a(S'relaize'
p6757
I1
tp6758
a(S'relasonship'
p6759
I1
tp6760
a(S'relatestnct'
p6761
I1
tp6762
a(S'relax'
p6763
I1
tp6764
a(S'relazed'
p6765
I1
tp6766
a(S'release'
p6767
I1
tp6768
a(S'releive'
p6769
I1
tp6770
a(S'relevant'
p6771
I1
tp6772
a(S'relieved'
p6773
I1
tp6774
a(S'relieving'
p6775
I1
tp6776
a(S'relive'
p6777
I1
tp6778
a(S'remaind'
p6779
I1
tp6780
a(S'remant'
p6781
I1
tp6782
a(S'rembember'
p6783
I1
tp6784
a(S'rememberence'
p6785
I1
tp6786
a(S'remeniscent'
p6787
I1
tp6788
a(S'remid'
p6789
I1
tp6790
a(S'remin'
p6791
I1
tp6792
a(S'remined'
p6793
I1
tp6794
a(S'reminisce'
p6795
I1
tp6796
a(S'reminiscence'
p6797
I1
tp6798
a(S'reminiscing'
p6799
I1
tp6800
a(S'remmeder'
p6801
I1
tp6802
a(S'remnant'
p6803
I1
tp6804
a(S'renewing'
p6805
I1
tp6806
a(S'repeated'
p6807
I1
tp6808
a(S'repeating'
p6809
I1
tp6810
a(S'repent'
p6811
I1
tp6812
a(S'repititon'
p6813
I1
tp6814
a(S'replemise'
p6815
I1
tp6816
a(S'replied'
p6817
I1
tp6818
a(S'report'
p6819
I1
tp6820
a(S'reported'
p6821
I1
tp6822
a(S'reprecent'
p6823
I1
tp6824
a(S'representation'
p6825
I1
tp6826
a(S'represents'
p6827
I1
tp6828
a(S'reprimanded'
p6829
I1
tp6830
a(S'requperate'
p6831
I1
tp6832
a(S'resembel'
p6833
I1
tp6834
a(S'resemblance'
p6835
I1
tp6836
a(S'resembled'
p6837
I1
tp6838
a(S'resembling'
p6839
I1
tp6840
a(S'resilient'
p6841
I1
tp6842
a(S'resolved'
p6843
I1
tp6844
a(S'resoned'
p6845
I1
tp6846
a(S'respectful'
p6847
I1
tp6848
a(S'restated'
p6849
I1
tp6850
a(S'restrency'
p6851
I1
tp6852
a(S'retailing'
p6853
I1
tp6854
a(S'retest'
p6855
I1
tp6856
a(S'rethink'
p6857
I1
tp6858
a(S'retorning'
p6859
I1
tp6860
a(S'reture'
p6861
I1
tp6862
a(S'return.spring'
p6863
I1
tp6864
a(S'return;'
p6865
I1
tp6866
a(S'revealed'
p6867
I1
tp6868
a(S'reveat'
p6869
I1
tp6870
a(S'revolve'
p6871
I1
tp6872
a(S'right.he'
p6873
I1
tp6874
a(S'rise'
p6875
I1
tp6876
a(S'risk'
p6877
I1
tp6878
a(S'rite.the'
p6879
I1
tp6880
a(S'roem'
p6881
I1
tp6882
a(S'role'
p6883
I1
tp6884
a(S'roll'
p6885
I1
tp6886
a(S'ron'
p6887
I1
tp6888
a(S'roof'
p6889
I1
tp6890
a(S'rooting/grasping'
p6891
I1
tp6892
a(S'rub'
p6893
I1
tp6894
a(S'rule'
p6895
I1
tp6896
a(S'run'
p6897
I1
tp6898
a(S'running'
p6899
I1
tp6900
a(S'ruturn'
p6901
I1
tp6902
a(S'ryt'
p6903
I1
tp6904
a(S"s'aeng"
p6905
I1
tp6906
a(S'sad.the'
p6907
I1
tp6908
a(S'sadden'
p6909
I1
tp6910
a(S'saddened'
p6911
I1
tp6912
a(S'sadder'
p6913
I1
tp6914
a(S'saebya'
p6915
I1
tp6916
a(S'saeng,\x94'
p6917
I1
tp6918
a(S'saeng.he'
p6919
I1
tp6920
a(S'saeng.i'
p6921
I1
tp6922
a(S'saeng;'
p6923
I1
tp6924
a(S'saeng\x94'
p6925
I1
tp6926
a(S'safer'
p6927
I1
tp6928
a(S'said,"i-i'
p6929
I1
tp6930
a(S'said.\x92'
p6931
I1
tp6932
a(S'said;'
p6933
I1
tp6934
a(S'said\x94canada'
p6935
I1
tp6936
a(S'said\x94she'
p6937
I1
tp6938
a(S'samething'
p6939
I1
tp6940
a(S'sandwich'
p6941
I1
tp6942
a(S'sanne'
p6943
I1
tp6944
a(S'sarcaism'
p6945
I1
tp6946
a(S'sarng'
p6947
I1
tp6948
a(S'sated'
p6949
I1
tp6950
a(S'satisfaction'
p6951
I1
tp6952
a(S"say'"
p6953
I1
tp6954
a(S'sayin'
p6955
I1
tp6956
a(S'saying,\x94'
p6957
I1
tp6958
a(S'saying,\x94i'
p6959
I1
tp6960
a(S'saying\x94'
p6961
I1
tp6962
a(S'says,\x92\x92'
p6963
I1
tp6964
a(S'says,\x94the'
p6965
I1
tp6966
a(S'says,\x94when'
p6967
I1
tp6968
a(S'says.\x94'
p6969
I1
tp6970
a(S'says\x94'
p6971
I1
tp6972
a(S'scarred'
p6973
I1
tp6974
a(S'scene'
p6975
I1
tp6976
a(S'scentence'
p6977
I1
tp6978
a(S'schoolwork'
p6979
I1
tp6980
a(S'screw'
p6981
I1
tp6982
a(S'scribed'
p6983
I1
tp6984
a(S'se'
p6985
I1
tp6986
a(S'seal.the'
p6987
I1
tp6988
a(S'searching'
p6989
I1
tp6990
a(S"season'"
p6991
I1
tp6992
a(S'season,almost'
p6993
I1
tp6994
a(S'season,the'
p6995
I1
tp6996
a(S'season.he'
p6997
I1
tp6998
a(S'season.in'
p6999
I1
tp7000
a(S'season.saeng'
p7001
I1
tp7002
a(S'season.the'
p7003
I1
tp7004
a(S'secure'
p7005
I1
tp7006
a(S'security'
p7007
I1
tp7008
a(S'security.the'
p7009
I1
tp7010
a(S"see'"
p7011
I1
tp7012
a(S'seed.\x94'
p7013
I1
tp7014
a(S'seek'
p7015
I1
tp7016
a(S'seeking'
p7017
I1
tp7018
a(S'seing'
p7019
I1
tp7020
a(S'selected.in'
p7021
I1
tp7022
a(S'selfconciou'
p7023
I1
tp7024
a(S'semblance'
p7025
I1
tp7026
a(S'semile'
p7027
I1
tp7028
a(S'semi\x96new'
p7029
I1
tp7030
a(S'sen'
p7031
I1
tp7032
a(S'sensen'
p7033
I1
tp7034
a(S'sensing'
p7035
I1
tp7036
a(S'sentance'
p7037
I1
tp7038
a(S'sentemental'
p7039
I1
tp7040
a(S'sentence.the'
p7041
I1
tp7042
a(S'sentense'
p7043
I1
tp7044
a(S'sentimentality'
p7045
I1
tp7046
a(S'seprated'
p7047
I1
tp7048
a(S'sequal.the'
p7049
I1
tp7050
a(S'sequel.in'
p7051
I1
tp7052
a(S'serie'
p7053
I1
tp7054
a(S'seriously'
p7055
I1
tp7056
a(S'served'
p7057
I1
tp7058
a(S'servle'
p7059
I1
tp7060
a(S'setback'
p7061
I1
tp7062
a(S'seterel'
p7063
I1
tp7064
a(S'setvation'
p7065
I1
tp7066
a(S'sew'
p7067
I1
tp7068
a(S'shade'
p7069
I1
tp7070
a(S'shake'
p7071
I1
tp7072
a(S'shakey'
p7073
I1
tp7074
a(S'shall'
p7075
I1
tp7076
a(S'shame'
p7077
I1
tp7078
a(S'shangling'
p7079
I1
tp7080
a(S'sharing'
p7081
I1
tp7082
a(S'she.i'
p7083
I1
tp7084
a(S'she.the'
p7085
I1
tp7086
a(S'she/@caps1'
p7087
I1
tp7088
a(S'she/he'
p7089
I1
tp7090
a(S'she`ll'
p7091
I1
tp7092
a(S'she\x94ll'
p7093
I1
tp7094
a(S'shine'
p7095
I1
tp7096
a(S'shining'
p7097
I1
tp7098
a(S'sholders.saeng'
p7099
I1
tp7100
a(S'shorter'
p7101
I1
tp7102
a(S'shortne'
p7103
I1
tp7104
a(S"shouldn't"
p7105
I1
tp7106
a(S'shy'
p7107
I1
tp7108
a(S'sick'
p7109
I1
tp7110
a(S'sick.the'
p7111
I1
tp7112
a(S'sidewalk'
p7113
I1
tp7114
a(S'sidewalk.the'
p7115
I1
tp7116
a(S'sidwak'
p7117
I1
tp7118
a(S'sileltly'
p7119
I1
tp7120
a(S'similar.the'
p7121
I1
tp7122
a(S'similarly'
p7123
I1
tp7124
a(S'simpley'
p7125
I1
tp7126
a(S'singingi'
p7127
I1
tp7128
a(S'single'
p7129
I1
tp7130
a(S'single-handedly'
p7131
I1
tp7132
a(S'sink'
p7133
I1
tp7134
a(S'sioteero'
p7135
I1
tp7136
a(S'sit'
p7137
I1
tp7138
a(S'situated'
p7139
I1
tp7140
a(S'situration'
p7141
I1
tp7142
a(S'siving'
p7143
I1
tp7144
a(S'sizzle'
p7145
I1
tp7146
a(S'skilled'
p7147
I1
tp7148
a(S'slate'
p7149
I1
tp7150
a(S'slice'
p7151
I1
tp7152
a(S'slightly'
p7153
I1
tp7154
a(S'slot'
p7155
I1
tp7156
a(S'smile'
p7157
I1
tp7158
a(S'snow)'
p7159
I1
tp7160
a(S'snow.the'
p7161
I1
tp7162
a(S'snowed'
p7163
I1
tp7164
a(S'snows'
p7165
I1
tp7166
a(S'snowsmelt'
p7167
I1
tp7168
a(S'so,if'
p7169
I1
tp7170
a(S'society.the'
p7171
I1
tp7172
a(S'soit'
p7173
I1
tp7174
a(S'solace'
p7175
I1
tp7176
a(S'sold'
p7177
I1
tp7178
a(S'solid'
p7179
I1
tp7180
a(S'solved'
p7181
I1
tp7182
a(S'someone.in'
p7183
I1
tp7184
a(S'something.the'
p7185
I1
tp7186
a(S'somethings.the'
p7187
I1
tp7188
a(S'somewere'
p7189
I1
tp7190
a(S'sonip'
p7191
I1
tp7192
a(S'sooth'
p7193
I1
tp7194
a(S'sorely'
p7195
I1
tp7196
a(S'soring'
p7197
I1
tp7198
a(S'sory'
p7199
I1
tp7200
a(S'sotherefore'
p7201
I1
tp7202
a(S'sounded'
p7203
I1
tp7204
a(S'source'
p7205
I1
tp7206
a(S'sow'
p7207
I1
tp7208
a(S'speaking'
p7209
I1
tp7210
a(S'spear'
p7211
I1
tp7212
a(S'specific'
p7213
I1
tp7214
a(S'specifically'
p7215
I1
tp7216
a(S'spierit'
p7217
I1
tp7218
a(S'spin'
p7219
I1
tp7220
a(S'splayed'
p7221
I1
tp7222
a(S'sport'
p7223
I1
tp7224
a(S'spot'
p7225
I1
tp7226
a(S'spring!the'
p7227
I1
tp7228
a(S"spring'"
p7229
I1
tp7230
a(S'spring,when'
p7231
I1
tp7232
a(S'spring.he'
p7233
I1
tp7234
a(S'spring.i'
p7235
I1
tp7236
a(S'spring.in'
p7237
I1
tp7238
a(S'spring.saeng'
p7239
I1
tp7240
a(S'spring.they'
p7241
I1
tp7242
a(S'spring.when'
p7243
I1
tp7244
a(S'springin'
p7245
I1
tp7246
a(S'springtime.the'
p7247
I1
tp7248
a(S'spring\x92'
p7249
I1
tp7250
a(S'spring\x94'
p7251
I1
tp7252
a(S'sprout'
p7253
I1
tp7254
a(S'sprouting'
p7255
I1
tp7256
a(S'stain'
p7257
I1
tp7258
a(S'stamen'
p7259
I1
tp7260
a(S'stang'
p7261
I1
tp7262
a(S'staping'
p7263
I1
tp7264
a(S'star'
p7265
I1
tp7266
a(S'starlight.\x94'
p7267
I1
tp7268
a(S'started.also'
p7269
I1
tp7270
a(S'starti'
p7271
I1
tp7272
a(S'statement.well'
p7273
I1
tp7274
a(S'steally'
p7275
I1
tp7276
a(S'stentment'
p7277
I1
tp7278
a(S'stick'
p7279
I1
tp7280
a(S'stilled'
p7281
I1
tp7282
a(S'stood'
p7283
I1
tp7284
a(S'stoping'
p7285
I1
tp7286
a(S'story...because'
p7287
I1
tp7288
a(S'story.he'
p7289
I1
tp7290
a(S'storythe'
p7291
I1
tp7292
a(S'stoy'
p7293
I1
tp7294
a(S'straidth'
p7295
I1
tp7296
a(S'stranger'
p7297
I1
tp7298
a(S'stranger;'
p7299
I1
tp7300
a(S'strart'
p7301
I1
tp7302
a(S'strengthen'
p7303
I1
tp7304
a(S'strgging'
p7305
I1
tp7306
a(S'striving'
p7307
I1
tp7308
a(S'strong.in'
p7309
I1
tp7310
a(S'strong.the'
p7311
I1
tp7312
a(S'stronger.the'
p7313
I1
tp7314
a(S'structure'
p7315
I1
tp7316
a(S'structured'
p7317
I1
tp7318
a(S'student'
p7319
I1
tp7320
a(S'studie'
p7321
I1
tp7322
a(S'studing'
p7323
I1
tp7324
a(S'studying'
p7325
I1
tp7326
a(S'stumble'
p7327
I1
tp7328
a(S'stumbling'
p7329
I1
tp7330
a(S'stuttering'
p7331
I1
tp7332
a(S'subject.the'
p7333
I1
tp7334
a(S'success.the'
p7335
I1
tp7336
a(S'successed'
p7337
I1
tp7338
a(S'suce'
p7339
I1
tp7340
a(S'sucede'
p7341
I1
tp7342
a(S'sucseed'
p7343
I1
tp7344
a(S'suddenly'
p7345
I1
tp7346
a(S'sumarizise'
p7347
I1
tp7348
a(S'summed'
p7349
I1
tp7350
a(S'summerized'
p7351
I1
tp7352
a(S'sumthin'
p7353
I1
tp7354
a(S'suport'
p7355
I1
tp7356
a(S'supported'
p7357
I1
tp7358
a(S'supposively'
p7359
I1
tp7360
a(S'surely'
p7361
I1
tp7362
a(S'surive'
p7363
I1
tp7364
a(S'surprise'
p7365
I1
tp7366
a(S'surprised'
p7367
I1
tp7368
a(S'survive.during'
p7369
I1
tp7370
a(S'survived'
p7371
I1
tp7372
a(S'surviving'
p7373
I1
tp7374
a(S'suspect'
p7375
I1
tp7376
a(S'suspene'
p7377
I1
tp7378
a(S'suspiciou'
p7379
I1
tp7380
a(S'sustain'
p7381
I1
tp7382
a(S'sweater,it'
p7383
I1
tp7384
a(S'sweit'
p7385
I1
tp7386
a(S'symble'
p7387
I1
tp7388
a(S'symbolistic'
p7389
I1
tp7390
a(S'sympathetic'
p7391
I1
tp7392
a(S'syr'
p7393
I1
tp7394
a(S'tacke'
p7395
I1
tp7396
a(S'taht'
p7397
I1
tp7398
a(S'takeing'
p7399
I1
tp7400
a(S'talk.the'
p7401
I1
tp7402
a(S'talke'
p7403
I1
tp7404
a(S'talkin'
p7405
I1
tp7406
a(S'talk\x92'
p7407
I1
tp7408
a(S'tamed'
p7409
I1
tp7410
a(S'task,try'
p7411
I1
tp7412
a(S'tat'
p7413
I1
tp7414
a(S'teaching'
p7415
I1
tp7416
a(S'team'
p7417
I1
tp7418
a(S'teast'
p7419
I1
tp7420
a(S'technique'
p7421
I1
tp7422
a(S'tell\x92'
p7423
I1
tp7424
a(S'temporally'
p7425
I1
tp7426
a(S'tenth'
p7427
I1
tp7428
a(S'terrain'
p7429
I1
tp7430
a(S'terribly'
p7431
I1
tp7432
a(S'test"(ho)'
p7433
I1
tp7434
a(S'test,she'
p7435
I1
tp7436
a(S'test,\xe2\x80\x9d'
p7437
I1
tp7438
a(S'test.explain'
p7439
I1
tp7440
a(S'test.her'
p7441
I1
tp7442
a(S'test.saeng'
p7443
I1
tp7444
a(S'test.she'
p7445
I1
tp7446
a(S'test.they'
p7447
I1
tp7448
a(S'test.with'
p7449
I1
tp7450
a(S'test.\x93it\x92'
p7451
I1
tp7452
a(S'test;'
p7453
I1
tp7454
a(S'tested.the'
p7455
I1
tp7456
a(S'tests.the'
p7457
I1
tp7458
a(S'testshe'
p7459
I1
tp7460
a(S'testthe'
p7461
I1
tp7462
a(S'thagh'
p7463
I1
tp7464
a(S'thaght'
p7465
I1
tp7466
a(S'thaking'
p7467
I1
tp7468
a(S'thal'
p7469
I1
tp7470
a(S'thank'
p7471
I1
tp7472
a(S'thanked'
p7473
I1
tp7474
a(S'that.in'
p7475
I1
tp7476
a(S'thatit'
p7477
I1
tp7478
a(S'thattest'
p7479
I1
tp7480
a(S'thay'
p7481
I1
tp7482
a(S'theauther'
p7483
I1
tp7484
a(S'theauthor'
p7485
I1
tp7486
a(S'theirthe'
p7487
I1
tp7488
a(S'thelast'
p7489
I1
tp7490
a(S'them.i'
p7491
I1
tp7492
a(S'them.the'
p7493
I1
tp7494
a(S'there.the'
p7495
I1
tp7496
a(S'therei'
p7497
I1
tp7498
a(S'therw'
p7499
I1
tp7500
a(S'ther\x92'
p7501
I1
tp7502
a(S'they\x92ll'
p7503
I1
tp7504
a(S'they\x92ve'
p7505
I1
tp7506
a(S'thik'
p7507
I1
tp7508
a(S'thin'
p7509
I1
tp7510
a(S"thing'"
p7511
I1
tp7512
a(S'thing.in'
p7513
I1
tp7514
a(S'things;'
p7515
I1
tp7516
a(S'thingsthe'
p7517
I1
tp7518
a(S'thing\x92'
p7519
I1
tp7520
a(S'think.thi'
p7521
I1
tp7522
a(S'thinking.the'
p7523
I1
tp7524
a(S'this.in'
p7525
I1
tp7526
a(S'this.the'
p7527
I1
tp7528
a(S'this.when'
p7529
I1
tp7530
a(S'thom'
p7531
I1
tp7532
a(S'thought.at'
p7533
I1
tp7534
a(S'thoughts.the'
p7535
I1
tp7536
a(S'thought\x92'
p7537
I1
tp7538
a(S'thourgh'
p7539
I1
tp7540
a(S'thr'
p7541
I1
tp7542
a(S'thre'
p7543
I1
tp7544
a(S'thrend'
p7545
I1
tp7546
a(S'thro'
p7547
I1
tp7548
a(S'throu'
p7549
I1
tp7550
a(S'throug'
p7551
I1
tp7552
a(S'throw'
p7553
I1
tp7554
a(S'thrusting'
p7555
I1
tp7556
a(S'tightly'
p7557
I1
tp7558
a(S'til'
p7559
I1
tp7560
a(S'tiled'
p7561
I1
tp7562
a(S'time.i'
p7563
I1
tp7564
a(S'time.most'
p7565
I1
tp7566
a(S'times.that'
p7567
I1
tp7568
a(S'timewhat'
p7569
I1
tp7570
a(S'tird'
p7571
I1
tp7572
a(S'tisaeng'
p7573
I1
tp7574
a(S'to.i'
p7575
I1
tp7576
a(S'to.\x94'
p7577
I1
tp7578
a(S'toched'
p7579
I1
tp7580
a(S'today'
p7581
I1
tp7582
a(S'togather'
p7583
I1
tp7584
a(S'together.the'
p7585
I1
tp7586
a(S'togod'
p7587
I1
tp7588
a(S'toil'
p7589
I1
tp7590
a(S'toin'
p7591
I1
tp7592
a(S'toke'
p7593
I1
tp7594
a(S'tommorow'
p7595
I1
tp7596
a(S'ton.\x94'
p7597
I1
tp7598
a(S'tongue'
p7599
I1
tp7600
a(S'too.i'
p7601
I1
tp7602
a(S'too.in'
p7603
I1
tp7604
a(S'too\x94'
p7605
I1
tp7606
a(S'tore'
p7607
I1
tp7608
a(S'torn'
p7609
I1
tp7610
a(S'total'
p7611
I1
tp7612
a(S'totally'
p7613
I1
tp7614
a(S'tothe'
p7615
I1
tp7616
a(S'touching'
p7617
I1
tp7618
a(S'tradition.the'
p7619
I1
tp7620
a(S'tragic'
p7621
I1
tp7622
a(S'tragrant'
p7623
I1
tp7624
a(S'trait'
p7625
I1
tp7626
a(S'traits.the'
p7627
I1
tp7628
a(S'transformed'
p7629
I1
tp7630
a(S'trapped'
p7631
I1
tp7632
a(S'treasure'
p7633
I1
tp7634
a(S'trial'
p7635
I1
tp7636
a(S'trip'
p7637
I1
tp7638
a(S'trip.so'
p7639
I1
tp7640
a(S'troubled'
p7641
I1
tp7642
a(S'trown'
p7643
I1
tp7644
a(S'truley'
p7645
I1
tp7646
a(S'trust'
p7647
I1
tp7648
a(S'truth'
p7649
I1
tp7650
a(S'try.the'
p7651
I1
tp7652
a(S'tryed'
p7653
I1
tp7654
a(S'tryin'
p7655
I1
tp7656
a(S'tryinh'
p7657
I1
tp7658
a(S'trys.the'
p7659
I1
tp7660
a(S'tst'
p7661
I1
tp7662
a(S'tthe'
p7663
I1
tp7664
a(S'tto'
p7665
I1
tp7666
a(S'tunnel'
p7667
I1
tp7668
a(S'ture'
p7669
I1
tp7670
a(S'turnig'
p7671
I1
tp7672
a(S'turning'
p7673
I1
tp7674
a(S'twenty'
p7675
I1
tp7676
a(S'twist'
p7677
I1
tp7678
a(S'tying'
p7679
I1
tp7680
a(S"type'"
p7681
I1
tp7682
a(S'tyring'
p7683
I1
tp7684
a(S'u.'
p7685
I1
tp7686
a(S'ua'
p7687
I1
tp7688
a(S'uhen'
p7689
I1
tp7690
a(S'ultimate'
p7691
I1
tp7692
a(S'ultimately'
p7693
I1
tp7694
a(S'ultimatly'
p7695
I1
tp7696
a(S'unclaimed'
p7697
I1
tp7698
a(S'unconcluded'
p7699
I1
tp7700
a(S'undergo'
p7701
I1
tp7702
a(S'undergoe'
p7703
I1
tp7704
a(S'undergoes.i'
p7705
I1
tp7706
a(S'understand.the'
p7707
I1
tp7708
a(S'understandig'
p7709
I1
tp7710
a(S'undividual'
p7711
I1
tp7712
a(S'uneasy'
p7713
I1
tp7714
a(S'unexpected'
p7715
I1
tp7716
a(S'unfimiliar'
p7717
I1
tp7718
a(S'unhappen'
p7719
I1
tp7720
a(S'uniquene'
p7721
I1
tp7722
a(S'unite'
p7723
I1
tp7724
a(S'unknown'
p7725
I1
tp7726
a(S'unlock'
p7727
I1
tp7728
a(S'unordinary'
p7729
I1
tp7730
a(S'unsatisfying'
p7731
I1
tp7732
a(S'unsuccessful'
p7733
I1
tp7734
a(S'up.in'
p7735
I1
tp7736
a(S'up.thi'
p7737
I1
tp7738
a(S'up.\x93when'
p7739
I1
tp7740
a(S'upinto'
p7741
I1
tp7742
a(S'upsetting'
p7743
I1
tp7744
a(S'uptill'
p7745
I1
tp7746
a(S'usher'
p7747
I1
tp7748
a(S'usually'
p7749
I1
tp7750
a(S'uttered'
p7751
I1
tp7752
a(S'valkay'
p7753
I1
tp7754
a(S'valueing'
p7755
I1
tp7756
a(S'vanish'
p7757
I1
tp7758
a(S'variou'
p7759
I1
tp7760
a(S've'
p7761
I1
tp7762
a(S'vegtable'
p7763
I1
tp7764
a(S'vegteble'
p7765
I1
tp7766
a(S'vejetable'
p7767
I1
tp7768
a(S'velet'
p7769
I1
tp7770
a(S'vengeance'
p7771
I1
tp7772
a(S'ver'
p7773
I1
tp7774
a(S'vermilion'
p7775
I1
tp7776
a(S'vew'
p7777
I1
tp7778
a(S'victim'
p7779
I1
tp7780
a(S'vietnam.it'
p7781
I1
tp7782
a(S'vietnam;'
p7783
I1
tp7784
a(S'visual'
p7785
I1
tp7786
a(S'visualizeing.by'
p7787
I1
tp7788
a(S'visualizing'
p7789
I1
tp7790
a(S'vital'
p7791
I1
tp7792
a(S'vivid'
p7793
I1
tp7794
a(S'void'
p7795
I1
tp7796
a(S'vowed.i'
p7797
I1
tp7798
a(S'vows,\x94'
p7799
I1
tp7800
a(S'w/'
p7801
I1
tp7802
a(S'w/the'
p7803
I1
tp7804
a(S'wacth'
p7805
I1
tp7806
a(S'wafled'
p7807
I1
tp7808
a(S'wafted'
p7809
I1
tp7810
a(S'waist'
p7811
I1
tp7812
a(S'waite'
p7813
I1
tp7814
a(S'waited'
p7815
I1
tp7816
a(S'wale'
p7817
I1
tp7818
a(S'walke'
p7819
I1
tp7820
a(S"want'"
p7821
I1
tp7822
a(S'want`'
p7823
I1
tp7824
a(S'wan\x92t\x92'
p7825
I1
tp7826
a(S'war'
p7827
I1
tp7828
a(S'was.they'
p7829
I1
tp7830
a(S'wasedin'
p7831
I1
tp7832
a(S'wasent'
p7833
I1
tp7834
a(S'wash'
p7835
I1
tp7836
a(S'wasnt'
p7837
I1
tp7838
a(S'waste'
p7839
I1
tp7840
a(S'watered,\x94'
p7841
I1
tp7842
a(S'watste'
p7843
I1
tp7844
a(S'way.i'
p7845
I1
tp7846
a(S'way.saeng'
p7847
I1
tp7848
a(S'way.\x93winter'
p7849
I1
tp7850
a(S'ways.in'
p7851
I1
tp7852
a(S'weakne'
p7853
I1
tp7854
a(S'weaknesse'
p7855
I1
tp7856
a(S'wealth'
p7857
I1
tp7858
a(S'wean'
p7859
I1
tp7860
a(S'wear'
p7861
I1
tp7862
a(S'weary'
p7863
I1
tp7864
a(S'wed'
p7865
I1
tp7866
a(S'weep'
p7867
I1
tp7868
a(S'weight'
p7869
I1
tp7870
a(S'well.i'
p7871
I1
tp7872
a(S'well.it'
p7873
I1
tp7874
a(S'well.the'
p7875
I1
tp7876
a(S'well?'
p7877
I1
tp7878
a(S'welli'
p7879
I1
tp7880
a(S'well\x94'
p7881
I1
tp7882
a(S'wept,\x94'
p7883
I1
tp7884
a(S'wereing'
p7885
I1
tp7886
a(S'were\x92nt'
p7887
I1
tp7888
a(S'wew'
p7889
I1
tp7890
a(S'we\x96what'
p7891
I1
tp7892
a(S'whant'
p7893
I1
tp7894
a(S'what?\x94'
p7895
I1
tp7896
a(S'whch'
p7897
I1
tp7898
a(S'whe'
p7899
I1
tp7900
a(S'wher'
p7901
I1
tp7902
a(S'whera'
p7903
I1
tp7904
a(S'whereelse'
p7905
I1
tp7906
a(S'whereever'
p7907
I1
tp7908
a(S'whose'
p7909
I1
tp7910
a(S'whot'
p7911
I1
tp7912
a(S'wht'
p7913
I1
tp7914
a(S'wich'
p7915
I1
tp7916
a(S'wiil'
p7917
I1
tp7918
a(S'wild,\x94'
p7919
I1
tp7920
a(S'will.the'
p7921
I1
tp7922
a(S'willed'
p7923
I1
tp7924
a(S'willtake'
p7925
I1
tp7926
a(S'wind.\x94'
p7927
I1
tp7928
a(S'window'
p7929
I1
tp7930
a(S'winte'
p7931
I1
tp7932
a(S"winter'"
p7933
I1
tp7934
a(S'winter.hope'
p7935
I1
tp7936
a(S'winter.i'
p7937
I1
tp7938
a(S'winter.in'
p7939
I1
tp7940
a(S'winter.she'
p7941
I1
tp7942
a(S'winter.\x94'
p7943
I1
tp7944
a(S'winter\x94'
p7945
I1
tp7946
a(S'wiry'
p7947
I1
tp7948
a(S'wisdom'
p7949
I1
tp7950
a(S'wise'
p7951
I1
tp7952
a(S'wise.the'
p7953
I1
tp7954
a(S'wishing'
p7955
I1
tp7956
a(S'witer'
p7957
I1
tp7958
a(S'withe'
p7959
I1
tp7960
a(S'woked'
p7961
I1
tp7962
a(S'wont`'
p7963
I1
tp7964
a(S'wording'
p7965
I1
tp7966
a(S'work-candle'
p7967
I1
tp7968
a(S'workout'
p7969
I1
tp7970
a(S'world,\x94'
p7971
I1
tp7972
a(S'world.")'
p7973
I1
tp7974
a(S'world.?the'
p7975
I1
tp7976
a(S'world.having'
p7977
I1
tp7978
a(S'world\x94'
p7979
I1
tp7980
a(S'worn'
p7981
I1
tp7982
a(S'worthle'
p7983
I1
tp7984
a(S'worthwhile'
p7985
I1
tp7986
a(S'wownt'
p7987
I1
tp7988
a(S'wright'
p7989
I1
tp7990
a(S'writer'
p7991
I1
tp7992
a(S'wrost'
p7993
I1
tp7994
a(S'wrotez'
p7995
I1
tp7996
a(S'xample'
p7997
I1
tp7998
a(S'year.determination'
p7999
I1
tp8000
a(S'year.he'
p8001
I1
tp8002
a(S'year.the'
p8003
I1
tp8004
a(S'year.when'
p8005
I1
tp8006
a(S'year.\x94'
p8007
I1
tp8008
a(S'yell'
p8009
I1
tp8010
a(S'yellow'
p8011
I1
tp8012
a(S'yor'
p8013
I1
tp8014
a(S'you.the'
p8015
I1
tp8016
a(S'youst'
p8017
I1
tp8018
a(S'you\x92re'
p8019
I1
tp8020
a(S'you\x92ve'
p8021
I1
tp8022
a(S'zone'
p8023
I1
tp8024
a(S'\x91@caps1'
p8025
I1
tp8026
a(S'\x91dok'
p8027
I1
tp8028
a(S'\x91i'
p8029
I1
tp8030
a(S'\x91not'
p8031
I1
tp8032
a(S'\x91seem'
p8033
I1
tp8034
a(S'\x91she'
p8035
I1
tp8036
a(S'\x91the'
p8037
I1
tp8038
a(S'\x91\x92'
p8039
I1
tp8040
a(S'\x91\x92a'
p8041
I1
tp8042
a(S'\x92\x92@caps1'
p8043
I1
tp8044
a(S'\x93(ho)'
p8045
I1
tp8046
a(S'\x93...then'
p8047
I1
tp8048
a(S'\x93..she'
p8049
I1
tp8050
a(S'\x93.so'
p8051
I1
tp8052
a(S'\x93@caps3'
p8053
I1
tp8054
a(S'\x93@person1'
p8055
I1
tp8056
a(S'\x93[@num2]'
p8057
I1
tp8058
a(S'\x93after'
p8059
I1
tp8060
a(S'\x93an'
p8061
I1
tp8062
a(S'\x93and\x94'
p8063
I1
tp8064
a(S'\x93at'
p8065
I1
tp8066
a(S'\x93aware'
p8067
I1
tp8068
a(S'\x93back'
p8069
I1
tp8070
a(S'\x93beautiful'
p8071
I1
tp8072
a(S'\x93because'
p8073
I1
tp8074
a(S'\x93blossom\x94'
p8075
I1
tp8076
a(S'\x93cheep'
p8077
I1
tp8078
a(S'\x93comfort'
p8079
I1
tp8080
a(S'\x93died\x94'
p8081
I1
tp8082
a(S'\x93dies\x94'
p8083
I1
tp8084
a(S'\x93dug'
p8085
I1
tp8086
a(S'\x93end'
p8087
I1
tp8088
a(S'\x93failed'
p8089
I1
tp8090
a(S'\x93felt'
p8091
I1
tp8092
a(S'\x93geese'
p8093
I1
tp8094
a(S'\x93hear\x94'
p8095
I1
tp8096
a(S'\x93hidiscu'
p8097
I1
tp8098
a(S'\x93home.\x94'
p8099
I1
tp8100
a(S'\x93home\x94'
p8101
I1
tp8102
a(S'\x93how'
p8103
I1
tp8104
a(S'\x93if'
p8105
I1
tp8106
a(S'\x93its\x92'
p8107
I1
tp8108
a(S"\x93it\x92s-it'"
p8109
I1
tp8110
a(S'\x93it\x92s-it\x92'
p8111
I1
tp8112
a(S'\x93i\x96i'
p8113
I1
tp8114
a(S'\x93jasmine\x94'
p8115
I1
tp8116
a(S'\x93left'
p8117
I1
tp8118
a(S'\x93long'
p8119
I1
tp8120
a(S'\x93madagascar'
p8121
I1
tp8122
a(S'\x93mashaft'
p8123
I1
tp8124
a(S'\x93never'
p8125
I1
tp8126
a(S'\x93next'
p8127
I1
tp8128
a(S'\x93no'
p8129
I1
tp8130
a(S'\x93obstacle,\x94'
p8131
I1
tp8132
a(S'\x93old'
p8133
I1
tp8134
a(S'\x93one'
p8135
I1
tp8136
a(S'\x93passage'
p8137
I1
tp8138
a(S'\x93plant\x94'
p8139
I1
tp8140
a(S'\x93reluctantly\x94'
p8141
I1
tp8142
a(S'\x93return\x94'
p8143
I1
tp8144
a(S'\x93run'
p8145
I1
tp8146
a(S'\x93slowly'
p8147
I1
tp8148
a(S'\x93spring\x94'
p8149
I1
tp8150
a(S'\x93strange'
p8151
I1
tp8152
a(S'\x93use'
p8153
I1
tp8154
a(S'\x93vowed\x94'
p8155
I1
tp8156
a(S'\x93war\x94'
p8157
I1
tp8158
a(S'\x93waxy'
p8159
I1
tp8160
a(S'\x93what'
p8161
I1
tp8162
a(S'\x93where'
p8163
I1
tp8164
a(S'\x93while'
p8165
I1
tp8166
a(S'\x93winter\x94'
p8167
I1
tp8168
a(S'\x93\x92when'
p8169
I1
tp8170
a(S'\x94(no)'
p8171
I1
tp8172
a(S'\x94etc'
p8173
I1
tp8174
a(S'\x94hibiscu'
p8175
I1
tp8176
a(S'\x94it'
p8177
I1
tp8178
a(S'\x94many'
p8179
I1
tp8180
a(S'\x94the'
p8181
I1
tp8182
a(S'\x94then'
p8183
I1
tp8184
a(S'\x94there'
p8185
I1
tp8186
a(S'\x96just'
p8187
I1
tp8188
a(S'\x96minded'
p8189
I1
tp8190
a(S'\x96yes-'
p8191
I1
tp8192
a(S'\x96yes-fimiliar'
p8193
I1
tp8194
a(S'\xe2\x80\x93'
p8195
I1
tp8196
a(S'\xe2\x80\x9ci-i'
p8197
I1
tp8198
a(S'\xe2\x80\x9cwhen'
p8199
I1
tp8200
a.