(lp1
(S'building'
p2
I3267
tp3
a(S'dirigible'
p4
I2833
tp5
a(S'wa'
p6
I2779
tp7
a(S'state'
p8
I1879
tp9
a(S'would'
p10
I1875
tp11
a(S'obstacle'
p12
I1675
tp13
a(S'empire'
p14
I1655
tp15
a(S'mast'
p16
I1445
tp17
a(S'builder'
p18
I1194
tp19
a(S'mooring'
p20
I1154
tp21
a(S'faced'
p22
I984
tp23
a(S'dock'
p24
I972
tp25
a(S'wind'
p26
I913
tp27
a(S'thi'
p28
I843
tp29
a(S'top'
p30
I771
tp31
a(S'could'
p32
I723
tp33
a(S'area'
p34
I687
tp35
a(S'many'
p36
I687
tp37
a(S'hydrogen'
p38
I680
tp39
a(S'problem'
p40
I606
tp41
a(S'law'
p42
I598
tp43
a(S'allow'
p44
I596
tp45
a(S'new'
p46
I586
tp47
a(S'one'
p48
I472
tp49
a(S'attempting'
p50
I419
tp51
a(S'also'
p52
I415
tp53
a(S'air'
p54
I408
tp55
a(S'another'
p56
I405
tp57
a(S'frame'
p58
I395
tp59
a(S'airship'
p60
I384
tp61
a(S'around'
p62
I383
tp63
a(S'york'
p64
I382
tp65
a(S'low'
p66
I377
tp67
a(S'urban'
p68
I360
tp69
a(S'safety'
p70
I355
tp71
a(S'stre'
p72
I354
tp73
a(S'blimp'
p74
I353
tp75
a(S'flammable'
p76
I353
tp77
a(S'current'
p78
I352
tp79
a(S'nature'
p80
I352
tp81
a(S'highly'
p82
I347
tp83
a(S'used'
p84
I334
tp85
a(S'violent'
p86
I328
tp87
a(S'even'
p88
I326
tp89
a(S'due'
p90
I311
tp91
a(S"building'"
p92
I310
tp93
a(S'caps1'
p94
I310
tp95
a(S'idea'
p96
I299
tp97
a(S'make'
p98
I298
tp99
a(S'made'
p100
I289
tp101
a(S'flying'
p102
I287
tp103
a(S'helium'
p104
I280
tp105
a(S'ship'
p106
I276
tp107
a(S'back'
p108
I262
tp109
a(S'reason'
p110
I258
tp111
a(S'populated'
p112
I245
tp113
a(S'architect'
p114
I239
tp115
a(S'constantly'
p116
I239
tp117
a(S'excerpt'
p118
I237
tp119
a(S'use'
p120
I237
tp121
a(S'shifting'
p122
I235
tp123
a(S'way'
p124
I227
tp125
a(S'city'
p126
I219
tp127
a(S'people'
p128
I212
tp129
a(S'weight'
p130
I206
tp131
a(S'outside'
p132
I204
tp133
a(S'fire'
p134
I201
tp135
a(S'add'
p136
I200
tp137
a(S'docking'
p138
I195
tp139
a(S'first'
p140
I194
tp141
a(S'landing'
p142
I192
tp143
a(S'thousand'
p144
I192
tp145
a(S'safe'
p146
I191
tp147
a(S'never'
p148
I189
tp149
a(S'high'
p150
I182
tp151
a(S'paragraph'
p152
I182
tp153
a(S'illegal'
p154
I180
tp155
a(S'rather'
p156
I175
tp157
a(S'existing'
p158
I169
tp159
a(S'much'
p160
I168
tp161
a(S'get'
p162
I162
tp163
a(S'realized'
p164
I162
tp165
a(S'swivel'
p166
I162
tp167
a(S'densely'
p168
I159
tp169
a(S'issue'
p170
I158
tp171
a(S'num1'
p172
I158
tp173
a(S'greatest'
p174
I155
tp175
a(S'like'
p176
I154
tp177
a(S'pressure'
p178
I153
tp179
a(S'tie'
p180
I152
tp181
a(S'dangerou'
p182
I151
tp183
a(S'hindenburg'
p184
I151
tp185
a(S'united'
p186
I151
tp187
a(S'pedestrian'
p188
I150
tp189
a(S'accident'
p190
I147
tp191
a(S'practical'
p192
I147
tp193
a(S'cause'
p194
I144
tp195
a(S'place'
p196
I144
tp197
a(S'smith'
p198
I144
tp199
a(S'ever'
p200
I137
tp201
a(S'moored'
p202
I136
tp203
a(S'foundation'
p204
I134
tp205
a(S'fly'
p206
I132
tp207
a(S'steel'
p208
I130
tp209
a(S'al'
p210
I129
tp211
a(S'lead'
p212
I128
tp213
a(S'put'
p214
I124
tp215
a(S'modification'
p216
I119
tp217
a(S'close'
p218
I117
tp219
a(S'able'
p220
I116
tp221
a(S'marcia'
p222
I116
tp223
a(S'passenger'
p224
I116
tp225
a(S'face'
p226
I114
tp227
a(S'amidon'
p228
I113
tp229
a(S'enough'
p230
I112
tp231
a(S'street'
p232
I111
tp233
a(S'sixty'
p234
I110
tp235
a(S'land'
p236
I109
tp237
a(S'work'
p238
I108
tp239
a(S'feet'
p240
I107
tp241
a(S'downtown'
p242
I106
tp243
a(S'l\xfcsted'
p244
I105
tp245
a(S'trying'
p246
I105
tp247
a(S'load'
p248
I103
tp249
a(S'cable'
p250
I101
tp251
a(S"couldn't"
p252
I100
tp253
a(S'german'
p254
I99
tp255
a(S'tethered'
p256
I98
tp257
a(S'time'
p258
I98
tp259
a(S'plan'
p260
I96
tp261
a(S'tether'
p262
I96
tp263
a(S'dangling'
p264
I95
tp265
a(S'owner'
p266
I95
tp267
a(S'single'
p268
I95
tp269
a(S'height'
p270
I94
tp271
a(S'roof'
p272
I94
tp273
a(S'attempt'
p274
I93
tp275
a(S'destroyed'
p276
I93
tp277
a(S'framework'
p278
I91
tp279
a(S'strong'
p280
I91
tp281
a(S'worker'
p282
I89
tp283
a(S'caps2'
p284
I88
tp285
a(S'great'
p286
I88
tp287
a(S'worse'
p288
I88
tp289
a(S'dollar'
p290
I87
tp291
a(S'build'
p292
I86
tp293
a(S'say'
p294
I86
tp295
a(S'thing'
p296
I86
tp297
a(S'modified'
p298
I85
tp299
a(S'allowing'
p300
I84
tp301
a(S'held'
p302
I84
tp303
a(S'obsticle'
p304
I84
tp305
a(S'major'
p306
I82
tp307
a(S'construction'
p308
I81
tp309
a(S'making'
p310
I81
tp311
a(S'worth'
p312
I81
tp313
a(S'num1)'
p314
I80
tp315
a(S'approach'
p316
I77
tp317
a(S'lot'
p318
I77
tp319
a(S"dirigible'"
p320
I76
tp321
a(S'go'
p322
I76
tp323
a(S'order'
p324
I76
tp325
a(S'said'
p326
I76
tp327
a(S'strengthened'
p328
I76
tp329
a(S'transmitted'
p330
I76
tp331
a(S'difficult'
p332
I75
tp333
a(S'example'
p334
I75
tp335
a(S'using'
p336
I75
tp337
a(S'drop'
p338
I74
tp339
a(S'jersey'
p340
I74
tp341
a(S'neither'
p342
I73
tp343
a(S'unsafe'
p344
I73
tp345
a(S'main'
p346
I72
tp347
a(S'moor'
p348
I71
tp349
a(S'instead'
p350
I70
tp351
a(S'filled'
p352
I69
tp353
a(S'project'
p354
I69
tp355
a(S'risk'
p356
I69
tp357
a(S'end'
p358
I68
tp359
a(S'purpose'
p360
I68
tp361
a(S'fact'
p362
I67
tp363
a(S'however'
p364
I67
tp365
a(S'last'
p366
I67
tp367
a(S'simply'
p368
I67
tp369
a(S'structure'
p370
I67
tp371
a(S'docked'
p372
I66
tp373
a(S'ga'
p374
I66
tp375
a(S'suitable'
p376
I66
tp377
a(S'danger'
p378
I65
tp379
a(S'needed'
p380
I65
tp381
a(S'num2'
p382
I65
tp383
a(S'stated'
p384
I65
tp385
a(S'caused'
p386
I64
tp387
a(S'lack'
p388
I64
tp389
a(S'several'
p390
I64
tp391
a(S'successful'
p392
I64
tp393
a(S'take'
p394
I64
tp395
a(S'transportation'
p396
I64
tp397
a(S'accommodate'
p398
I63
tp399
a(S'flat'
p400
I63
tp401
a(S'going'
p402
I63
tp403
a(S"it'"
p404
I63
tp405
a(S'open'
p406
I63
tp407
a(S'organization2'
p408
I63
tp409
a(S'went'
p410
I63
tp411
a(S'big'
p412
I62
tp413
a(S"didn't"
p414
I62
tp415
a(S'spire'
p416
I62
tp417
a(S'field'
p418
I61
tp419
a(S'something'
p420
I61
tp421
a(S'thousand-foot'
p422
I61
tp423
a(S'(paragraph'
p424
I60
tp425
a(S'extremely'
p426
I60
tp427
a(S'tallest'
p428
I60
tp429
a(S'impossible'
p430
I59
tp431
a(S'thought'
p432
I59
tp433
a(S'added'
p434
I58
tp435
a(S'hard'
p436
I58
tp437
a(S'situation'
p438
I58
tp439
a(S'u.s'
p440
I58
tp441
a(S'came'
p442
I57
tp443
a(S'flamable'
p444
I57
tp445
a(S'taken'
p446
I57
tp447
a(S'final'
p448
I55
tp449
a(S'tied'
p450
I55
tp451
a(S'although'
p452
I54
tp453
a(S"wasn't"
p454
I54
tp455
a(S'may'
p456
I53
tp457
a(S'aircraft'
p458
I52
tp459
a(S'challenge'
p460
I52
tp461
a(S'cost'
p462
I52
tp463
a(S'foot'
p464
I52
tp465
a(S'fulfill'
p466
I52
tp467
a(S'let'
p468
I52
tp469
a(S'two'
p470
I52
tp471
a(S'weather'
p472
I52
tp473
a(S'well'
p474
I52
tp475
a(S'finally'
p476
I51
tp477
a(S'huge'
p478
I51
tp479
a(S'lastly'
p480
I51
tp481
a(S'since'
p482
I51
tp483
a(S'built'
p484
I50
tp485
a(S'good'
p486
I50
tp487
a(S'building.the'
p488
I49
tp489
a(S'happen'
p490
I49
tp491
a(S'hi'
p492
I49
tp493
a(S'need'
p494
I49
tp495
a(S'support'
p496
I49
tp497
a(S'organization1'
p498
I48
tp499
a(S'lakehurst'
p500
I47
tp501
a(S'large'
p502
I47
tp503
a(S'modify'
p504
I47
tp505
a(S'weighted'
p506
I47
tp507
a(S'atop'
p508
I46
tp509
a(S'changing'
p510
I46
tp511
a(S'second'
p512
I46
tp513
a(S'still'
p514
I46
tp515
a(S'num2)'
p516
I45
tp517
a(S'come'
p518
I44
tp519
a(S'destined'
p520
I44
tp521
a(S'engineer'
p522
I44
tp523
a(S'happened'
p524
I44
tp525
a(S'wanted'
p526
I44
tp527
a(S'floor'
p528
I43
tp529
a(S'ground'
p530
I43
tp531
a(S'prevented'
p532
I43
tp533
a(S'without'
p534
I43
tp535
a(S'balloon'
p536
I42
tp537
a(S'caught'
p538
I42
tp539
a(S'constructing'
p540
I42
tp541
a(S'hundred'
p542
I42
tp543
a(S'think'
p544
I42
tp545
a(S'biggest'
p546
I41
tp547
a(S'change'
p548
I41
tp549
a(S'money1'
p550
I41
tp551
a(S'overcome'
p552
I41
tp553
a(S'attempted'
p554
I40
tp555
a(S'became'
p556
I40
tp557
a(S'hold'
p558
I40
tp559
a(S'long'
p560
I40
tp561
a(S'mean'
p562
I40
tp563
a(S'1937'
p564
I39
tp565
a(S'alway'
p566
I39
tp567
a(S'bad'
p568
I39
tp569
a(S'chrysler'
p570
I39
tp571
a(S'keep'
p572
I39
tp573
a(S'lo'
p574
I39
tp575
a(S'though'
p576
I39
tp577
a(S'nearly'
p578
I38
tp579
a(S'sharp'
p580
I38
tp581
a(S'strengthen'
p582
I38
tp583
a(S'tower'
p584
I38
tp585
a(S'want'
p586
I38
tp587
a(S'already'
p588
I37
tp589
a(S'angele'
p590
I37
tp591
a(S'conclusion'
p592
I37
tp593
a(S'constructed'
p594
I37
tp595
a(S'dream'
p596
I37
tp597
a(S'station'
p598
I37
tp599
a(S'author'
p600
I36
tp601
a(S'blow'
p602
I36
tp603
a(S'future'
p604
I36
tp605
a(S'hour'
p606
I36
tp607
a(S'onto'
p608
I36
tp609
a(S'wrong'
p610
I36
tp611
a(S'anchor'
p612
I35
tp613
a(S'catch'
p614
I35
tp615
a(S'design'
p616
I35
tp617
a(S'factor'
p618
I35
tp619
a(S'money'
p620
I35
tp621
a(S'safely'
p622
I35
tp623
a(S'whole'
p624
I35
tp625
a(S'possible'
p626
I34
tp627
a(S'therefore'
p628
I34
tp629
a(S'world'
p630
I34
tp631
a(S"wouldn't"
p632
I34
tp633
a(S'6'
I33
tp634
a(S'article'
p635
I33
tp636
a(S'swing'
p637
I33
tp638
a(S'tried'
p639
I33
tp640
a(S'adding'
p641
I32
tp642
a(S'disaster'
p643
I32
tp644
a(S'done'
p645
I32
tp646
a(S'fix'
p647
I32
tp648
a(S'next'
p649
I32
tp650
a(S'apparent'
p651
I31
tp652
a(S'caps3'
p653
I31
tp654
a(S'causing'
p655
I31
tp656
a(S'concern'
p657
I31
tp658
a(S'fall'
p659
I31
tp660
a(S'right'
p661
I31
tp662
a(S'service'
p663
I31
tp664
a(S'travel'
p665
I31
tp666
a(S'1,250'
p667
I30
tp668
a(S'amount'
p669
I30
tp670
a(S'control'
p671
I30
tp672
a(S'designed'
p673
I30
tp674
a(S'eleven'
p675
I30
tp676
a(S'foreign'
p677
I30
tp678
a(S'hazard'
p679
I30
tp680
a(S'reach'
p681
I30
tp682
a(S'tall'
p683
I30
tp684
a(S"dollars'"
p685
I29
tp686
a(S'forceful'
p687
I29
tp688
a(S'navy'
p689
I29
tp690
a(S'really'
p691
I29
tp692
a(S'refueling'
p693
I29
tp694
a(S'show'
p695
I29
tp696
a(S'speed'
p697
I29
tp698
a(S'taller'
p699
I29
tp700
a(S'actually'
p701
I28
tp702
a(S'damage'
p703
I28
tp704
a(S'encountered'
p705
I28
tp706
a(S'location1'
p707
I28
tp708
a(S'meant'
p709
I28
tp710
a(S'near'
p711
I28
tp712
a(S'third'
p713
I28
tp714
a(S'try'
p715
I28
tp716
a(S'alot'
p717
I27
tp718
a(S'become'
p719
I27
tp720
a(S'create'
p721
I27
tp722
a(S'easy'
p723
I27
tp724
a(S'got'
p725
I27
tp726
a(S'reality'
p727
I27
tp728
a(S'weigh'
p729
I27
tp730
a(S'yet'
p731
I27
tp732
a(S''
I26
tp733
a(S'according'
p734
I26
tp735
a(S'designing'
p736
I26
tp737
a(S'easily'
p738
I26
tp739
a(S'found'
p740
I26
tp741
a(S'heavy'
p742
I26
tp743
a(S'sure'
p744
I26
tp745
a(S'(\xb6'
p746
I25
tp747
a(S'front'
p748
I25
tp749
a(S'gase'
p750
I25
tp751
a(S'ma'
p752
I25
tp753
a(S'move'
p754
I25
tp755
a(S'overall'
p756
I25
tp757
a(S'putting'
p758
I25
tp759
a(S'set'
p760
I25
tp761
a(S'stainle'
p762
I25
tp763
a(S'&'
I24
tp764
a(S'(@caps1'
p765
I24
tp766
a(S'altitude'
p767
I24
tp768
a(S'different'
p769
I24
tp770
a(S'drigible'
p771
I24
tp772
a(S'entire'
p773
I24
tp774
a(S'proce'
p775
I24
tp776
a(S'sway'
p777
I24
tp778
a(S'task'
p779
I24
tp780
a(S'zeppelin'
p781
I24
tp782
a(S'addition'
p783
I23
tp784
a(S'completed'
p785
I23
tp786
a(S'failed'
p787
I23
tp788
a(S'ft'
p789
I23
tp790
a(S'gla'
p791
I23
tp792
a(S'know'
p793
I23
tp794
a(S'known'
p795
I23
tp796
a(S'later'
p797
I23
tp798
a(S'num3'
p799
I23
tp800
a(S'observation'
p801
I23
tp802
a(S'person1'
p803
I23
tp804
a(S'ran'
p805
I23
tp806
a(S'realize'
p807
I23
tp808
a(S'see'
p809
I23
tp810
a(S'stable'
p811
I23
tp812
a(S'stay'
p813
I23
tp814
a(S'1930'
p815
I22
tp816
a(S'considered'
p817
I22
tp818
a(S'equipment'
p819
I22
tp820
a(S'hanging'
p821
I22
tp822
a(S'planned'
p823
I22
tp824
a(S'potential'
p825
I22
tp826
a(S'there.the'
p827
I22
tp828
a(S'attached'
p829
I21
tp830
a(S'construct'
p831
I21
tp832
a(S'hit'
p833
I21
tp834
a(S'mask'
p835
I21
tp836
a(S'num3)'
p837
I21
tp838
a(S'result'
p839
I21
tp840
a(S'safty'
p841
I21
tp842
a(S'shift'
p843
I21
tp844
a(S"smith'"
p845
I21
tp846
a(S'soon'
p847
I21
tp848
a(S'building.in'
p849
I20
tp850
a(S'citie'
p851
I20
tp852
a(S'condition'
p853
I20
tp854
a(S'deal'
p855
I20
tp856
a(S'decided'
p857
I20
tp858
a(S'expanded'
p859
I20
tp860
a(S'fear'
p861
I20
tp862
a(S'goal'
p863
I20
tp864
a(S'important'
p865
I20
tp866
a(S'inside'
p867
I20
tp868
a(S'winch'
p869
I20
tp870
a(S'anything'
p871
I19
tp872
a(S'blowing'
p873
I19
tp874
a(S'failure'
p875
I19
tp876
a(S'getting'
p877
I19
tp878
a(S'higher'
p879
I19
tp880
a(S'led'
p881
I19
tp882
a(S'proved'
p883
I19
tp884
a(S'public'
p885
I19
tp886
a(S'puncture'
p887
I19
tp888
a(S'three'
p889
I19
tp890
a(S'unable'
p891
I19
tp892
a(S'weighed'
p893
I19
tp894
a(S"world'"
p895
I19
tp896
a(S'approached'
p897
I18
tp898
a(S'crash'
p899
I18
tp900
a(S'december'
p901
I18
tp902
a(S'derigible'
p903
I18
tp904
a(S'explain'
p905
I18
tp906
a(S'explode'
p907
I18
tp908
a(S'find'
p909
I18
tp910
a(S'line'
p911
I18
tp912
a(S'seemed'
p913
I18
tp914
a(S'shiny'
p915
I18
tp916
a(S'(@num1)'
p917
I17
tp918
a(S'(l\xfcsted'
p919
I17
tp920
a(S'called'
p921
I17
tp922
a(S'chrome-nickel'
p923
I17
tp924
a(S'complete'
p925
I17
tp926
a(S'countrie'
p927
I17
tp928
a(S'created'
p929
I17
tp930
a(S'expert'
p931
I17
tp932
a(S'extra'
p933
I17
tp934
a(S'four'
p935
I17
tp936
a(S'live'
p937
I17
tp938
a(S'location2'
p939
I17
tp940
a(S'original'
p941
I17
tp942
a(S'possibly'
p943
I17
tp944
a(S'prohibited'
p945
I17
tp946
a(S'quite'
p947
I17
tp948
a(S'skeleton'
p949
I17
tp950
a(S'spend'
p951
I17
tp952
a(S'took'
p953
I17
tp954
a(S'blown'
p955
I16
tp956
a(S'clear'
p957
I16
tp958
a(S'date1'
p959
I16
tp960
a(S'describe'
p961
I16
tp962
a(S'electric'
p963
I16
tp964
a(S'eventually'
p965
I16
tp966
a(S'everything'
p967
I16
tp968
a(S'flame'
p969
I16
tp970
a(S'framing'
p971
I16
tp972
a(S'largest'
p973
I16
tp974
a(S'legal'
p975
I16
tp976
a(S'numerou'
p977
I16
tp978
a(S'presented'
p979
I16
tp980
a(S'saw'
p981
I16
tp982
a(S'spent'
p983
I16
tp984
a(S'strengthening'
p985
I16
tp986
a(S'working'
p987
I16
tp988
a(S'102'
p989
I15
tp990
a(S'allowed'
p991
I15
tp992
a(S'along'
p993
I15
tp994
a(S'attach'
p995
I15
tp996
a(S'dirigble'
p997
I15
tp998
a(S'either'
p999
I15
tp1000
a(S'enormou'
p1001
I15
tp1002
a(S'fixed'
p1003
I15
tp1004
a(S'government'
p1005
I15
tp1006
a(S'included'
p1007
I15
tp1008
a(S'late'
p1009
I15
tp1010
a(S'location'
p1011
I15
tp1012
a(S'might'
p1013
I15
tp1014
a(S'modern'
p1015
I15
tp1016
a(S'moving'
p1017
I15
tp1018
a(S'nothing'
p1019
I15
tp1020
a(S'obviou'
p1021
I15
tp1022
a(S'part'
p1023
I15
tp1024
a(S'passage'
p1025
I15
tp1026
a(S'posed'
p1027
I15
tp1028
a(S'stronger'
p1029
I15
tp1030
a(S'succe'
p1031
I15
tp1032
a(S'taking'
p1033
I15
tp1034
a(S'technology'
p1035
I15
tp1036
a(S'violently'
p1037
I15
tp1038
a(S'walking'
p1039
I15
tp1040
a(S'worked'
p1041
I15
tp1042
a(S'acro'
p1043
I14
tp1044
a(S'away'
p1045
I14
tp1046
a(S'block'
p1047
I14
tp1048
a(S"builder'"
p1049
I14
tp1050
a(S'civilian'
p1051
I14
tp1052
a(S'clearly'
p1053
I14
tp1054
a(S'complication'
p1055
I14
tp1056
a(S'crowded'
p1057
I14
tp1058
a(S'difficulty'
p1059
I14
tp1060
a(S'dropped'
p1061
I14
tp1062
a(S'effect'
p1063
I14
tp1064
a(S'far'
p1065
I14
tp1066
a(S'ha'
p1067
I14
tp1068
a(S'harm'
p1069
I14
tp1070
a(S'knew'
p1071
I14
tp1072
a(S'mother'
p1073
I14
tp1074
a(S'multiple'
p1075
I14
tp1076
a(S'occurred'
p1077
I14
tp1078
a(S'point'
p1079
I14
tp1080
a(S'shell'
p1081
I14
tp1082
a(S'size'
p1083
I14
tp1084
a(S'stating'
p1085
I14
tp1086
a(S'stop'
p1087
I14
tp1088
a(S'thu'
p1089
I14
tp1090
a(S'town'
p1091
I14
tp1092
a(S'unpredictable'
p1093
I14
tp1094
a(S'unstable'
p1095
I14
tp1096
a(S"1930'"
p1097
I13
tp1098
a(S'account'
p1099
I13
tp1100
a(S'bring'
p1101
I13
tp1102
a(S"can't"
p1103
I13
tp1104
a(S'craft'
p1105
I13
tp1106
a(S'effort'
p1107
I13
tp1108
a(S'exploded'
p1109
I13
tp1110
a(S'explosion'
p1111
I13
tp1112
a(S'hand'
p1113
I13
tp1114
a(S'head'
p1115
I13
tp1116
a(S'involved'
p1117
I13
tp1118
a(S'landed'
p1119
I13
tp1120
a(S'lighter'
p1121
I13
tp1122
a(S'mast.the'
p1123
I13
tp1124
a(S'material'
p1125
I13
tp1126
a(S'obstical'
p1127
I13
tp1128
a(S'occur'
p1129
I13
tp1130
a(S'planning'
p1131
I13
tp1132
a(S'prove'
p1133
I13
tp1134
a(S'refuel'
p1135
I13
tp1136
a(S'serve'
p1137
I13
tp1138
a(S'start'
p1139
I13
tp1140
a(S'story'
p1141
I13
tp1142
a(S'swiveling'
p1143
I13
tp1144
a(S'thinking'
p1145
I13
tp1146
a(S'threat'
p1147
I13
tp1148
a(S'unfortunately'
p1149
I13
tp1150
a(S'unrealistic'
p1151
I13
tp1152
a(S'11'
p1153
I12
tp1154
a(S'almost'
p1155
I12
tp1156
a(S'aviation'
p1157
I12
tp1158
a(S'caps4'
p1159
I12
tp1160
a(S'citizen'
p1161
I12
tp1162
a(S'date'
p1163
I12
tp1164
a(S'day'
p1165
I12
tp1166
a(S'desirable'
p1167
I12
tp1168
a(S'direction'
p1169
I12
tp1170
a(S'dirigable'
p1171
I12
tp1172
a(S'especially'
p1173
I12
tp1174
a(S'figure'
p1175
I12
tp1176
a(S'force'
p1177
I12
tp1178
a(S'governor'
p1179
I12
tp1180
a(S'hope'
p1181
I12
tp1182
a(S'impractical'
p1183
I12
tp1184
a(S'incident'
p1185
I12
tp1186
a(S'kept'
p1187
I12
tp1188
a(S'killed'
p1189
I12
tp1190
a(S'letting'
p1191
I12
tp1192
a(S'life'
p1193
I12
tp1194
a(S'looked'
p1195
I12
tp1196
a(S'mainly'
p1197
I12
tp1198
a(S'massive'
p1199
I12
tp1200
a(S'mind'
p1201
I12
tp1202
a(S'number'
p1203
I12
tp1204
a(S'per'
p1205
I12
tp1206
a(S'population'
p1207
I12
tp1208
a(S'potentially'
p1209
I12
tp1210
a(S'prevent'
p1211
I12
tp1212
a(S'quote'
p1213
I12
tp1214
a(S'saftey'
p1215
I12
tp1216
a(S'secondly'
p1217
I12
tp1218
a(S'solve'
p1219
I12
tp1220
a(S'structural'
p1221
I12
tp1222
a(S'trouble'
p1223
I12
tp1224
a(S'turn'
p1225
I12
tp1226
a(S'unsolved'
p1227
I12
tp1228
a(S"weren't"
p1229
I12
tp1230
a(S'windy'
p1231
I12
tp1232
a(S'worry'
p1233
I12
tp1234
a(S'age'
p1235
I11
tp1236
a(S'architectural'
p1237
I11
tp1238
a(S'base'
p1239
I11
tp1240
a(S'blew'
p1241
I11
tp1242
a(S'board'
p1243
I11
tp1244
a(S'body'
p1245
I11
tp1246
a(S'breaking'
p1247
I11
tp1248
a(S'brought'
p1249
I11
tp1250
a(S'cannot'
p1251
I11
tp1252
a(S'captain'
p1253
I11
tp1254
a(S'collapse'
p1255
I11
tp1256
a(S'constructor'
p1257
I11
tp1258
a(S'creating'
p1259
I11
tp1260
a(S'described'
p1261
I11
tp1262
a(S'destroy'
p1263
I11
tp1264
a(S'dirigibles.the'
p1265
I11
tp1266
a(S'fate'
p1267
I11
tp1268
a(S'harsh'
p1269
I11
tp1270
a(S'holding'
p1271
I11
tp1272
a(S'installed'
p1273
I11
tp1274
a(S'job'
p1275
I11
tp1276
a(S'mile'
p1277
I11
tp1278
a(S'modifying'
p1279
I11
tp1280
a(S'overlooked'
p1281
I11
tp1282
a(S'past'
p1283
I11
tp1284
a(S'platform'
p1285
I11
tp1286
a(S'played'
p1287
I11
tp1288
a(S'postpone'
p1289
I11
tp1290
a(S'reading'
p1291
I11
tp1292
a(S'rope'
p1293
I11
tp1294
a(S'run'
p1295
I11
tp1296
a(S'seem'
p1297
I11
tp1298
a(S'seriou'
p1299
I11
tp1300
a(S'solution'
p1301
I11
tp1302
a(S'solved'
p1303
I11
tp1304
a(S'started'
p1305
I11
tp1306
a(S'strength'
p1307
I11
tp1308
a(S'swinging'
p1309
I11
tp1310
a(S'theory'
p1311
I11
tp1312
a(S'(@num2)'
p1313
I10
tp1314
a(S'1929'
p1315
I10
tp1316
a(S'accomplish'
p1317
I10
tp1318
a(S'areas.the'
p1319
I10
tp1320
a(S'began'
p1321
I10
tp1322
a(S'begin'
p1323
I10
tp1324
a(S'building.there'
p1325
I10
tp1326
a(S'caps5'
p1327
I10
tp1328
a(S'catastrophic'
p1329
I10
tp1330
a(S'chance'
p1331
I10
tp1332
a(S'consideration'
p1333
I10
tp1334
a(S'constant'
p1335
I10
tp1336
a(S"date1'"
p1337
I10
tp1338
a(S'designer'
p1339
I10
tp1340
a(S'didnt'
p1341
I10
tp1342
a(S'difficultie'
p1343
I10
tp1344
a(S"don't"
p1345
I10
tp1346
a(S'feared'
p1347
I10
tp1348
a(S'floating'
p1349
I10
tp1350
a(S'framed'
p1351
I10
tp1352
a(S'hurt'
p1353
I10
tp1354
a(S'located'
p1355
I10
tp1356
a(S'look'
p1357
I10
tp1358
a(S'man'
p1359
I10
tp1360
a(S"mast'"
p1361
I10
tp1362
a(S'mention'
p1363
I10
tp1364
a(S'newspaper'
p1365
I10
tp1366
a(S'nine'
p1367
I10
tp1368
a(S'operation'
p1369
I10
tp1370
a(S'originally'
p1371
I10
tp1372
a(S'plu'
p1373
I10
tp1374
a(S'room'
p1375
I10
tp1376
a(S'side'
p1377
I10
tp1378
a(S'sound'
p1379
I10
tp1380
a(S'spin'
p1381
I10
tp1382
a(S'successfully'
p1383
I10
tp1384
a(S'themselve'
p1385
I10
tp1386
a(S'tour'
p1387
I10
tp1388
a(S'upon'
p1389
I10
tp1390
a(S'withstand'
p1391
I10
tp1392
a(S'(par'
p1393
I9
tp1394
a(S'affect'
p1395
I9
tp1396
a(S'announced'
p1397
I9
tp1398
a(S'arrangement'
p1399
I9
tp1400
a(S'break'
p1401
I9
tp1402
a(S'breeze'
p1403
I9
tp1404
a(S'bundle'
p1405
I9
tp1406
a(S'changed'
p1407
I9
tp1408
a(S'columbia'
p1409
I9
tp1410
a(S'contained'
p1411
I9
tp1412
a(S'cotton'
p1413
I9
tp1414
a(S'destruction'
p1415
I9
tp1416
a(S'determined'
p1417
I9
tp1418
a(S'doomed'
p1419
I9
tp1420
a(S'expensive'
p1421
I9
tp1422
a(S'explained'
p1423
I9
tp1424
a(S'fabric'
p1425
I9
tp1426
a(S'fail'
p1427
I9
tp1428
a(S'fearing'
p1429
I9
tp1430
a(S'fell'
p1431
I9
tp1432
a(S'figuring'
p1433
I9
tp1434
a(S'finished'
p1435
I9
tp1436
a(S'gear'
p1437
I9
tp1438
a(S'given'
p1439
I9
tp1440
a(S'happening'
p1441
I9
tp1442
a(S'harder'
p1443
I9
tp1444
a(S'help'
p1445
I9
tp1446
a(S'highest'
p1447
I9
tp1448
a(S'illuminated'
p1449
I9
tp1450
a(S'installation'
p1451
I9
tp1452
a(S'keeping'
p1453
I9
tp1454
a(S'length'
p1455
I9
tp1456
a(S'normally'
p1457
I9
tp1458
a(S'noticed'
p1459
I9
tp1460
a(S'opportunity'
p1461
I9
tp1462
a(S'passed'
p1463
I9
tp1464
a(S'plane'
p1465
I9
tp1466
a(S'pop'
p1467
I9
tp1468
a(S'preventing'
p1469
I9
tp1470
a(S'prohibiting'
p1471
I9
tp1472
a(S'saying'
p1473
I9
tp1474
a(S'seen'
p1475
I9
tp1476
a(S'self'
p1477
I9
tp1478
a(S'shifted'
p1479
I9
tp1480
a(S'space'
p1481
I9
tp1482
a(S'stood'
p1483
I9
tp1484
a(S'surrounding'
p1485
I9
tp1486
a(S'swaying'
p1487
I9
tp1488
a(S'talk'
p1489
I9
tp1490
a(S'transport'
p1491
I9
tp1492
a(S'true'
p1493
I9
tp1494
a(S'usually'
p1495
I9
tp1496
a(S'workable'
p1497
I9
tp1498
a(S'written'
p1499
I9
tp1500
a(S'airplane'
p1501
I8
tp1502
a(S'anyway'
p1503
I8
tp1504
a(S'area.the'
p1505
I8
tp1506
a(S'arose'
p1507
I8
tp1508
a(S'baggage'
p1509
I8
tp1510
a(S'bigger'
p1511
I8
tp1512
a(S'blimb'
p1513
I8
tp1514
a(S'caps6'
p1515
I8
tp1516
a(S'challenging'
p1517
I8
tp1518
a(S'couldnt'
p1519
I8
tp1520
a(S'country'
p1521
I8
tp1522
a(S'dangle'
p1523
I8
tp1524
a(S'devastating'
p1525
I8
tp1526
a(S'disappeared'
p1527
I8
tp1528
a(S'equipped'
p1529
I8
tp1530
a(S'finding'
p1531
I8
tp1532
a(S'flamible'
p1533
I8
tp1534
a(S'forced'
p1535
I8
tp1536
a(S'forgot'
p1537
I8
tp1538
a(S'form'
p1539
I8
tp1540
a(S'forth'
p1541
I8
tp1542
a(S'full'
p1543
I8
tp1544
a(S'furthermore'
p1545
I8
tp1546
a(S'gangplank'
p1547
I8
tp1548
a(S'give'
p1549
I8
tp1550
a(S'hauled'
p1551
I8
tp1552
a(S'heavily'
p1553
I8
tp1554
a(S'kill'
p1555
I8
tp1556
a(S'kind'
p1557
I8
tp1558
a(S'level'
p1559
I8
tp1560
a(S'little'
p1561
I8
tp1562
a(S'mast.in'
p1563
I8
tp1564
a(S'must'
p1565
I8
tp1566
a(S'obstacles.the'
p1567
I8
tp1568
a(S'pioneer'
p1569
I8
tp1570
a(S'play'
p1571
I8
tp1572
a(S'probably'
p1573
I8
tp1574
a(S'punctured'
p1575
I8
tp1576
a(S'quickly'
p1577
I8
tp1578
a(S'realizing'
p1579
I8
tp1580
a(S'redesign'
p1581
I8
tp1582
a(S'rest'
p1583
I8
tp1584
a(S'role'
p1585
I8
tp1586
a(S'short'
p1587
I8
tp1588
a(S'significant'
p1589
I8
tp1590
a(S'sometime'
p1591
I8
tp1592
a(S'stand'
p1593
I8
tp1594
a(S'tail'
p1595
I8
tp1596
a(S'team'
p1597
I8
tp1598
a(S'tell'
p1599
I8
tp1600
a(S'title'
p1601
I8
tp1602
a(S'u'
I8
tp1603
a(S'ultimately'
p1604
I8
tp1605
a(S'within'
p1606
I8
tp1607
a(S'(@caps2'
p1608
I7
tp1609
a(S'1'
I7
tp1610
a(S'actual'
p1611
I7
tp1612
a(S'additional'
p1613
I7
tp1614
a(S'affected'
p1615
I7
tp1616
a(S'afloat'
p1617
I7
tp1618
a(S'afraid'
p1619
I7
tp1620
a(S'american'
p1621
I7
tp1622
a(S'aspect'
p1623
I7
tp1624
a(S'based'
p1625
I7
tp1626
a(S'becoming'
p1627
I7
tp1628
a(S'better'
p1629
I7
tp1630
a(S'blind'
p1631
I7
tp1632
a(S'boarding'
p1633
I7
tp1634
a(S'caps7'
p1635
I7
tp1636
a(S'caps8'
p1637
I7
tp1638
a(S'certain'
p1639
I7
tp1640
a(S'coming'
p1641
I7
tp1642
a(S'competitive'
p1643
I7
tp1644
a(S'concerning'
p1645
I7
tp1646
a(S'consider'
p1647
I7
tp1648
a(S'considering'
p1649
I7
tp1650
a(S'consulted'
p1651
I7
tp1652
a(S'crashed'
p1653
I7
tp1654
a(S'deliver'
p1655
I7
tp1656
a(S'die'
p1657
I7
tp1658
a(S'elevation'
p1659
I7
tp1660
a(S'ended'
p1661
I7
tp1662
a(S'everyone'
p1663
I7
tp1664
a(S'extreme'
p1665
I7
tp1666
a(S'figured'
p1667
I7
tp1668
a(S'fourteen'
p1669
I7
tp1670
a(S'fuel'
p1671
I7
tp1672
a(S'giant'
p1673
I7
tp1674
a(S'hailed'
p1675
I7
tp1676
a(S'it.the'
p1677
I7
tp1678
a(S'killing'
p1679
I7
tp1680
a(S'le'
p1681
I7
tp1682
a(S'learned'
p1683
I7
tp1684
a(S'least'
p1685
I7
tp1686
a(S'meaning'
p1687
I7
tp1688
a(S'mentioned'
p1689
I7
tp1690
a(S'million'
p1691
I7
tp1692
a(S'morning'
p1693
I7
tp1694
a(S'object'
p1695
I7
tp1696
a(S'occured'
p1697
I7
tp1698
a(S'often'
p1699
I7
tp1700
a(S'pose'
p1701
I7
tp1702
a(S'possibility'
p1703
I7
tp1704
a(S'precaution'
p1705
I7
tp1706
a(S'present'
p1707
I7
tp1708
a(S'properly'
p1709
I7
tp1710
a(S'question'
p1711
I7
tp1712
a(S'reached'
p1713
I7
tp1714
a(S'reinforce'
p1715
I7
tp1716
a(S'route'
p1717
I7
tp1718
a(S'safe.the'
p1719
I7
tp1720
a(S'shape'
p1721
I7
tp1722
a(S'shown'
p1723
I7
tp1724
a(S'steady'
p1725
I7
tp1726
a(S'stopped'
p1727
I7
tp1728
a(S'stressed'
p1729
I7
tp1730
a(S'stunt'
p1731
I7
tp1732
a(S'supposed'
p1733
I7
tp1734
a(S'there.in'
p1735
I7
tp1736
a(S'throughout'
p1737
I7
tp1738
a(S'toward'
p1739
I7
tp1740
a(S'tying'
p1741
I7
tp1742
a(S'washington'
p1743
I7
tp1744
a(S'wich'
p1745
I7
tp1746
a(S'zepplin'
p1747
I7
tp1748
a(S'(@num3)'
p1749
I6
tp1750
a(S'(para'
p1751
I6
tp1752
a(S'1920'
p1753
I6
tp1754
a(S'alone'
p1755
I6
tp1756
a(S'ballon'
p1757
I6
tp1758
a(S'building;'
p1759
I6
tp1760
a(S'burn'
p1761
I6
tp1762
a(S'case'
p1763
I6
tp1764
a(S'catastrophe'
p1765
I6
tp1766
a(S'catching'
p1767
I6
tp1768
a(S'clavan'
p1769
I6
tp1770
a(S'combined'
p1771
I6
tp1772
a(S'company'
p1773
I6
tp1774
a(S'competition'
p1775
I6
tp1776
a(S'complicated'
p1777
I6
tp1778
a(S'concerned'
p1779
I6
tp1780
a(S'controll'
p1781
I6
tp1782
a(S'costed'
p1783
I6
tp1784
a(S'costing'
p1785
I6
tp1786
a(S'costly'
p1787
I6
tp1788
a(S"could've"
p1789
I6
tp1790
a(S'couple'
p1791
I6
tp1792
a(S'crashing'
p1793
I6
tp1794
a(S'dangerously'
p1795
I6
tp1796
a(S'dense'
p1797
I6
tp1798
a(S'densly'
p1799
I6
tp1800
a(S'dirgible'
p1801
I6
tp1802
a(S'dock.the'
p1803
I6
tp1804
a(S'eighty'
p1805
I6
tp1806
a(S'elevator'
p1807
I6
tp1808
a(S'endangering'
p1809
I6
tp1810
a(S'event'
p1811
I6
tp1812
a(S'exerpt'
p1813
I6
tp1814
a(S'expected'
p1815
I6
tp1816
a(S'falling'
p1817
I6
tp1818
a(S'famou'
p1819
I6
tp1820
a(S'fast'
p1821
I6
tp1822
a(S'fierce'
p1823
I6
tp1824
a(S'flammability'
p1825
I6
tp1826
a(S'flaw'
p1827
I6
tp1828
a(S'flight'
p1829
I6
tp1830
a(S'gave'
p1831
I6
tp1832
a(S'greater'
p1833
I6
tp1834
a(S'handle'
p1835
I6
tp1836
a(S'hat'
p1837
I6
tp1838
a(S'hole'
p1839
I6
tp1840
a(S'house'
p1841
I6
tp1842
a(S'incredibly'
p1843
I6
tp1844
a(S'international'
p1845
I6
tp1846
a(S'it.in'
p1847
I6
tp1848
a(S'location3'
p1849
I6
tp1850
a(S'matter'
p1851
I6
tp1852
a(S'men'
p1853
I6
tp1854
a(S'middle'
p1855
I6
tp1856
a(S'month'
p1857
I6
tp1858
a(S'movement'
p1859
I6
tp1860
a(S'natural'
p1861
I6
tp1862
a(S'naval'
p1863
I6
tp1864
a(S'nearby'
p1865
I6
tp1866
a(S'obstacal'
p1867
I6
tp1868
a(S'obsticale'
p1869
I6
tp1870
a(S'organization3'
p1871
I6
tp1872
a(S'page'
p1873
I6
tp1874
a(S'para'
p1875
I6
tp1876
a(S'pre-existing'
p1877
I6
tp1878
a(S'previou'
p1879
I6
tp1880
a(S'proven'
p1881
I6
tp1882
a(S'puncturing'
p1883
I6
tp1884
a(S'push'
p1885
I6
tp1886
a(S'read'
p1887
I6
tp1888
a(S'rear'
p1889
I6
tp1890
a(S'relized'
p1891
I6
tp1892
a(S'seeing'
p1893
I6
tp1894
a(S'send'
p1895
I6
tp1896
a(S'shut'
p1897
I6
tp1898
a(S'sturdy'
p1899
I6
tp1900
a(S'system'
p1901
I6
tp1902
a(S'terrible'
p1903
I6
tp1904
a(S'today'
p1905
I6
tp1906
a(S'wing'
p1907
I6
tp1908
a(S'(@caps1)'
p1909
I5
tp1910
a(S'85th'
p1911
I5
tp1912
a(S'abandoned'
p1913
I5
tp1914
a(S'adjust'
p1915
I5
tp1916
a(S'amazing'
p1917
I5
tp1918
a(S'attaching'
p1919
I5
tp1920
a(S'basically'
p1921
I5
tp1922
a(S'best'
p1923
I5
tp1924
a(S'bit'
p1925
I5
tp1926
a(S'brilliant'
p1927
I5
tp1928
a(S'building.based'
p1929
I5
tp1930
a(S'calling'
p1931
I5
tp1932
a(S'chemical'
p1933
I5
tp1934
a(S'completely'
p1935
I5
tp1936
a(S'complex'
p1937
I5
tp1938
a(S'confronted'
p1939
I5
tp1940
a(S'conical'
p1941
I5
tp1942
a(S'consequence'
p1943
I5
tp1944
a(S'contributed'
p1945
I5
tp1946
a(S'corner'
p1947
I5
tp1948
a(S'course'
p1949
I5
tp1950
a(S'deck'
p1951
I5
tp1952
a(S'despite'
p1953
I5
tp1954
a(S"dirigibles'"
p1955
I5
tp1956
a(S'disastrou'
p1957
I5
tp1958
a(S'element'
p1959
I5
tp1960
a(S'envelope'
p1961
I5
tp1962
a(S'evident'
p1963
I5
tp1964
a(S'exit'
p1965
I5
tp1966
a(S'faced.the'
p1967
I5
tp1968
a(S'facing'
p1969
I5
tp1970
a(S'fatal'
p1971
I5
tp1972
a(S'firstly'
p1973
I5
tp1974
a(S'flammible'
p1975
I5
tp1976
a(S'float'
p1977
I5
tp1978
a(S'forefront'
p1979
I5
tp1980
a(S'fulfilled'
p1981
I5
tp1982
a(S'goodyear'
p1983
I5
tp1984
a(S'greatly'
p1985
I5
tp1986
a(S'hazardou'
p1987
I5
tp1988
a(S'hight'
p1989
I5
tp1990
a(S'hitting'
p1991
I5
tp1992
a(S'imitated'
p1993
I5
tp1994
a(S'including'
p1995
I5
tp1996
a(S'information'
p1997
I5
tp1998
a(S'intended'
p1999
I5
tp2000
a(S'involving'
p2001
I5
tp2002
a(S"isn't"
p2003
I5
tp2004
a(S'learn'
p2005
I5
tp2006
a(S'legally'
p2007
I5
tp2008
a(S'lever'
p2009
I5
tp2010
a(S'loading'
p2011
I5
tp2012
a(S'managed'
p2013
I5
tp2014
a(S'metal'
p2015
I5
tp2016
a(S'mostly'
p2017
I5
tp2018
a(S'named'
p2019
I5
tp2020
a(S'necessary'
p2021
I5
tp2022
a(S'obsacle'
p2023
I5
tp2024
a(S'ocean'
p2025
I5
tp2026
a(S'okay'
p2027
I5
tp2028
a(S'ontop'
p2029
I5
tp2030
a(S'overcame'
p2031
I5
tp2032
a(S'pay'
p2033
I5
tp2034
a(S"people'"
p2035
I5
tp2036
a(S'pilot'
p2037
I5
tp2038
a(S'placing'
p2039
I5
tp2040
a(S'president'
p2041
I5
tp2042
a(S'problems.the'
p2043
I5
tp2044
a(S'promblem'
p2045
I5
tp2046
a(S'proper'
p2047
I5
tp2048
a(S'publicity'
p2049
I5
tp2050
a(S'pushing'
p2051
I5
tp2052
a(S'quietly'
p2053
I5
tp2054
a(S'raised'
p2055
I5
tp2056
a(S'rapidly'
p2057
I5
tp2058
a(S'revealed'
p2059
I5
tp2060
a(S'secure'
p2061
I5
tp2062
a(S'sense'
p2063
I5
tp2064
a(S'sentence'
p2065
I5
tp2066
a(S'seventy'
p2067
I5
tp2068
a(S"should've"
p2069
I5
tp2070
a(S'similar'
p2071
I5
tp2072
a(S'soda'
p2073
I5
tp2074
a(S'spark'
p2075
I5
tp2076
a(S'special'
p2077
I5
tp2078
a(S'stability'
p2079
I5
tp2080
a(S'steal'
p2081
I5
tp2082
a(S'tea'
p2083
I5
tp2084
a(S'test'
p2085
I5
tp2086
a(S"that'"
p2087
I5
tp2088
a(S'there.there'
p2089
I5
tp2090
a(S'tough'
p2091
I5
tp2092
a(S'tourist'
p2093
I5
tp2094
a(S'unique'
p2095
I5
tp2096
a(S'useful'
p2097
I5
tp2098
a(S'window'
p2099
I5
tp2100
a(S'worried'
p2101
I5
tp2102
a(S'(blimps)'
p2103
I4
tp2104
a(S'(p'
p2105
I4
tp2106
a(S'(the'
p2107
I4
tp2108
a(S'1)'
p2109
I4
tp2110
a(S'101st'
p2111
I4
tp2112
a(S'6)'
p2113
I4
tp2114
a(S'ability'
p2115
I4
tp2116
a(S'additionally'
p2117
I4
tp2118
a(S'aloft'
p2119
I4
tp2120
a(S'anchored'
p2121
I4
tp2122
a(S'anyone'
p2123
I4
tp2124
a(S'anywhere'
p2125
I4
tp2126
a(S'approaching'
p2127
I4
tp2128
a(S'aside'
p2129
I4
tp2130
a(S'below.the'
p2131
I4
tp2132
a(S'bottom'
p2133
I4
tp2134
a(S'brick'
p2135
I4
tp2136
a(S"builders'"
p2137
I4
tp2138
a(S'burned'
p2139
I4
tp2140
a(S'care'
p2141
I4
tp2142
a(S'cargo'
p2143
I4
tp2144
a(S'casualtie'
p2145
I4
tp2146
a(S"city'"
p2147
I4
tp2148
a(S'city.in'
p2149
I4
tp2150
a(S'compared'
p2151
I4
tp2152
a(S'competing'
p2153
I4
tp2154
a(S'completing'
p2155
I4
tp2156
a(S'connect'
p2157
I4
tp2158
a(S'consisted'
p2159
I4
tp2160
a(S'consult'
p2161
I4
tp2162
a(S'creation'
p2163
I4
tp2164
a(S'cruise'
p2165
I4
tp2166
a(S'dangerouse'
p2167
I4
tp2168
a(S'death'
p2169
I4
tp2170
a(S'decision'
p2171
I4
tp2172
a(S'defeat'
p2173
I4
tp2174
a(S'definitely'
p2175
I4
tp2176
a(S'density'
p2177
I4
tp2178
a(S'destiny'
p2179
I4
tp2180
a(S'development'
p2181
I4
tp2182
a(S'dirigibles.in'
p2183
I4
tp2184
a(S'dirrigible'
p2185
I4
tp2186
a(S'discovered'
p2187
I4
tp2188
a(S'discussed'
p2189
I4
tp2190
a(S"dollar'"
p2191
I4
tp2192
a(S'dope'
p2193
I4
tp2194
a(S'earlier'
p2195
I4
tp2196
a(S'early'
p2197
I4
tp2198
a(S'else'
p2199
I4
tp2200
a(S'every'
p2201
I4
tp2202
a(S'everywhere'
p2203
I4
tp2204
a(S'except'
p2205
I4
tp2206
a(S'expectation'
p2207
I4
tp2208
a(S'face.the'
p2209
I4
tp2210
a(S'faced.in'
p2211
I4
tp2212
a(S'failed.the'
p2213
I4
tp2214
a(S'fifty'
p2215
I4
tp2216
a(S'fit'
p2217
I4
tp2218
a(S'flameable'
p2219
I4
tp2220
a(S'following'
p2221
I4
tp2222
a(S'fountain'
p2223
I4
tp2224
a(S'fram'
p2225
I4
tp2226
a(S'fully'
p2227
I4
tp2228
a(S'garden'
p2229
I4
tp2230
a(S'general'
p2231
I4
tp2232
a(S'goe'
p2233
I4
tp2234
a(S'gone'
p2235
I4
tp2236
a(S'gust'
p2237
I4
tp2238
a(S'hang'
p2239
I4
tp2240
a(S'hardship'
p2241
I4
tp2242
a(S'harmed'
p2243
I4
tp2244
a(S'hellium'
p2245
I4
tp2246
a(S'helped'
p2247
I4
tp2248
a(S'hieght'
p2249
I4
tp2250
a(S'hindered'
p2251
I4
tp2252
a(S'human'
p2253
I4
tp2254
a(S'ignited'
p2255
I4
tp2256
a(S'injurie'
p2257
I4
tp2258
a(S'innocent'
p2259
I4
tp2260
a(S'intense'
p2261
I4
tp2262
a(S'john'
p2263
I4
tp2264
a(S'knock'
p2265
I4
tp2266
a(S'knowing'
p2267
I4
tp2268
a(S'law.the'
p2269
I4
tp2270
a(S'leader'
p2271
I4
tp2272
a(S'left'
p2273
I4
tp2274
a(S'light'
p2275
I4
tp2276
a(S'likely'
p2277
I4
tp2278
a(S'lived'
p2279
I4
tp2280
a(S'losing'
p2281
I4
tp2282
a(S'lost'
p2283
I4
tp2284
a(S'low-flying'
p2285
I4
tp2286
a(S'lower'
p2287
I4
tp2288
a(S'luggage'
p2289
I4
tp2290
a(S'machinery'
p2291
I4
tp2292
a(S'maybe'
p2293
I4
tp2294
a(S'met'
p2295
I4
tp2296
a(S"nature'"
p2297
I4
tp2298
a(S'negative'
p2299
I4
tp2300
a(S'nobody'
p2301
I4
tp2302
a(S'notice'
p2303
I4
tp2304
a(S'obstacles.in'
p2305
I4
tp2306
a(S'offered'
p2307
I4
tp2308
a(S'opinion'
p2309
I4
tp2310
a(S'outcome'
p2311
I4
tp2312
a(S'outstrip'
p2313
I4
tp2314
a(S'pacific'
p2315
I4
tp2316
a(S'paper'
p2317
I4
tp2318
a(S'perfect'
p2319
I4
tp2320
a(S'perhap'
p2321
I4
tp2322
a(S'person'
p2323
I4
tp2324
a(S'piece'
p2325
I4
tp2326
a(S'placed'
p2327
I4
tp2328
a(S'popular'
p2329
I4
tp2330
a(S'power'
p2331
I4
tp2332
a(S'practicality'
p2333
I4
tp2334
a(S'pretty'
p2335
I4
tp2336
a(S'procedure'
p2337
I4
tp2338
a(S'progre'
p2339
I4
tp2340
a(S'prohibit'
p2341
I4
tp2342
a(S'public.there'
p2343
I4
tp2344
a(S'pull'
p2345
I4
tp2346
a(S'pulled'
p2347
I4
tp2348
a(S'pulling'
p2349
I4
tp2350
a(S'real'
p2351
I4
tp2352
a(S'realistic'
p2353
I4
tp2354
a(S'restricted'
p2355
I4
tp2356
a(S'restricting'
p2357
I4
tp2358
a(S'risky'
p2359
I4
tp2360
a(S'ruin'
p2361
I4
tp2362
a(S'served'
p2363
I4
tp2364
a(S'shaft'
p2365
I4
tp2366
a(S'shelved'
p2367
I4
tp2368
a(S'sit'
p2369
I4
tp2370
a(S'six'
p2371
I4
tp2372
a(S'skyscraper'
p2373
I4
tp2374
a(S'smart'
p2375
I4
tp2376
a(S'sounded'
p2377
I4
tp2378
a(S'spot'
p2379
I4
tp2380
a(S'stabilize'
p2381
I4
tp2382
a(S'stair'
p2383
I4
tp2384
a(S'stake'
p2385
I4
tp2386
a(S'standing'
p2387
I4
tp2388
a(S'steel-framed'
p2389
I4
tp2390
a(S'step'
p2391
I4
tp2392
a(S'structurally'
p2393
I4
tp2394
a(S'struggle'
p2395
I4
tp2396
a(S'struggled'
p2397
I4
tp2398
a(S'substance'
p2399
I4
tp2400
a(S'successful.the'
p2401
I4
tp2402
a(S'tear'
p2403
I4
tp2404
a(S'teathered'
p2405
I4
tp2406
a(S'tension'
p2407
I4
tp2408
a(S'tested'
p2409
I4
tp2410
a(S'testing'
p2411
I4
tp2412
a(S'there.one'
p2413
I4
tp2414
a(S"they're"
p2415
I4
tp2416
a(S'together'
p2417
I4
tp2418
a(S'transatlantic'
p2419
I4
tp2420
a(S'transmit'
p2421
I4
tp2422
a(S'truly'
p2423
I4
tp2424
a(S'used.in'
p2425
I4
tp2426
a(S'utilitarian'
p2427
I4
tp2428
a(S'vessel'
p2429
I4
tp2430
a(S'violation'
p2431
I4
tp2432
a(S'vision'
p2433
I4
tp2434
a(S'walk'
p2435
I4
tp2436
a(S"we're"
p2437
I4
tp2438
a(S'weighing'
p2439
I4
tp2440
a(S'work.the'
p2441
I4
tp2442
a(S"york'"
p2443
I4
tp2444
a(S"'the"
p2445
I3
tp2446
a(S'(@num1'
p2447
I3
tp2448
a(S'(@organization2'
p2449
I3
tp2450
a(S'(l\xfcsted)'
p2451
I3
tp2452
a(S'(pg'
p2453
I3
tp2454
a(S'+'
I3
tp2455
a(S'-'
I3
tp2456
a(S'1,046'
p2457
I3
tp2458
a(S'102nd'
p2459
I3
tp2460
a(S'46'
p2461
I3
tp2462
a(S'[the'
p2463
I3
tp2464
a(S'accommodating'
p2465
I3
tp2466
a(S'accomodate'
p2467
I3
tp2468
a(S'achieve'
p2469
I3
tp2470
a(S'achieved'
p2471
I3
tp2472
a(S'addre'
p2473
I3
tp2474
a(S'aganist'
p2475
I3
tp2476
a(S'anchoring'
p2477
I3
tp2478
a(S'aparent'
p2479
I3
tp2480
a(S'apart'
p2481
I3
tp2482
a(S'architech'
p2483
I3
tp2484
a(S'architecture'
p2485
I3
tp2486
a(S'arm'
p2487
I3
tp2488
a(S'associated'
p2489
I3
tp2490
a(S'attention'
p2491
I3
tp2492
a(S'b/c'
p2493
I3
tp2494
a(S'banned'
p2495
I3
tp2496
a(S'banning'
p2497
I3
tp2498
a(S'beam'
p2499
I3
tp2500
a(S'becuse'
p2501
I3
tp2502
a(S'behind'
p2503
I3
tp2504
a(S'believed'
p2505
I3
tp2506
a(S'broken'
p2507
I3
tp2508
a(S'buider'
p2509
I3
tp2510
a(S'building.from'
p2511
I3
tp2512
a(S'building.many'
p2513
I3
tp2514
a(S'building.some'
p2515
I3
tp2516
a(S'burst'
p2517
I3
tp2518
a(S'busy'
p2519
I3
tp2520
a(S'carefully'
p2521
I3
tp2522
a(S'carried'
p2523
I3
tp2524
a(S'carry'
p2525
I3
tp2526
a(S'catche'
p2527
I3
tp2528
a(S'center'
p2529
I3
tp2530
a(S'certainly'
p2531
I3
tp2532
a(S'charge'
p2533
I3
tp2534
a(S'city.the'
p2535
I3
tp2536
a(S'climate'
p2537
I3
tp2538
a(S'combusted'
p2539
I3
tp2540
a(S'combustion'
p2541
I3
tp2542
a(S'commented'
p2543
I3
tp2544
a(S'compete'
p2545
I3
tp2546
a(S'concept'
p2547
I3
tp2548
a(S'conflict'
p2549
I3
tp2550
a(S'connected'
p2551
I3
tp2552
a(S'consequently'
p2553
I3
tp2554
a(S'continued'
p2555
I3
tp2556
a(S'correctly'
p2557
I3
tp2558
a(S'creator'
p2559
I3
tp2560
a(S'cut'
p2561
I3
tp2562
a(S'dealing'
p2563
I3
tp2564
a(S'dealt'
p2565
I3
tp2566
a(S'decide'
p2567
I3
tp2568
a(S'densley'
p2569
I3
tp2570
a(S'desired'
p2571
I3
tp2572
a(S'destroying'
p2573
I3
tp2574
a(S'detail'
p2575
I3
tp2576
a(S'determination'
p2577
I3
tp2578
a(S"did'nt"
p2579
I3
tp2580
a(S'dirigibe'
p2581
I3
tp2582
a(S'dirigibles'
p2583
I3
tp2584
a(S'disappeared.the'
p2585
I3
tp2586
a(S'discusse'
p2587
I3
tp2588
a(S'doe'
p2589
I3
tp2590
a(S'dome'
p2591
I3
tp2592
a(S'down.the'
p2593
I3
tp2594
a(S'dropping'
p2595
I3
tp2596
a(S'durable'
p2597
I3
tp2598
a(S'electrical'
p2599
I3
tp2600
a(S'ending'
p2601
I3
tp2602
a(S'endured'
p2603
I3
tp2604
a(S'ensure'
p2605
I3
tp2606
a(S'enter'
p2607
I3
tp2608
a(S'exact'
p2609
I3
tp2610
a(S'exist'
p2611
I3
tp2612
a(S'experienced'
p2613
I3
tp2614
a(S'extending'
p2615
I3
tp2616
a(S'extremly'
p2617
I3
tp2618
a(S'face.in'
p2619
I3
tp2620
a(S'familiar'
p2621
I3
tp2622
a(S'fastened'
p2623
I3
tp2624
a(S'feat'
p2625
I3
tp2626
a(S'felt'
p2627
I3
tp2628
a(S'finish'
p2629
I3
tp2630
a(S'flag'
p2631
I3
tp2632
a(S'flaming'
p2633
I3
tp2634
a(S'follow'
p2635
I3
tp2636
a(S'forbidding'
p2637
I3
tp2638
a(S'fore'
p2639
I3
tp2640
a(S'foriegn'
p2641
I3
tp2642
a(S'forign'
p2643
I3
tp2644
a(S'formed'
p2645
I3
tp2646
a(S'four-term'
p2647
I3
tp2648
a(S'free'
p2649
I3
tp2650
a(S'freely'
p2651
I3
tp2652
a(S'frequently'
p2653
I3
tp2654
a(S'fufill'
p2655
I3
tp2656
a(S'ful'
p2657
I3
tp2658
a(S'fulfilling'
p2659
I3
tp2660
a(S'futuristic'
p2661
I3
tp2662
a(S'gang'
p2663
I3
tp2664
a(S'happen.the'
p2665
I3
tp2666
a(S'harmful'
p2667
I3
tp2668
a(S'headed'
p2669
I3
tp2670
a(S'heard'
p2671
I3
tp2672
a(S'housed'
p2673
I3
tp2674
a(S'hype'
p2675
I3
tp2676
a(S'idea.the'
p2677
I3
tp2678
a(S'ideal'
p2679
I3
tp2680
a(S'illegal.the'
p2681
I3
tp2682
a(S'importantly'
p2683
I3
tp2684
a(S'impracticality'
p2685
I3
tp2686
a(S'improvement'
p2687
I3
tp2688
a(S'include'
p2689
I3
tp2690
a(S'indeed'
p2691
I3
tp2692
a(S'injured'
p2693
I3
tp2694
a(S'instance'
p2695
I3
tp2696
a(S'interfered'
p2697
I3
tp2698
a(S'invention'
p2699
I3
tp2700
a(S'isshue'
p2701
I3
tp2702
a(S'kidding'
p2703
I3
tp2704
a(S'landmark'
p2705
I3
tp2706
a(S'larger'
p2707
I3
tp2708
a(S'lay'
p2709
I3
tp2710
a(S'leading'
p2711
I3
tp2712
a(S'leave'
p2713
I3
tp2714
a(S'leaving'
p2715
I3
tp2716
a(S'lightweight'
p2717
I3
tp2718
a(S'longer'
p2719
I3
tp2720
a(S'looking'
p2721
I3
tp2722
a(S'loose'
p2723
I3
tp2724
a(S'lose'
p2725
I3
tp2726
a(S'maneuver'
p2727
I3
tp2728
a(S'mast)'
p2729
I3
tp2730
a(S'mast.there'
p2731
I3
tp2732
a(S'mastthe'
p2733
I3
tp2734
a(S'meeting'
p2735
I3
tp2736
a(S'mille'
p2737
I3
tp2738
a(S'moore'
p2739
I3
tp2740
a(S'mount'
p2741
I3
tp2742
a(S'nature;'
p2743
I3
tp2744
a(S'needing'
p2745
I3
tp2746
a(S'nice'
p2747
I3
tp2748
a(S'non-american'
p2749
I3
tp2750
a(S'num4'
p2751
I3
tp2752
a(S'obstecle'
p2753
I3
tp2754
a(S'obtacle'
p2755
I3
tp2756
a(S'occurring'
p2757
I3
tp2758
a(S'opened'
p2759
I3
tp2760
a(S'opposed'
p2761
I3
tp2762
a(S"organization2'"
p2763
I3
tp2764
a(S'ornamental'
p2765
I3
tp2766
a(S'ornamentation'
p2767
I3
tp2768
a(S'otherwise'
p2769
I3
tp2770
a(S'ove'
p2771
I3
tp2772
a(S'passanger'
p2773
I3
tp2774
a(S'passing'
p2775
I3
tp2776
a(S'peak'
p2777
I3
tp2778
a(S'people.the'
p2779
I3
tp2780
a(S'performed'
p2781
I3
tp2782
a(S'period'
p2783
I3
tp2784
a(S'planner'
p2785
I3
tp2786
a(S'plenty'
p2787
I3
tp2788
a(S'popped'
p2789
I3
tp2790
a(S'posing'
p2791
I3
tp2792
a(S'positive'
p2793
I3
tp2794
a(S'pound'
p2795
I3
tp2796
a(S'powerful'
p2797
I3
tp2798
a(S'predicted'
p2799
I3
tp2800
a(S'problematic'
p2801
I3
tp2802
a(S'problems.in'
p2803
I3
tp2804
a(S'proceed'
p2805
I3
tp2806
a(S'propeller'
p2807
I3
tp2808
a(S'property'
p2809
I3
tp2810
a(S'provide'
p2811
I3
tp2812
a(S'proximity'
p2813
I3
tp2814
a(S'purpose.the'
p2815
I3
tp2816
a(S'rate'
p2817
I3
tp2818
a(S'reader'
p2819
I3
tp2820
a(S'reconstruct'
p2821
I3
tp2822
a(S'reconstruction'
p2823
I3
tp2824
a(S'refule'
p2825
I3
tp2826
a(S'regard'
p2827
I3
tp2828
a(S'regarding'
p2829
I3
tp2830
a(S'regular'
p2831
I3
tp2832
a(S'replaced'
p2833
I3
tp2834
a(S'require'
p2835
I3
tp2836
a(S'restriction'
p2837
I3
tp2838
a(S'revolutionary'
p2839
I3
tp2840
a(S'rise'
p2841
I3
tp2842
a(S'rocket'
p2843
I3
tp2844
a(S'rocket-shaped'
p2845
I3
tp2846
a(S'rough'
p2847
I3
tp2848
a(S'ruled'
p2849
I3
tp2850
a(S'shaped'
p2851
I3
tp2852
a(S'simple'
p2853
I3
tp2854
a(S'sky'
p2855
I3
tp2856
a(S'somehow'
p2857
I3
tp2858
a(S'someone'
p2859
I3
tp2860
a(S'sort'
p2861
I3
tp2862
a(S'spending'
p2863
I3
tp2864
a(S'stage'
p2865
I3
tp2866
a(S'start.the'
p2867
I3
tp2868
a(S'starting'
p2869
I3
tp2870
a(S'staying'
p2871
I3
tp2872
a(S'strain'
p2873
I3
tp2874
a(S'succeed'
p2875
I3
tp2876
a(S'succesfully'
p2877
I3
tp2878
a(S'suit'
p2879
I3
tp2880
a(S'surpa'
p2881
I3
tp2882
a(S'swivle'
p2883
I3
tp2884
a(S'tauranac'
p2885
I3
tp2886
a(S'teather'
p2887
I3
tp2888
a(S'term'
p2889
I3
tp2890
a(S'tethering'
p2891
I3
tp2892
a(S'text'
p2893
I3
tp2894
a(S'there.it'
p2895
I3
tp2896
a(S"they'd"
p2897
I3
tp2898
a(S'thirteen'
p2899
I3
tp2900
a(S'through.the'
p2901
I3
tp2902
a(S'ticket'
p2903
I3
tp2904
a(S'tip'
p2905
I3
tp2906
a(S'told'
p2907
I3
tp2908
a(S'tragic'
p2909
I3
tp2910
a(S'tremendou'
p2911
I3
tp2912
a(S'truth'
p2913
I3
tp2914
a(S'turned'
p2915
I3
tp2916
a(S'turning'
p2917
I3
tp2918
a(S'type'
p2919
I3
tp2920
a(S'unle'
p2921
I3
tp2922
a(S'unload'
p2923
I3
tp2924
a(S'unloading'
p2925
I3
tp2926
a(S'unpractical'
p2927
I3
tp2928
a(S'untill'
p2929
I3
tp2930
a(S'used.the'
p2931
I3
tp2932
a(S'wasnt'
p2933
I3
tp2934
a(S'waste'
p2935
I3
tp2936
a(S"wern't"
p2937
I3
tp2938
a(S'wide'
p2939
I3
tp2940
a(S'wieght'
p2941
I3
tp2942
a(S'wild'
p2943
I3
tp2944
a(S'win'
p2945
I3
tp2946
a(S'winche'
p2947
I3
tp2948
a(S'wire'
p2949
I3
tp2950
a(S'wonderful'
p2951
I3
tp2952
a(S'word'
p2953
I3
tp2954
a(S'write'
p2955
I3
tp2956
a(S'year'
p2957
I3
tp2958
a(S'york."the'
p2959
I3
tp2960
a(S'york.based'
p2961
I3
tp2962
a(S'york.the'
p2963
I3
tp2964
a(S'zone'
p2965
I3
tp2966
a(S'(6)'
p2967
I2
tp2968
a(S'(a'
p2969
I2
tp2970
a(S'(if'
p2971
I2
tp2972
a(S'(which'
p2973
I2
tp2974
a(S'185-foot'
p2975
I2
tp2976
a(S'1931'
p2977
I2
tp2978
a(S'250'
p2979
I2
tp2980
a(S'[be]'
p2981
I2
tp2982
a(S'[they]'
p2983
I2
tp2984
a(S'[which]'
p2985
I2
tp2986
a(S'accomadate'
p2987
I2
tp2988
a(S'accomidate'
p2989
I2
tp2990
a(S'accommidate'
p2991
I2
tp2992
a(S'action'
p2993
I2
tp2994
a(S'addressed'
p2995
I2
tp2996
a(S'adjusted'
p2997
I2
tp2998
a(S'advancing'
p2999
I2
tp3000
a(S'aforementioned'
p3001
I2
tp3002
a(S'ahead'
p3003
I2
tp3004
a(S'airplanes.in'
p3005
I2
tp3006
a(S'allowance'
p3007
I2
tp3008
a(S'alter'
p3009
I2
tp3010
a(S'altered'
p3011
I2
tp3012
a(S'altering'
p3013
I2
tp3014
a(S'aluminum'
p3015
I2
tp3016
a(S'ambition'
p3017
I2
tp3018
a(S'ambitiou'
p3019
I2
tp3020
a(S'among'
p3021
I2
tp3022
a(S'archete'
p3023
I2
tp3024
a(S'archetect'
p3025
I2
tp3026
a(S'architec'
p3027
I2
tp3028
a(S'area.in'
p3029
I2
tp3030
a(S'areas.in'
p3031
I2
tp3032
a(S'areasthe'
p3033
I2
tp3034
a(S"aren't"
p3035
I2
tp3036
a(S'arising'
p3037
I2
tp3038
a(S'arond'
p3039
I2
tp3040
a(S'asked'
p3041
I2
tp3042
a(S'atempting'
p3043
I2
tp3044
a(S'attatched'
p3045
I2
tp3046
a(S'attemp'
p3047
I2
tp3048
a(S'attemting'
p3049
I2
tp3050
a(S'aviator'
p3051
I2
tp3052
a(S'aware'
p3053
I2
tp3054
a(S'baloon'
p3055
I2
tp3056
a(S'basicly'
p3057
I2
tp3058
a(S'bat'
p3059
I2
tp3060
a(S'beat'
p3061
I2
tp3062
a(S'beautiful'
p3063
I2
tp3064
a(S'believe'
p3065
I2
tp3066
a(S'bend'
p3067
I2
tp3068
a(S'beside'
p3069
I2
tp3070
a(S'bilding'
p3071
I2
tp3072
a(S'biulding'
p3073
I2
tp3074
a(S'blinded'
p3075
I2
tp3076
a(S'blindly'
p3077
I2
tp3078
a(S'bright'
p3079
I2
tp3080
a(S'bringing'
p3081
I2
tp3082
a(S'broke'
p3083
I2
tp3084
a(S'buiding'
p3085
I2
tp3086
a(S'building.a'
p3087
I2
tp3088
a(S'building.although'
p3089
I2
tp3090
a(S'building.during'
p3091
I2
tp3092
a(S'building.on'
p3093
I2
tp3094
a(S'building.one'
p3095
I2
tp3096
a(S'building.through'
p3097
I2
tp3098
a(S'building.when'
p3099
I2
tp3100
a(S'building]'
p3101
I2
tp3102
a(S'buildingbased'
p3103
I2
tp3104
a(S'buildings'
p3105
I2
tp3106
a(S"buildings'"
p3107
I2
tp3108
a(S'buildings.the'
p3109
I2
tp3110
a(S'buildingthe'
p3111
I2
tp3112
a(S'built.the'
p3113
I2
tp3114
a(S'bulding'
p3115
I2
tp3116
a(S'bump'
p3117
I2
tp3118
a(S'bunch'
p3119
I2
tp3120
a(S'burning'
p3121
I2
tp3122
a(S'bursting'
p3123
I2
tp3124
a(S'busine'
p3125
I2
tp3126
a(S'buy'
p3127
I2
tp3128
a(S'bystander'
p3129
I2
tp3130
a(S'cant'
p3131
I2
tp3132
a(S'caps1-@caps2'
p3133
I2
tp3134
a(S'caps1.s.b'
p3135
I2
tp3136
a(S'causeing'
p3137
I2
tp3138
a(S'caution'
p3139
I2
tp3140
a(S'chaotic'
p3141
I2
tp3142
a(S'cheap'
p3143
I2
tp3144
a(S'check'
p3145
I2
tp3146
a(S'checked'
p3147
I2
tp3148
a(S'choice'
p3149
I2
tp3150
a(S'choose'
p3151
I2
tp3152
a(S'chrome'
p3153
I2
tp3154
a(S'circle'
p3155
I2
tp3156
a(S'cities.the'
p3157
I2
tp3158
a(S'city.based'
p3159
I2
tp3160
a(S'clad'
p3161
I2
tp3162
a(S'clanging'
p3163
I2
tp3164
a(S'climite'
p3165
I2
tp3166
a(S'coffin'
p3167
I2
tp3168
a(S'combination'
p3169
I2
tp3170
a(S'come.the'
p3171
I2
tp3172
a(S'common'
p3173
I2
tp3174
a(S'completed.the'
p3175
I2
tp3176
a(S'completion'
p3177
I2
tp3178
a(S'conceived'
p3179
I2
tp3180
a(S'concluded'
p3181
I2
tp3182
a(S'conductor'
p3183
I2
tp3184
a(S'consern'
p3185
I2
tp3186
a(S'consist'
p3187
I2
tp3188
a(S'constructer'
p3189
I2
tp3190
a(S'consulting'
p3191
I2
tp3192
a(S'contain'
p3193
I2
tp3194
a(S'contractor'
p3195
I2
tp3196
a(S'converted'
p3197
I2
tp3198
a(S'correct'
p3199
I2
tp3200
a(S"countrie'"
p3201
I2
tp3202
a(S'crazy'
p3203
I2
tp3204
a(S'creative'
p3205
I2
tp3206
a(S'crew'
p3207
I2
tp3208
a(S'critical'
p3209
I2
tp3210
a(S'currant'
p3211
I2
tp3212
a(S"currents.'"
p3213
I2
tp3214
a(S'dang'
p3215
I2
tp3216
a(S'dangerous.the'
p3217
I2
tp3218
a(S'dangled'
p3219
I2
tp3220
a(S'date2'
p3221
I2
tp3222
a(S'deadly'
p3223
I2
tp3224
a(S'defeated'
p3225
I2
tp3226
a(S'delivered'
p3227
I2
tp3228
a(S'detrimental'
p3229
I2
tp3230
a(S'develop'
p3231
I2
tp3232
a(S'developing'
p3233
I2
tp3234
a(S'device'
p3235
I2
tp3236
a(S'died'
p3237
I2
tp3238
a(S'difference'
p3239
I2
tp3240
a(S'dilemma'
p3241
I2
tp3242
a(S'directly'
p3243
I2
tp3244
a(S'dirible'
p3245
I2
tp3246
a(S"dirigibe'"
p3247
I2
tp3248
a(S'dirigibles)'
p3249
I2
tp3250
a(S'dirigibles;'
p3251
I2
tp3252
a(S'disasterou'
p3253
I2
tp3254
a(S'discovery'
p3255
I2
tp3256
a(S'disregarded'
p3257
I2
tp3258
a(S'dissappeared'
p3259
I2
tp3260
a(S'distributed'
p3261
I2
tp3262
a(S'do.the'
p3263
I2
tp3264
a(S'doc'
p3265
I2
tp3266
a(S'dock.in'
p3267
I2
tp3268
a(S'dont'
p3269
I2
tp3270
a(S'double'
p3271
I2
tp3272
a(S'doubt'
p3273
I2
tp3274
a(S'dow'
p3275
I2
tp3276
a(S'downfall'
p3277
I2
tp3278
a(S'downright'
p3279
I2
tp3280
a(S'drastic'
p3281
I2
tp3282
a(S'dream.there'
p3283
I2
tp3284
a(S'drogen'
p3285
I2
tp3286
a(S'durgible'
p3287
I2
tp3288
a(S'durring'
p3289
I2
tp3290
a(S'edit'
p3291
I2
tp3292
a(S'effectively'
p3293
I2
tp3294
a(S'egineer'
p3295
I2
tp3296
a(S'eighty-sixth'
p3297
I2
tp3298
a(S'eliminated'
p3299
I2
tp3300
a(S'encounter'
p3301
I2
tp3302
a(S'encouraged'
p3303
I2
tp3304
a(S'endangered'
p3305
I2
tp3306
a(S'endure'
p3307
I2
tp3308
a(S'enuff'
p3309
I2
tp3310
a(S'environment'
p3311
I2
tp3312
a(S'envisioned'
p3313
I2
tp3314
a(S'excited'
p3315
I2
tp3316
a(S'existed'
p3317
I2
tp3318
a(S'faced.there'
p3319
I2
tp3320
a(S'faded'
p3321
I2
tp3322
a(S'faster'
p3323
I2
tp3324
a(S'feasible'
p3325
I2
tp3326
a(S'feature'
p3327
I2
tp3328
a(S'federal'
p3329
I2
tp3330
a(S'feel'
p3331
I2
tp3332
a(S'fill'
p3333
I2
tp3334
a(S'finished.the'
p3335
I2
tp3336
a(S'flamable.in'
p3337
I2
tp3338
a(S'flamibility'
p3339
I2
tp3340
a(S'flammable.al'
p3341
I2
tp3342
a(S'flammable.the'
p3343
I2
tp3344
a(S'flew'
p3345
I2
tp3346
a(S'followed'
p3347
I2
tp3348
a(S'foolish'
p3349
I2
tp3350
a(S'forbade'
p3351
I2
tp3352
a(S'forbid'
p3353
I2
tp3354
a(S'former'
p3355
I2
tp3356
a(S'forward'
p3357
I2
tp3358
a(S'frame.the'
p3359
I2
tp3360
a(S'ft)'
p3361
I2
tp3362
a(S'fufilled'
p3363
I2
tp3364
a(S'function'
p3365
I2
tp3366
a(S'fund'
p3367
I2
tp3368
a(S'futile'
p3369
I2
tp3370
a(S'gaining'
p3371
I2
tp3372
a(S'glassed-in'
p3373
I2
tp3374
a(S'gotten'
p3375
I2
tp3376
a(S'grave'
p3377
I2
tp3378
a(S'growing'
p3379
I2
tp3380
a(S'haded'
p3381
I2
tp3382
a(S"hadn't"
p3383
I2
tp3384
a(S'half'
p3385
I2
tp3386
a(S'halted'
p3387
I2
tp3388
a(S'happend'
p3389
I2
tp3390
a(S'happened.the'
p3391
I2
tp3392
a(S'hardly'
p3393
I2
tp3394
a(S'harming'
p3395
I2
tp3396
a(S'hazzard'
p3397
I2
tp3398
a(S'heart'
p3399
I2
tp3400
a(S'heat'
p3401
I2
tp3402
a(S'history'
p3403
I2
tp3404
a(S'hoisted'
p3405
I2
tp3406
a(S'horrible'
p3407
I2
tp3408
a(S'horrific'
p3409
I2
tp3410
a(S'hot'
p3411
I2
tp3412
a(S'hovering'
p3413
I2
tp3414
a(S'hub'
p3415
I2
tp3416
a(S'hull'
p3417
I2
tp3418
a(S'ignored'
p3419
I2
tp3420
a(S'illegal.based'
p3421
I2
tp3422
a(S'imagination'
p3423
I2
tp3424
a(S'imagine'
p3425
I2
tp3426
a(S'imagined'
p3427
I2
tp3428
a(S'immense'
p3429
I2
tp3430
a(S'imminent'
p3431
I2
tp3432
a(S'impact'
p3433
I2
tp3434
a(S'implying'
p3435
I2
tp3436
a(S'imposible'
p3437
I2
tp3438
a(S'impractical.the'
p3439
I2
tp3440
a(S'impracticle'
p3441
I2
tp3442
a(S'improve'
p3443
I2
tp3444
a(S'incorporate'
p3445
I2
tp3446
a(S'increase'
p3447
I2
tp3448
a(S'incredible'
p3449
I2
tp3450
a(S'inflated'
p3451
I2
tp3452
a(S'initial'
p3453
I2
tp3454
a(S'innovative'
p3455
I2
tp3456
a(S'intention'
p3457
I2
tp3458
a(S'intentionally'
p3459
I2
tp3460
a(S'introduced'
p3461
I2
tp3462
a(S'invented'
p3463
I2
tp3464
a(S'irrational'
p3465
I2
tp3466
a(S'irving'
p3467
I2
tp3468
a(S'issue;'
p3469
I2
tp3470
a(S'jersey.the'
p3471
I2
tp3472
a(S'jumped'
p3473
I2
tp3474
a(S'key'
p3475
I2
tp3476
a(S'legislation'
p3477
I2
tp3478
a(S'lied'
p3479
I2
tp3480
a(S'lined'
p3481
I2
tp3482
a(S'lit'
p3483
I2
tp3484
a(S'low.in'
p3485
I2
tp3486
a(S'machine'
p3487
I2
tp3488
a(S'maintain'
p3489
I2
tp3490
a(S'makeing'
p3491
I2
tp3492
a(S"mast.'"
p3493
I2
tp3494
a(S'mast.another'
p3495
I2
tp3496
a(S'mast.based'
p3497
I2
tp3498
a(S'media'
p3499
I2
tp3500
a(S'meet'
p3501
I2
tp3502
a(S'ment'
p3503
I2
tp3504
a(S'minor'
p3505
I2
tp3506
a(S'mishap'
p3507
I2
tp3508
a(S'mistake'
p3509
I2
tp3510
a(S'moderate'
p3511
I2
tp3512
a(S'modifing'
p3513
I2
tp3514
a(S'moorning'
p3515
I2
tp3516
a(S'moreover'
p3517
I2
tp3518
a(S'motion'
p3519
I2
tp3520
a(S'mounted'
p3521
I2
tp3522
a(S'moved'
p3523
I2
tp3524
a(S'myriad'
p3525
I2
tp3526
a(S'nail'
p3527
I2
tp3528
a(S'narrator'
p3529
I2
tp3530
a(S'needle'
p3531
I2
tp3532
a(S'neighboring'
p3533
I2
tp3534
a(S'newly'
p3535
I2
tp3536
a(S'niether'
p3537
I2
tp3538
a(S'non-@caps1'
p3539
I2
tp3540
a(S'none'
p3541
I2
tp3542
a(S'note'
p3543
I2
tp3544
a(S'nowhere'
p3545
I2
tp3546
a(S'num4)'
p3547
I2
tp3548
a(S'ob'
p3549
I2
tp3550
a(S'obstable'
p3551
I2
tp3552
a(S'obstacles.there'
p3553
I2
tp3554
a(S'obstactle'
p3555
I2
tp3556
a(S'obstale'
p3557
I2
tp3558
a(S'obviously'
p3559
I2
tp3560
a(S'office'
p3561
I2
tp3562
a(S'one-thousand'
p3563
I2
tp3564
a(S'option'
p3565
I2
tp3566
a(S'ornament'
p3567
I2
tp3568
a(S'ornate'
p3569
I2
tp3570
a(S'oxygen'
p3571
I2
tp3572
a(S'pa'
p3573
I2
tp3574
a(S'padestran'
p3575
I2
tp3576
a(S'peice'
p3577
I2
tp3578
a(S'people.in'
p3579
I2
tp3580
a(S'permitting'
p3581
I2
tp3582
a(S"person1'"
p3583
I2
tp3584
a(S'physically'
p3585
I2
tp3586
a(S'pick'
p3587
I2
tp3588
a(S'plank'
p3589
I2
tp3590
a(S'plausible'
p3591
I2
tp3592
a(S'plummeting'
p3593
I2
tp3594
a(S'pointy'
p3595
I2
tp3596
a(S'poorly'
p3597
I2
tp3598
a(S'port'
p3599
I2
tp3600
a(S'possibilitie'
p3601
I2
tp3602
a(S'post'
p3603
I2
tp3604
a(S'powered'
p3605
I2
tp3606
a(S'practicle'
p3607
I2
tp3608
a(S'predict'
p3609
I2
tp3610
a(S'prevention'
p3611
I2
tp3612
a(S'prexisting'
p3613
I2
tp3614
a(S'price'
p3615
I2
tp3616
a(S'prime'
p3617
I2
tp3618
a(S'proble'
p3619
I2
tp3620
a(S'problem.another'
p3621
I2
tp3622
a(S'proceeded'
p3623
I2
tp3624
a(S'project.the'
p3625
I2
tp3626
a(S'proposed'
p3627
I2
tp3628
a(S'proving'
p3629
I2
tp3630
a(S'purely'
p3631
I2
tp3632
a(S'purpose.based'
p3633
I2
tp3634
a(S'purpose.in'
p3635
I2
tp3636
a(S'pushed'
p3637
I2
tp3638
a(S'puzzle'
p3639
I2
tp3640
a(S'pyramid'
p3641
I2
tp3642
a(S'quest'
p3643
I2
tp3644
a(S'questioned'
p3645
I2
tp3646
a(S'quick'
p3647
I2
tp3648
a(S'quit'
p3649
I2
tp3650
a(S'reaching'
p3651
I2
tp3652
a(S'reality.the'
p3653
I2
tp3654
a(S'realization'
p3655
I2
tp3656
a(S'reasoning'
p3657
I2
tp3658
a(S'recently'
p3659
I2
tp3660
a(S'recognize'
p3661
I2
tp3662
a(S'rectify'
p3663
I2
tp3664
a(S'redo'
p3665
I2
tp3666
a(S'reframed'
p3667
I2
tp3668
a(S'regardle'
p3669
I2
tp3670
a(S'reinforced'
p3671
I2
tp3672
a(S'related'
p3673
I2
tp3674
a(S'remain'
p3675
I2
tp3676
a(S'remained'
p3677
I2
tp3678
a(S'remembered'
p3679
I2
tp3680
a(S'remodel'
p3681
I2
tp3682
a(S'repair'
p3683
I2
tp3684
a(S'reported'
p3685
I2
tp3686
a(S'research'
p3687
I2
tp3688
a(S'resolved'
p3689
I2
tp3690
a(S'resulted'
p3691
I2
tp3692
a(S'resulting'
p3693
I2
tp3694
a(S'ride'
p3695
I2
tp3696
a(S'rigorou'
p3697
I2
tp3698
a(S'rip'
p3699
I2
tp3700
a(S'ripping'
p3701
I2
tp3702
a(S'risking'
p3703
I2
tp3704
a(S'rooftop'
p3705
I2
tp3706
a(S'rule'
p3707
I2
tp3708
a(S'running'
p3709
I2
tp3710
a(S'rushed'
p3711
I2
tp3712
a(S'safe.there'
p3713
I2
tp3714
a(S'safer'
p3715
I2
tp3716
a(S'safest'
p3717
I2
tp3718
a(S'safetly'
p3719
I2
tp3720
a(S'section'
p3721
I2
tp3722
a(S'secured'
p3723
I2
tp3724
a(S'securely'
p3725
I2
tp3726
a(S'sent'
p3727
I2
tp3728
a(S'sentence)'
p3729
I2
tp3730
a(S'serie'
p3731
I2
tp3732
a(S'seriously'
p3733
I2
tp3734
a(S'severe'
p3735
I2
tp3736
a(S'severity'
p3737
I2
tp3738
a(S'sheer'
p3739
I2
tp3740
a(S'shell.the'
p3741
I2
tp3742
a(S'shifing'
p3743
I2
tp3744
a(S'shipped'
p3745
I2
tp3746
a(S'ships'
p3747
I2
tp3748
a(S'similarly'
p3749
I2
tp3750
a(S'site'
p3751
I2
tp3752
a(S'sixty-thousand'
p3753
I2
tp3754
a(S'sized'
p3755
I2
tp3756
a(S'skinny'
p3757
I2
tp3758
a(S'skyline'
p3759
I2
tp3760
a(S'slowly'
p3761
I2
tp3762
a(S'snap'
p3763
I2
tp3764
a(S'solid'
p3765
I2
tp3766
a(S'source'
p3767
I2
tp3768
a(S'specific'
p3769
I2
tp3770
a(S'spended'
p3771
I2
tp3772
a(S'spinning'
p3773
I2
tp3774
a(S'spontaneou'
p3775
I2
tp3776
a(S'spotted'
p3777
I2
tp3778
a(S'stacle'
p3779
I2
tp3780
a(S'stat'
p3781
I2
tp3782
a(S"state'"
p3783
I2
tp3784
a(S'stayed'
p3785
I2
tp3786
a(S'steering'
p3787
I2
tp3788
a(S'stepped-back'
p3789
I2
tp3790
a(S'stoped'
p3791
I2
tp3792
a(S'storie'
p3793
I2
tp3794
a(S'strong.in'
p3795
I2
tp3796
a(S'struck'
p3797
I2
tp3798
a(S"structure'"
p3799
I2
tp3800
a(S'structured'
p3801
I2
tp3802
a(S'succeeded'
p3803
I2
tp3804
a(S'successful.when'
p3805
I2
tp3806
a(S'sucessful'
p3807
I2
tp3808
a(S'suddenly'
p3809
I2
tp3810
a(S'suggest'
p3811
I2
tp3812
a(S'summit'
p3813
I2
tp3814
a(S'supported'
p3815
I2
tp3816
a(S'supporting'
p3817
I2
tp3818
a(S'surfaced'
p3819
I2
tp3820
a(S'suspended'
p3821
I2
tp3822
a(S'swirling'
p3823
I2
tp3824
a(S'swivelling'
p3825
I2
tp3826
a(S'tale'
p3827
I2
tp3828
a(S'talking'
p3829
I2
tp3830
a(S'technical'
p3831
I2
tp3832
a(S'technique'
p3833
I2
tp3834
a(S'tere'
p3835
I2
tp3836
a(S'theese'
p3837
I2
tp3838
a(S'there.al'
p3839
I2
tp3840
a(S'there.architect'
p3841
I2
tp3842
a(S'this.in'
p3843
I2
tp3844
a(S'thrash'
p3845
I2
tp3846
a(S'threaten'
p3847
I2
tp3848
a(S'threw'
p3849
I2
tp3850
a(S'throw'
p3851
I2
tp3852
a(S'ticketing'
p3853
I2
tp3854
a(S"today'"
p3855
I2
tp3856
a(S'today.the'
p3857
I2
tp3858
a(S'total'
p3859
I2
tp3860
a(S'tougher'
p3861
I2
tp3862
a(S'transfer'
p3863
I2
tp3864
a(S'transferred'
p3865
I2
tp3866
a(S'transform'
p3867
I2
tp3868
a(S'transmitt'
p3869
I2
tp3870
a(S'transported'
p3871
I2
tp3872
a(S'transporting'
p3873
I2
tp3874
a(S'traveling'
p3875
I2
tp3876
a(S'trial'
p3877
I2
tp3878
a(S'trick'
p3879
I2
tp3880
a(S'tricky'
p3881
I2
tp3882
a(S'twist'
p3883
I2
tp3884
a(S'typically'
p3885
I2
tp3886
a(S'u.s.a'
p3887
I2
tp3888
a(S'uncontrolable'
p3889
I2
tp3890
a(S'uncontrolably'
p3891
I2
tp3892
a(S'uncontrollable'
p3893
I2
tp3894
a(S'underneath'
p3895
I2
tp3896
a(S'unit'
p3897
I2
tp3898
a(S'unreasonable'
p3899
I2
tp3900
a(S'unreliable'
p3901
I2
tp3902
a(S'unsafe.the'
p3903
I2
tp3904
a(S'unsteady'
p3905
I2
tp3906
a(S'unsuccessful'
p3907
I2
tp3908
a(S'unsuccessful.the'
p3909
I2
tp3910
a(S'unsuitable'
p3911
I2
tp3912
a(S'unwise'
p3913
I2
tp3914
a(S'urbanized'
p3915
I2
tp3916
a(S'usage'
p3917
I2
tp3918
a(S'variou'
p3919
I2
tp3920
a(S'vast'
p3921
I2
tp3922
a(S'vehicle'
p3923
I2
tp3924
a(S'violant'
p3925
I2
tp3926
a(S'violate'
p3927
I2
tp3928
a(S'violen'
p3929
I2
tp3930
a(S'violet'
p3931
I2
tp3932
a(S'volatile'
p3933
I2
tp3934
a(S'wait'
p3935
I2
tp3936
a(S'waiting'
p3937
I2
tp3938
a(S'wasted'
p3939
I2
tp3940
a(S"way'"
p3941
I2
tp3942
a(S'weak'
p3943
I2
tp3944
a(S'weaker'
p3945
I2
tp3946
a(S'weighting'
p3947
I2
tp3948
a(S'weights;'
p3949
I2
tp3950
a(S'well-known'
p3951
I2
tp3952
a(S'whale'
p3953
I2
tp3954
a(S'whether'
p3955
I2
tp3956
a(S'whip'
p3957
I2
tp3958
a(S'whipped'
p3959
I2
tp3960
a(S'winds'
p3961
I2
tp3962
a(S'witch'
p3963
I2
tp3964
a(S'women'
p3965
I2
tp3966
a(S"won't"
p3967
I2
tp3968
a(S'wonder'
p3969
I2
tp3970
a(S'worldwide'
p3971
I2
tp3972
a(S'worst'
p3973
I2
tp3974
a(S'wouldnt'
p3975
I2
tp3976
a(S'wrapping'
p3977
I2
tp3978
a(S'zepplen'
p3979
I2
tp3980
a(S'\xb6'
I2
tp3981
a(S'$'
I1
tp3982
a(S"'@caps1'"
p3983
I1
tp3984
a(S"'airship"
p3985
I1
tp3986
a(S"'constantly"
p3987
I1
tp3988
a(S"'hindenburg'"
p3989
I1
tp3990
a(S"'if"
p3991
I1
tp3992
a(S"'one"
p3993
I1
tp3994
a(S"'worth"
p3995
I1
tp3996
a(S'(1,250'
p3997
I1
tp3998
a(S'(@caps3'
p3999
I1
tp4000
a(S'(@num3'
p4001
I1
tp4002
a(S'(@num4)'
p4003
I1
tp4004
a(S'(@organization2)'
p4005
I1
tp4006
a(S'(dirigibles)'
p4007
I1
tp4008
a(S"(don't"
p4009
I1
tp4010
a(S'(especially'
p4011
I1
tp4012
a(S'(four-term'
p4013
I1
tp4014
a(S'(from'
p4015
I1
tp4016
a(S'(highly'
p4017
I1
tp4018
a(S'(hindenburg)'
p4019
I1
tp4020
a(S'(hydrogen)'
p4021
I1
tp4022
a(S'(i.e'
p4023
I1
tp4024
a(S'(let'
p4025
I1
tp4026
a(S'(like'
p4027
I1
tp4028
a(S'(line'
p4029
I1
tp4030
a(S'(most'
p4031
I1
tp4032
a(S'(weather)'
p4033
I1
tp4034
a(S"(\xb6'"
p4035
I1
tp4036
a(S'(\xb6@num1)'
p4037
I1
tp4038
a(S'(\xb6@num3)'
p4039
I1
tp4040
a(S'***'
p4041
I1
tp4042
a(S'********'
p4043
I1
tp4044
a(S'-(which'
p4045
I1
tp4046
a(S'-say'
p4047
I1
tp4048
a(S'185'
p4049
I1
tp4050
a(S"1930's.the"
p4051
I1
tp4052
a(S'1937..."these'
p4053
I1
tp4054
a(S'6).in'
p4055
I1
tp4056
a(S'<@num1</@caps1>'
p4057
I1
tp4058
a(S'[@location2]'
p4059
I1
tp4060
a(S'[@organization2'
p4061
I1
tp4062
a(S'[a]'
p4063
I1
tp4064
a(S'[an]'
p4065
I1
tp4066
a(S'[because]'
p4067
I1
tp4068
a(S'[building]'
p4069
I1
tp4070
a(S'[could]'
p4071
I1
tp4072
a(S'[dirigibles]'
p4073
I1
tp4074
a(S'[from]'
p4075
I1
tp4076
a(S'[happened]'
p4077
I1
tp4078
a(S'[harmful'
p4079
I1
tp4080
a(S'[have]'
p4081
I1
tp4082
a(S'[he]'
p4083
I1
tp4084
a(S'[in'
p4085
I1
tp4086
a(S"[it's]"
p4087
I1
tp4088
a(S'[it]'
p4089
I1
tp4090
a(S'[t]he'
p4091
I1
tp4092
a(S'[than]'
p4093
I1
tp4094
a(S'[there]'
p4095
I1
tp4096
a(S'[thi'
p4097
I1
tp4098
a(S'[took]'
p4099
I1
tp4100
a(S'abandoned.based'
p4101
I1
tp4102
a(S'abandoning'
p4103
I1
tp4104
a(S'ablaze'
p4105
I1
tp4106
a(S'abolished.there'
p4107
I1
tp4108
a(S'above.the'
p4109
I1
tp4110
a(S'absolute'
p4111
I1
tp4112
a(S'absolutely'
p4113
I1
tp4114
a(S'abuilding'
p4115
I1
tp4116
a(S'acadent'
p4117
I1
tp4118
a(S'acce'
p4119
I1
tp4120
a(S'accesable'
p4121
I1
tp4122
a(S'accessible'
p4123
I1
tp4124
a(S'accidental'
p4125
I1
tp4126
a(S'accidently'
p4127
I1
tp4128
a(S'accidents.the'
p4129
I1
tp4130
a(S'accomade'
p4131
I1
tp4132
a(S'accommidation'
p4133
I1
tp4134
a(S'accomplish.based'
p4135
I1
tp4136
a(S'accomplished.when'
p4137
I1
tp4138
a(S'accounted'
p4139
I1
tp4140
a(S'accually'
p4141
I1
tp4142
a(S'accumulated'
p4143
I1
tp4144
a(S'aced'
p4145
I1
tp4146
a(S'achieved.there'
p4147
I1
tp4148
a(S'acomidate'
p4149
I1
tp4150
a(S'acommodate'
p4151
I1
tp4152
a(S'acomplish'
p4153
I1
tp4154
a(S'act'
p4155
I1
tp4156
a(S'activity'
p4157
I1
tp4158
a(S'actulty'
p4159
I1
tp4160
a(S'ad'
p4161
I1
tp4162
a(S'adapt'
p4163
I1
tp4164
a(S'adapting'
p4165
I1
tp4166
a(S'ader'
p4167
I1
tp4168
a(S'adjustment'
p4169
I1
tp4170
a(S'administrative'
p4171
I1
tp4172
a(S'admit'
p4173
I1
tp4174
a(S'adre'
p4175
I1
tp4176
a(S'adressed'
p4177
I1
tp4178
a(S'advancement'
p4179
I1
tp4180
a(S'advent'
p4181
I1
tp4182
a(S'adversitie'
p4183
I1
tp4184
a(S'aera'
p4185
I1
tp4186
a(S'aeronautical'
p4187
I1
tp4188
a(S'aesthetically'
p4189
I1
tp4190
a(S'affect.the'
p4191
I1
tp4192
a(S'affraid'
p4193
I1
tp4194
a(S'aflame'
p4195
I1
tp4196
a(S'afterward'
p4197
I1
tp4198
a(S'again.in'
p4199
I1
tp4200
a(S'againt'
p4201
I1
tp4202
a(S'age.the'
p4203
I1
tp4204
a(S'aggresively'
p4205
I1
tp4206
a(S'agianst'
p4207
I1
tp4208
a(S'ago'
p4209
I1
tp4210
a(S'air.it'
p4211
I1
tp4212
a(S'air.thi'
p4213
I1
tp4214
a(S'airborne'
p4215
I1
tp4216
a(S"aircraft'"
p4217
I1
tp4218
a(S'airplanes."obstacle'
p4219
I1
tp4220
a(S'airplanes.based'
p4221
I1
tp4222
a(S'airplanes.during'
p4223
I1
tp4224
a(S'airplanes.the'
p4225
I1
tp4226
a(S'airplanes.there'
p4227
I1
tp4228
a(S'airplanes.throughout'
p4229
I1
tp4230
a(S'airplanes.when'
p4231
I1
tp4232
a(S'airships.in'
p4233
I1
tp4234
a(S'ala'
p4235
I1
tp4236
a(S'all.obstacle'
p4237
I1
tp4238
a(S'all.throughout'
p4239
I1
tp4240
a(S'alliviate'
p4241
I1
tp4242
a(S'allowable'
p4243
I1
tp4244
a(S'allowed.in'
p4245
I1
tp4246
a(S'alltitude'
p4247
I1
tp4248
a(S'alltogether'
p4249
I1
tp4250
a(S'allway'
p4251
I1
tp4252
a(S'alow'
p4253
I1
tp4254
a(S'alowed'
p4255
I1
tp4256
a(S'also;'
p4257
I1
tp4258
a(S'altleast'
p4259
I1
tp4260
a(S'altogether'
p4261
I1
tp4262
a(S'altogether.based'
p4263
I1
tp4264
a(S'altogether.the'
p4265
I1
tp4266
a(S'altogether.there'
p4267
I1
tp4268
a(S'american-used'
p4269
I1
tp4270
a(S'ammount'
p4271
I1
tp4272
a(S'amongst'
p4273
I1
tp4274
a(S'amplified'
p4275
I1
tp4276
a(S'an;'
p4277
I1
tp4278
a(S'an]'
p4279
I1
tp4280
a(S'analized'
p4281
I1
tp4282
a(S'analyze'
p4283
I1
tp4284
a(S'ancher'
p4285
I1
tp4286
a(S'ancker'
p4287
I1
tp4288
a(S'ancor'
p4289
I1
tp4290
a(S'angeles]'
p4291
I1
tp4292
a(S'ankered'
p4293
I1
tp4294
a(S'announce'
p4295
I1
tp4296
a(S'anouther'
p4297
I1
tp4298
a(S'answer'
p4299
I1
tp4300
a(S'anthor'
p4301
I1
tp4302
a(S'anthore'
p4303
I1
tp4304
a(S'anticipated'
p4305
I1
tp4306
a(S'anxiou'
p4307
I1
tp4308
a(S'anymore...in'
p4309
I1
tp4310
a(S"anyways.@organization2'"
p4311
I1
tp4312
a(S'anyways.the'
p4313
I1
tp4314
a(S'apparant'
p4315
I1
tp4316
a(S'appear'
p4317
I1
tp4318
a(S'appearance'
p4319
I1
tp4320
a(S'appeared'
p4321
I1
tp4322
a(S'applied'
p4323
I1
tp4324
a(S'apprently'
p4325
I1
tp4326
a(S'approach[ing]'
p4327
I1
tp4328
a(S'approch'
p4329
I1
tp4330
a(S'approval'
p4331
I1
tp4332
a(S'approved'
p4333
I1
tp4334
a(S'aproach'
p4335
I1
tp4336
a(S"architect'"
p4337
I1
tp4338
a(S'architecte'
p4339
I1
tp4340
a(S'architector'
p4341
I1
tp4342
a(S'architects.@caps1'
p4343
I1
tp4344
a(S'architects.there'
p4345
I1
tp4346
a(S'architectural.the'
p4347
I1
tp4348
a(S'are;'
p4349
I1
tp4350
a(S'area".while'
p4351
I1
tp4352
a(S"area'"
p4353
I1
tp4354
a(S'area."@caps1'
p4355
I1
tp4356
a(S'area."in'
p4357
I1
tp4358
a(S'area...".in'
p4359
I1
tp4360
a(S'area.based'
p4361
I1
tp4362
a(S'area.builder'
p4363
I1
tp4364
a(S'area.creating'
p4365
I1
tp4366
a(S'area.there'
p4367
I1
tp4368
a(S'area.when'
p4369
I1
tp4370
a(S'areas'
p4371
I1
tp4372
a(S"areas'"
p4373
I1
tp4374
a(S'areas."the'
p4375
I1
tp4376
a(S'areas.although'
p4377
I1
tp4378
a(S'areas.another'
p4379
I1
tp4380
a(S'areas.based'
p4381
I1
tp4382
a(S'areas.by'
p4383
I1
tp4384
a(S'areas.some'
p4385
I1
tp4386
a(S'areas.they'
p4387
I1
tp4388
a(S'areas;'
p4389
I1
tp4390
a(S'areasal'
p4391
I1
tp4392
a(S'arguments,confusment'
p4393
I1
tp4394
a(S'arise.the'
p4395
I1
tp4396
a(S'arised'
p4397
I1
tp4398
a(S'arisen'
p4399
I1
tp4400
a(S'arm.based'
p4401
I1
tp4402
a(S'around"(@num4)'
p4403
I1
tp4404
a(S'around-a'
p4405
I1
tp4406
a(S'around.although'
p4407
I1
tp4408
a(S'around.builder'
p4409
I1
tp4410
a(S'around.the'
p4411
I1
tp4412
a(S'aroundin'
p4413
I1
tp4414
a(S'aroused'
p4415
I1
tp4416
a(S'arranging'
p4417
I1
tp4418
a(S'as-i'
p4419
I1
tp4420
a(S'aspiration'
p4421
I1
tp4422
a(S'asset'
p4423
I1
tp4424
a(S'astounding'
p4425
I1
tp4426
a(S'aswell'
p4427
I1
tp4428
a(S'at.although'
p4429
I1
tp4430
a(S'atemp'
p4431
I1
tp4432
a(S'atempd'
p4433
I1
tp4434
a(S'atempt'
p4435
I1
tp4436
a(S'atrocity'
p4437
I1
tp4438
a(S'attache'
p4439
I1
tp4440
a(S'attahed'
p4441
I1
tp4442
a(S'attched'
p4443
I1
tp4444
a(S'attemply'
p4445
I1
tp4446
a(S'attempt.in'
p4447
I1
tp4448
a(S'attempt.intended'
p4449
I1
tp4450
a(S'attenting'
p4451
I1
tp4452
a(S'atteptin'
p4453
I1
tp4454
a(S'attitude'
p4455
I1
tp4456
a(S'attop'
p4457
I1
tp4458
a(S'attracting'
p4459
I1
tp4460
a(S'aviation,require'
p4461
I1
tp4462
a(S'avoid'
p4463
I1
tp4464
a(S'avoidable'
p4465
I1
tp4466
a(S'avoided'
p4467
I1
tp4468
a(S'awaly'
p4469
I1
tp4470
a(S'away.not'
p4471
I1
tp4472
a(S'bacase'
p4473
I1
tp4474
a(S'bacicaly'
p4475
I1
tp4476
a(S'back.these'
p4477
I1
tp4478
a(S'backend'
p4479
I1
tp4480
a(S'bad.a'
p4481
I1
tp4482
a(S'badly'
p4483
I1
tp4484
a(S'baffled'
p4485
I1
tp4486
a(S'balence'
p4487
I1
tp4488
a(S'ball'
p4489
I1
tp4490
a(S'balloon.the'
p4491
I1
tp4492
a(S'balloons.there'
p4493
I1
tp4494
a(S'bargained'
p4495
I1
tp4496
a(S'basic'
p4497
I1
tp4498
a(S'battleship'
p4499
I1
tp4500
a(S'be.the'
p4501
I1
tp4502
a(S'beable'
p4503
I1
tp4504
a(S'beater'
p4505
I1
tp4506
a(S'beating'
p4507
I1
tp4508
a(S'beauty'
p4509
I1
tp4510
a(S'becacse'
p4511
I1
tp4512
a(S'because;'
p4513
I1
tp4514
a(S'befor'
p4515
I1
tp4516
a(S'beforehand'
p4517
I1
tp4518
a(S'befrore'
p4519
I1
tp4520
a(S'beggining'
p4521
I1
tp4522
a(S'begining'
p4523
I1
tp4524
a(S'begun'
p4525
I1
tp4526
a(S'begun.the'
p4527
I1
tp4528
a(S'being;'
p4529
I1
tp4530
a(S'belived'
p4531
I1
tp4532
a(S'belonged'
p4533
I1
tp4534
a(S'below."these'
p4535
I1
tp4536
a(S'below.in'
p4537
I1
tp4538
a(S'beneficial'
p4539
I1
tp4540
a(S"benefit'"
p4541
I1
tp4542
a(S'better.the'
p4543
I1
tp4544
a(S'beyond'
p4545
I1
tp4546
a(S'bidding'
p4547
I1
tp4548
a(S'bigest'
p4549
I1
tp4550
a(S'biggist'
p4551
I1
tp4552
a(S'bin'
p4553
I1
tp4554
a(S'biolent'
p4555
I1
tp4556
a(S'bitter'
p4557
I1
tp4558
a(S'black'
p4559
I1
tp4560
a(S'blast'
p4561
I1
tp4562
a(S'blim'
p4563
I1
tp4564
a(S"blimp'"
p4565
I1
tp4566
a(S'blimp-like'
p4567
I1
tp4568
a(S'blimp.the'
p4569
I1
tp4570
a(S'blimp.while'
p4571
I1
tp4572
a(S'blimps.builder'
p4573
I1
tp4574
a(S'blimps.the'
p4575
I1
tp4576
a(S'blimps.throughout'
p4577
I1
tp4578
a(S'blinding'
p4579
I1
tp4580
a(S'blocked'
p4581
I1
tp4582
a(S'blocksthe'
p4583
I1
tp4584
a(S'blok'
p4585
I1
tp4586
a(S'blowup'
p4587
I1
tp4588
a(S'blue'
p4589
I1
tp4590
a(S'book'
p4591
I1
tp4592
a(S'born'
p4593
I1
tp4594
a(S'bother'
p4595
I1
tp4596
a(S'bothered'
p4597
I1
tp4598
a(S'bound'
p4599
I1
tp4600
a(S'brainstorm'
p4601
I1
tp4602
a(S'breach'
p4603
I1
tp4604
a(S'breaching'
p4605
I1
tp4606
a(S'breakthrough'
p4607
I1
tp4608
a(S'brew'
p4609
I1
tp4610
a(S'bring?'
p4611
I1
tp4612
a(S'brutal'
p4613
I1
tp4614
a(S'buffet'
p4615
I1
tp4616
a(S'buidier'
p4617
I1
tp4618
a(S'build.the'
p4619
I1
tp4620
a(S'builders'
p4621
I1
tp4622
a(S'builders.the'
p4623
I1
tp4624
a(S'builders.there'
p4625
I1
tp4626
a(S'builders.thi'
p4627
I1
tp4628
a(S'building!in'
p4629
I1
tp4630
a(S'building)'
p4631
I1
tp4632
a(S'building."based'
p4633
I1
tp4634
a(S'building."in'
p4635
I1
tp4636
a(S'building.al'
p4637
I1
tp4638
a(S'building.an'
p4639
I1
tp4640
a(S'building.builder'
p4641
I1
tp4642
a(S'building.construction'
p4643
I1
tp4644
a(S'building.finally'
p4645
I1
tp4646
a(S'building.first'
p4647
I1
tp4648
a(S'building.having'
p4649
I1
tp4650
a(S'building.just'
p4651
I1
tp4652
a(S'building.obstacle'
p4653
I1
tp4654
a(S'building.soon'
p4655
I1
tp4656
a(S'building.their'
p4657
I1
tp4658
a(S'building.while'
p4659
I1
tp4660
a(S'buildingdirigible'
p4661
I1
tp4662
a(S'buildingduring'
p4663
I1
tp4664
a(S'buildingin'
p4665
I1
tp4666
a(S'buildings.it'
p4667
I1
tp4668
a(S'buildings;'
p4669
I1
tp4670
a(S'buildingwhen'
p4671
I1
tp4672
a(S'builduing'
p4673
I1
tp4674
a(S'builduing.in'
p4675
I1
tp4676
a(S'buildup'
p4677
I1
tp4678
a(S'builer'
p4679
I1
tp4680
a(S'buillder'
p4681
I1
tp4682
a(S'built.one'
p4683
I1
tp4684
a(S'built.there'
p4685
I1
tp4686
a(S'builtone'
p4687
I1
tp4688
a(S'buoyant'
p4689
I1
tp4690
a(S'bureaucracy'
p4691
I1
tp4692
a(S'burg'
p4693
I1
tp4694
a(S'bursted'
p4695
I1
tp4696
a(S'busiest'
p4697
I1
tp4698
a(S"businessman'"
p4699
I1
tp4700
a(S'bustling'
p4701
I1
tp4702
a(S'by.although'
p4703
I1
tp4704
a(S'cabled'
p4705
I1
tp4706
a(S'calculate'
p4707
I1
tp4708
a(S'cald'
p4709
I1
tp4710
a(S'call'
p4711
I1
tp4712
a(S'can.you'
p4713
I1
tp4714
a(S'cancelled.in'
p4715
I1
tp4716
a(S'canot'
p4717
I1
tp4718
a(S'capabilitie'
p4719
I1
tp4720
a(S'capable'
p4721
I1
tp4722
a(S'capital'
p4723
I1
tp4724
a(S'capitan'
p4725
I1
tp4726
a(S'caple'
p4727
I1
tp4728
a(S"caps1'"
p4729
I1
tp4730
a(S'caps1."in'
p4731
I1
tp4732
a(S'caps1.in'
p4733
I1
tp4734
a(S'caps1.the'
p4735
I1
tp4736
a(S'caps1.y'
p4737
I1
tp4738
a(S'caps1.y.c'
p4739
I1
tp4740
a(S'caps10'
p4741
I1
tp4742
a(S'caps2.in'
p4743
I1
tp4744
a(S'caps2.the'
p4745
I1
tp4746
a(S'caps3.the'
p4747
I1
tp4748
a(S'caps6.the'
p4749
I1
tp4750
a(S'caps9'
p4751
I1
tp4752
a(S'caps9.when'
p4753
I1
tp4754
a(S'captin'
p4755
I1
tp4756
a(S'car'
p4757
I1
tp4758
a(S'carrying'
p4759
I1
tp4760
a(S'catastrophic!'
p4761
I1
tp4762
a(S'cataustrophic'
p4763
I1
tp4764
a(S'catostrophic'
p4765
I1
tp4766
a(S'catostrophic.the'
p4767
I1
tp4768
a(S'cautiou'
p4769
I1
tp4770
a(S'cease'
p4771
I1
tp4772
a(S'cech'
p4773
I1
tp4774
a(S'ceetain'
p4775
I1
tp4776
a(S'celebrate'
p4777
I1
tp4778
a(S'cept'
p4779
I1
tp4780
a(S'certin'
p4781
I1
tp4782
a(S'challange'
p4783
I1
tp4784
a(S'challenged'
p4785
I1
tp4786
a(S'challenger'
p4787
I1
tp4788
a(S'changeing'
p4789
I1
tp4790
a(S'chao'
p4791
I1
tp4792
a(S'chapter'
p4793
I1
tp4794
a(S'charred'
p4795
I1
tp4796
a(S'chemistry'
p4797
I1
tp4798
a(S'cherry'
p4799
I1
tp4800
a(S'chew'
p4801
I1
tp4802
a(S'children'
p4803
I1
tp4804
a(S'chose'
p4805
I1
tp4806
a(S'chrome-nickle'
p4807
I1
tp4808
a(S'cilvian'
p4809
I1
tp4810
a(S"citie'"
p4811
I1
tp4812
a(S'cities."thi'
p4813
I1
tp4814
a(S'cities.him'
p4815
I1
tp4816
a(S'citizens.when'
p4817
I1
tp4818
a(S'city.thi'
p4819
I1
tp4820
a(S'city]'
p4821
I1
tp4822
a(S'citydweller'
p4823
I1
tp4824
a(S'cityin'
p4825
I1
tp4826
a(S'citythe'
p4827
I1
tp4828
a(S'civilization'
p4829
I1
tp4830
a(S'clamp'
p4831
I1
tp4832
a(S'clarifie'
p4833
I1
tp4834
a(S'clever'
p4835
I1
tp4836
a(S'climb'
p4837
I1
tp4838
a(S'close.on'
p4839
I1
tp4840
a(S'closely'
p4841
I1
tp4842
a(S'colapse'
p4843
I1
tp4844
a(S'cold'
p4845
I1
tp4846
a(S'collap'
p4847
I1
tp4848
a(S'collape'
p4849
I1
tp4850
a(S'collapse.another'
p4851
I1
tp4852
a(S'collapse.in'
p4853
I1
tp4854
a(S'collapsed'
p4855
I1
tp4856
a(S'collected'
p4857
I1
tp4858
a(S'combat'
p4859
I1
tp4860
a(S'combated'
p4861
I1
tp4862
a(S'comming'
p4863
I1
tp4864
a(S'commodly'
p4865
I1
tp4866
a(S'commonly'
p4867
I1
tp4868
a(S'comparing'
p4869
I1
tp4870
a(S'compensate'
p4871
I1
tp4872
a(S'competive'
p4873
I1
tp4874
a(S'compition'
p4875
I1
tp4876
a(S'compleatly'
p4877
I1
tp4878
a(S'completed.in'
p4879
I1
tp4880
a(S'complicate'
p4881
I1
tp4882
a(S'complicating'
p4883
I1
tp4884
a(S'component'
p4885
I1
tp4886
a(S'composition'
p4887
I1
tp4888
a(S'comprehension'
p4889
I1
tp4890
a(S'con'
p4891
I1
tp4892
a(S'conception'
p4893
I1
tp4894
a(S'concer'
p4895
I1
tp4896
a(S'concern.in'
p4897
I1
tp4898
a(S'concernin'
p4899
I1
tp4900
a(S'concerns.the'
p4901
I1
tp4902
a(S'concidering'
p4903
I1
tp4904
a(S'concieved'
p4905
I1
tp4906
a(S'concluding'
p4907
I1
tp4908
a(S'conflicting'
p4909
I1
tp4910
a(S'conquered'
p4911
I1
tp4912
a(S'consernd'
p4913
I1
tp4914
a(S'considered.based'
p4915
I1
tp4916
a(S'consistantly'
p4917
I1
tp4918
a(S'consited'
p4919
I1
tp4920
a(S'constantely'
p4921
I1
tp4922
a(S'constatly'
p4923
I1
tp4924
a(S'constinously'
p4925
I1
tp4926
a(S'constintly'
p4927
I1
tp4928
a(S'constrousion'
p4929
I1
tp4930
a(S'construct.basically'
p4931
I1
tp4932
a(S'constructed".according'
p4933
I1
tp4934
a(S"constructed.'"
p4935
I1
tp4936
a(S'constructed....the'
p4937
I1
tp4938
a(S'constructed.in'
p4939
I1
tp4940
a(S'constructed.the'
p4941
I1
tp4942
a(S'constructedwhile'
p4943
I1
tp4944
a(S'construction.in'
p4945
I1
tp4946
a(S'consular'
p4947
I1
tp4948
a(S'consulate'
p4949
I1
tp4950
a(S'contact'
p4951
I1
tp4952
a(S'contend'
p4953
I1
tp4954
a(S'content'
p4955
I1
tp4956
a(S'contently'
p4957
I1
tp4958
a(S'continuously'
p4959
I1
tp4960
a(S'contributing'
p4961
I1
tp4962
a(S'contributor'
p4963
I1
tp4964
a(S'controlled'
p4965
I1
tp4966
a(S'controller'
p4967
I1
tp4968
a(S'controlling'
p4969
I1
tp4970
a(S'converse'
p4971
I1
tp4972
a(S'cool'
p4973
I1
tp4974
a(S'cooperate'
p4975
I1
tp4976
a(S'corage'
p4977
I1
tp4978
a(S'corents.the'
p4979
I1
tp4980
a(S'cornfield'
p4981
I1
tp4982
a(S'correctaly'
p4983
I1
tp4984
a(S'correctly.there'
p4985
I1
tp4986
a(S"could'nt"
p4987
I1
tp4988
a(S'couldn'
p4989
I1
tp4990
a(S'couldve'
p4991
I1
tp4992
a(S"coun't"
p4993
I1
tp4994
a(S'countle'
p4995
I1
tp4996
a(S'coupled'
p4997
I1
tp4998
a(S'cover'
p4999
I1
tp5000
a(S'covered'
p5001
I1
tp5002
a(S'cracked'
p5003
I1
tp5004
a(S'crafting'
p5005
I1
tp5006
a(S'crash.in'
p5007
I1
tp5008
a(S'crash.the'
p5009
I1
tp5010
a(S'crashe'
p5011
I1
tp5012
a(S'craze'
p5013
I1
tp5014
a(S'created.based'
p5015
I1
tp5016
a(S'crisi'
p5017
I1
tp5018
a(S'cro'
p5019
I1
tp5020
a(S'crowd'
p5021
I1
tp5022
a(S'crowd.in'
p5023
I1
tp5024
a(S'crucial'
p5025
I1
tp5026
a(S'crusal'
p5027
I1
tp5028
a(S'crush'
p5029
I1
tp5030
a(S'crushed'
p5031
I1
tp5032
a(S'crushed.the'
p5033
I1
tp5034
a(S'crutial'
p5035
I1
tp5036
a(S'currents'
p5037
I1
tp5038
a(S"currents'"
p5039
I1
tp5040
a(S'currents."in'
p5041
I1
tp5042
a(S'currents.in'
p5043
I1
tp5044
a(S'currents.the'
p5045
I1
tp5046
a(S'currents.they'
p5047
I1
tp5048
a(S'customarily'
p5049
I1
tp5050
a(S'cylinder'
p5051
I1
tp5052
a(S'dager'
p5053
I1
tp5054
a(S'dagerou'
p5055
I1
tp5056
a(S'dangel'
p5057
I1
tp5058
a(S'dangeling'
p5059
I1
tp5060
a(S'danger.the'
p5061
I1
tp5062
a(S'danger.there'
p5063
I1
tp5064
a(S'dangerase'
p5065
I1
tp5066
a(S'dangeriou'
p5067
I1
tp5068
a(S'dangerous.i'
p5069
I1
tp5070
a(S'dangerous.in'
p5071
I1
tp5072
a(S'dangerous.many'
p5073
I1
tp5074
a(S'dangers.although'
p5075
I1
tp5076
a(S'dangor'
p5077
I1
tp5078
a(S'dangorou'
p5079
I1
tp5080
a(S'daring'
p5081
I1
tp5082
a(S"date2'"
p5083
I1
tp5084
a(S'dated'
p5085
I1
tp5086
a(S'dead.in'
p5087
I1
tp5088
a(S'dealed'
p5089
I1
tp5090
a(S'deaths.another'
p5091
I1
tp5092
a(S'debri'
p5093
I1
tp5094
a(S'deciding'
p5095
I1
tp5096
a(S'decline'
p5097
I1
tp5098
a(S'decoration'
p5099
I1
tp5100
a(S'decoration.allowing'
p5101
I1
tp5102
a(S'decoration.the'
p5103
I1
tp5104
a(S'decorative'
p5105
I1
tp5106
a(S'dedication'
p5107
I1
tp5108
a(S'deemed'
p5109
I1
tp5110
a(S'deeply'
p5111
I1
tp5112
a(S'definatly'
p5113
I1
tp5114
a(S'definite'
p5115
I1
tp5116
a(S'delayed'
p5117
I1
tp5118
a(S'delema'
p5119
I1
tp5120
a(S'deliever'
p5121
I1
tp5122
a(S'delivering'
p5123
I1
tp5124
a(S'delt'
p5125
I1
tp5126
a(S'demolished'
p5127
I1
tp5128
a(S'demonstrate'
p5129
I1
tp5130
a(S'denied'
p5131
I1
tp5132
a(S'densely-populated'
p5133
I1
tp5134
a(S'densey'
p5135
I1
tp5136
a(S'densiley'
p5137
I1
tp5138
a(S'departure'
p5139
I1
tp5140
a(S'depended'
p5141
I1
tp5142
a(S'depending'
p5143
I1
tp5144
a(S'deregible'
p5145
I1
tp5146
a(S'derilible'
p5147
I1
tp5148
a(S'desasterou'
p5149
I1
tp5150
a(S'describle'
p5151
I1
tp5152
a(S'desgned'
p5153
I1
tp5154
a(S'designers.when'
p5155
I1
tp5156
a(S'desion'
p5157
I1
tp5158
a(S'desk'
p5159
I1
tp5160
a(S'destination'
p5161
I1
tp5162
a(S'detailed'
p5163
I1
tp5164
a(S'detected'
p5165
I1
tp5166
a(S'devastation'
p5167
I1
tp5168
a(S'developer'
p5169
I1
tp5170
a(S'devestation'
p5171
I1
tp5172
a(S'devise'
p5173
I1
tp5174
a(S'devistating'
p5175
I1
tp5176
a(S'devoted'
p5177
I1
tp5178
a(S'diasastrou'
p5179
I1
tp5180
a(S'did.in'
p5181
I1
tp5182
a(S'dident'
p5183
I1
tp5184
a(S'die.in'
p5185
I1
tp5186
a(S'die.when'
p5187
I1
tp5188
a(S"differen't"
p5189
I1
tp5190
a(S'differently'
p5191
I1
tp5192
a(S'differer'
p5193
I1
tp5194
a(S'difficulties.the'
p5195
I1
tp5196
a(S'difficut'
p5197
I1
tp5198
a(S'diffuclt'
p5199
I1
tp5200
a(S'diigible'
p5201
I1
tp5202
a(S'diminish.the'
p5203
I1
tp5204
a(S'diminished'
p5205
I1
tp5206
a(S'dingle'
p5207
I1
tp5208
a(S'directional'
p5209
I1
tp5210
a(S'dirgigible'
p5211
I1
tp5212
a(S'diridgible'
p5213
I1
tp5214
a(S'dirig'
p5215
I1
tp5216
a(S"dirigable'"
p5217
I1
tp5218
a(S'dirigibel'
p5219
I1
tp5220
a(S'dirigible)'
p5221
I1
tp5222
a(S'dirigible.if'
p5223
I1
tp5224
a(S'dirigible.in'
p5225
I1
tp5226
a(S'dirigible.once'
p5227
I1
tp5228
a(S'dirigible.one'
p5229
I1
tp5230
a(S'dirigible.the'
p5231
I1
tp5232
a(S'dirigible]'
p5233
I1
tp5234
a(S'dirigiblei'
p5235
I1
tp5236
a(S'dirigiblein'
p5237
I1
tp5238
a(S'dirigiblel'
p5239
I1
tp5240
a(S"dirigiblel'"
p5241
I1
tp5242
a(S'dirigibles.another'
p5243
I1
tp5244
a(S'dirigibles.based'
p5245
I1
tp5246
a(S'dirigibles.one'
p5247
I1
tp5248
a(S'dirigibles.there'
p5249
I1
tp5250
a(S'dirigibles/blimp'
p5251
I1
tp5252
a(S'dirigiblesupon'
p5253
I1
tp5254
a(S'dirigilde'
p5255
I1
tp5256
a(S'dirigiple'
p5257
I1
tp5258
a(S'diriglbe'
p5259
I1
tp5260
a(S'diriglble'
p5261
I1
tp5262
a(S'diriglie'
p5263
I1
tp5264
a(S'dirilage'
p5265
I1
tp5266
a(S'dirilgable'
p5267
I1
tp5268
a(S'dirrection.the'
p5269
I1
tp5270
a(S'dirt'
p5271
I1
tp5272
a(S'dis-mounting'
p5273
I1
tp5274
a(S'disallowed'
p5275
I1
tp5276
a(S'disappear'
p5277
I1
tp5278
a(S'disappear.in'
p5279
I1
tp5280
a(S'disappearance'
p5281
I1
tp5282
a(S'disappeared".in'
p5283
I1
tp5284
a(S'disappeared.after'
p5285
I1
tp5286
a(S'disappearedduring'
p5287
I1
tp5288
a(S'disarmed'
p5289
I1
tp5290
a(S'disassembled'
p5291
I1
tp5292
a(S'disasterthe'
p5293
I1
tp5294
a(S'disastorou'
p5295
I1
tp5296
a(S'disastrous.based'
p5297
I1
tp5298
a(S'disastrous;'
p5299
I1
tp5300
a(S'disbanded'
p5301
I1
tp5302
a(S'discontinued'
p5303
I1
tp5304
a(S'discouragement'
p5305
I1
tp5306
a(S'discusted'
p5307
I1
tp5308
a(S'disembark'
p5309
I1
tp5310
a(S'disembarking'
p5311
I1
tp5312
a(S'dismissing'
p5313
I1
tp5314
a(S'displayed'
p5315
I1
tp5316
a(S'disregarding'
p5317
I1
tp5318
a(S'disrupt'
p5319
I1
tp5320
a(S'disrupted'
p5321
I1
tp5322
a(S'dissaperance'
p5323
I1
tp5324
a(S'distance'
p5325
I1
tp5326
a(S'distinctive'
p5327
I1
tp5328
a(S'distribution'
p5329
I1
tp5330
a(S'district'
p5331
I1
tp5332
a(S'disuse.when'
p5333
I1
tp5334
a(S'dock.a'
p5335
I1
tp5336
a(S'dock.if'
p5337
I1
tp5338
a(S'dock.there'
p5339
I1
tp5340
a(S'dock.though'
p5341
I1
tp5342
a(S'docked.based'
p5343
I1
tp5344
a(S'docked.the'
p5345
I1
tp5346
a(S'dockin.in'
p5347
I1
tp5348
a(S'docking.when'
p5349
I1
tp5350
a(S"doesn't"
p5351
I1
tp5352
a(S'doesnt'
p5353
I1
tp5354
a(S'doll'
p5355
I1
tp5356
a(S'dollars!'
p5357
I1
tp5358
a(S'dollars.consequently'
p5359
I1
tp5360
a(S'dollars.the'
p5361
I1
tp5362
a(S'dominating'
p5363
I1
tp5364
a(S'done.there'
p5365
I1
tp5366
a(S'doom'
p5367
I1
tp5368
a(S'doomed.the'
p5369
I1
tp5370
a(S'door'
p5371
I1
tp5372
a(S'doubled'
p5373
I1
tp5374
a(S'doubted'
p5375
I1
tp5376
a(S'down;'
p5377
I1
tp5378
a(S'dowstable'
p5379
I1
tp5380
a(S'dowtown'
p5381
I1
tp5382
a(S'drag'
p5383
I1
tp5384
a(S'dramicaclly'
p5385
I1
tp5386
a(S'draw'
p5387
I1
tp5388
a(S'dream.al'
p5389
I1
tp5390
a(S'dream.the'
p5391
I1
tp5392
a(S'dreams.based'
p5393
I1
tp5394
a(S'dribble'
p5395
I1
tp5396
a(S'drift'
p5397
I1
tp5398
a(S'drigble'
p5399
I1
tp5400
a(S'driggible'
p5401
I1
tp5402
a(S'driigble'
p5403
I1
tp5404
a(S'dringible'
p5405
I1
tp5406
a(S'dririgible'
p5407
I1
tp5408
a(S'drive'
p5409
I1
tp5410
a(S'droped'
p5411
I1
tp5412
a(S'dropped.in'
p5413
I1
tp5414
a(S'dropped.the'
p5415
I1
tp5416
a(S'dropped.they'
p5417
I1
tp5418
a(S'dumped'
p5419
I1
tp5420
a(S'dunk'
p5421
I1
tp5422
a(S'durigible'
p5423
I1
tp5424
a(S'dutie'
p5425
I1
tp5426
a(S'dwindled'
p5427
I1
tp5428
a(S'eachother'
p5429
I1
tp5430
a(S'ealse'
p5431
I1
tp5432
a(S'earth'
p5433
I1
tp5434
a(S'easier'
p5435
I1
tp5436
a(S'easiest'
p5437
I1
tp5438
a(S'easily.there'
p5439
I1
tp5440
a(S'ecnoliged'
p5441
I1
tp5442
a(S'ecspecially'
p5443
I1
tp5444
a(S'ed'
p5445
I1
tp5446
a(S'edge'
p5447
I1
tp5448
a(S'edited'
p5449
I1
tp5450
a(S'effective'
p5451
I1
tp5452
a(S'effectivne'
p5453
I1
tp5454
a(S'efficiently'
p5455
I1
tp5456
a(S'eficiently'
p5457
I1
tp5458
a(S'egregiou'
p5459
I1
tp5460
a(S'eight'
p5461
I1
tp5462
a(S'eighty-fifth'
p5463
I1
tp5464
a(S'eleven-hundred'
p5465
I1
tp5466
a(S'elsethat'
p5467
I1
tp5468
a(S'emerged'
p5469
I1
tp5470
a(S'emire'
p5471
I1
tp5472
a(S'empile'
p5473
I1
tp5474
a(S'enable'
p5475
I1
tp5476
a(S'enclosed'
p5477
I1
tp5478
a(S'encoutered'
p5479
I1
tp5480
a(S'end.based'
p5481
I1
tp5482
a(S'end.four'
p5483
I1
tp5484
a(S'end.the'
p5485
I1
tp5486
a(S'enemy'
p5487
I1
tp5488
a(S'eneogh'
p5489
I1
tp5490
a(S'enforc'
p5491
I1
tp5492
a(S'enforcement'
p5493
I1
tp5494
a(S'engeier'
p5495
I1
tp5496
a(S'engeineere'
p5497
I1
tp5498
a(S'engeneer'
p5499
I1
tp5500
a(S'engine'
p5501
I1
tp5502
a(S'engineering'
p5503
I1
tp5504
a(S'enginering'
p5505
I1
tp5506
a(S'enhance'
p5507
I1
tp5508
a(S'enlightened'
p5509
I1
tp5510
a(S'enormously'
p5511
I1
tp5512
a(S'enouh'
p5513
I1
tp5514
a(S'enoungh'
p5515
I1
tp5516
a(S'enthusiasm'
p5517
I1
tp5518
a(S'entirely'
p5519
I1
tp5520
a(S'entirely.in'
p5521
I1
tp5522
a(S'enviroment'
p5523
I1
tp5524
a(S'environmental'
p5525
I1
tp5526
a(S'equal'
p5527
I1
tp5528
a(S'equiment'
p5529
I1
tp5530
a(S'equipp'
p5531
I1
tp5532
a(S'equipted'
p5533
I1
tp5534
a(S'erea'
p5535
I1
tp5536
a(S'erect'
p5537
I1
tp5538
a(S'erected'
p5539
I1
tp5540
a(S'erratically'
p5541
I1
tp5542
a(S'eruption'
p5543
I1
tp5544
a(S'especialy'
p5545
I1
tp5546
a(S'especilly'
p5547
I1
tp5548
a(S'espectaculer.some'
p5549
I1
tp5550
a(S'essential'
p5551
I1
tp5552
a(S'essentially'
p5553
I1
tp5554
a(S'establish'
p5555
I1
tp5556
a(S'establishe'
p5557
I1
tp5558
a(S'established'
p5559
I1
tp5560
a(S'ever-changing'
p5561
I1
tp5562
a(S'ever.the'
p5563
I1
tp5564
a(S'everybody'
p5565
I1
tp5566
a(S'evidence'
p5567
I1
tp5568
a(S'exactly'
p5569
I1
tp5570
a(S'examle'
p5571
I1
tp5572
a(S'exce'
p5573
I1
tp5574
a(S'exceed'
p5575
I1
tp5576
a(S'exceedingly'
p5577
I1
tp5578
a(S'excerpet'
p5579
I1
tp5580
a(S'excert'
p5581
I1
tp5582
a(S'excitement'
p5583
I1
tp5584
a(S'excuse'
p5585
I1
tp5586
a(S'execute.based'
p5587
I1
tp5588
a(S'exert'
p5589
I1
tp5590
a(S'exhibited'
p5591
I1
tp5592
a(S'exisisting'
p5593
I1
tp5594
a(S'exoskeleton'
p5595
I1
tp5596
a(S'expand'
p5597
I1
tp5598
a(S'expected.al'
p5599
I1
tp5600
a(S'expense'
p5601
I1
tp5602
a(S'expensive.another'
p5603
I1
tp5604
a(S'expertese.in'
p5605
I1
tp5606
a(S'expirament'
p5607
I1
tp5608
a(S'expirence'
p5609
I1
tp5610
a(S'explaine'
p5611
I1
tp5612
a(S'explainning'
p5613
I1
tp5614
a(S'explicate'
p5615
I1
tp5616
a(S'expload'
p5617
I1
tp5618
a(S'exploding'
p5619
I1
tp5620
a(S'exsiting'
p5621
I1
tp5622
a(S'exsplain'
p5623
I1
tp5624
a(S'exsplosion'
p5625
I1
tp5626
a(S'extant'
p5627
I1
tp5628
a(S'extended'
p5629
I1
tp5630
a(S'eyes.there'
p5631
I1
tp5632
a(S'fabric.based'
p5633
I1
tp5634
a(S'face.based'
p5635
I1
tp5636
a(S'face.building'
p5637
I1
tp5638
a(S'face.complex'
p5639
I1
tp5640
a(S'faced.it'
p5641
I1
tp5642
a(S'faced.on'
p5643
I1
tp5644
a(S'faced.one'
p5645
I1
tp5646
a(S'faced.when'
p5647
I1
tp5648
a(S'faceddurining'
p5649
I1
tp5650
a(S'facedin'
p5651
I1
tp5652
a(S'facedthe'
p5653
I1
tp5654
a(S'facedthroughout'
p5655
I1
tp5656
a(S'facethere'
p5657
I1
tp5658
a(S'facinating'
p5659
I1
tp5660
a(S'factor.the'
p5661
I1
tp5662
a(S'factore'
p5663
I1
tp5664
a(S'factoring'
p5665
I1
tp5666
a(S'fad'
p5667
I1
tp5668
a(S'fail.based'
p5669
I1
tp5670
a(S'fail.in'
p5671
I1
tp5672
a(S'fail.the'
p5673
I1
tp5674
a(S'failed;'
p5675
I1
tp5676
a(S'failedafter'
p5677
I1
tp5678
a(S'failing'
p5679
I1
tp5680
a(S'failling'
p5681
I1
tp5682
a(S'failure.during'
p5683
I1
tp5684
a(S'failure.in'
p5685
I1
tp5686
a(S'fairly'
p5687
I1
tp5688
a(S'fallingthe'
p5689
I1
tp5690
a(S'fallowing'
p5691
I1
tp5692
a(S'fammable'
p5693
I1
tp5694
a(S'fantastic'
p5695
I1
tp5696
a(S'farther'
p5697
I1
tp5698
a(S'fascinating'
p5699
I1
tp5700
a(S'fashionable'
p5701
I1
tp5702
a(S'fasten'
p5703
I1
tp5704
a(S'fatalities.the'
p5705
I1
tp5706
a(S'feasible.the'
p5707
I1
tp5708
a(S'feat.many'
p5709
I1
tp5710
a(S'feat.the'
p5711
I1
tp5712
a(S'february'
p5713
I1
tp5714
a(S'fee'
p5715
I1
tp5716
a(S'feer'
p5717
I1
tp5718
a(S'feet;'
p5719
I1
tp5720
a(S'feild'
p5721
I1
tp5722
a(S'fetch'
p5723
I1
tp5724
a(S'fetched.based'
p5725
I1
tp5726
a(S'fiasco'
p5727
I1
tp5728
a(S'fiercely'
p5729
I1
tp5730
a(S'fiery'
p5731
I1
tp5732
a(S'fifteen'
p5733
I1
tp5734
a(S'fifthteen'
p5735
I1
tp5736
a(S'fifty-thousand'
p5737
I1
tp5738
a(S'filed'
p5739
I1
tp5740
a(S'filling'
p5741
I1
tp5742
a(S'financial'
p5743
I1
tp5744
a(S'fine'
p5745
I1
tp5746
a(S'finel'
p5747
I1
tp5748
a(S'finishing'
p5749
I1
tp5750
a(S'fire)'
p5751
I1
tp5752
a(S'fireball'
p5753
I1
tp5754
a(S'firework'
p5755
I1
tp5756
a(S'first.the'
p5757
I1
tp5758
a(S'firsty'
p5759
I1
tp5760
a(S'fitting'
p5761
I1
tp5762
a(S'five'
p5763
I1
tp5764
a(S'fix.back'
p5765
I1
tp5766
a(S'fix.on'
p5767
I1
tp5768
a(S'fixable'
p5769
I1
tp5770
a(S'fixed.al'
p5771
I1
tp5772
a(S'fixing'
p5773
I1
tp5774
a(S'flamable".based'
p5775
I1
tp5776
a(S'flamable.the'
p5777
I1
tp5778
a(S'flamlable'
p5779
I1
tp5780
a(S'flammable)'
p5781
I1
tp5782
a(S'flammable...the'
p5783
I1
tp5784
a(S'flammable.builder'
p5785
I1
tp5786
a(S'flammable.when'
p5787
I1
tp5788
a(S'flammable.while'
p5789
I1
tp5790
a(S'flammibility'
p5791
I1
tp5792
a(S'flawed'
p5793
I1
tp5794
a(S'flie'
p5795
I1
tp5796
a(S'fling'
p5797
I1
tp5798
a(S'float.the'
p5799
I1
tp5800
a(S'floated'
p5801
I1
tp5802
a(S'flock'
p5803
I1
tp5804
a(S'floor.based'
p5805
I1
tp5806
a(S'floors.based'
p5807
I1
tp5808
a(S'flowed'
p5809
I1
tp5810
a(S'flown'
p5811
I1
tp5812
a(S'fluid'
p5813
I1
tp5814
a(S'flyer'
p5815
I1
tp5816
a(S'flyinging'
p5817
I1
tp5818
a(S'focal'
p5819
I1
tp5820
a(S'focu'
p5821
I1
tp5822
a(S'for.first'
p5823
I1
tp5824
a(S'for.the'
p5825
I1
tp5826
a(S'for.to'
p5827
I1
tp5828
a(S'for?'
p5829
I1
tp5830
a(S'forageable'
p5831
I1
tp5832
a(S'forbidded'
p5833
I1
tp5834
a(S'forcefull'
p5835
I1
tp5836
a(S'forein'
p5837
I1
tp5838
a(S'foremost'
p5839
I1
tp5840
a(S'foresaw'
p5841
I1
tp5842
a(S'foresee'
p5843
I1
tp5844
a(S'forever'
p5845
I1
tp5846
a(S'forfill'
p5847
I1
tp5848
a(S'forgeign'
p5849
I1
tp5850
a(S'forgein'
p5851
I1
tp5852
a(S'forget'
p5853
I1
tp5854
a(S'forging'
p5855
I1
tp5856
a(S'forgotten.in'
p5857
I1
tp5858
a(S'forgottenthe'
p5859
I1
tp5860
a(S'fortifying'
p5861
I1
tp5862
a(S"foundation.'"
p5863
I1
tp5864
a(S'foundation...the'
p5865
I1
tp5866
a(S'foundation.some'
p5867
I1
tp5868
a(S'foundation.there'
p5869
I1
tp5870
a(S'four-block'
p5871
I1
tp5872
a(S'fourth'
p5873
I1
tp5874
a(S'fragile'
p5875
I1
tp5876
a(S'frame."(paragraph'
p5877
I1
tp5878
a(S'frame.another'
p5879
I1
tp5880
a(S'frame.in'
p5881
I1
tp5882
a(S'frame.lastly'
p5883
I1
tp5884
a(S'frame.safety'
p5885
I1
tp5886
a(S'frame.thi'
p5887
I1
tp5888
a(S'frame;'
p5889
I1
tp5890
a(S'framework."another'
p5891
I1
tp5892
a(S'framework."in'
p5893
I1
tp5894
a(S'framework.in'
p5895
I1
tp5896
a(S'framework.lastly'
p5897
I1
tp5898
a(S'framework.some'
p5899
I1
tp5900
a(S'framework.when'
p5901
I1
tp5902
a(S'frameworkarchitect'
p5903
I1
tp5904
a(S'frequent'
p5905
I1
tp5906
a(S'friend'
p5907
I1
tp5908
a(S'frist'
p5909
I1
tp5910
a(S'fro'
p5911
I1
tp5912
a(S'frustrating'
p5913
I1
tp5914
a(S'ft.)'
p5915
I1
tp5916
a(S'fueled'
p5917
I1
tp5918
a(S'fueling'
p5919
I1
tp5920
a(S'fuell'
p5921
I1
tp5922
a(S'fulled'
p5923
I1
tp5924
a(S'fullfilled.dirigible'
p5925
I1
tp5926
a(S'functional'
p5927
I1
tp5928
a(S'fundamental'
p5929
I1
tp5930
a(S'fundation'
p5931
I1
tp5932
a(S'fused'
p5933
I1
tp5934
a(S'future."the'
p5935
I1
tp5936
a(S'future.builder'
p5937
I1
tp5938
a(S'futureistic'
p5939
I1
tp5940
a(S'game'
p5941
I1
tp5942
a(S'gangplank..."during'
p5943
I1
tp5944
a(S'gas)'
p5945
I1
tp5946
a(S'gaseous-filled'
p5947
I1
tp5948
a(S'gasse'
p5949
I1
tp5950
a(S'gaurenteed'
p5951
I1
tp5952
a(S'gear."@caps1'
p5953
I1
tp5954
a(S'gear."the'
p5955
I1
tp5956
a(S'geatest'
p5957
I1
tp5958
a(S'gen'
p5959
I1
tp5960
a(S'generally'
p5961
I1
tp5962
a(S'geniu'
p5963
I1
tp5964
a(S'geographical'
p5965
I1
tp5966
a(S'getin'
p5967
I1
tp5968
a(S'giant-'
p5969
I1
tp5970
a(S'gigantic'
p5971
I1
tp5972
a(S'ginormou'
p5973
I1
tp5974
a(S'giving'
p5975
I1
tp5976
a(S'glassed'
p5977
I1
tp5978
a(S'glimpse'
p5979
I1
tp5980
a(S'global'
p5981
I1
tp5982
a(S'glory.some'
p5983
I1
tp5984
a(S'goa'
p5985
I1
tp5986
a(S"goal'"
p5987
I1
tp5988
a(S'goal.in'
p5989
I1
tp5990
a(S'gondola'
p5991
I1
tp5992
a(S'gonna'
p5993
I1
tp5994
a(S'govener'
p5995
I1
tp5996
a(S'govenment'
p5997
I1
tp5998
a(S'governer'
p5999
I1
tp6000
a(S'grand'
p6001
I1
tp6002
a(S'graph'
p6003
I1
tp6004
a(S'great.the'
p6005
I1
tp6006
a(S'greate'
p6007
I1
tp6008
a(S'grim'
p6009
I1
tp6010
a(S'ground.there'
p6011
I1
tp6012
a(S'group'
p6013
I1
tp6014
a(S'grow'
p6015
I1
tp6016
a(S'gunna'
p6017
I1
tp6018
a(S'handful'
p6019
I1
tp6020
a(S'handled'
p6021
I1
tp6022
a(S'hapened'
p6023
I1
tp6024
a(S'happy'
p6025
I1
tp6026
a(S'hardest'
p6027
I1
tp6028
a(S'harmedthe'
p6029
I1
tp6030
a(S'harnessing'
p6031
I1
tp6032
a(S'hassle'
p6033
I1
tp6034
a(S'haulled'
p6035
I1
tp6036
a(S'hault.certain'
p6037
I1
tp6038
a(S'have.the'
p6039
I1
tp6040
a(S'haveing'
p6041
I1
tp6042
a(S'havoc'
p6043
I1
tp6044
a(S'hazard!'
p6045
I1
tp6046
a(S'heading'
p6047
I1
tp6048
a(S'heavyweight'
p6049
I1
tp6050
a(S'heed'
p6051
I1
tp6052
a(S'heigh'
p6053
I1
tp6054
a(S'helim'
p6055
I1
tp6056
a(S'helium)'
p6057
I1
tp6058
a(S'helium-which'
p6059
I1
tp6060
a(S'helium;'
p6061
I1
tp6062
a(S'hell'
p6063
I1
tp6064
a(S'helped.the'
p6065
I1
tp6066
a(S'helping'
p6067
I1
tp6068
a(S'hiding'
p6069
I1
tp6070
a(S'hidrogen'
p6071
I1
tp6072
a(S'high-altitude'
p6073
I1
tp6074
a(S'high-speed'
p6075
I1
tp6076
a(S'high.overall'
p6077
I1
tp6078
a(S'high.the'
p6079
I1
tp6080
a(S'highley'
p6081
I1
tp6082
a(S'highly-flamable'
p6083
I1
tp6084
a(S'highly-flammable'
p6085
I1
tp6086
a(S'hinden'
p6087
I1
tp6088
a(S"hindenburg'"
p6089
I1
tp6090
a(S'hindenburg)'
p6091
I1
tp6092
a(S'hindenburg-style'
p6093
I1
tp6094
a(S'hindenburg.the'
p6095
I1
tp6096
a(S'hindenburge.while'
p6097
I1
tp6098
a(S'historical'
p6099
I1
tp6100
a(S'hitn'
p6101
I1
tp6102
a(S'hoax'
p6103
I1
tp6104
a(S'hoist'
p6105
I1
tp6106
a(S'hoisting'
p6107
I1
tp6108
a(S'holdn'
p6109
I1
tp6110
a(S'home'
p6111
I1
tp6112
a(S'hook'
p6113
I1
tp6114
a(S'hooked'
p6115
I1
tp6116
a(S'hoor'
p6117
I1
tp6118
a(S'hoover'
p6119
I1
tp6120
a(S'hop'
p6121
I1
tp6122
a(S'hoped'
p6123
I1
tp6124
a(S'hopeful'
p6125
I1
tp6126
a(S'horribly'
p6127
I1
tp6128
a(S'horrifying'
p6129
I1
tp6130
a(S'horse'
p6131
I1
tp6132
a(S'housing'
p6133
I1
tp6134
a(S'huelium'
p6135
I1
tp6136
a(S'huge;'
p6137
I1
tp6138
a(S'hurt.in'
p6139
I1
tp6140
a(S'hurt.the'
p6141
I1
tp6142
a(S'hydro'
p6143
I1
tp6144
a(S'hydrogen)'
p6145
I1
tp6146
a(S'hydrogen-a'
p6147
I1
tp6148
a(S'hydrogen-filled'
p6149
I1
tp6150
a(S'hydrogen...and'
p6151
I1
tp6152
a(S'hydrogen.one'
p6153
I1
tp6154
a(S'hydrogen;'
p6155
I1
tp6156
a(S'hydrogn'
p6157
I1
tp6158
a(S'hypothetically'
p6159
I1
tp6160
a(S"i'll"
p6161
I1
tp6162
a(S'ible'
p6163
I1
tp6164
a(S'idea.al'
p6165
I1
tp6166
a(S'idea.although'
p6167
I1
tp6168
a(S'idea.another'
p6169
I1
tp6170
a(S'idea.their'
p6171
I1
tp6172
a(S'idea.there'
p6173
I1
tp6174
a(S'idea.while'
p6175
I1
tp6176
a(S'ideathe'
p6177
I1
tp6178
a(S'identification'
p6179
I1
tp6180
a(S'ignite'
p6181
I1
tp6182
a(S'ignore'
p6183
I1
tp6184
a(S'ignored.the'
p6185
I1
tp6186
a(S'illegal.after'
p6187
I1
tp6188
a(S'illegal.in'
p6189
I1
tp6190
a(S'illegal.on'
p6191
I1
tp6192
a(S'illegal.when'
p6193
I1
tp6194
a(S'illegal?'
p6195
I1
tp6196
a(S'illiogal'
p6197
I1
tp6198
a(S'illuminate'
p6199
I1
tp6200
a(S'illustrate'
p6201
I1
tp6202
a(S'immediate'
p6203
I1
tp6204
a(S'immediately'
p6205
I1
tp6206
a(S'immenent'
p6207
I1
tp6208
a(S'immpossible'
p6209
I1
tp6210
a(S'impassible'
p6211
I1
tp6212
a(S'impediment'
p6213
I1
tp6214
a(S'implement'
p6215
I1
tp6216
a(S'implie'
p6217
I1
tp6218
a(S'imply'
p6219
I1
tp6220
a(S'imposed'
p6221
I1
tp6222
a(S'imposing'
p6223
I1
tp6224
a(S'impossible.acording'
p6225
I1
tp6226
a(S'impossible.during'
p6227
I1
tp6228
a(S'impossibleduring'
p6229
I1
tp6230
a(S'impossiblethere'
p6231
I1
tp6232
a(S'impposible'
p6233
I1
tp6234
a(S'impractical.there'
p6235
I1
tp6236
a(S'impracticalitie'
p6237
I1
tp6238
a(S'impracticalne'
p6239
I1
tp6240
a(S'improbable'
p6241
I1
tp6242
a(S'impulsively'
p6243
I1
tp6244
a(S'inability'
p6245
I1
tp6246
a(S'inadequate'
p6247
I1
tp6248
a(S'incapability'
p6249
I1
tp6250
a(S'inche'
p6251
I1
tp6252
a(S'included;'
p6253
I1
tp6254
a(S'incodent'
p6255
I1
tp6256
a(S'incoming'
p6257
I1
tp6258
a(S'inconceivable'
p6259
I1
tp6260
a(S'inconsistent'
p6261
I1
tp6262
a(S'inconsitent'
p6263
I1
tp6264
a(S'increased'
p6265
I1
tp6266
a(S'increasing'
p6267
I1
tp6268
a(S'inef'
p6269
I1
tp6270
a(S'inefficient'
p6271
I1
tp6272
a(S'inflict'
p6273
I1
tp6274
a(S'inforced'
p6275
I1
tp6276
a(S'inform'
p6277
I1
tp6278
a(S'information.the'
p6279
I1
tp6280
a(S'informed'
p6281
I1
tp6282
a(S"ing'"
p6283
I1
tp6284
a(S'ingeniose'
p6285
I1
tp6286
a(S'inhibit'
p6287
I1
tp6288
a(S'initially'
p6289
I1
tp6290
a(S'initiated'
p6291
I1
tp6292
a(S'injure'
p6293
I1
tp6294
a(S'injuring'
p6295
I1
tp6296
a(S'injury.the'
p6297
I1
tp6298
a(S'inncodent'
p6299
I1
tp6300
a(S'inocent'
p6301
I1
tp6302
a(S'inovation'
p6303
I1
tp6304
a(S'inovative'
p6305
I1
tp6306
a(S'inspection'
p6307
I1
tp6308
a(S'install'
p6309
I1
tp6310
a(S'installing'
p6311
I1
tp6312
a(S'installment'
p6313
I1
tp6314
a(S'insufficient'
p6315
I1
tp6316
a(S'insuring'
p6317
I1
tp6318
a(S'insurmountable'
p6319
I1
tp6320
a(S'intact'
p6321
I1
tp6322
a(S'intake'
p6323
I1
tp6324
a(S'interest'
p6325
I1
tp6326
a(S'interfer'
p6327
I1
tp6328
a(S'interference'
p6329
I1
tp6330
a(S'internationally'
p6331
I1
tp6332
a(S'interning'
p6333
I1
tp6334
a(S'into.the'
p6335
I1
tp6336
a(S'introduction'
p6337
I1
tp6338
a(S'inuf'
p6339
I1
tp6340
a(S'invested'
p6341
I1
tp6342
a(S'investment'
p6343
I1
tp6344
a(S'invincable'
p6345
I1
tp6346
a(S'invole'
p6347
I1
tp6348
a(S'involved.the'
p6349
I1
tp6350
a(S'irradically'
p6351
I1
tp6352
a(S'irrelevant'
p6353
I1
tp6354
a(S'irvan'
p6355
I1
tp6356
a(S'ishuse'
p6357
I1
tp6358
a(S'isnt'
p6359
I1
tp6360
a(S'issue-'
p6361
I1
tp6362
a(S'isue'
p6363
I1
tp6364
a(S"it'd"
p6365
I1
tp6366
a(S'it.according'
p6367
I1
tp6368
a(S'it.builder'
p6369
I1
tp6370
a(S'it.obstacle'
p6371
I1
tp6372
a(S'it.one'
p6373
I1
tp6374
a(S'it.there'
p6375
I1
tp6376
a(S'it.thirdly'
p6377
I1
tp6378
a(S'itbased'
p6379
I1
tp6380
a(S'itself.@caps3'
p6381
I1
tp6382
a(S'itself.in'
p6383
I1
tp6384
a(S'itself.landing'
p6385
I1
tp6386
a(S'itself.the'
p6387
I1
tp6388
a(S'itself;'
p6389
I1
tp6390
a(S'itsself'
p6391
I1
tp6392
a(S'jam'
p6393
I1
tp6394
a(S'jealou'
p6395
I1
tp6396
a(S'jealousy'
p6397
I1
tp6398
a(S'jeopardize'
p6399
I1
tp6400
a(S'jeopardy'
p6401
I1
tp6402
a(S'jersey.based'
p6403
I1
tp6404
a(S'job.acording'
p6405
I1
tp6406
a(S'job.in'
p6407
I1
tp6408
a(S'job.there'
p6409
I1
tp6410
a(S'journey'
p6411
I1
tp6412
a(S'jump'
p6413
I1
tp6414
a(S'justifie'
p6415
I1
tp6416
a(S'kink'
p6417
I1
tp6418
a(S'knocking'
p6419
I1
tp6420
a(S"know'"
p6421
I1
tp6422
a(S'lacked'
p6423
I1
tp6424
a(S'laden'
p6425
I1
tp6426
a(S'lak'
p6427
I1
tp6428
a(S'lakehurt'
p6429
I1
tp6430
a(S'land.the'
p6431
I1
tp6432
a(S'landing.the'
p6433
I1
tp6434
a(S'landing/docking'
p6435
I1
tp6436
a(S'largely'
p6437
I1
tp6438
a(S'lastely'
p6439
I1
tp6440
a(S'lastley'
p6441
I1
tp6442
a(S'later.the'
p6443
I1
tp6444
a(S'latest'
p6445
I1
tp6446
a(S"law'"
p6447
I1
tp6448
a(S'law.after'
p6449
I1
tp6450
a(S'law.derigible'
p6451
I1
tp6452
a(S'law.dirigible'
p6453
I1
tp6454
a(S'law.first'
p6455
I1
tp6456
a(S'law.some'
p6457
I1
tp6458
a(S'law]'
p6459
I1
tp6460
a(S'lawbreaking'
p6461
I1
tp6462
a(S'laws.there'
p6463
I1
tp6464
a(S'laws.throughout'
p6465
I1
tp6466
a(S'layout'
p6467
I1
tp6468
a(S'leaglity'
p6469
I1
tp6470
a(S'leak'
p6471
I1
tp6472
a(S'leap'
p6473
I1
tp6474
a(S'leap.the'
p6475
I1
tp6476
a(S'learning'
p6477
I1
tp6478
a(S'leasoned'
p6479
I1
tp6480
a(S'legal.al'
p6481
I1
tp6482
a(S'lessen'
p6483
I1
tp6484
a(S'lesson'
p6485
I1
tp6486
a(S'lever."in'
p6487
I1
tp6488
a(S'levers.allowing'
p6489
I1
tp6490
a(S'lightning'
p6491
I1
tp6492
a(S'likely.finaly'
p6493
I1
tp6494
a(S'likly'
p6495
I1
tp6496
a(S'limb'
p6497
I1
tp6498
a(S'limet'
p6499
I1
tp6500
a(S'limit'
p6501
I1
tp6502
a(S'limitation'
p6503
I1
tp6504
a(S'limited'
p6505
I1
tp6506
a(S'ling'
p6507
I1
tp6508
a(S'lingering'
p6509
I1
tp6510
a(S'lium'
p6511
I1
tp6512
a(S'lives.i'
p6513
I1
tp6514
a(S'living'
p6515
I1
tp6516
a(S'lobby'
p6517
I1
tp6518
a(S'local'
p6519
I1
tp6520
a(S'location1.a'
p6521
I1
tp6522
a(S'location1.in'
p6523
I1
tp6524
a(S'location1.second'
p6525
I1
tp6526
a(S'location4'
p6527
I1
tp6528
a(S'loft'
p6529
I1
tp6530
a(S'lofty'
p6531
I1
tp6532
a(S'long;'
p6533
I1
tp6534
a(S'lookd'
p6535
I1
tp6536
a(S'losse'
p6537
I1
tp6538
a(S'low-but'
p6539
I1
tp6540
a(S'luck.when'
p6541
I1
tp6542
a(S'luckily'
p6543
I1
tp6544
a(S'lucrative'
p6545
I1
tp6546
a(S'lusted'
p6547
I1
tp6548
a(S'l\xc3\xbcsted'
p6549
I1
tp6550
a(S'l\xfcnden'
p6551
I1
tp6552
a(S"l\xfcsted'"
p6553
I1
tp6554
a(S'l\xfcsted,to'
p6555
I1
tp6556
a(S'l\xfcsted.a'
p6557
I1
tp6558
a(S'mad'
p6559
I1
tp6560
a(S'made/operated'
p6561
I1
tp6562
a(S'magnificent'
p6563
I1
tp6564
a(S'magnified'
p6565
I1
tp6566
a(S'magnitude'
p6567
I1
tp6568
a(S'maintenance'
p6569
I1
tp6570
a(S'majority'
p6571
I1
tp6572
a(S'makeng'
p6573
I1
tp6574
a(S'maker'
p6575
I1
tp6576
a(S'maliciou'
p6577
I1
tp6578
a(S'manage'
p6579
I1
tp6580
a(S'manifest'
p6581
I1
tp6582
a(S'manuver'
p6583
I1
tp6584
a(S'many.there'
p6585
I1
tp6586
a(S'map'
p6587
I1
tp6588
a(S'mark'
p6589
I1
tp6590
a(S'mask.throughout'
p6591
I1
tp6592
a(S'mast"in'
p6593
I1
tp6594
a(S'mast-before'
p6595
I1
tp6596
a(S'mast.a'
p6597
I1
tp6598
a(S'mast.al'
p6599
I1
tp6600
a(S'mast.also'
p6601
I1
tp6602
a(S'mast.dirigible'
p6603
I1
tp6604
a(S'mast.first'
p6605
I1
tp6606
a(S'mast.however'
p6607
I1
tp6608
a(S'mast.it'
p6609
I1
tp6610
a(S'mast.overall'
p6611
I1
tp6612
a(S'mast.well'
p6613
I1
tp6614
a(S'mast.when'
p6615
I1
tp6616
a(S'mast;'
p6617
I1
tp6618
a(S'mastdirigible'
p6619
I1
tp6620
a(S'master'
p6621
I1
tp6622
a(S'masterpiece'
p6623
I1
tp6624
a(S'masting'
p6625
I1
tp6626
a(S'match'
p6627
I1
tp6628
a(S'mayjor'
p6629
I1
tp6630
a(S'mechanical'
p6631
I1
tp6632
a(S'menuver'
p6633
I1
tp6634
a(S'mercy'
p6635
I1
tp6636
a(S'mere'
p6637
I1
tp6638
a(S'merely'
p6639
I1
tp6640
a(S'mind.based'
p6641
I1
tp6642
a(S'mindblowing'
p6643
I1
tp6644
a(S'minute'
p6645
I1
tp6646
a(S'misfortune'
p6647
I1
tp6648
a(S'mixed'
p6649
I1
tp6650
a(S'mode'
p6651
I1
tp6652
a(S'modernation'
p6653
I1
tp6654
a(S'modernize'
p6655
I1
tp6656
a(S'modernizing'
p6657
I1
tp6658
a(S'modernly'
p6659
I1
tp6660
a(S'modificaution'
p6661
I1
tp6662
a(S'modifie'
p6663
I1
tp6664
a(S'moment'
p6665
I1
tp6666
a(S'money.in'
p6667
I1
tp6668
a(S'money1)'
p6669
I1
tp6670
a(S'monitored'
p6671
I1
tp6672
a(S'mont'
p6673
I1
tp6674
a(S'monument'
p6675
I1
tp6676
a(S'monumental'
p6677
I1
tp6678
a(S'moooring'
p6679
I1
tp6680
a(S'more;'
p6681
I1
tp6682
a(S'mored'
p6683
I1
tp6684
a(S'moring'
p6685
I1
tp6686
a(S'motification'
p6687
I1
tp6688
a(S'motified'
p6689
I1
tp6690
a(S'motify'
p6691
I1
tp6692
a(S'move-able'
p6693
I1
tp6694
a(S'moveing'
p6695
I1
tp6696
a(S'much.there'
p6697
I1
tp6698
a(S'multi-@caps4'
p6699
I1
tp6700
a(S'mundane'
p6701
I1
tp6702
a(S'national'
p6703
I1
tp6704
a(S'natur'
p6705
I1
tp6706
a(S'naturally'
p6707
I1
tp6708
a(S'nature"!'
p6709
I1
tp6710
a(S'nature";'
p6711
I1
tp6712
a(S'nature.finally'
p6713
I1
tp6714
a(S'navigate'
p6715
I1
tp6716
a(S"navy'"
p6717
I1
tp6718
a(S'neccarasary.those'
p6719
I1
tp6720
a(S'neccssary'
p6721
I1
tp6722
a(S'negatively'
p6723
I1
tp6724
a(S'neglected'
p6725
I1
tp6726
a(S'negligence'
p6727
I1
tp6728
a(S'neiboring'
p6729
I1
tp6730
a(S'nemerou'
p6731
I1
tp6732
a(S'nesciary.another'
p6733
I1
tp6734
a(S'nesescary'
p6735
I1
tp6736
a(S'nessisary'
p6737
I1
tp6738
a(S'nether'
p6739
I1
tp6740
a(S'newfound'
p6741
I1
tp6742
a(S'newspapers.allowing'
p6743
I1
tp6744
a(S'newyork'
p6745
I1
tp6746
a(S'ney'
p6747
I1
tp6748
a(S'nickel'
p6749
I1
tp6750
a(S'nineteen'
p6751
I1
tp6752
a(S'non-existence'
p6753
I1
tp6754
a(S'non-existent'
p6755
I1
tp6756
a(S'non-legal'
p6757
I1
tp6758
a(S'non-u.s'
p6759
I1
tp6760
a(S'nonstop'
p6761
I1
tp6762
a(S'normal'
p6763
I1
tp6764
a(S'not-built'
p6765
I1
tp6766
a(S'nothing.in'
p6767
I1
tp6768
a(S'noticing'
p6769
I1
tp6770
a(S'novel'
p6771
I1
tp6772
a(S'novelty'
p6773
I1
tp6774
a(S'now!the'
p6775
I1
tp6776
a(S"num1'"
p6777
I1
tp6778
a(S"num1'or"
p6779
I1
tp6780
a(S'num1).on'
p6781
I1
tp6782
a(S'num1)the'
p6783
I1
tp6784
a(S'num1.the'
p6785
I1
tp6786
a(S'num1.whenever'
p6787
I1
tp6788
a(S'num2$'
p6789
I1
tp6790
a(S"num2'"
p6791
I1
tp6792
a(S'num2).the'
p6793
I1
tp6794
a(S'num2.)'
p6795
I1
tp6796
a(S'num2.some'
p6797
I1
tp6798
a(S'num2;'
p6799
I1
tp6800
a(S'num3)a'
p6801
I1
tp6802
a(S'num5)'
p6803
I1
tp6804
a(S'numberou'
p6805
I1
tp6806
a(S'oat'
p6807
I1
tp6808
a(S'object;'
p6809
I1
tp6810
a(S'objective'
p6811
I1
tp6812
a(S'obliviousne'
p6813
I1
tp6814
a(S'obscure'
p6815
I1
tp6816
a(S'obscured'
p6817
I1
tp6818
a(S'observatory'
p6819
I1
tp6820
a(S'obsitacl'
p6821
I1
tp6822
a(S'obsitcle'
p6823
I1
tp6824
a(S'obsolete'
p6825
I1
tp6826
a(S'obstace'
p6827
I1
tp6828
a(S'obstacel'
p6829
I1
tp6830
a(S"obstacle'"
p6831
I1
tp6832
a(S'obstacle.the'
p6833
I1
tp6834
a(S'obstacles'
p6835
I1
tp6836
a(S'obstacles.based'
p6837
I1
tp6838
a(S'obstacles.some'
p6839
I1
tp6840
a(S'obstacles.while'
p6841
I1
tp6842
a(S'obstacles;'
p6843
I1
tp6844
a(S'obstaclesthe'
p6845
I1
tp6846
a(S'obstacole'
p6847
I1
tp6848
a(S'obstact'
p6849
I1
tp6850
a(S'obstacte'
p6851
I1
tp6852
a(S'obstakle'
p6853
I1
tp6854
a(S'obstancle'
p6855
I1
tp6856
a(S'obstanke'
p6857
I1
tp6858
a(S"obstical'"
p6859
I1
tp6860
a(S'obsticla'
p6861
I1
tp6862
a(S"obsticle'"
p6863
I1
tp6864
a(S'obstructed'
p6865
I1
tp6866
a(S'obstruction'
p6867
I1
tp6868
a(S'obtecle'
p6869
I1
tp6870
a(S'occasion'
p6871
I1
tp6872
a(S'occuring'
p6873
I1
tp6874
a(S'occurr'
p6875
I1
tp6876
a(S'occurring.you'
p6877
I1
tp6878
a(S'ocured'
p6879
I1
tp6880
a(S'ocuring'
p6881
I1
tp6882
a(S'ofcourse'
p6883
I1
tp6884
a(S'off!a'
p6885
I1
tp6886
a(S'off.in'
p6887
I1
tp6888
a(S'off.nature'
p6889
I1
tp6890
a(S'off.safety'
p6891
I1
tp6892
a(S'off/pick'
p6893
I1
tp6894
a(S'offduring'
p6895
I1
tp6896
a(S'offer'
p6897
I1
tp6898
a(S'on.another'
p6899
I1
tp6900
a(S'on.in'
p6901
I1
tp6902
a(S'on.presently'
p6903
I1
tp6904
a(S'on.the'
p6905
I1
tp6906
a(S'on.while'
p6907
I1
tp6908
a(S'onley'
p6909
I1
tp6910
a(S'onslaught'
p6911
I1
tp6912
a(S'ontoultimately'
p6913
I1
tp6914
a(S'operate'
p6915
I1
tp6916
a(S'operator'
p6917
I1
tp6918
a(S'oppertunity'
p6919
I1
tp6920
a(S'oppinion'
p6921
I1
tp6922
a(S'orbit'
p6923
I1
tp6924
a(S'ordinary'
p6925
I1
tp6926
a(S'organization1.in'
p6927
I1
tp6928
a(S'organization5.in'
p6929
I1
tp6930
a(S'ornametation'
p6931
I1
tp6932
a(S'ostentatiou'
p6933
I1
tp6934
a(S'othe'
p6935
I1
tp6936
a(S'out-do'
p6937
I1
tp6938
a(S'out.based'
p6939
I1
tp6940
a(S'out.in'
p6941
I1
tp6942
a(S'out.obstacle'
p6943
I1
tp6944
a(S'outdated.there'
p6945
I1
tp6946
a(S'outer'
p6947
I1
tp6948
a(S'outlawing'
p6949
I1
tp6950
a(S'outrageously'
p6951
I1
tp6952
a(S'outweigh'
p6953
I1
tp6954
a(S'over-come'
p6955
I1
tp6956
a(S'over-powering'
p6957
I1
tp6958
a(S'overambitiou'
p6959
I1
tp6960
a(S'overcome.during'
p6961
I1
tp6962
a(S'overcome.while'
p6963
I1
tp6964
a(S'overcomeon'
p6965
I1
tp6966
a(S'overcomethe'
p6967
I1
tp6968
a(S'overcoming'
p6969
I1
tp6970
a(S'overhead.the'
p6971
I1
tp6972
a(S'overly'
p6973
I1
tp6974
a(S'overpower'
p6975
I1
tp6976
a(S'override'
p6977
I1
tp6978
a(S'overwhelming'
p6979
I1
tp6980
a(S'ower'
p6981
I1
tp6982
a(S"owners'"
p6983
I1
tp6984
a(S'packed'
p6985
I1
tp6986
a(S'pad'
p6987
I1
tp6988
a(S'paid'
p6989
I1
tp6990
a(S'pain'
p6991
I1
tp6992
a(S'paraphrased'
p6993
I1
tp6994
a(S'parially'
p6995
I1
tp6996
a(S'parked'
p6997
I1
tp6998
a(S'passengers.based'
p6999
I1
tp7000
a(S'passengers;'
p7001
I1
tp7002
a(S'path'
p7003
I1
tp7004
a(S'paved'
p7005
I1
tp7006
a(S'peak.the'
p7007
I1
tp7008
a(S'pedestran'
p7009
I1
tp7010
a(S'pedestrians)'
p7011
I1
tp7012
a(S'pedestrians.another'
p7013
I1
tp7014
a(S'pedestrians.if'
p7015
I1
tp7016
a(S'pedestrians.the'
p7017
I1
tp7018
a(S'pedetrian'
p7019
I1
tp7020
a(S'peer'
p7021
I1
tp7022
a(S'perfectly'
p7023
I1
tp7024
a(S'permit'
p7025
I1
tp7026
a(S'permitted'
p7027
I1
tp7028
a(S'persasure'
p7029
I1
tp7030
a(S'person2'
p7031
I1
tp7032
a(S'perspective'
p7033
I1
tp7034
a(S'pessure'
p7035
I1
tp7036
a(S'picked'
p7037
I1
tp7038
a(S'piolet'
p7039
I1
tp7040
a(S'pit'
p7041
I1
tp7042
a(S'pivotal'
p7043
I1
tp7044
a(S'place.another'
p7045
I1
tp7046
a(S'place.these'
p7047
I1
tp7048
a(S'plae'
p7049
I1
tp7050
a(S'plain'
p7051
I1
tp7052
a(S"plan'"
p7053
I1
tp7054
a(S'plan.according'
p7055
I1
tp7056
a(S'plan.many'
p7057
I1
tp7058
a(S'planed'
p7059
I1
tp7060
a(S'planes.the'
p7061
I1
tp7062
a(S'planned.there'
p7063
I1
tp7064
a(S'plataform'
p7065
I1
tp7066
a(S'plate'
p7067
I1
tp7068
a(S'platform.the'
p7069
I1
tp7070
a(S'plaussible'
p7071
I1
tp7072
a(S'play.there'
p7073
I1
tp7074
a(S'playing'
p7075
I1
tp7076
a(S'pleasing'
p7077
I1
tp7078
a(S'plop'
p7079
I1
tp7080
a(S'plument'
p7081
I1
tp7082
a(S'plumet'
p7083
I1
tp7084
a(S'plummet'
p7085
I1
tp7086
a(S'podestrion'
p7087
I1
tp7088
a(S'pointed'
p7089
I1
tp7090
a(S'pointle'
p7091
I1
tp7092
a(S'pole'
p7093
I1
tp7094
a(S'poned'
p7095
I1
tp7096
a(S'poor'
p7097
I1
tp7098
a(S'pooring'
p7099
I1
tp7100
a(S'poot'
p7101
I1
tp7102
a(S'poped'
p7103
I1
tp7104
a(S'popular;'
p7105
I1
tp7106
a(S'popularity'
p7107
I1
tp7108
a(S'populate'
p7109
I1
tp7110
a(S'populated.another'
p7111
I1
tp7112
a(S'positioning'
p7113
I1
tp7114
a(S'possessed'
p7115
I1
tp7116
a(S'possible.based'
p7117
I1
tp7118
a(S'possible.the'
p7119
I1
tp7120
a(S'possible.to'
p7121
I1
tp7122
a(S'postone'
p7123
I1
tp7124
a(S'postpon'
p7125
I1
tp7126
a(S'postponement'
p7127
I1
tp7128
a(S'postponing'
p7129
I1
tp7130
a(S'potential.based'
p7131
I1
tp7132
a(S'potential.in'
p7133
I1
tp7134
a(S'pouncher'
p7135
I1
tp7136
a(S'pouring'
p7137
I1
tp7138
a(S'powering'
p7139
I1
tp7140
a(S'pparent'
p7141
I1
tp7142
a(S'practical"the'
p7143
I1
tp7144
a(S'practical.turning'
p7145
I1
tp7146
a(S'practical.when'
p7147
I1
tp7148
a(S'practical?'
p7149
I1
tp7150
a(S'practicalitie'
p7151
I1
tp7152
a(S'practice'
p7153
I1
tp7154
a(S'practicol'
p7155
I1
tp7156
a(S'pre'
p7157
I1
tp7158
a(S'preasure'
p7159
I1
tp7160
a(S'preciou'
p7161
I1
tp7162
a(S'predestrain'
p7163
I1
tp7164
a(S'predicte'
p7165
I1
tp7166
a(S'prediction'
p7167
I1
tp7168
a(S'preexisting'
p7169
I1
tp7170
a(S'preparation'
p7171
I1
tp7172
a(S'prepare'
p7173
I1
tp7174
a(S'presence'
p7175
I1
tp7176
a(S'presented.the'
p7177
I1
tp7178
a(S'preshure'
p7179
I1
tp7180
a(S'pressure)'
p7181
I1
tp7182
a(S'presure'
p7183
I1
tp7184
a(S'pretend'
p7185
I1
tp7186
a(S'prevailing.in'
p7187
I1
tp7188
a(S'prevalent'
p7189
I1
tp7190
a(S'previously'
p7191
I1
tp7192
a(S'primary'
p7193
I1
tp7194
a(S'prior'
p7195
I1
tp7196
a(S'pro'
p7197
I1
tp7198
a(S'proably'
p7199
I1
tp7200
a(S'probable'
p7201
I1
tp7202
a(S'probaly'
p7203
I1
tp7204
a(S'problamatic'
p7205
I1
tp7206
a(S'problem.the'
p7207
I1
tp7208
a(S'problem.while'
p7209
I1
tp7210
a(S'problem/concern'
p7211
I1
tp7212
a(S'problems.another'
p7213
I1
tp7214
a(S'procceded'
p7215
I1
tp7216
a(S'proceed.in'
p7217
I1
tp7218
a(S'proceeding'
p7219
I1
tp7220
a(S'process.the'
p7221
I1
tp7222
a(S'produced'
p7223
I1
tp7224
a(S'product'
p7225
I1
tp7226
a(S'production'
p7227
I1
tp7228
a(S'prof'
p7229
I1
tp7230
a(S'progressed'
p7231
I1
tp7232
a(S'progression'
p7233
I1
tp7234
a(S"project'"
p7235
I1
tp7236
a(S'project.based'
p7237
I1
tp7238
a(S'project.in'
p7239
I1
tp7240
a(S'project.while'
p7241
I1
tp7242
a(S'project;'
p7243
I1
tp7244
a(S'projected'
p7245
I1
tp7246
a(S'prominent'
p7247
I1
tp7248
a(S'promising'
p7249
I1
tp7250
a(S'prompted'
p7251
I1
tp7252
a(S'proof'
p7253
I1
tp7254
a(S'properly.in'
p7255
I1
tp7256
a(S'propostorou'
p7257
I1
tp7258
a(S'prospect'
p7259
I1
tp7260
a(S'prototype'
p7261
I1
tp7262
a(S'provided'
p7263
I1
tp7264
a(S'provider.the'
p7265
I1
tp7266
a(S'providing'
p7267
I1
tp7268
a(S'public.based'
p7269
I1
tp7270
a(S'public.the'
p7271
I1
tp7272
a(S'public.they'
p7273
I1
tp7274
a(S'publicly'
p7275
I1
tp7276
a(S'punture'
p7277
I1
tp7278
a(S'purpast'
p7279
I1
tp7280
a(S'purpose."during'
p7281
I1
tp7282
a(S'purpose."there'
p7283
I1
tp7284
a(S'purpose..."there'
p7285
I1
tp7286
a(S'purpose.attempting'
p7287
I1
tp7288
a(S'purpose.competitive'
p7289
I1
tp7290
a(S'purpose.to'
p7291
I1
tp7292
a(S'purposes.the'
p7293
I1
tp7294
a(S'purpouse'
p7295
I1
tp7296
a(S'pursue'
p7297
I1
tp7298
a(S'putt'
p7299
I1
tp7300
a(S'quality'
p7301
I1
tp7302
a(S'questions)'
p7303
I1
tp7304
a(S'questionthe'
p7305
I1
tp7306
a(S'quicker'
p7307
I1
tp7308
a(S'quiet'
p7309
I1
tp7310
a(S'quoating'
p7311
I1
tp7312
a(S'quoted'
p7313
I1
tp7314
a(S'raced'
p7315
I1
tp7316
a(S'rag'
p7317
I1
tp7318
a(S'rage'
p7319
I1
tp7320
a(S'rain'
p7321
I1
tp7322
a(S'raise'
p7323
I1
tp7324
a(S'range'
p7325
I1
tp7326
a(S'ranged'
p7327
I1
tp7328
a(S'ranging'
p7329
I1
tp7330
a(S'rapped'
p7331
I1
tp7332
a(S'rarely'
p7333
I1
tp7334
a(S'rational'
p7335
I1
tp7336
a(S're-done'
p7337
I1
tp7338
a(S're-fill'
p7339
I1
tp7340
a(S're-fining'
p7341
I1
tp7342
a(S're-support'
p7343
I1
tp7344
a(S'reached.the'
p7345
I1
tp7346
a(S'react'
p7347
I1
tp7348
a(S'readine'
p7349
I1
tp7350
a(S'reading!'
p7351
I1
tp7352
a(S'ready'
p7353
I1
tp7354
a(S'realised'
p7355
I1
tp7356
a(S'realistic.the'
p7357
I1
tp7358
a(S'reality.in'
p7359
I1
tp7360
a(S'reality.there'
p7361
I1
tp7362
a(S'realize.the'
p7363
I1
tp7364
a(S'realzed'
p7365
I1
tp7366
a(S'rearrange'
p7367
I1
tp7368
a(S'reason/problem'
p7369
I1
tp7370
a(S'reasoning.there'
p7371
I1
tp7372
a(S'reasons.in'
p7373
I1
tp7374
a(S'reasons.what'
p7375
I1
tp7376
a(S'recognized'
p7377
I1
tp7378
a(S'reconsider'
p7379
I1
tp7380
a(S'reconstructing'
p7381
I1
tp7382
a(S'record'
p7383
I1
tp7384
a(S'redesigned'
p7385
I1
tp7386
a(S'redesigning'
p7387
I1
tp7388
a(S'rediculou'
p7389
I1
tp7390
a(S'redone'
p7391
I1
tp7392
a(S'reduce'
p7393
I1
tp7394
a(S'reduced'
p7395
I1
tp7396
a(S'reduction'
p7397
I1
tp7398
a(S'refering'
p7399
I1
tp7400
a(S'refill'
p7401
I1
tp7402
a(S'reflect'
p7403
I1
tp7404
a(S'refueling.one'
p7405
I1
tp7406
a(S'refuling'
p7407
I1
tp7408
a(S'refused'
p7409
I1
tp7410
a(S'regarded'
p7411
I1
tp7412
a(S'regulating'
p7413
I1
tp7414
a(S'regulation'
p7415
I1
tp7416
a(S'reinforcing'
p7417
I1
tp7418
a(S'rejected'
p7419
I1
tp7420
a(S'relation'
p7421
I1
tp7422
a(S'relatively'
p7423
I1
tp7424
a(S'released'
p7425
I1
tp7426
a(S'reliable'
p7427
I1
tp7428
a(S'relive'
p7429
I1
tp7430
a(S'relizing'
p7431
I1
tp7432
a(S'relly'
p7433
I1
tp7434
a(S'remedy'
p7435
I1
tp7436
a(S'reminded'
p7437
I1
tp7438
a(S'remote'
p7439
I1
tp7440
a(S'remotely'
p7441
I1
tp7442
a(S'render'
p7443
I1
tp7444
a(S'renevation'
p7445
I1
tp7446
a(S'renevision'
p7447
I1
tp7448
a(S'rep'
p7449
I1
tp7450
a(S'repairing'
p7451
I1
tp7452
a(S'repeat'
p7453
I1
tp7454
a(S'required'
p7455
I1
tp7456
a(S'requirement'
p7457
I1
tp7458
a(S'researched'
p7459
I1
tp7460
a(S'researching'
p7461
I1
tp7462
a(S'resident'
p7463
I1
tp7464
a(S'residential'
p7465
I1
tp7466
a(S'resolt'
p7467
I1
tp7468
a(S'resolve'
p7469
I1
tp7470
a(S'resolved.lastly'
p7471
I1
tp7472
a(S'reson'
p7473
I1
tp7474
a(S'resource'
p7475
I1
tp7476
a(S'responded'
p7477
I1
tp7478
a(S'resting'
p7479
I1
tp7480
a(S'restrict'
p7481
I1
tp7482
a(S'restructuring'
p7483
I1
tp7484
a(S'restruture'
p7485
I1
tp7486
a(S'rethink'
p7487
I1
tp7488
a(S'retired'
p7489
I1
tp7490
a(S'reveal'
p7491
I1
tp7492
a(S'revealing'
p7493
I1
tp7494
a(S'revelation'
p7495
I1
tp7496
a(S'reviewed'
p7497
I1
tp7498
a(S'revolutionize'
p7499
I1
tp7500
a(S'revolutionized'
p7501
I1
tp7502
a(S'rid'
p7503
I1
tp7504
a(S'rienforcing'
p7505
I1
tp7506
a(S'ring'
p7507
I1
tp7508
a(S'ripped'
p7509
I1
tp7510
a(S"risk'"
p7511
I1
tp7512
a(S'risk.a'
p7513
I1
tp7514
a(S'risked'
p7515
I1
tp7516
a(S'risks.the'
p7517
I1
tp7518
a(S'risky.the'
p7519
I1
tp7520
a(S'roaming'
p7521
I1
tp7522
a(S'roaring'
p7523
I1
tp7524
a(S'rocket-shape'
p7525
I1
tp7526
a(S'rode'
p7527
I1
tp7528
a(S'roof".in'
p7529
I1
tp7530
a(S'roof.from'
p7531
I1
tp7532
a(S'rooms.they'
p7533
I1
tp7534
a(S'rose'
p7535
I1
tp7536
a(S'rotating'
p7537
I1
tp7538
a(S'rubber'
p7539
I1
tp7540
a(S'rudder'
p7541
I1
tp7542
a(S'ruffer'
p7543
I1
tp7544
a(S'ruined'
p7545
I1
tp7546
a(S'rural'
p7547
I1
tp7548
a(S'rush'
p7549
I1
tp7550
a(S'sad'
p7551
I1
tp7552
a(S'saddly'
p7553
I1
tp7554
a(S'sadly'
p7555
I1
tp7556
a(S'safe".while'
p7557
I1
tp7558
a(S'safe."in'
p7559
I1
tp7560
a(S'safe."when'
p7561
I1
tp7562
a(S'safe.another'
p7563
I1
tp7564
a(S'safe.base'
p7565
I1
tp7566
a(S'safe.based'
p7567
I1
tp7568
a(S'safe.builder'
p7569
I1
tp7570
a(S'safe.due'
p7571
I1
tp7572
a(S'safe.in'
p7573
I1
tp7574
a(S'safe.te'
p7575
I1
tp7576
a(S'safe.when'
p7577
I1
tp7578
a(S'safe;'
p7579
I1
tp7580
a(S'safety.in'
p7581
I1
tp7582
a(S'safety.the'
p7583
I1
tp7584
a(S'safeway'
p7585
I1
tp7586
a(S'safley'
p7587
I1
tp7588
a(S'saflley'
p7589
I1
tp7590
a(S'safly'
p7591
I1
tp7592
a(S'saking'
p7593
I1
tp7594
a(S'salf'
p7595
I1
tp7596
a(S'same.the'
p7597
I1
tp7598
a(S'sanction'
p7599
I1
tp7600
a(S'save'
p7601
I1
tp7602
a(S'saved'
p7603
I1
tp7604
a(S'saved.the'
p7605
I1
tp7606
a(S'sayed'
p7607
I1
tp7608
a(S'scare'
p7609
I1
tp7610
a(S'scared'
p7611
I1
tp7612
a(S'sci-fi'
p7613
I1
tp7614
a(S'scientifically'
p7615
I1
tp7616
a(S'scrap'
p7617
I1
tp7618
a(S'scrapped.based'
p7619
I1
tp7620
a(S'scrapped.the'
p7621
I1
tp7622
a(S'scrapped.there'
p7623
I1
tp7624
a(S'screw'
p7625
I1
tp7626
a(S'sea'
p7627
I1
tp7628
a(S'secret'
p7629
I1
tp7630
a(S'secretly'
p7631
I1
tp7632
a(S'securing'
p7633
I1
tp7634
a(S'securly'
p7635
I1
tp7636
a(S'seemingly'
p7637
I1
tp7638
a(S'seers.based'
p7639
I1
tp7640
a(S'sefty'
p7641
I1
tp7642
a(S'selection'
p7643
I1
tp7644
a(S'self.safty'
p7645
I1
tp7646
a(S'self.the'
p7647
I1
tp7648
a(S'selfs.the'
p7649
I1
tp7650
a(S'selrve'
p7651
I1
tp7652
a(S'sending'
p7653
I1
tp7654
a(S'serviced'
p7655
I1
tp7656
a(S'serving'
p7657
I1
tp7658
a(S'settlement'
p7659
I1
tp7660
a(S'severely'
p7661
I1
tp7662
a(S'shaken'
p7663
I1
tp7664
a(S'shall'
p7665
I1
tp7666
a(S'shatter'
p7667
I1
tp7668
a(S'shelved.the'
p7669
I1
tp7670
a(S'shiftyne'
p7671
I1
tp7672
a(S'shinny'
p7673
I1
tp7674
a(S'shiny-aluminum'
p7675
I1
tp7676
a(S"ship'"
p7677
I1
tp7678
a(S'ship.another'
p7679
I1
tp7680
a(S'ships.based'
p7681
I1
tp7682
a(S'shock'
p7683
I1
tp7684
a(S'shocked'
p7685
I1
tp7686
a(S'shorter'
p7687
I1
tp7688
a(S'shortsightedne'
p7689
I1
tp7690
a(S'shot'
p7691
I1
tp7692
a(S"shouldn't"
p7693
I1
tp7694
a(S'shove'
p7695
I1
tp7696
a(S'showed'
p7697
I1
tp7698
a(S'showend'
p7699
I1
tp7700
a(S'showy'
p7701
I1
tp7702
a(S'shp'
p7703
I1
tp7704
a(S'sides?'
p7705
I1
tp7706
a(S'sideway'
p7707
I1
tp7708
a(S'sight'
p7709
I1
tp7710
a(S'sightseer'
p7711
I1
tp7712
a(S'sightseers.new'
p7713
I1
tp7714
a(S'sightseers.the'
p7715
I1
tp7716
a(S'significance'
p7717
I1
tp7718
a(S'significantly'
p7719
I1
tp7720
a(S'simplicity.although'
p7721
I1
tp7722
a(S'simulated'
p7723
I1
tp7724
a(S"sinerio'"
p7725
I1
tp7726
a(S'sisty'
p7727
I1
tp7728
a(S'sittoation'
p7729
I1
tp7730
a(S'situation.although'
p7731
I1
tp7732
a(S'six)'
p7733
I1
tp7734
a(S'sixtey'
p7735
I1
tp7736
a(S'skilled'
p7737
I1
tp7738
a(S'skyscrapper'
p7739
I1
tp7740
a(S'sleave'
p7741
I1
tp7742
a(S'sleeve'
p7743
I1
tp7744
a(S'slightest'
p7745
I1
tp7746
a(S'slightly'
p7747
I1
tp7748
a(S'slogan'
p7749
I1
tp7750
a(S'small'
p7751
I1
tp7752
a(S'snag'
p7753
I1
tp7754
a(S'sneaking'
p7755
I1
tp7756
a(S'sneaky'
p7757
I1
tp7758
a(S'snuck'
p7759
I1
tp7760
a(S'so.the'
p7761
I1
tp7762
a(S'society.al'
p7763
I1
tp7764
a(S'society.there'
p7765
I1
tp7766
a(S'soft'
p7767
I1
tp7768
a(S'solely'
p7769
I1
tp7770
a(S'solutions.from'
p7771
I1
tp7772
a(S'solved.the'
p7773
I1
tp7774
a(S'solving'
p7775
I1
tp7776
a(S'somebody'
p7777
I1
tp7778
a(S'somewere'
p7779
I1
tp7780
a(S'somewhat'
p7781
I1
tp7782
a(S'somewhere'
p7783
I1
tp7784
a(S'somthing'
p7785
I1
tp7786
a(S'sought'
p7787
I1
tp7788
a(S'sould'
p7789
I1
tp7790
a(S'spacey'
p7791
I1
tp7792
a(S'sparer'
p7793
I1
tp7794
a(S'spear'
p7795
I1
tp7796
a(S'spearheaded'
p7797
I1
tp7798
a(S'speed.even'
p7799
I1
tp7800
a(S'spike'
p7801
I1
tp7802
a(S'spikey'
p7803
I1
tp7804
a(S'spirling'
p7805
I1
tp7806
a(S'spread'
p7807
I1
tp7808
a(S'stabilized'
p7809
I1
tp7810
a(S'stabilizing'
p7811
I1
tp7812
a(S'stalled'
p7813
I1
tp7814
a(S'start.in'
p7815
I1
tp7816
a(S'start;'
p7817
I1
tp7818
a(S'starter'
p7819
I1
tp7820
a(S'state."the'
p7821
I1
tp7822
a(S'state.when'
p7823
I1
tp7824
a(S'stateing'
p7825
I1
tp7826
a(S'station.everyone'
p7827
I1
tp7828
a(S'stationary'
p7829
I1
tp7830
a(S'stationd'
p7831
I1
tp7832
a(S'stead'
p7833
I1
tp7834
a(S'steel-frame'
p7835
I1
tp7836
a(S'steelframe'
p7837
I1
tp7838
a(S'stelfame'
p7839
I1
tp7840
a(S'stell'
p7841
I1
tp7842
a(S'stemmed'
p7843
I1
tp7844
a(S'step-back'
p7845
I1
tp7846
a(S'stepped'
p7847
I1
tp7848
a(S'steps-back'
p7849
I1
tp7850
a(S'stimulating'
p7851
I1
tp7852
a(S'stocking.finally'
p7853
I1
tp7854
a(S'storage'
p7855
I1
tp7856
a(S'storm'
p7857
I1
tp7858
a(S'straightforward'
p7859
I1
tp7860
a(S'strapp'
p7861
I1
tp7862
a(S'strategically'
p7863
I1
tp7864
a(S'straw'
p7865
I1
tp7866
a(S'stree'
p7867
I1
tp7868
a(S'street,"based'
p7869
I1
tp7870
a(S'street.the'
p7871
I1
tp7872
a(S'streghten'
p7873
I1
tp7874
a(S'stregthen'
p7875
I1
tp7876
a(S'stregthing'
p7877
I1
tp7878
a(S'strengthed'
p7879
I1
tp7880
a(S'strengthened.in'
p7881
I1
tp7882
a(S'strengthened.the'
p7883
I1
tp7884
a(S'stress'
p7885
I1
tp7886
a(S'stresse'
p7887
I1
tp7888
a(S'stressing'
p7889
I1
tp7890
a(S'structure;'
p7891
I1
tp7892
a(S'structurein'
p7893
I1
tp7894
a(S'structuring'
p7895
I1
tp7896
a(S'stuck'
p7897
I1
tp7898
a(S'study'
p7899
I1
tp7900
a(S'studying'
p7901
I1
tp7902
a(S'stuff'
p7903
I1
tp7904
a(S'stumble'
p7905
I1
tp7906
a(S'stumbled'
p7907
I1
tp7908
a(S'sturcture'
p7909
I1
tp7910
a(S'stylish'
p7911
I1
tp7912
a(S'substantial'
p7913
I1
tp7914
a(S'suburb'
p7915
I1
tp7916
a(S'succefully'
p7917
I1
tp7918
a(S'succesful'
p7919
I1
tp7920
a(S'success.the'
p7921
I1
tp7922
a(S'successful.architect'
p7923
I1
tp7924
a(S'successful.it'
p7925
I1
tp7926
a(S'suceessful'
p7927
I1
tp7928
a(S'sucsessful'
p7929
I1
tp7930
a(S'sufficiently'
p7931
I1
tp7932
a(S'suggested'
p7933
I1
tp7934
a(S'suitcase'
p7935
I1
tp7936
a(S'suite'
p7937
I1
tp7938
a(S'suited'
p7939
I1
tp7940
a(S'summation'
p7941
I1
tp7942
a(S'summed'
p7943
I1
tp7944
a(S'supervision'
p7945
I1
tp7946
a(S'supplie'
p7947
I1
tp7948
a(S'suppost'
p7949
I1
tp7950
a(S'surely'
p7951
I1
tp7952
a(S'surface'
p7953
I1
tp7954
a(S'surging'
p7955
I1
tp7956
a(S'surmounted'
p7957
I1
tp7958
a(S'surmounting'
p7959
I1
tp7960
a(S'surpass.in'
p7961
I1
tp7962
a(S'surrounded'
p7963
I1
tp7964
a(S'surve'
p7965
I1
tp7966
a(S'suscesfuly'
p7967
I1
tp7968
a(S'suspending'
p7969
I1
tp7970
a(S'swayed'
p7971
I1
tp7972
a(S'swept'
p7973
I1
tp7974
a(S'swerve'
p7975
I1
tp7976
a(S'sweying'
p7977
I1
tp7978
a(S'swireled'
p7979
I1
tp7980
a(S'swireling'
p7981
I1
tp7982
a(S'swirl'
p7983
I1
tp7984
a(S'swirvle'
p7985
I1
tp7986
a(S'switching'
p7987
I1
tp7988
a(S'swival'
p7989
I1
tp7990
a(S'swiveled'
p7991
I1
tp7992
a(S'swivil'
p7993
I1
tp7994
a(S'swivll'
p7995
I1
tp7996
a(S'swivlle'
p7997
I1
tp7998
a(S'swong'
p7999
I1
tp8000
a(S'swung'
p8001
I1
tp8002
a(S'symbol'
p8003
I1
tp8004
a(S'symbolize'
p8005
I1
tp8006
a(S'tackled.the'
p8007
I1
tp8008
a(S'tactic'
p8009
I1
tp8010
a(S'take.there'
p8011
I1
tp8012
a(S'takeoff'
p8013
I1
tp8014
a(S'taksk'
p8015
I1
tp8016
a(S'taler'
p8017
I1
tp8018
a(S'tallest.the'
p8019
I1
tp8020
a(S'tallet'
p8021
I1
tp8022
a(S'tampered'
p8023
I1
tp8024
a(S'tank.the'
p8025
I1
tp8026
a(S'target'
p8027
I1
tp8028
a(S'task;'
p8029
I1
tp8030
a(S'taste'
p8031
I1
tp8032
a(S'taught'
p8033
I1
tp8034
a(S'techical'
p8035
I1
tp8036
a(S'technicall'
p8037
I1
tp8038
a(S'technically'
p8039
I1
tp8040
a(S'tediou'
p8041
I1
tp8042
a(S'teeming'
p8043
I1
tp8044
a(S'ten'
p8045
I1
tp8046
a(S'tend'
p8047
I1
tp8048
a(S'terminal'
p8049
I1
tp8050
a(S'terner'
p8051
I1
tp8052
a(S'tethed'
p8053
I1
tp8054
a(S'tethered.@organization1'
p8055
I1
tp8056
a(S'tethor'
p8057
I1
tp8058
a(S'th'
p8059
I1
tp8060
a(S"tha't"
p8061
I1
tp8062
a(S'thankfully'
p8063
I1
tp8064
a(S'that.al'
p8065
I1
tp8066
a(S'that.based'
p8067
I1
tp8068
a(S'their.in'
p8069
I1
tp8070
a(S'them.the'
p8071
I1
tp8072
a(S'themself'
p8073
I1
tp8074
a(S'then-'
p8075
I1
tp8076
a(S'theory.the'
p8077
I1
tp8078
a(S'there"there'
p8079
I1
tp8080
a(S"there'"
p8081
I1
tp8082
a(S'there."most'
p8083
I1
tp8084
a(S'there.according'
p8085
I1
tp8086
a(S'there.although'
p8087
I1
tp8088
a(S'there.based'
p8089
I1
tp8090
a(S'there.by'
p8091
I1
tp8092
a(S'there.for'
p8093
I1
tp8094
a(S'there.obstacle'
p8095
I1
tp8096
a(S'there.when'
p8097
I1
tp8098
a(S'there.while'
p8099
I1
tp8100
a(S'there.work'
p8101
I1
tp8102
a(S'there;'
p8103
I1
tp8104
a(S'there?!'
p8105
I1
tp8106
a(S'theremost'
p8107
I1
tp8108
a(S'therethere'
p8109
I1
tp8110
a(S'thethered'
p8111
I1
tp8112
a(S'thier'
p8113
I1
tp8114
a(S'thing.the'
p8115
I1
tp8116
a(S'things.the'
p8117
I1
tp8118
a(S'thirdly'
p8119
I1
tp8120
a(S'thirteen.first'
p8121
I1
tp8122
a(S"thirtie'"
p8123
I1
tp8124
a(S'tho'
p8125
I1
tp8126
a(S'thoogh'
p8127
I1
tp8128
a(S'thosand'
p8129
I1
tp8130
a(S'thosand-foot'
p8131
I1
tp8132
a(S'thoughout'
p8133
I1
tp8134
a(S'thought.in'
p8135
I1
tp8136
a(S'thoughtout'
p8137
I1
tp8138
a(S'thourgh'
p8139
I1
tp8140
a(S'thousand-'
p8141
I1
tp8142
a(S'thrashing'
p8143
I1
tp8144
a(S'threatening'
p8145
I1
tp8146
a(S'threw.the'
p8147
I1
tp8148
a(S'thrilled'
p8149
I1
tp8150
a(S'through;'
p8151
I1
tp8152
a(S'throughthe'
p8153
I1
tp8154
a(S'thrown'
p8155
I1
tp8156
a(S'tightly'
p8157
I1
tp8158
a(S'time-consuming'
p8159
I1
tp8160
a(S'times.the'
p8161
I1
tp8162
a(S'tiring'
p8163
I1
tp8164
a(S'title.the'
p8165
I1
tp8166
a(S'titled'
p8167
I1
tp8168
a(S'tittle'
p8169
I1
tp8170
a(S'today.while'
p8171
I1
tp8172
a(S'todo'
p8173
I1
tp8174
a(S'together.the'
p8175
I1
tp8176
a(S'ton'
p8177
I1
tp8178
a(S'topal'
p8179
I1
tp8180
a(S'topof'
p8181
I1
tp8182
a(S'tossed'
p8183
I1
tp8184
a(S'touch'
p8185
I1
tp8186
a(S'touched'
p8187
I1
tp8188
a(S'toughest'
p8189
I1
tp8190
a(S"tower'"
p8191
I1
tp8192
a(S'towered'
p8193
I1
tp8194
a(S'towering'
p8195
I1
tp8196
a(S'track'
p8197
I1
tp8198
a(S'trade'
p8199
I1
tp8200
a(S'traditionally'
p8201
I1
tp8202
a(S'traffic'
p8203
I1
tp8204
a(S'trafficking'
p8205
I1
tp8206
a(S'trafic'
p8207
I1
tp8208
a(S'tragedy'
p8209
I1
tp8210
a(S'tragetie'
p8211
I1
tp8212
a(S'trajic'
p8213
I1
tp8214
a(S'transmite'
p8215
I1
tp8216
a(S'transmited'
p8217
I1
tp8218
a(S'transportantion'
p8219
I1
tp8220
a(S'transportation.without'
p8221
I1
tp8222
a(S'travel.in'
p8223
I1
tp8224
a(S'travel;'
p8225
I1
tp8226
a(S'traveled'
p8227
I1
tp8228
a(S'travelin'
p8229
I1
tp8230
a(S'traveling.another'
p8231
I1
tp8232
a(S'travelled'
p8233
I1
tp8234
a(S'tremondo'
p8235
I1
tp8236
a(S'tribulate'
p8237
I1
tp8238
a(S'troubling'
p8239
I1
tp8240
a(S'true.ambitiou'
p8241
I1
tp8242
a(S'trust'
p8243
I1
tp8244
a(S'tryed'
p8245
I1
tp8246
a(S'tufe'
p8247
I1
tp8248
a(S'turbulent'
p8249
I1
tp8250
a(S'twice'
p8251
I1
tp8252
a(S'twirl'
p8253
I1
tp8254
a(S'two-hundred'
p8255
I1
tp8256
a(S'two.there'
p8257
I1
tp8258
a(S'tycoon'
p8259
I1
tp8260
a(S'tyed'
p8261
I1
tp8262
a(S'u.'
p8263
I1
tp8264
a(S'ugly'
p8265
I1
tp8266
a(S'uilding'
p8267
I1
tp8268
a(S'ultimate'
p8269
I1
tp8270
a(S'un'
p8271
I1
tp8272
a(S'un-ideal'
p8273
I1
tp8274
a(S'un-safe'
p8275
I1
tp8276
a(S'un-tied'
p8277
I1
tp8278
a(S'unaware'
p8279
I1
tp8280
a(S'unboard'
p8281
I1
tp8282
a(S'unboarding'
p8283
I1
tp8284
a(S'uncomplete'
p8285
I1
tp8286
a(S'uncontraiable'
p8287
I1
tp8288
a(S'uncontrollably'
p8289
I1
tp8290
a(S'uncontrolled'
p8291
I1
tp8292
a(S'undercontrol'
p8293
I1
tp8294
a(S'undergo'
p8295
I1
tp8296
a(S'underside'
p8297
I1
tp8298
a(S'understand'
p8299
I1
tp8300
a(S'understanding'
p8301
I1
tp8302
a(S'underwent'
p8303
I1
tp8304
a(S'undocked'
p8305
I1
tp8306
a(S'uneasy'
p8307
I1
tp8308
a(S'unexpected'
p8309
I1
tp8310
a(S'unfesable'
p8311
I1
tp8312
a(S'unforeseen'
p8313
I1
tp8314
a(S'unfortunaetly'
p8315
I1
tp8316
a(S'unfortunate'
p8317
I1
tp8318
a(S'unfortunatly'
p8319
I1
tp8320
a(S'unfortuntly'
p8321
I1
tp8322
a(S'unforunantly'
p8323
I1
tp8324
a(S'unhooked'
p8325
I1
tp8326
a(S'unimaginable'
p8327
I1
tp8328
a(S'unitestate'
p8329
I1
tp8330
a(S'unknown'
p8331
I1
tp8332
a(S'unland'
p8333
I1
tp8334
a(S'unlike'
p8335
I1
tp8336
a(S'unliked'
p8337
I1
tp8338
a(S'unloding'
p8339
I1
tp8340
a(S'unnatural'
p8341
I1
tp8342
a(S'unnecessary'
p8343
I1
tp8344
a(S'unnoticed'
p8345
I1
tp8346
a(S'unparallel'
p8347
I1
tp8348
a(S'unpaticent'
p8349
I1
tp8350
a(S'unplausable'
p8351
I1
tp8352
a(S'unpractible'
p8353
I1
tp8354
a(S'unpractical.people'
p8355
I1
tp8356
a(S'unpredictabled'
p8357
I1
tp8358
a(S'unpredictably'
p8359
I1
tp8360
a(S'unpredictible'
p8361
I1
tp8362
a(S'unquestionable'
p8363
I1
tp8364
a(S'unrealistic.al'
p8365
I1
tp8366
a(S'unrealistic.with'
p8367
I1
tp8368
a(S'unrealized'
p8369
I1
tp8370
a(S'unsafe.al'
p8371
I1
tp8372
a(S'unsafe.while'
p8373
I1
tp8374
a(S'unsafety'
p8375
I1
tp8376
a(S'unsafly'
p8377
I1
tp8378
a(S'unscure'
p8379
I1
tp8380
a(S'unsecure'
p8381
I1
tp8382
a(S'unseen'
p8383
I1
tp8384
a(S'unstability'
p8385
I1
tp8386
a(S'unstable.in'
p8387
I1
tp8388
a(S'unsucce'
p8389
I1
tp8390
a(S'unsuccessful.there'
p8391
I1
tp8392
a(S'unsuccessfully'
p8393
I1
tp8394
a(S'unthoughtof'
p8395
I1
tp8396
a(S'untied'
p8397
I1
tp8398
a(S'untold'
p8399
I1
tp8400
a(S'unturful'
p8401
I1
tp8402
a(S'unusable'
p8403
I1
tp8404
a(S'unused'
p8405
I1
tp8406
a(S'unused.the'
p8407
I1
tp8408
a(S'unwanted'
p8409
I1
tp8410
a(S'up.based'
p8411
I1
tp8412
a(S'up.the'
p8413
I1
tp8414
a(S'up?'
p8415
I1
tp8416
a(S'updraft'
p8417
I1
tp8418
a(S'upgrade'
p8419
I1
tp8420
a(S'upheld'
p8421
I1
tp8422
a(S'upward'
p8423
I1
tp8424
a(S'urealistic'
p8425
I1
tp8426
a(S'usable'
p8427
I1
tp8428
a(S'use.and'
p8429
I1
tp8430
a(S'use.when'
p8431
I1
tp8432
a(S'used.al'
p8433
I1
tp8434
a(S'used.based'
p8435
I1
tp8436
a(S'used.when'
p8437
I1
tp8438
a(S'used.while'
p8439
I1
tp8440
a(S'useing'
p8441
I1
tp8442
a(S'usele'
p8443
I1
tp8444
a(S'valve'
p8445
I1
tp8446
a(S'variable'
p8447
I1
tp8448
a(S'variation'
p8449
I1
tp8450
a(S'variety'
p8451
I1
tp8452
a(S'vastly'
p8453
I1
tp8454
a(S'velocitie'
p8455
I1
tp8456
a(S'verry'
p8457
I1
tp8458
a(S'verse'
p8459
I1
tp8460
a(S'vicinity'
p8461
I1
tp8462
a(S'view'
p8463
I1
tp8464
a(S'viewpoint'
p8465
I1
tp8466
a(S'vilant'
p8467
I1
tp8468
a(S'vilent'
p8469
I1
tp8470
a(S'violated'
p8471
I1
tp8472
a(S'violating'
p8473
I1
tp8474
a(S'virtually'
p8475
I1
tp8476
a(S'viscinity'
p8477
I1
tp8478
a(S'visibly'
p8479
I1
tp8480
a(S'visit'
p8481
I1
tp8482
a(S'visited'
p8483
I1
tp8484
a(S'visiting'
p8485
I1
tp8486
a(S'w/hydrogen'
p8487
I1
tp8488
a(S'w/people'
p8489
I1
tp8490
a(S'waight'
p8491
I1
tp8492
a(S'waist'
p8493
I1
tp8494
a(S'waive'
p8495
I1
tp8496
a(S'wald'
p8497
I1
tp8498
a(S'walked'
p8499
I1
tp8500
a(S'wand'
p8501
I1
tp8502
a(S'ward'
p8503
I1
tp8504
a(S'warned'
p8505
I1
tp8506
a(S'was.there'
p8507
I1
tp8508
a(S'was.to'
p8509
I1
tp8510
a(S'was;'
p8511
I1
tp8512
a(S'waste.in'
p8513
I1
tp8514
a(S'watch'
p8515
I1
tp8516
a(S'watching'
p8517
I1
tp8518
a(S'water'
p8519
I1
tp8520
a(S'waving'
p8521
I1
tp8522
a(S'way;'
p8523
I1
tp8524
a(S'ways.marcia'
p8525
I1
tp8526
a(S'weakne'
p8527
I1
tp8528
a(S'wear'
p8529
I1
tp8530
a(S'weather.many'
p8531
I1
tp8532
a(S'weatherwise'
p8533
I1
tp8534
a(S'weigho'
p8535
I1
tp8536
a(S'weighth'
p8537
I1
tp8538
a(S'weightle'
p8539
I1
tp8540
a(S'weights.in'
p8541
I1
tp8542
a(S'well-liked'
p8543
I1
tp8544
a(S'well.architect'
p8545
I1
tp8546
a(S'well.the'
p8547
I1
tp8548
a(S'well;'
p8549
I1
tp8550
a(S'wenche'
p8551
I1
tp8552
a(S'wer'
p8553
I1
tp8554
a(S"wer'e"
p8555
I1
tp8556
a(S'werent'
p8557
I1
tp8558
a(S'wether'
p8559
I1
tp8560
a(S"wha'"
p8561
I1
tp8562
a(S'wheather'
p8563
I1
tp8564
a(S'wher'
p8565
I1
tp8566
a(S'while.based'
p8567
I1
tp8568
a(S'whinch'
p8569
I1
tp8570
a(S'whiping'
p8571
I1
tp8572
a(S'whopping'
p8573
I1
tp8574
a(S'widely'
p8575
I1
tp8576
a(S'wildly'
p8577
I1
tp8578
a(S'wile'
p8579
I1
tp8580
a(S'willing'
p8581
I1
tp8582
a(S'wind."constructing'
p8583
I1
tp8584
a(S'windows."while'
p8585
I1
tp8586
a(S'winds.blimp'
p8587
I1
tp8588
a(S'winds.other'
p8589
I1
tp8590
a(S'winds.the'
p8591
I1
tp8592
a(S'windstorm'
p8593
I1
tp8594
a(S'winning'
p8595
I1
tp8596
a(S'wiping'
p8597
I1
tp8598
a(S'wirled'
p8599
I1
tp8600
a(S'wish'
p8601
I1
tp8602
a(S'wished'
p8603
I1
tp8604
a(S'wishful'
p8605
I1
tp8606
a(S'with.in'
p8607
I1
tp8608
a(S'with.the'
p8609
I1
tp8610
a(S'with.when'
p8611
I1
tp8612
a(S'withhold'
p8613
I1
tp8614
a(S'witout'
p8615
I1
tp8616
a(S'wold'
p8617
I1
tp8618
a(S'woldent'
p8619
I1
tp8620
a(S'wolud'
p8621
I1
tp8622
a(S'wood'
p8623
I1
tp8624
a(S'wore'
p8625
I1
tp8626
a(S'work.after'
p8627
I1
tp8628
a(S'work.another'
p8629
I1
tp8630
a(S'work.based'
p8631
I1
tp8632
a(S'work.in'
p8633
I1
tp8634
a(S'worked.the'
p8635
I1
tp8636
a(S'worked/talked'
p8637
I1
tp8638
a(S"worker'"
p8639
I1
tp8640
a(S'workers.the'
p8641
I1
tp8642
a(S'working.the'
p8643
I1
tp8644
a(S'workload.the'
p8645
I1
tp8646
a(S'workthe'
p8647
I1
tp8648
a(S'world.the'
p8649
I1
tp8650
a(S'world;'
p8651
I1
tp8652
a(S'worrie'
p8653
I1
tp8654
a(S'worriying'
p8655
I1
tp8656
a(S'worse.in'
p8657
I1
tp8658
a(S"would'nt"
p8659
I1
tp8660
a(S"would've"
p8661
I1
tp8662
a(S'wounded'
p8663
I1
tp8664
a(S'wrap'
p8665
I1
tp8666
a(S'wraping'
p8667
I1
tp8668
a(S'wrapped'
p8669
I1
tp8670
a(S'wreck'
p8671
I1
tp8672
a(S'writer'
p8673
I1
tp8674
a(S'wrong.the'
p8675
I1
tp8676
a(S'wrote'
p8677
I1
tp8678
a(S'york".however'
p8679
I1
tp8680
a(S'york".the'
p8681
I1
tp8682
a(S'york"some'
p8683
I1
tp8684
a(S'york)'
p8685
I1
tp8686
a(S"york.'"
p8687
I1
tp8688
a(S'york.in'
p8689
I1
tp8690
a(S'york.some'
p8691
I1
tp8692
a(S'york.there'
p8693
I1
tp8694
a(S'york.while'
p8695
I1
tp8696
a(S"you're"
p8697
I1
tp8698
a(S'you.another'
p8699
I1
tp8700
a(S'zeplin'
p8701
I1
tp8702
a.