(lp1
(S'cyclist'
p2
I1987
tp3
a(S'water'
p4
I1221
tp5
a(S'setting'
p6
I1176
tp7
a(S'features'
p8
I659
tp9
a(S'road'
p10
I493
tp11
a(S'affect'
p12
I468
tp13
a(S'affected'
p14
I461
tp15
a(S'hot'
p16
I448
tp17
a(S'story'
p18
I432
tp19
a(S'would'
p20
I398
tp21
a(S'also'
p22
I386
tp23
a(S'desert'
p24
I333
tp25
a(S'get'
p26
I330
tp27
a(S'hills'
p28
I328
tp29
a(S'could'
p30
I320
tp31
a(S'going'
p32
I295
tp33
a(S'heat'
p34
I287
tp35
a(S'speed'
p36
I287
tp37
a(S'one'
p38
I276
tp39
a(S'old'
p40
I258
tp41
a(S'many'
p42
I247
tp43
a(S'first'
p44
I241
tp45
a(S'exceed'
p46
I239
tp47
a(S'made'
p48
I226
tp49
a(S'posted'
p50
I225
tp51
a(S'like'
p52
I223
tp53
a(S'way'
p54
I220
tp55
a(S'town'
p56
I219
tp57
a(S'terrain'
p58
I215
tp59
a(S'california'
p60
I206
tp61
a(S'make'
p62
I203
tp63
a(S'dehydrated'
p64
I197
tp65
a(S'ride'
p66
I193
tp67
a(S'example'
p68
I186
tp69
a(S'rough'
p70
I184
tp71
a(S'riding'
p72
I179
tp73
a(S'says'
p74
I173
tp75
a(S'affects'
p76
I171
tp77
a(S'author'
p78
I163
tp79
a(S'lack'
p80
I159
tp81
a(S'bike'
p82
I155
tp83
a(S'ahead'
p84
I154
tp85
a(S'rolling'
p86
I146
tp87
a(S'go'
p88
I142
tp89
a(S'journey'
p90
I141
tp91
a(S'\x93rough'
p92
I139
tp93
a(S'around'
p94
I136
tp95
a(S'short'
p96
I133
tp97
a(S'got'
p98
I132
tp99
a(S'place'
p100
I132
tp101
a(S'really'
p102
I132
tp103
a(S'even'
p104
I130
tp105
a(S'sun'
p106
I130
tp107
a(S'june'
p108
I129
tp109
a(S'ways'
p110
I129
tp111
a(S'another'
p112
I128
tp113
a(S'caps1'
p114
I128
tp115
a(S'essay'
p116
I128
tp117
a(S'said'
p118
I127
tp119
a(S'came'
p120
I126
tp121
a(S'hope'
p122
I126
tp123
a(S'snake'
p124
I125
tp125
a(S'yosemite'
p126
I125
tp127
a(S'tired'
p128
I123
tp129
a(S'men'
p130
I122
tp131
a(S'much'
p132
I121
tp133
a(S'long'
p134
I120
tp135
a(S'people'
p136
I120
tp137
a(S'building'
p138
I119
tp139
a(S'directions'
p140
I119
tp141
a(S'energy'
p142
I119
tp143
a(S'time'
p144
I119
tp145
a(S'deserts'
p146
I117
tp147
a(S'die'
p148
I117
tp149
a(S'thirsty'
p150
I117
tp151
a(S'\x93i'
p152
I114
tp153
a(S'hard'
p154
I112
tp155
a(S'limit\x94'
p156
I112
tp157
a(S'dry'
p158
I108
tp159
a(S'makes'
p160
I107
tp161
a(S'know'
p162
I105
tp163
a(S'factory'
p164
I104
tp165
a(S'flat'
p166
I102
tp167
a(S'shows'
p168
I102
tp169
a(S'lot'
p170
I101
tp171
a(S'roads'
p172
I101
tp173
a(S'things'
p174
I101
tp175
a(S'getting'
p176
I100
tp177
a(S'high'
p178
I100
tp179
a(S'didn\x92t'
p180
I98
tp181
a(S'juice'
p182
I97
tp183
a(S'keep'
p184
I97
tp185
a(S'miles'
p186
I97
tp187
a(S'abandoned'
p188
I95
tp189
a(S'bad'
p190
I95
tp191
a(S'next'
p192
I94
tp193
a(S'weather'
p194
I94
tp195
a(S'effect'
p196
I93
tp197
a(S'feature'
p198
I92
tp199
a(S'help'
p200
I91
tp201
a(S'thought'
p202
I91
tp203
a(S'day'
p204
I90
tp205
a(S'feel'
p206
I90
tp207
a(S'making'
p208
I90
tp209
a(S'little'
p210
I89
tp211
a(S'ghost'
p212
I87
tp213
a(S'left'
p214
I87
tp215
a(S'limit'
p216
I87
tp217
a(S'num1'
p218
I87
tp219
a(S'think'
p220
I87
tp221
a(S'towns'
p222
I87
tp223
a(S'good'
p224
I86
tp225
a(S'man'
p226
I86
tp227
a(S'since'
p228
I86
tp229
a(S'greatly'
p230
I83
tp231
a(S'drink'
p232
I81
tp233
a(S'\x93the'
p234
I81
tp235
a(S'finally'
p236
I80
tp237
a(S'trip'
p238
I79
tp239
a(S'harder'
p240
I78
tp241
a(S'joe'
p242
I78
tp243
a(S'\x93do'
p244
I78
tp245
a(S'dehydration'
p246
I77
tp247
a(S'running'
p248
I77
tp249
a(S'large'
p250
I76
tp251
a(S'lost'
p252
I76
tp253
a(S'almost'
p254
I75
tp255
a(S'take'
p256
I75
tp257
a(S'hill'
p258
I74
tp259
a(S'advice'
p260
I73
tp261
a(S'find'
p262
I73
tp263
a(S'kurmaskie'
p264
I73
tp265
a(S'found'
p266
I72
tp267
a(S'sight'
p268
I72
tp269
a(S'drop'
p270
I71
tp271
a(S'replaced'
p272
I71
tp273
a(S'saw'
p274
I71
tp275
a(S'text'
p276
I71
tp277
a(S'settings'
p278
I70
tp279
a(S'sign'
p280
I70
tp281
a(S'supply'
p282
I70
tp283
a(S'cool'
p284
I68
tp285
a(S'beginning'
p286
I67
tp287
a(S'caused'
p288
I67
tp289
a(S'conditions'
p290
I67
tp291
a(S'land'
p292
I67
tp293
a(S'well'
p294
I67
tp295
a(S'path'
p296
I66
tp297
a(S'thirst'
p298
I66
tp299
a(S'two'
p300
I66
tp301
a(S'end'
p302
I63
tp303
a(S'point'
p304
I63
tp305
a(S'\x93'
I63
tp306
a(S'become'
p307
I62
tp308
a(S'big'
p309
I62
tp310
a(S'life'
p311
I62
tp312
a(S'might'
p313
I62
tp314
a(S'never'
p315
I62
tp316
a(S'states'
p317
I62
tp318
a(S'thing'
p319
I62
tp320
a(S'last'
p321
I61
tp322
a(S'park'
p323
I60
tp324
a(S'pump'
p325
I60
tp326
a(S'started'
p327
I60
tp328
a(S'different'
p329
I59
tp330
a(S'see'
p331
I59
tp332
a(S'sweat'
p333
I59
tp334
a(S'bottles'
p335
I58
tp336
a(S'difficult'
p337
I57
tp338
a(S'traveling'
p339
I57
tp340
a(S'cyclist.the'
p341
I56
tp342
a(S'deserted'
p343
I56
tp344
a(S'sees'
p345
I55
tp346
a(S'trying'
p347
I55
tp348
a(S'began'
p349
I54
tp350
a(S'gets'
p351
I54
tp352
a(S'middle'
p353
I54
tp354
a(S'mind'
p355
I54
tp356
a(S'still'
p357
I54
tp358
a(S'took'
p359
I54
tp360
a(S'wasn\x92t'
p361
I54
tp362
a(S'give'
p363
I52
tp364
a(S'grape'
p365
I52
tp366
a(S'national'
p367
I52
tp368
a(S'summer'
p369
I52
tp370
a(S'went'
p371
I52
tp372
a(S'battery'
p373
I51
tp374
a(S'fact'
p375
I51
tp376
a(S'feeling'
p377
I51
tp378
a(S'felt'
p379
I50
tp380
a(S'need'
p381
I50
tp382
a(S'buildings'
p383
I49
tp384
a(S'nothing'
p385
I49
tp386
a(S'without'
p387
I49
tp388
a(S'gave'
p389
I48
tp390
a(S'snakes'
p391
I48
tp392
a(S'area'
p393
I47
tp394
a(S'cycling'
p395
I47
tp396
a(S'mood'
p397
I47
tp398
a(S'rusty'
p399
I47
tp400
a(S'determination'
p401
I46
tp402
a(S'lose'
p403
I46
tp404
a(S'quote'
p405
I46
tp406
a(S'across'
p407
I45
tp408
a(S'bait'
p409
I45
tp410
a(S'became'
p411
I45
tp412
a(S'change'
p413
I45
tp414
a(S'heatstroke'
p415
I45
tp416
a(S'state'
p417
I45
tp418
a(S'takes'
p419
I45
tp420
a(S'probably'
p421
I44
tp422
a(S'problem'
p423
I44
tp424
a(S'several'
p425
I44
tp426
a(S'use'
p427
I44
tp428
a(S'along'
p429
I43
tp430
a(S'body'
p431
I43
tp432
a(S'couldn\x92t'
p433
I43
tp434
a(S'don\x92t'
p435
I43
tp436
a(S'feels'
p437
I43
tp438
a(S'pretty'
p439
I43
tp440
a(S'pumps'
p441
I43
tp442
a(S'ran'
p443
I43
tp444
a(S'stop'
p445
I43
tp446
a(S'comes'
p447
I42
tp448
a(S'cyclists'
p449
I42
tp450
a(S'effected'
p451
I42
tp452
a(S'effects'
p453
I42
tp454
a(S'fish'
p455
I42
tp456
a(S'map'
p457
I42
tp458
a(S'num1)'
p459
I42
tp460
a(S'back'
p461
I41
tp462
a(S'car'
p463
I41
tp464
a(S'come'
p465
I41
tp466
a(S'conclusion'
p467
I41
tp468
a(S'he\x92s'
p469
I41
tp470
a(S'wouldn\x92t'
p471
I41
tp472
a(S'&'
I40
tp473
a(S'it\x92s'
p474
I40
tp475
a(S'told'
p476
I40
tp477
a(S'want'
p478
I40
tp479
a(S'cause'
p480
I39
tp481
a(S'crossed'
p482
I39
tp483
a(S'month1'
p484
I39
tp485
a(S'rode'
p486
I39
tp487
a(S'sure'
p488
I39
tp489
a(S'acid'
p490
I38
tp491
a(S'changes'
p492
I38
tp493
a(S'condition'
p494
I38
tp495
a(S'enough'
p496
I38
tp497
a(S'happy'
p498
I38
tp499
a(S'june.\x94'
p500
I38
tp501
a(S'needed'
p502
I38
tp503
a(S'pedal'
p504
I38
tp505
a(S'put'
p506
I38
tp507
a(S'tumbleweeds'
p508
I38
tp509
a(S'\x93flat'
p510
I38
tp511
a(S'able'
p512
I37
tp513
a(S'balance'
p514
I37
tp515
a(S'beating'
p516
I37
tp517
a(S'camp'
p518
I37
tp519
a(S'extremely'
p520
I37
tp521
a(S'pick'
p522
I37
tp523
a(S'(kurmaskie'
p524
I36
tp525
a(S'birds'
p526
I36
tp527
a(S'low'
p528
I36
tp529
a(S'main'
p530
I36
tp531
a(S'needs'
p532
I36
tp533
a(S'say'
p534
I36
tp535
a(S'taking'
p536
I36
tp537
a(S'changed'
p538
I35
tp539
a(S'drinking'
p540
I35
tp541
a(S'due'
p542
I35
tp543
a(S'finds'
p544
I35
tp545
a(S'limit,\x94'
p546
I35
tp547
a(S'negative'
p548
I35
tp549
a(S'outside'
p550
I35
tp551
a(S'rider'
p552
I35
tp553
a(S'shop'
p554
I35
tp555
a(S'bumpy'
p556
I34
tp557
a(S'contained'
p558
I34
tp559
a(S'determined'
p560
I34
tp561
a(S'growing'
p562
I34
tp563
a(S'shed'
p564
I34
tp565
a(S''
I33
tp566
a(S'alot'
p567
I33
tp568
a(S'arrived'
p569
I33
tp570
a(S'beat'
p571
I33
tp572
a(S'biker'
p573
I33
tp574
a(S'confidence'
p575
I33
tp576
a(S'confident'
p577
I33
tp578
a(S'less'
p579
I33
tp580
a(S'means'
p581
I33
tp582
a(S'must'
p583
I33
tp584
a(S'noticed'
p585
I33
tp586
a(S'problems'
p587
I33
tp588
a(S'strength'
p589
I33
tp590
a(S'stroke'
p591
I33
tp592
a(S'travel'
p593
I33
tp594
a(S'work'
p595
I33
tp596
a(S'wrong'
p597
I33
tp598
a(S'doesn\x92t'
p599
I32
tp600
a(S'however'
p601
I32
tp602
a(S'ridiculously'
p603
I32
tp604
a(S'starts'
p605
I32
tp606
a(S'structure'
p607
I32
tp608
a(S'worse'
p609
I32
tp610
a(S'cyclist\x92s'
p611
I31
tp612
a(S'dangerous'
p613
I31
tp614
a(S'destination'
p615
I31
tp616
a(S'morning'
p617
I31
tp618
a(S'paragraph'
p619
I31
tp620
a(S'alone'
p621
I30
tp622
a(S'becomes'
p623
I30
tp624
a(S'biking'
p625
I30
tp626
a(S'drank'
p627
I30
tp628
a(S'easy'
p629
I30
tp630
a(S'faced'
p631
I30
tp632
a(S'faster'
p633
I30
tp634
a(S'followed'
p635
I30
tp636
a(S'great'
p637
I30
tp638
a(S'kept'
p639
I30
tp640
a(S'reader'
p641
I30
tp642
a(S'realization'
p643
I30
tp644
a(S'temperature'
p645
I30
tp646
a(S'anything'
p647
I29
tp648
a(S'carter'
p649
I29
tp650
a(S'dessert'
p651
I29
tp652
a(S'direction'
p653
I29
tp654
a(S'hilly'
p655
I29
tp656
a(S'past'
p657
I29
tp658
a(S'read'
p659
I29
tp660
a(S'rivers'
p661
I29
tp662
a(S'something'
p663
I29
tp664
a(S'tried'
p665
I29
tp666
a(S'\x93a'
p667
I29
tp668
a(S'cars'
p669
I28
tp670
a(S'character'
p671
I28
tp672
a(S'civilization'
p673
I28
tp674
a(S'climate'
p675
I28
tp676
a(S'every'
p677
I28
tp678
a(S'goes'
p679
I28
tp680
a(S'mouth'
p681
I28
tp682
a(S'part'
p683
I28
tp684
a(S'person'
p685
I28
tp686
a(S'quickly'
p687
I28
tp688
a(S'reached'
p689
I28
tp690
a(S'soon'
p691
I28
tp692
a(S'strong'
p693
I28
tp694
a(S'tell'
p695
I28
tp696
a(S'tough'
p697
I28
tp698
a(S'upon'
p699
I28
tp700
a(S'begins'
p701
I27
tp702
a(S'changing'
p703
I27
tp704
a(S'deal'
p705
I27
tp706
a(S'describes'
p707
I27
tp708
a(S'everything'
p709
I27
tp710
a(S'far'
p711
I27
tp712
a(S'fast'
p713
I27
tp714
a(S'hundred'
p715
I27
tp716
a(S'later'
p717
I27
tp718
a(S'limit.\x94'
p719
I27
tp720
a(S'obstacles'
p721
I27
tp722
a(S'seeing'
p723
I27
tp724
a(S'store'
p725
I27
tp726
a(S'tantalizing'
p727
I27
tp728
a(S'welch\x92s'
p729
I27
tp730
a(S'affecting'
p731
I26
tp732
a(S'away'
p733
I26
tp734
a(S'becoming'
p735
I26
tp736
a(S'given'
p737
I26
tp738
a(S'gives'
p739
I26
tp740
a(S'huge'
p741
I26
tp742
a(S'knew'
p743
I26
tp744
a(S'pavement'
p745
I26
tp746
a(S'pines'
p747
I26
tp748
a(S'right'
p749
I26
tp750
a(S'seems'
p751
I26
tp752
a(S'sense'
p753
I26
tp754
a(S'used'
p755
I26
tp756
a(S'\x94'
I26
tp757
a(S'ahead\x94'
p758
I25
tp759
a(S'always'
p760
I25
tp761
a(S'empty'
p762
I25
tp763
a(S'especially'
p764
I25
tp765
a(S'haven\x92t'
p766
I25
tp767
a(S'june\x94'
p768
I25
tp769
a(S'majority'
p770
I25
tp771
a(S'places'
p772
I25
tp773
a(S'regularly'
p774
I25
tp775
a(S'run'
p776
I25
tp777
a(S'saying'
p778
I25
tp779
a(S'seem'
p780
I25
tp781
a(S'travelling'
p782
I25
tp783
a(S'trouble'
p784
I25
tp785
a(S'\x93town\x94'
p786
I25
tp787
a(S'boy'
p788
I24
tp789
a(S'caps2'
p790
I24
tp791
a(S'crippling'
p792
I24
tp793
a(S'doubt'
p794
I24
tp795
a(S'dried'
p796
I24
tp797
a(S'front'
p798
I24
tp799
a(S'hills.\x94'
p800
I24
tp801
a(S'information'
p802
I24
tp803
a(S'lastly'
p804
I24
tp805
a(S'limited'
p806
I24
tp807
a(S'matter'
p808
I24
tp809
a(S'mph'
p810
I24
tp811
a(S'nice'
p812
I24
tp813
a(S'physical'
p814
I24
tp815
a(S'porches'
p816
I24
tp817
a(S'reaches'
p818
I24
tp819
a(S'rings'
p820
I24
tp821
a(S'rushing'
p822
I24
tp823
a(S'scared'
p824
I24
tp825
a(S'shade'
p826
I24
tp827
a(S'shortcut'
p828
I24
tp829
a(S'somewhere'
p830
I24
tp831
a(S'survive'
p832
I24
tp833
a(S'tells'
p834
I24
tp835
a(S'though'
p836
I24
tp837
a(S'worried'
p838
I24
tp839
a(S'believe'
p840
I23
tp841
a(S'best'
p842
I23
tp843
a(S'better'
p844
I23
tp845
a(S'causes'
p846
I23
tp847
a(S'died'
p848
I23
tp849
a(S'hitting'
p850
I23
tp851
a(S'knows'
p852
I23
tp853
a(S'legs'
p854
I23
tp855
a(S'narrator'
p856
I23
tp857
a(S'picture'
p858
I23
tp859
a(S'scenery'
p860
I23
tp861
a(S'thinking'
p862
I23
tp863
a(S'thinks'
p864
I23
tp865
a(S'working'
p866
I23
tp867
a(S'\x93there'
p868
I23
tp869
a(S'???'
p870
I22
tp871
a(S'face'
p872
I22
tp873
a(S'head'
p874
I22
tp875
a(S'important'
p876
I22
tp877
a(S'instead'
p878
I22
tp879
a(S'kind'
p880
I22
tp881
a(S'look'
p882
I22
tp883
a(S'nowhere'
p884
I22
tp885
a(S'positive'
p886
I22
tp887
a(S'reach'
p888
I22
tp889
a(S'reason'
p890
I22
tp891
a(S'runs'
p892
I22
tp893
a(S'smooth'
p894
I22
tp895
a(S'throughout'
p896
I22
tp897
a(S'water.the'
p898
I22
tp899
a(S'exhausted'
p900
I21
tp901
a(S'explains'
p902
I21
tp903
a(S'gorgeous'
p904
I21
tp905
a(S'him.the'
p906
I21
tp907
a(S'hit'
p908
I21
tp909
a(S'longer'
p910
I21
tp911
a(S'major'
p912
I21
tp913
a(S'near'
p914
I21
tp915
a(S'pebbles'
p916
I21
tp917
a(S'route'
p918
I21
tp919
a(S'seemed'
p920
I21
tp921
a(S'sometimes'
p922
I21
tp923
a(S'stones'
p924
I21
tp925
a(S'tasted'
p926
I21
tp927
a(S'\x93this'
p928
I21
tp929
a(S'12'
p930
I20
tp931
a(S'amount'
p932
I20
tp933
a(S'bottle'
p934
I20
tp935
a(S'circled'
p936
I20
tp937
a(S'degrees'
p938
I20
tp939
a(S'excited'
p940
I20
tp941
a(S'extreme'
p942
I20
tp943
a(S'factor'
p944
I20
tp945
a(S'fear'
p946
I20
tp947
a(S'handle'
p948
I20
tp949
a(S'hes'
p950
I20
tp951
a(S'hopeless'
p952
I20
tp953
a(S'losing'
p954
I20
tp955
a(S'neighborhood'
p956
I20
tp957
a(S'older'
p958
I20
tp959
a(S'physically'
p960
I20
tp961
a(S'porch'
p962
I20
tp963
a(S'ramshackle'
p964
I20
tp965
a(S'rides'
p966
I20
tp967
a(S'second'
p968
I20
tp969
a(S'seen'
p970
I20
tp971
a(S'talking'
p972
I20
tp973
a(S'that\x92s'
p974
I20
tp975
a(S'try'
p976
I20
tp977
a(S'us'
p978
I20
tp979
a(S'wanted'
p980
I20
tp981
a(S'whole'
p982
I20
tp983
a(S'attitude'
p984
I19
tp985
a(S'causing'
p986
I19
tp987
a(S'continue'
p988
I19
tp989
a(S'corral'
p990
I19
tp991
a(S'eased'
p992
I19
tp993
a(S'eyes'
p994
I19
tp995
a(S'giving'
p996
I19
tp997
a(S'ground'
p998
I19
tp999
a(S'guys'
p1000
I19
tp1001
a(S'harsh'
p1002
I19
tp1003
a(S'location1'
p1004
I19
tp1005
a(S'mental'
p1006
I19
tp1007
a(S'mentally'
p1008
I19
tp1009
a(S'num2'
p1010
I19
tp1011
a(S'passed'
p1012
I19
tp1013
a(S'real'
p1014
I19
tp1015
a(S'relieved'
p1016
I19
tp1017
a(S'set'
p1018
I19
tp1019
a(S'situation'
p1020
I19
tp1021
a(S'substance'
p1022
I19
tp1023
a(S'written'
p1024
I19
tp1025
a(S'blocked'
p1026
I18
tp1027
a(S'cut'
p1028
I18
tp1029
a(S'cycle'
p1030
I18
tp1031
a(S'desperate'
p1032
I18
tp1033
a(S'environment'
p1034
I18
tp1035
a(S'eventually'
p1036
I18
tp1037
a(S'fine'
p1038
I18
tp1039
a(S'hills\x94'
p1040
I18
tp1041
a(S'landscape'
p1042
I18
tp1043
a(S'pedaling'
p1044
I18
tp1045
a(S'reading'
p1046
I18
tp1047
a(S'someone'
p1048
I18
tp1049
a(S'surroundings'
p1050
I18
tp1051
a(S'sweating'
p1052
I18
tp1053
a(S'timers'
p1054
I18
tp1055
a(S'years'
p1056
I18
tp1057
a(S'young'
p1058
I18
tp1059
a(S'55'
p1060
I17
tp1061
a(S'??'
p1062
I17
tp1063
a(S'already'
p1064
I17
tp1065
a(S'ask'
p1066
I17
tp1067
a(S'asked'
p1068
I17
tp1069
a(S'bit'
p1070
I17
tp1071
a(S'can\x92t'
p1072
I17
tp1073
a(S'cold'
p1074
I17
tp1075
a(S'coming'
p1076
I17
tp1077
a(S'confines'
p1078
I17
tp1079
a(S'continues'
p1080
I17
tp1081
a(S'death'
p1082
I17
tp1083
a(S'dehydrate'
p1084
I17
tp1085
a(S'hotter'
p1086
I17
tp1087
a(S'hurt'
p1088
I17
tp1089
a(S'new'
p1090
I17
tp1091
a(S'refreshing'
p1092
I17
tp1093
a(S'rest'
p1094
I17
tp1095
a(S'sips'
p1096
I17
tp1097
a(S'sips.\x94'
p1098
I17
tp1099
a(S'small'
p1100
I17
tp1101
a(S'spot'
p1102
I17
tp1103
a(S'starting'
p1104
I17
tp1105
a(S'sucking'
p1106
I17
tp1107
a(S'therefore'
p1108
I17
tp1109
a(S'traditional'
p1110
I17
tp1111
a(S'trees'
p1112
I17
tp1113
a(S'turned'
p1114
I17
tp1115
a(S'weeds'
p1116
I17
tp1117
a(S'world'
p1118
I17
tp1119
a(S'\x93ghost'
p1120
I17
tp1121
a(S'conserve'
p1122
I16
tp1123
a(S'despair'
p1124
I16
tp1125
a(S'easily'
p1126
I16
tp1127
a(S'ever'
p1128
I16
tp1129
a(S'glass'
p1130
I16
tp1131
a(S'guy'
p1132
I16
tp1133
a(S'led'
p1134
I16
tp1135
a(S'listened'
p1136
I16
tp1137
a(S'negatively'
p1138
I16
tp1139
a(S'person1'
p1140
I16
tp1141
a(S'relief'
p1142
I16
tp1143
a(S'sad'
p1144
I16
tp1145
a(S'show'
p1146
I16
tp1147
a(S'times'
p1148
I16
tp1149
a(S'toll'
p1150
I16
tp1151
a(S'\x93it'
p1152
I16
tp1153
a(S'\x93wide'
p1154
I16
tp1155
a(S'animals'
p1156
I15
tp1157
a(S'barely'
p1158
I15
tp1159
a(S'brackish'
p1160
I15
tp1161
a(S'couple'
p1162
I15
tp1163
a(S'either'
p1164
I15
tp1165
a(S'fit'
p1166
I15
tp1167
a(S'flavor'
p1168
I15
tp1169
a(S'idea'
p1170
I15
tp1171
a(S'instance'
p1172
I15
tp1173
a(S'obstacle'
p1174
I15
tp1175
a(S'realized'
p1176
I15
tp1177
a(S'slow'
p1178
I15
tp1179
a(S'slowed'
p1180
I15
tp1181
a(S'slowly'
p1182
I15
tp1183
a(S'thriving'
p1184
I15
tp1185
a(S'weak'
p1186
I15
tp1187
a(S'\x96'
I15
tp1188
a(S'adventure'
p1189
I14
tp1190
a(S'anyone'
p1191
I14
tp1192
a(S'begin'
p1193
I14
tp1194
a(S'definition'
p1195
I14
tp1196
a(S'described'
p1197
I14
tp1198
a(S'early'
p1199
I14
tp1200
a(S'encounters'
p1201
I14
tp1202
a(S'ended'
p1203
I14
tp1204
a(S'examples'
p1205
I14
tp1206
a(S'finding'
p1207
I14
tp1208
a(S'helps'
p1209
I14
tp1210
a(S'learned'
p1211
I14
tp1212
a(S'listen'
p1213
I14
tp1214
a(S'looked'
p1215
I14
tp1216
a(S'maybe'
p1217
I14
tp1218
a(S'order'
p1219
I14
tp1220
a(S'passage'
p1221
I14
tp1222
a(S'rocks'
p1223
I14
tp1224
a(S'rusted'
p1225
I14
tp1226
a(S'shirt'
p1227
I14
tp1228
a(S'showing'
p1229
I14
tp1230
a(S'speaker'
p1231
I14
tp1232
a(S'start'
p1233
I14
tp1234
a(S'survival'
p1235
I14
tp1236
a(S'tumble'
p1237
I14
tp1238
a(S'wiped'
p1239
I14
tp1240
a(S'ability'
p1241
I13
tp1242
a(S'accept'
p1243
I13
tp1244
a(S'clean.\x94'
p1245
I13
tp1246
a(S'cruel'
p1247
I13
tp1248
a(S'date1'
p1249
I13
tp1250
a(S'depleting'
p1251
I13
tp1252
a(S'experience'
p1253
I13
tp1254
a(S'hands'
p1255
I13
tp1256
a(S'highway'
p1257
I13
tp1258
a(S'hold'
p1259
I13
tp1260
a(S'hours'
p1261
I13
tp1262
a(S'knowing'
p1263
I13
tp1264
a(S'living'
p1265
I13
tp1266
a(S'looking'
p1267
I13
tp1268
a(S'mirage'
p1269
I13
tp1270
a(S'name'
p1271
I13
tp1272
a(S'nature'
p1273
I13
tp1274
a(S'old-timers'
p1275
I13
tp1276
a(S'passes'
p1277
I13
tp1278
a(S'rather'
p1279
I13
tp1280
a(S'reasons'
p1281
I13
tp1282
a(S'role'
p1283
I13
tp1284
a(S'sand'
p1285
I13
tp1286
a(S'taken'
p1287
I13
tp1288
a(S'towards'
p1289
I13
tp1290
a(S'town\x94'
p1291
I13
tp1292
a(S'turn'
p1293
I13
tp1294
a(S'wilber\x92s'
p1295
I13
tp1296
a(S'worry'
p1297
I13
tp1298
a(S'yet'
p1299
I13
tp1300
a(S'\x93one'
p1301
I13
tp1302
a(S'\x93short'
p1303
I13
tp1304
a(S'(@num1)'
p1305
I12
tp1306
a(S'although'
p1307
I12
tp1308
a(S'anywhere'
p1309
I12
tp1310
a(S'clean'
p1311
I12
tp1312
a(S'cyclist.in'
p1313
I12
tp1314
a(S'date'
p1315
I12
tp1316
a(S'diamond'
p1317
I12
tp1318
a(S'easier'
p1319
I12
tp1320
a(S'fishing'
p1321
I12
tp1322
a(S'fork'
p1323
I12
tp1324
a(S'forty'
p1325
I12
tp1326
a(S'hadn\x92t'
p1327
I12
tp1328
a(S'he/she'
p1329
I12
tp1330
a(S'helped'
p1331
I12
tp1332
a(S'horrible'
p1333
I12
tp1334
a(S'ironic'
p1335
I12
tp1336
a(S'i\x92d'
p1337
I12
tp1338
a(S'l'
I12
tp1339
a(S'lead'
p1340
I12
tp1341
a(S'let'
p1342
I12
tp1343
a(S'likely'
p1344
I12
tp1345
a(S'lots'
p1346
I12
tp1347
a(S'obviously'
p1348
I12
tp1349
a(S'overcome'
p1350
I12
tp1351
a(S'pouring'
p1352
I12
tp1353
a(S'pumped'
p1354
I12
tp1355
a(S'refill'
p1356
I12
tp1357
a(S'rocky'
p1358
I12
tp1359
a(S'self'
p1360
I12
tp1361
a(S'smile'
p1362
I12
tp1363
a(S'spirits'
p1364
I12
tp1365
a(S'stated'
p1366
I12
tp1367
a(S'story.the'
p1368
I12
tp1369
a(S'talks'
p1370
I12
tp1371
a(S'telling'
p1372
I12
tp1373
a(S'town.\x94'
p1374
I12
tp1375
a(S'troubles'
p1376
I12
tp1377
a(S'wants'
p1378
I12
tp1379
a(S'water-depleting'
p1380
I12
tp1381
a(S'windy'
p1382
I12
tp1383
a(S'\x93gary'
p1384
I12
tp1385
a(S'(kurmaskie)'
p1386
I11
tp1387
a(S'air'
p1388
I11
tp1389
a(S'behind'
p1390
I11
tp1391
a(S'bicycle'
p1392
I11
tp1393
a(S'clearly'
p1394
I11
tp1395
a(S'close'
p1396
I11
tp1397
a(S'completely'
p1398
I11
tp1399
a(S'conflict'
p1400
I11
tp1401
a(S'effort'
p1402
I11
tp1403
a(S'ends'
p1404
I11
tp1405
a(S'faces'
p1406
I11
tp1407
a(S'factors'
p1408
I11
tp1409
a(S'food'
p1410
I11
tp1411
a(S'gone'
p1412
I11
tp1413
a(S'happened'
p1414
I11
tp1415
a(S'hopelessness'
p1416
I11
tp1417
a(S'hopes'
p1418
I11
tp1419
a(S'hydrated'
p1420
I11
tp1421
a(S'impact'
p1422
I11
tp1423
a(S'isn\x92t'
p1424
I11
tp1425
a(S'keeps'
p1426
I11
tp1427
a(S'lamest'
p1428
I11
tp1429
a(S'looks'
p1430
I11
tp1431
a(S'move'
p1432
I11
tp1433
a(S'moved'
p1434
I11
tp1435
a(S'narration'
p1436
I11
tp1437
a(S'nearly'
p1438
I11
tp1439
a(S'nobody'
p1440
I11
tp1441
a(S'none'
p1442
I11
tp1443
a(S'notices'
p1444
I11
tp1445
a(S'often'
p1446
I11
tp1447
a(S'open'
p1448
I11
tp1449
a(S'pass'
p1450
I11
tp1451
a(S'plays'
p1452
I11
tp1453
a(S'push'
p1454
I11
tp1455
a(S'realizes'
p1456
I11
tp1457
a(S'save'
p1458
I11
tp1459
a(S'shape'
p1460
I11
tp1461
a(S'signs'
p1462
I11
tp1463
a(S'stay'
p1464
I11
tp1465
a(S'stick'
p1466
I11
tp1467
a(S'strain'
p1468
I11
tp1469
a(S'stuck'
p1470
I11
tp1471
a(S'surrounding'
p1472
I11
tp1473
a(S'thats'
p1474
I11
tp1475
a(S'travels'
p1476
I11
tp1477
a(S'troubling'
p1478
I11
tp1479
a(S'turns'
p1480
I11
tp1481
a(S'uses'
p1482
I11
tp1483
a(S'usually'
p1484
I11
tp1485
a(S'words'
p1486
I11
tp1487
a(S'\x93at'
p1488
I11
tp1489
a(S'alive'
p1490
I10
tp1491
a(S'angry'
p1492
I10
tp1493
a(S'anymore'
p1494
I10
tp1495
a(S'bathroom'
p1496
I10
tp1497
a(S'begining'
p1498
I10
tp1499
a(S'believed'
p1500
I10
tp1501
a(S'biggest'
p1502
I10
tp1503
a(S'bottling'
p1504
I10
tp1505
a(S'bump'
p1506
I10
tp1507
a(S'challenges'
p1508
I10
tp1509
a(S'challenging'
p1510
I10
tp1511
a(S'considering'
p1512
I10
tp1513
a(S'cross'
p1514
I10
tp1515
a(S"cyclist's"
p1516
I10
tp1517
a(S'decades'
p1518
I10
tp1519
a(S'decided'
p1520
I10
tp1521
a(S'degrees.\x94'
p1522
I10
tp1523
a(S'dehydrating'
p1524
I10
tp1525
a(S'didnt'
p1526
I10
tp1527
a(S'drinks'
p1528
I10
tp1529
a(S'encounter'
p1530
I10
tp1531
a(S'fall'
p1532
I10
tp1533
a(S'frustrated'
p1534
I10
tp1535
a(S'gary'
p1536
I10
tp1537
a(S'happen'
p1538
I10
tp1539
a(S'kind.\x94'
p1540
I10
tp1541
a(S'knees'
p1542
I10
tp1543
a(S'moving'
p1544
I10
tp1545
a(S'oozed'
p1546
I10
tp1547
a(S'organization1'
p1548
I10
tp1549
a(S'played'
p1550
I10
tp1551
a(S'plenty'
p1552
I10
tp1553
a(S'poisonous'
p1554
I10
tp1555
a(S'proves'
p1556
I10
tp1557
a(S'puts'
p1558
I10
tp1559
a(S'ready'
p1560
I10
tp1561
a(S'showed'
p1562
I10
tp1563
a(S'side'
p1564
I10
tp1565
a(S'source'
p1566
I10
tp1567
a(S'state.\x94'
p1568
I10
tp1569
a(S'stops'
p1570
I10
tp1571
a(S'tar'
p1572
I10
tp1573
a(S'temperatures'
p1574
I10
tp1575
a(S'thoughts'
p1576
I10
tp1577
a(S'tiring'
p1578
I10
tp1579
a(S'using'
p1580
I10
tp1581
a(S'wide'
p1582
I10
tp1583
a(S'\x93old'
p1584
I10
tp1585
a(S'\x93shortcut\x94'
p1586
I10
tp1587
a(S'\x93with'
p1588
I10
tp1589
a(S'-'
I9
tp1590
a(S'acid.\x94'
p1591
I9
tp1592
a(S'adds'
p1593
I9
tp1594
a(S'care'
p1595
I9
tp1596
a(S'case'
p1597
I9
tp1598
a(S'certain'
p1599
I9
tp1600
a(S'discouraged'
p1601
I9
tp1602
a(S'else'
p1603
I9
tp1604
a(S'encountered'
p1605
I9
tp1606
a(S'entire'
p1607
I9
tp1608
a(S'final'
p1609
I9
tp1610
a(S'forest'
p1611
I9
tp1612
a(S'gotten'
p1613
I9
tp1614
a(S'he\x92d'
p1615
I9
tp1616
a(S'house'
p1617
I9
tp1618
a(S'humid'
p1619
I9
tp1620
a(S'kind\x94'
p1621
I9
tp1622
a(S'kurmaskie\x92s'
p1623
I9
tp1624
a(S'leaving'
p1625
I9
tp1626
a(S'lodi'
p1627
I9
tp1628
a(S'me.\x94'
p1629
I9
tp1630
a(S'mirages'
p1631
I9
tp1632
a(S'month'
p1633
I9
tp1634
a(S'mountains'
p1635
I9
tp1636
a(S'office.\x94'
p1637
I9
tp1638
a(S'office\x94'
p1639
I9
tp1640
a(S'ones'
p1641
I9
tp1642
a(S'others'
p1643
I9
tp1644
a(S'pain'
p1645
I9
tp1646
a(S'passing'
p1647
I9
tp1648
a(S'river'
p1649
I9
tp1650
a(S'sentence'
p1651
I9
tp1652
a(S'shouldn\x92t'
p1653
I9
tp1654
a(S'sounds'
p1655
I9
tp1656
a(S'spit'
p1657
I9
tp1658
a(S'statement'
p1659
I9
tp1660
a(S'tarlike'
p1661
I9
tp1662
a(S'tastes'
p1663
I9
tp1664
a(S'third'
p1665
I9
tp1666
a(S'three'
p1667
I9
tp1668
a(S'troubled'
p1669
I9
tp1670
a(S'trust'
p1671
I9
tp1672
a(S'twenty'
p1673
I9
tp1674
a(S'type'
p1675
I9
tp1676
a(S'weren\x92t'
p1677
I9
tp1678
a(S'writes'
p1679
I9
tp1680
a(S'year'
p1681
I9
tp1682
a(S'\x93and'
p1683
I9
tp1684
a(S'\x93not'
p1685
I9
tp1686
a(S'\x93over'
p1687
I9
tp1688
a(S'abandon'
p1689
I8
tp1690
a(S'barren'
p1691
I8
tp1692
a(S'black'
p1693
I8
tp1694
a(S'bumps'
p1695
I8
tp1696
a(S'chance'
p1697
I8
tp1698
a(S'checked'
p1699
I8
tp1700
a(S'climb'
p1701
I8
tp1702
a(S'collection'
p1703
I8
tp1704
a(S'cooler'
p1705
I8
tp1706
a(S'crazy'
p1707
I8
tp1708
a(S'cycleist'
p1709
I8
tp1710
a(S'dangers'
p1711
I8
tp1712
a(S'disappointed'
p1713
I8
tp1714
a(S'doubtful'
p1715
I8
tp1716
a(S'down\x94'
p1717
I8
tp1718
a(S'elements'
p1719
I8
tp1720
a(S'emotionally'
p1721
I8
tp1722
a(S'endure'
p1723
I8
tp1724
a(S'except'
p1725
I8
tp1726
a(S'experienced'
p1727
I8
tp1728
a(S'filled'
p1729
I8
tp1730
a(S'fresh'
p1731
I8
tp1732
a(S'full'
p1733
I8
tp1734
a(S'group'
p1735
I8
tp1736
a(S'hill.\x94'
p1737
I8
tp1738
a(S'hills,\x94'
p1739
I8
tp1740
a(S'horizon'
p1741
I8
tp1742
a(S'hour'
p1743
I8
tp1744
a(S'hung'
p1745
I8
tp1746
a(S'intense'
p1747
I8
tp1748
a(S'i\x92m'
p1749
I8
tp1750
a(S'killed'
p1751
I8
tp1752
a(S'laugh'
p1753
I8
tp1754
a(S'lesson'
p1755
I8
tp1756
a(S'lets'
p1757
I8
tp1758
a(S'listening'
p1759
I8
tp1760
a(S'lonely'
p1761
I8
tp1762
a(S'loss'
p1763
I8
tp1764
a(S'luckily'
p1765
I8
tp1766
a(S'mad'
p1767
I8
tp1768
a(S'mean'
p1769
I8
tp1770
a(S'met'
p1771
I8
tp1772
a(S'mule'
p1773
I8
tp1774
a(S'page'
p1775
I8
tp1776
a(S'play'
p1777
I8
tp1778
a(S'plus'
p1779
I8
tp1780
a(S'possibly'
p1781
I8
tp1782
a(S'quite'
p1783
I8
tp1784
a(S'reaching'
p1785
I8
tp1786
a(S'safe'
p1787
I8
tp1788
a(S'saved'
p1789
I8
tp1790
a(S'scorching'
p1791
I8
tp1792
a(S'section'
p1793
I8
tp1794
a(S'setting.the'
p1795
I8
tp1796
a(S'simply'
p1797
I8
tp1798
a(S'stopped'
p1799
I8
tp1800
a(S'suck'
p1801
I8
tp1802
a(S'upset'
p1803
I8
tp1804
a(S'walk'
p1805
I8
tp1806
a(S'warm'
p1807
I8
tp1808
a(S'worn'
p1809
I8
tp1810
a(S'yes'
p1811
I8
tp1812
a(S'\x93@caps1'
p1813
I8
tp1814
a(S'+'
I7
tp1815
a(S'actually'
p1816
I7
tp1817
a(S'added'
p1818
I7
tp1819
a(S'adding'
p1820
I7
tp1821
a(S'areas'
p1822
I7
tp1823
a(S'arrives'
p1824
I7
tp1825
a(S'authors'
p1826
I7
tp1827
a(S'aware'
p1828
I7
tp1829
a(S'basically'
p1830
I7
tp1831
a(S'bring'
p1832
I7
tp1833
a(S'campground'
p1834
I7
tp1835
a(S'camp\x94'
p1836
I7
tp1837
a(S'cannot'
p1838
I7
tp1839
a(S'challenge'
p1840
I7
tp1841
a(S'clear'
p1842
I7
tp1843
a(S'created'
p1844
I7
tp1845
a(S'cycled'
p1846
I7
tp1847
a(S'cyclsit'
p1848
I7
tp1849
a(S'danger'
p1850
I7
tp1851
a(S'describing'
p1852
I7
tp1853
a(S'description'
p1854
I7
tp1855
a(S"didn't"
p1856
I7
tp1857
a(S'difficulty'
p1858
I7
tp1859
a(S'dirt'
p1860
I7
tp1861
a(S'distance'
p1862
I7
tp1863
a(S'distances'
p1864
I7
tp1865
a(S'earlier'
p1866
I7
tp1867
a(S'exhaustion'
p1868
I7
tp1869
a(S'experiences'
p1870
I7
tp1871
a(S'face.\x94'
p1872
I7
tp1873
a(S'feelings'
p1874
I7
tp1875
a(S'follow'
p1876
I7
tp1877
a(S'following'
p1878
I7
tp1879
a(S'forever'
p1880
I7
tp1881
a(S'furthermore'
p1882
I7
tp1883
a(S'gentlemen'
p1884
I7
tp1885
a(S'goal'
p1886
I7
tp1887
a(S'hardly'
p1888
I7
tp1889
a(S'hardships'
p1890
I7
tp1891
a(S"he's"
p1892
I7
tp1893
a(S'human'
p1894
I7
tp1895
a(S'humidity'
p1896
I7
tp1897
a(S'include'
p1898
I7
tp1899
a(S'journey.the'
p1900
I7
tp1901
a(S'jumped'
p1902
I7
tp1903
a(S'knowledge'
p1904
I7
tp1905
a(S'leads'
p1906
I7
tp1907
a(S'level'
p1908
I7
tp1909
a(S'limits'
p1910
I7
tp1911
a(S'line'
p1912
I7
tp1913
a(S'live'
p1914
I7
tp1915
a(S'location2'
p1916
I7
tp1917
a(S'luck'
p1918
I7
tp1919
a(S'map.the'
p1920
I7
tp1921
a(S'meaning'
p1922
I7
tp1923
a(S'mostly'
p1924
I7
tp1925
a(S'office'
p1926
I7
tp1927
a(S'piece'
p1928
I7
tp1929
a(S'rate'
p1930
I7
tp1931
a(S'relax'
p1932
I7
tp1933
a(S'sets'
p1934
I7
tp1935
a(S'sick'
p1936
I7
tp1937
a(S'similar'
p1938
I7
tp1939
a(S'slower'
p1940
I7
tp1941
a(S'snake\x94'
p1942
I7
tp1943
a(S'snow'
p1944
I7
tp1945
a(S'sorry'
p1946
I7
tp1947
a(S'steep'
p1948
I7
tp1949
a(S'straight'
p1950
I7
tp1951
a(S'strongly'
p1952
I7
tp1953
a(S'struggle'
p1954
I7
tp1955
a(S'suffer'
p1956
I7
tp1957
a(S'sunny'
p1958
I7
tp1959
a(S'supplies'
p1960
I7
tp1961
a(S'survived'
p1962
I7
tp1963
a(S'sweaty'
p1964
I7
tp1965
a(S'tone'
p1966
I7
tp1967
a(S'view'
p1968
I7
tp1969
a(S'wild'
p1970
I7
tp1971
a(S'\x93i\x92d'
p1972
I7
tp1973
a(S'\x93never'
p1974
I7
tp1975
a(S'\x93sometimes'
p1976
I7
tp1977
a(S'\x93tumbleweeds'
p1978
I7
tp1979
a(S'add'
p1980
I6
tp1981
a(S'addition'
p1982
I6
tp1983
a(S'author\x92s'
p1984
I6
tp1985
a(S'believes'
p1986
I6
tp1987
a(S'believing'
p1988
I6
tp1989
a(S'bend'
p1990
I6
tp1991
a(S'brain'
p1992
I6
tp1993
a(S'breeze'
p1994
I6
tp1995
a(S'brought'
p1996
I6
tp1997
a(S'burst'
p1998
I6
tp1999
a(S'calm'
p2000
I6
tp2001
a(S'careful'
p2002
I6
tp2003
a(S'carry'
p2004
I6
tp2005
a(S'choice'
p2006
I6
tp2007
a(S'contributed'
p2008
I6
tp2009
a(S'control'
p2010
I6
tp2011
a(S'cruel.\x94'
p2012
I6
tp2013
a(S'cruel\x94'
p2014
I6
tp2015
a(S'dead'
p2016
I6
tp2017
a(S'decides'
p2018
I6
tp2019
a(S'dehydrates'
p2020
I6
tp2021
a(S'desperation'
p2022
I6
tp2023
a(S'desserted'
p2024
I6
tp2025
a(S'deteriorating'
p2026
I6
tp2027
a(S'dieing'
p2028
I6
tp2029
a(S'done'
p2030
I6
tp2031
a(S'dryness'
p2032
I6
tp2033
a(S'eighteen'
p2034
I6
tp2035
a(S'elderly'
p2036
I6
tp2037
a(S'elevation'
p2038
I6
tp2039
a(S'enjoyable'
p2040
I6
tp2041
a(S'enjoyed'
p2042
I6
tp2043
a(S'evening'
p2044
I6
tp2045
a(S'expected'
p2046
I6
tp2047
a(S'explaining'
p2048
I6
tp2049
a(S'focus'
p2050
I6
tp2051
a(S'forced'
p2052
I6
tp2053
a(S'free'
p2054
I6
tp2055
a(S'gonna'
p2056
I6
tp2057
a(S'greeted'
p2058
I6
tp2059
a(S'heard'
p2060
I6
tp2061
a(S'heatstroke.\x94'
p2062
I6
tp2063
a(S'hill\x94'
p2064
I6
tp2065
a(S'home'
p2066
I6
tp2067
a(S'hoping'
p2068
I6
tp2069
a(S'image'
p2070
I6
tp2071
a(S'including'
p2072
I6
tp2073
a(S'inner'
p2074
I6
tp2075
a(S'kill'
p2076
I6
tp2077
a(S'lodge'
p2078
I6
tp2079
a(S'loses'
p2080
I6
tp2081
a(S'lower'
p2082
I6
tp2083
a(S'man\x92s'
p2084
I6
tp2085
a(S'mens'
p2086
I6
tp2087
a(S'modern'
p2088
I6
tp2089
a(S'nearby'
p2090
I6
tp2091
a(S'num2)'
p2092
I6
tp2093
a(S'offered'
p2094
I6
tp2095
a(S'panic'
p2096
I6
tp2097
a(S'pine'
p2098
I6
tp2099
a(S'points'
p2100
I6
tp2101
a(S'poor'
p2102
I6
tp2103
a(S'possibility'
p2104
I6
tp2105
a(S'prepared'
p2106
I6
tp2107
a(S'rain'
p2108
I6
tp2109
a(S'realize'
p2110
I6
tp2111
a(S'response'
p2112
I6
tp2113
a(S'secondly'
p2114
I6
tp2115
a(S'sink'
p2116
I6
tp2117
a(S'solo'
p2118
I6
tp2119
a(S'spirit'
p2120
I6
tp2121
a(S'stuff'
p2122
I6
tp2123
a(S'support'
p2124
I6
tp2125
a(S'tall'
p2126
I6
tp2127
a(S'task'
p2128
I6
tp2129
a(S'top'
p2130
I6
tp2131
a(S'truly'
p2132
I6
tp2133
a(S'twist'
p2134
I6
tp2135
a(S'uncomfortable'
p2136
I6
tp2137
a(S"wasn't"
p2138
I6
tp2139
a(S'welches'
p2140
I6
tp2141
a(S'wich'
p2142
I6
tp2143
a(S'winding'
p2144
I6
tp2145
a(S'word'
p2146
I6
tp2147
a(S'would\x92ve'
p2148
I6
tp2149
a(S'\x93high'
p2150
I6
tp2151
a(S'\x93that'
p2152
I6
tp2153
a(S'\x93traveling'
p2154
I6
tp2155
a(S'\x93trying'
p2156
I6
tp2157
a(S"''i"
p2158
I5
tp2159
a(S'[his]'
p2160
I5
tp2161
a(S'abanded'
p2162
I5
tp2163
a(S'activity'
p2164
I5
tp2165
a(S'advise'
p2166
I5
tp2167
a(S'ahead;'
p2168
I5
tp2169
a(S'allowing'
p2170
I5
tp2171
a(S'atleast'
p2172
I5
tp2173
a(S'b/c'
p2174
I5
tp2175
a(S'beautiful'
p2176
I5
tp2177
a(S'biked'
p2178
I5
tp2179
a(S'breaking'
p2180
I5
tp2181
a(S'bright'
p2182
I5
tp2183
a(S'buy'
p2184
I5
tp2185
a(S'cant'
p2186
I5
tp2187
a(S'comfortable'
p2188
I5
tp2189
a(S'complete'
p2190
I5
tp2191
a(S'continued'
p2192
I5
tp2193
a(S'courage'
p2194
I5
tp2195
a(S'cyclistthe'
p2196
I5
tp2197
a(S'days'
p2198
I5
tp2199
a(S'deadly'
p2200
I5
tp2201
a(S'deeply'
p2202
I5
tp2203
a(S'definitely'
p2204
I5
tp2205
a(S'degree'
p2206
I5
tp2207
a(S'dehidrated'
p2208
I5
tp2209
a(S'dehydration.the'
p2210
I5
tp2211
a(S'describe'
p2212
I5
tp2213
a(S'desolate'
p2214
I5
tp2215
a(S'desserts'
p2216
I5
tp2217
a(S'diamondback'
p2218
I5
tp2219
a(S'directly'
p2220
I5
tp2221
a(S'doubts'
p2222
I5
tp2223
a(S'down.\x94'
p2224
I5
tp2225
a(S'drive'
p2226
I5
tp2227
a(S'dying'
p2228
I5
tp2229
a(S'effecting'
p2230
I5
tp2231
a(S'entry'
p2232
I5
tp2233
a(S'etc'
p2234
I5
tp2235
a(S'events'
p2236
I5
tp2237
a(S'everywhere'
p2238
I5
tp2239
a(S'exactly'
p2240
I5
tp2241
a(S'false'
p2242
I5
tp2243
a(S'finish'
p2244
I5
tp2245
a(S'folks'
p2246
I5
tp2247
a(S'frightened'
p2248
I5
tp2249
a(S'gaining'
p2250
I5
tp2251
a(S'hand'
p2252
I5
tp2253
a(S'health'
p2254
I5
tp2255
a(S'heatstroke\x94'
p2256
I5
tp2257
a(S'imagine'
p2258
I5
tp2259
a(S'inside'
p2260
I5
tp2261
a(S'insight'
p2262
I5
tp2263
a(S'isolation'
p2264
I5
tp2265
a(S'it.\x94'
p2266
I5
tp2267
a(S'job'
p2268
I5
tp2269
a(S'known'
p2270
I5
tp2271
a(S'location'
p2272
I5
tp2273
a(S'mans'
p2274
I5
tp2275
a(S'maps'
p2276
I5
tp2277
a(S'meant'
p2278
I5
tp2279
a(S'mention'
p2280
I5
tp2281
a(S'mentioned'
p2282
I5
tp2283
a(S'men\x92s'
p2284
I5
tp2285
a(S'minutes'
p2286
I5
tp2287
a(S'num3)'
p2288
I5
tp2289
a(S'opinion'
p2290
I5
tp2291
a(S'outdated'
p2292
I5
tp2293
a(S'overall'
p2294
I5
tp2295
a(S'per'
p2296
I5
tp2297
a(S'pg'
p2298
I5
tp2299
a(S'plan'
p2300
I5
tp2301
a(S'plant'
p2302
I5
tp2303
a(S'possible'
p2304
I5
tp2305
a(S'present'
p2306
I5
tp2307
a(S'pushing'
p2308
I5
tp2309
a(S'quicker'
p2310
I5
tp2311
a(S'readers'
p2312
I5
tp2313
a(S'realy'
p2314
I5
tp2315
a(S'refreshed'
p2316
I5
tp2317
a(S'relaxed'
p2318
I5
tp2319
a(S'relived'
p2320
I5
tp2321
a(S'reservoir'
p2322
I5
tp2323
a(S'ride.the'
p2324
I5
tp2325
a(S'rideing'
p2326
I5
tp2327
a(S'rodes'
p2328
I5
tp2329
a(S'roughness'
p2330
I5
tp2331
a(S'search'
p2332
I5
tp2333
a(S'serious'
p2334
I5
tp2335
a(S'seriously'
p2336
I5
tp2337
a(S'shown'
p2338
I5
tp2339
a(S'sips\x94'
p2340
I5
tp2341
a(S'situations'
p2342
I5
tp2343
a(S'speeding'
p2344
I5
tp2345
a(S'stress'
p2346
I5
tp2347
a(S'supply.the'
p2348
I5
tp2349
a(S'supports'
p2350
I5
tp2351
a(S'talk'
p2352
I5
tp2353
a(S'theres'
p2354
I5
tp2355
a(S'thier'
p2356
I5
tp2357
a(S'throat'
p2358
I5
tp2359
a(S'tire'
p2360
I5
tp2361
a(S'together'
p2362
I5
tp2363
a(S'tougher'
p2364
I5
tp2365
a(S'toward'
p2366
I5
tp2367
a(S'tricks'
p2368
I5
tp2369
a(S'tries'
p2370
I5
tp2371
a(S'true'
p2372
I5
tp2373
a(S'way.the'
p2374
I5
tp2375
a(S'whether'
p2376
I5
tp2377
a(S'wildlife'
p2378
I5
tp2379
a(S'witch'
p2380
I5
tp2381
a(S'worst'
p2382
I5
tp2383
a(S"wouldn't"
p2384
I5
tp2385
a(S'you\x92re'
p2386
I5
tp2387
a(S'\x93no'
p2388
I5
tp2389
a(S'\x93old-timers'
p2390
I5
tp2391
a(S'\x93ramshackle'
p2392
I5
tp2393
a(S'\x93water'
p2394
I5
tp2395
a(S'\x93when'
p2396
I5
tp2397
a(S'(@num2)'
p2398
I4
tp2399
a(S'(@person1)'
p2400
I4
tp2401
a(S'?'
I4
tp2402
a(S'abondoned'
p2403
I4
tp2404
a(S'according'
p2405
I4
tp2406
a(S'anger'
p2407
I4
tp2408
a(S'anybody'
p2409
I4
tp2410
a(S'arid'
p2411
I4
tp2412
a(S'asks'
p2413
I4
tp2414
a(S'aspect'
p2415
I4
tp2416
a(S'avoid'
p2417
I4
tp2418
a(S'awful'
p2419
I4
tp2420
a(S'based'
p2421
I4
tp2422
a(S'bigger'
p2423
I4
tp2424
a(S'bikerider'
p2425
I4
tp2426
a(S'bitten'
p2427
I4
tp2428
a(S'blackish'
p2429
I4
tp2430
a(S'blasted'
p2431
I4
tp2432
a(S'blocking'
p2433
I4
tp2434
a(S'break'
p2435
I4
tp2436
a(S'bumby'
p2437
I4
tp2438
a(S'bunch'
p2439
I4
tp2440
a(S'burning'
p2441
I4
tp2442
a(S'business'
p2443
I4
tp2444
a(S'called'
p2445
I4
tp2446
a(S'calls'
p2447
I4
tp2448
a(S'characters'
p2449
I4
tp2450
a(S'chuckled'
p2451
I4
tp2452
a(S'closer'
p2453
I4
tp2454
a(S'consciousness'
p2455
I4
tp2456
a(S'covered'
p2457
I4
tp2458
a(S'cut\x94'
p2459
I4
tp2460
a(S'cyclest'
p2461
I4
tp2462
a(S'definetly'
p2463
I4
tp2464
a(S'depending'
p2465
I4
tp2466
a(S'depleted'
p2467
I4
tp2468
a(S'desert-like'
p2469
I4
tp2470
a(S'desparate'
p2471
I4
tp2472
a(S'determine'
p2473
I4
tp2474
a(S'did.the'
p2475
I4
tp2476
a(S'directions.the'
p2477
I4
tp2478
a(S'discouraging'
p2479
I4
tp2480
a(S'dont'
p2481
I4
tp2482
a(S'dreams'
p2483
I4
tp2484
a(S'driving'
p2485
I4
tp2486
a(S'drunk'
p2487
I4
tp2488
a(S'eager'
p2489
I4
tp2490
a(S'eat'
p2491
I4
tp2492
a(S'element'
p2493
I4
tp2494
a(S'emotions'
p2495
I4
tp2496
a(S'emptiness'
p2497
I4
tp2498
a(S'end.the'
p2499
I4
tp2500
a(S'enters'
p2501
I4
tp2502
a(S'evening.\x94'
p2503
I4
tp2504
a(S'everyone'
p2505
I4
tp2506
a(S'explain'
p2507
I4
tp2508
a(S'expressed'
p2509
I4
tp2510
a(S'extra'
p2511
I4
tp2512
a(S'facing'
p2513
I4
tp2514
a(S'factories'
p2515
I4
tp2516
a(S'farther'
p2517
I4
tp2518
a(S'fatal'
p2519
I4
tp2520
a(S'follows'
p2521
I4
tp2522
a(S'force'
p2523
I4
tp2524
a(S'forward'
p2525
I4
tp2526
a(S'gear'
p2527
I4
tp2528
a(S'greatest'
p2529
I4
tp2530
a(S'half'
p2531
I4
tp2532
a(S'happens'
p2533
I4
tp2534
a(S'harder.the'
p2535
I4
tp2536
a(S'hardest'
p2537
I4
tp2538
a(S'harm'
p2539
I4
tp2540
a(S'hasn\x92t'
p2541
I4
tp2542
a(S'heatsroke'
p2543
I4
tp2544
a(S'helping'
p2545
I4
tp2546
a(S'him.in'
p2547
I4
tp2548
a(S'himself.the'
p2549
I4
tp2550
a(S'his/her'
p2551
I4
tp2552
a(S'hopeful'
p2553
I4
tp2554
a(S'hope\x94'
p2555
I4
tp2556
a(S'houses'
p2557
I4
tp2558
a(S'humor'
p2559
I4
tp2560
a(S'impacted'
p2561
I4
tp2562
a(S'implied'
p2563
I4
tp2564
a(S'in.the'
p2565
I4
tp2566
a(S'included'
p2567
I4
tp2568
a(S'increased'
p2569
I4
tp2570
a(S'interesting'
p2571
I4
tp2572
a(S'irony'
p2573
I4
tp2574
a(S'issue'
p2575
I4
tp2576
a(S'issues'
p2577
I4
tp2578
a(S'it.the'
p2579
I4
tp2580
a(S'keeping'
p2581
I4
tp2582
a(S'kiss'
p2583
I4
tp2584
a(S'least'
p2585
I4
tp2586
a(S'leave'
p2587
I4
tp2588
a(S'leaves'
p2589
I4
tp2590
a(S'liquid'
p2591
I4
tp2592
a(S'lucky'
p2593
I4
tp2594
a(S'maneuvered'
p2595
I4
tp2596
a(S'mentally.the'
p2597
I4
tp2598
a(S'me\x94'
p2599
I4
tp2600
a(S'mid'
p2601
I4
tp2602
a(S'miserable'
p2603
I4
tp2604
a(S'moves'
p2605
I4
tp2606
a(S'nervous'
p2607
I4
tp2608
a(S'normal'
p2609
I4
tp2610
a(S'normally'
p2611
I4
tp2612
a(S'notice'
p2613
I4
tp2614
a(S'num3'
p2615
I4
tp2616
a(S'obvious'
p2617
I4
tp2618
a(S'on.the'
p2619
I4
tp2620
a(S'outdoor'
p2621
I4
tp2622
a(S'overcame'
p2623
I4
tp2624
a(S'parts'
p2625
I4
tp2626
a(S'performance'
p2627
I4
tp2628
a(S'person2'
p2629
I4
tp2630
a(S'pipes'
p2631
I4
tp2632
a(S'power'
p2633
I4
tp2634
a(S'presents'
p2635
I4
tp2636
a(S'promised'
p2637
I4
tp2638
a(S'pushed'
p2639
I4
tp2640
a(S'question'
p2641
I4
tp2642
a(S'reads'
p2643
I4
tp2644
a(S'remember'
p2645
I4
tp2646
a(S'remind'
p2647
I4
tp2648
a(S'replenish'
p2649
I4
tp2650
a(S'reveals'
p2651
I4
tp2652
a(S'road.the'
p2653
I4
tp2654
a(S'rougher'
p2655
I4
tp2656
a(S'sandblasted'
p2657
I4
tp2658
a(S'seek'
p2659
I4
tp2660
a(S'serenity'
p2661
I4
tp2662
a(S'shut'
p2663
I4
tp2664
a(S'sigh'
p2665
I4
tp2666
a(S'site'
p2667
I4
tp2668
a(S'slowing'
p2669
I4
tp2670
a(S'smart'
p2671
I4
tp2672
a(S'sometime'
p2673
I4
tp2674
a(S'stone'
p2675
I4
tp2676
a(S'stores'
p2677
I4
tp2678
a(S'strenuous'
p2679
I4
tp2680
a(S'stretch'
p2681
I4
tp2682
a(S'stronger'
p2683
I4
tp2684
a(S'struggled'
p2685
I4
tp2686
a(S'struggles'
p2687
I4
tp2688
a(S'suggests'
p2689
I4
tp2690
a(S'supposed'
p2691
I4
tp2692
a(S'ten'
p2693
I4
tp2694
a(S'test'
p2695
I4
tp2696
a(S'tested'
p2697
I4
tp2698
a(S'there\x92s'
p2699
I4
tp2700
a(S'thirstier'
p2701
I4
tp2702
a(S'through.the'
p2703
I4
tp2704
a(S'thus'
p2705
I4
tp2706
a(S'tips'
p2707
I4
tp2708
a(S'toiled'
p2709
I4
tp2710
a(S'trail'
p2711
I4
tp2712
a(S'traveled'
p2713
I4
tp2714
a(S'troubling\x94'
p2715
I4
tp2716
a(S'trusted'
p2717
I4
tp2718
a(S'tumbleweed'
p2719
I4
tp2720
a(S'turning'
p2721
I4
tp2722
a(S'unknown'
p2723
I4
tp2724
a(S'unless'
p2725
I4
tp2726
a(S'unsure'
p2727
I4
tp2728
a(S'untill'
p2729
I4
tp2730
a(S'vast'
p2731
I4
tp2732
a(S'wanting'
p2733
I4
tp2734
a(S'wasnt'
p2735
I4
tp2736
a(S'watch'
p2737
I4
tp2738
a(S'ways.the'
p2739
I4
tp2740
a(S'wear'
p2741
I4
tp2742
a(S'wears'
p2743
I4
tp2744
a(S'weed'
p2745
I4
tp2746
a(S"welch's"
p2747
I4
tp2748
a(S'whats'
p2749
I4
tp2750
a(S'wind'
p2751
I4
tp2752
a(S'wisdom'
p2753
I4
tp2754
a(S'won\x92t'
p2755
I4
tp2756
a(S'wore'
p2757
I4
tp2758
a(S'worked'
p2759
I4
tp2760
a(S'wrote'
p2761
I4
tp2762
a(S'yosemite.\x94'
p2763
I4
tp2764
a(S'\x91do'
p2765
I4
tp2766
a(S'\x93about'
p2767
I4
tp2768
a(S'\x93battery'
p2769
I4
tp2770
a(S'\x93in'
p2771
I4
tp2772
a(S'\x93rode'
p2773
I4
tp2774
a(S'\x93somewhere'
p2775
I4
tp2776
a(S'\x93then'
p2777
I4
tp2778
a(S'\x93towns\x94'
p2779
I4
tp2780
a(S')'
I3
tp2781
a(S'absence'
p2782
I3
tp2783
a(S'accomplish'
p2784
I3
tp2785
a(S'act'
p2786
I3
tp2787
a(S'active'
p2788
I3
tp2789
a(S'ad'
p2790
I3
tp2791
a(S'additionally'
p2792
I3
tp2793
a(S'afraid'
p2794
I3
tp2795
a(S'ago'
p2796
I3
tp2797
a(S'ahead.\x94'
p2798
I3
tp2799
a(S'alike'
p2800
I3
tp2801
a(S'ammount'
p2802
I3
tp2803
a(S'apart'
p2804
I3
tp2805
a(S'appear'
p2806
I3
tp2807
a(S'appeared'
p2808
I3
tp2809
a(S"aren't"
p2810
I3
tp2811
a(S'aren\x92t'
p2812
I3
tp2813
a(S'arrive'
p2814
I3
tp2815
a(S'background'
p2816
I3
tp2817
a(S'bad.the'
p2818
I3
tp2819
a(S'badly'
p2820
I3
tp2821
a(S'bait.\x94'
p2822
I3
tp2823
a(S'bare'
p2824
I3
tp2825
a(S'belive'
p2826
I3
tp2827
a(S'bicyclist'
p2828
I3
tp2829
a(S'bikers'
p2830
I3
tp2831
a(S'bikes'
p2832
I3
tp2833
a(S'blame'
p2834
I3
tp2835
a(S'boiling'
p2836
I3
tp2837
a(S'book'
p2838
I3
tp2839
a(S'boost'
p2840
I3
tp2841
a(S'brain.\x94'
p2842
I3
tp2843
a(S'brave'
p2844
I3
tp2845
a(S'breezy'
p2846
I3
tp2847
a(S'brings'
p2848
I3
tp2849
a(S'brutal'
p2850
I3
tp2851
a(S'bulding'
p2852
I3
tp2853
a(S'california\x94'
p2854
I3
tp2855
a(S'camp-if'
p2856
I3
tp2857
a(S'caps1\x92s'
p2858
I3
tp2859
a(S'caps3'
p2860
I3
tp2861
a(S'caught'
p2862
I3
tp2863
a(S'caution'
p2864
I3
tp2865
a(S'challenged'
p2866
I3
tp2867
a(S'change.\x94'
p2868
I3
tp2869
a(S'chuckles'
p2870
I3
tp2871
a(S'city'
p2872
I3
tp2873
a(S'clean\x94'
p2874
I3
tp2875
a(S'clue'
p2876
I3
tp2877
a(S'combine'
p2878
I3
tp2879
a(S'concern'
p2880
I3
tp2881
a(S'confusion'
p2882
I3
tp2883
a(S'connection'
p2884
I3
tp2885
a(S'constant'
p2886
I3
tp2887
a(S'constantly'
p2888
I3
tp2889
a(S'contains'
p2890
I3
tp2891
a(S'content'
p2892
I3
tp2893
a(S'contributes'
p2894
I3
tp2895
a(S'country'
p2896
I3
tp2897
a(S'course'
p2898
I3
tp2899
a(S'creature'
p2900
I3
tp2901
a(S'cuts'
p2902
I3
tp2903
a(S'cycalist'
p2904
I3
tp2905
a(S'cycles'
p2906
I3
tp2907
a(S'cyclist.there'
p2908
I3
tp2909
a(S'dark'
p2910
I3
tp2911
a(S'decisions'
p2912
I3
tp2913
a(S'deeper'
p2914
I3
tp2915
a(S'definatly'
p2916
I3
tp2917
a(S'dehydrated.in'
p2918
I3
tp2919
a(S'dehydrated.the'
p2920
I3
tp2921
a(S'depressed'
p2922
I3
tp2923
a(S'despite'
p2924
I3
tp2925
a(S'destination.the'
p2926
I3
tp2927
a(S'diary'
p2928
I3
tp2929
a(S'dies'
p2930
I3
tp2931
a(S'disappointment'
p2932
I3
tp2933
a(S'dismay'
p2934
I3
tp2935
a(S'distraught'
p2936
I3
tp2937
a(S'do.the'
p2938
I3
tp2939
a(S"doesn't"
p2940
I3
tp2941
a(S'doubting'
p2942
I3
tp2943
a(S'downhill'
p2944
I3
tp2945
a(S'downs'
p2946
I3
tp2947
a(S'dramatically'
p2948
I3
tp2949
a(S'drinkable'
p2950
I3
tp2951
a(S'drives'
p2952
I3
tp2953
a(S'dropped'
p2954
I3
tp2955
a(S'drying'
p2956
I3
tp2957
a(S'dwindling'
p2958
I3
tp2959
a(S'eating'
p2960
I3
tp2961
a(S'emotional'
p2962
I3
tp2963
a(S'endless'
p2964
I3
tp2965
a(S'energy.the'
p2966
I3
tp2967
a(S'enjoy'
p2968
I3
tp2969
a(S'entered'
p2970
I3
tp2971
a(S'entirely'
p2972
I3
tp2973
a(S'enviroment'
p2974
I3
tp2975
a(S'escape'
p2976
I3
tp2977
a(S'event'
p2978
I3
tp2979
a(S'exclaims'
p2980
I3
tp2981
a(S'exert'
p2982
I3
tp2983
a(S'expecting'
p2984
I3
tp2985
a(S'expensive'
p2986
I3
tp2987
a(S'extremly'
p2988
I3
tp2989
a(S'faucet'
p2990
I3
tp2991
a(S'fill'
p2992
I3
tp2993
a(S'fine.the'
p2994
I3
tp2995
a(S'fine.\x94'
p2996
I3
tp2997
a(S'fist'
p2998
I3
tp2999
a(S'flavored'
p3000
I3
tp3001
a(S'fluid'
p3002
I3
tp3003
a(S'foolish'
p3004
I3
tp3005
a(S'forget'
p3006
I3
tp3007
a(S'four'
p3008
I3
tp3009
a(S'frequently'
p3010
I3
tp3011
a(S'friendly'
p3012
I3
tp3013
a(S'giant'
p3014
I3
tp3015
a(S'grass'
p3016
I3
tp3017
a(S'grew'
p3018
I3
tp3019
a(S'happiness'
p3020
I3
tp3021
a(S'havent'
p3022
I3
tp3023
a(S'hazards'
p3024
I3
tp3025
a(S'head.\x94'
p3026
I3
tp3027
a(S'headed'
p3028
I3
tp3029
a(S'heading'
p3030
I3
tp3031
a(S'healthy'
p3032
I3
tp3033
a(S'heart'
p3034
I3
tp3035
a(S'heat.the'
p3036
I3
tp3037
a(S'heated'
p3038
I3
tp3039
a(S'he\x92ll'
p3040
I3
tp3041
a(S'hinder'
p3042
I3
tp3043
a(S'hits'
p3044
I3
tp3045
a(S'hope.\x94'
p3046
I3
tp3047
a(S'hottest'
p3048
I3
tp3049
a(S'immediately'
p3050
I3
tp3051
a(S'importance'
p3052
I3
tp3053
a(S'intended'
p3054
I3
tp3055
a(S'inthe'
p3056
I3
tp3057
a(S'ironically'
p3058
I3
tp3059
a(S'it.in'
p3060
I3
tp3061
a(S'journey.in'
p3062
I3
tp3063
a(S'journeythe'
p3064
I3
tp3065
a(S'journy'
p3066
I3
tp3067
a(S'juices'
p3068
I3
tp3069
a(S'jump'
p3070
I3
tp3071
a(S'june,\x94'
p3072
I3
tp3073
a(S'june\x94(kurmaskie)'
p3074
I3
tp3075
a(S'kurmaskie)'
p3076
I3
tp3077
a(S'late'
p3078
I3
tp3079
a(S'launched'
p3080
I3
tp3081
a(S'leading'
p3082
I3
tp3083
a(S'learn'
p3084
I3
tp3085
a(S'lie'
p3086
I3
tp3087
a(S'lifeless'
p3088
I3
tp3089
a(S'literally'
p3090
I3
tp3091
a(S'lived'
p3092
I3
tp3093
a(S'lively'
p3094
I3
tp3095
a(S'located'
p3096
I3
tp3097
a(S'lowers'
p3098
I3
tp3099
a(S'majorly'
p3100
I3
tp3101
a(S'maneuver'
p3102
I3
tp3103
a(S'manuver'
p3104
I3
tp3105
a(S'mark'
p3106
I3
tp3107
a(S'matters'
p3108
I3
tp3109
a(S'meets'
p3110
I3
tp3111
a(S'mentions'
p3112
I3
tp3113
a(S'mently'
p3114
I3
tp3115
a(S'messed'
p3116
I3
tp3117
a(S'mild'
p3118
I3
tp3119
a(S'mindset'
p3120
I3
tp3121
a(S'mistake'
p3122
I3
tp3123
a(S'mood.the'
p3124
I3
tp3125
a(S'mountain'
p3126
I3
tp3127
a(S'mountainous'
p3128
I3
tp3129
a(S'mountians'
p3130
I3
tp3131
a(S'mouth\x94'
p3132
I3
tp3133
a(S'mph\x94'
p3134
I3
tp3135
a(S'much.the'
p3136
I3
tp3137
a(S'mule.\x94'
p3138
I3
tp3139
a(S'muscles'
p3140
I3
tp3141
a(S'myself.\x94'
p3142
I3
tp3143
a(S'narrarator'
p3144
I3
tp3145
a(S'nasty'
p3146
I3
tp3147
a(S'natural'
p3148
I3
tp3149
a(S'negativly'
p3150
I3
tp3151
a(S'noone'
p3152
I3
tp3153
a(S'num1.\x94'
p3154
I3
tp3155
a(S'obsticles'
p3156
I3
tp3157
a(S'offer'
p3158
I3
tp3159
a(S'optimistic'
p3160
I3
tp3161
a(S'original'
p3162
I3
tp3163
a(S'out.the'
p3164
I3
tp3165
a(S'outlook'
p3166
I3
tp3167
a(S'overjoyed'
p3168
I3
tp3169
a(S'overwhelming'
p3170
I3
tp3171
a(S'pace'
p3172
I3
tp3173
a(S'park.the'
p3174
I3
tp3175
a(S'park.\x94'
p3176
I3
tp3177
a(S'paths'
p3178
I3
tp3179
a(S'peaceful'
p3180
I3
tp3181
a(S'pedals'
p3182
I3
tp3183
a(S'peddle'
p3184
I3
tp3185
a(S'peddling'
p3186
I3
tp3187
a(S'people.the'
p3188
I3
tp3189
a(S'perfect'
p3190
I3
tp3191
a(S'period'
p3192
I3
tp3193
a(S'persevered'
p3194
I3
tp3195
a(S'person\x92s'
p3196
I3
tp3197
a(S'place.the'
p3198
I3
tp3199
a(S'placed'
p3200
I3
tp3201
a(S'planned'
p3202
I3
tp3203
a(S'pourch'
p3204
I3
tp3205
a(S'prior'
p3206
I3
tp3207
a(S'pumping'
p3208
I3
tp3209
a(S'putting'
p3210
I3
tp3211
a(S'quality'
p3212
I3
tp3213
a(S'quest'
p3214
I3
tp3215
a(S'race'
p3216
I3
tp3217
a(S'rapidly'
p3218
I3
tp3219
a(S'rattle'
p3220
I3
tp3221
a(S'rattled'
p3222
I3
tp3223
a(S'realizing'
p3224
I3
tp3225
a(S'regained'
p3226
I3
tp3227
a(S'related'
p3228
I3
tp3229
a(S'relates'
p3230
I3
tp3231
a(S'remote'
p3232
I3
tp3233
a(S'replenished'
p3234
I3
tp3235
a(S'represents'
p3236
I3
tp3237
a(S'required'
p3238
I3
tp3239
a(S'reserve'
p3240
I3
tp3241
a(S'resources'
p3242
I3
tp3243
a(S'ridding'
p3244
I3
tp3245
a(S'rise'
p3246
I3
tp3247
a(S'risk'
p3248
I3
tp3249
a(S'road\x94'
p3250
I3
tp3251
a(S'rounding'
p3252
I3
tp3253
a(S'ruff'
p3254
I3
tp3255
a(S'rugged'
p3256
I3
tp3257
a(S'rundown'
p3258
I3
tp3259
a(S'satisfied'
p3260
I3
tp3261
a(S'says\x94'
p3262
I3
tp3263
a(S'sence'
p3264
I3
tp3265
a(S'sharp'
p3266
I3
tp3267
a(S'shelter'
p3268
I3
tp3269
a(S'shortage'
p3270
I3
tp3271
a(S'sides'
p3272
I3
tp3273
a(S'sights'
p3274
I3
tp3275
a(S'single'
p3276
I3
tp3277
a(S'sip'
p3278
I3
tp3279
a(S'sites'
p3280
I3
tp3281
a(S'sitting'
p3282
I3
tp3283
a(S'slice'
p3284
I3
tp3285
a(S'slippery'
p3286
I3
tp3287
a(S'snake.\x94'
p3288
I3
tp3289
a(S'sort'
p3290
I3
tp3291
a(S'sorts'
p3292
I3
tp3293
a(S'sources'
p3294
I3
tp3295
a(S'sport'
p3296
I3
tp3297
a(S'stage'
p3298
I3
tp3299
a(S'state\x94'
p3300
I3
tp3301
a(S'stoped'
p3302
I3
tp3303
a(S'streams'
p3304
I3
tp3305
a(S'stroke.in'
p3306
I3
tp3307
a(S'success'
p3308
I3
tp3309
a(S'sucked'
p3310
I3
tp3311
a(S'swallow'
p3312
I3
tp3313
a(S'sweet'
p3314
I3
tp3315
a(S'sworn'
p3316
I3
tp3317
a(S'tackle'
p3318
I3
tp3319
a(S'tasting'
p3320
I3
tp3321
a(S'tentalizing'
p3322
I3
tp3323
a(S'them.\x94'
p3324
I3
tp3325
a(S'thirsty.the'
p3326
I3
tp3327
a(S'threatening'
p3328
I3
tp3329
a(S'threw'
p3330
I3
tp3331
a(S'throught'
p3332
I3
tp3333
a(S'timers\x94'
p3334
I3
tp3335
a(S'tiredness'
p3336
I3
tp3337
a(S'torture'
p3338
I3
tp3339
a(S'towns\x94'
p3340
I3
tp3341
a(S'track'
p3342
I3
tp3343
a(S'travling'
p3344
I3
tp3345
a(S'tree'
p3346
I3
tp3347
a(S'trip.the'
p3348
I3
tp3349
a(S'tune'
p3350
I3
tp3351
a(S'types'
p3352
I3
tp3353
a(S'unconfident'
p3354
I3
tp3355
a(S'unexpected'
p3356
I3
tp3357
a(S'uphill'
p3358
I3
tp3359
a(S'urge'
p3360
I3
tp3361
a(S'usual'
p3362
I3
tp3363
a(S'vermont'
p3364
I3
tp3365
a(S'walking'
p3366
I3
tp3367
a(S'war'
p3368
I3
tp3369
a(S'war.\x94'
p3370
I3
tp3371
a(S'wasted'
p3372
I3
tp3373
a(S'water.in'
p3374
I3
tp3375
a(S'water\x94'
p3376
I3
tp3377
a(S'watter'
p3378
I3
tp3379
a(S'weary'
p3380
I3
tp3381
a(S'well.the'
p3382
I3
tp3383
a(S'we\x92re'
p3384
I3
tp3385
a(S'wise'
p3386
I3
tp3387
a(S'woods'
p3388
I3
tp3389
a(S'worse.the'
p3390
I3
tp3391
a(S'write'
p3392
I3
tp3393
a(S'writer'
p3394
I3
tp3395
a(S'yosemite.the'
p3396
I3
tp3397
a(S'youth'
p3398
I3
tp3399
a(S'\x93cool'
p3400
I3
tp3401
a(S'\x93had'
p3402
I3
tp3403
a(S'\x93he'
p3404
I3
tp3405
a(S'\x93things'
p3406
I3
tp3407
a(S'\x93through'
p3408
I3
tp3409
a(S'\x93travelling'
p3410
I3
tp3411
a(S'\x93welch\x92s'
p3412
I3
tp3413
a(S'\x94i'
p3414
I3
tp3415
a(S"''at"
p3416
I2
tp3417
a(S'(@caps1'
p3418
I2
tp3419
a(S'(@caps1)'
p3420
I2
tp3421
a(S'(pg'
p3422
I2
tp3423
a(S'/'
I2
tp3424
a(S'/she'
p3425
I2
tp3426
a(S'abandonment'
p3427
I2
tp3428
a(S'abilities'
p3429
I2
tp3430
a(S'abonded'
p3431
I2
tp3432
a(S'absolutely'
p3433
I2
tp3434
a(S'abut'
p3435
I2
tp3436
a(S'accepting'
p3437
I2
tp3438
a(S'accident'
p3439
I2
tp3440
a(S'accurate'
p3441
I2
tp3442
a(S'acid\x94'
p3443
I2
tp3444
a(S'acknowledged'
p3445
I2
tp3446
a(S'acknowledges'
p3447
I2
tp3448
a(S'action'
p3449
I2
tp3450
a(S'acts'
p3451
I2
tp3452
a(S'advantage'
p3453
I2
tp3454
a(S'affection'
p3455
I2
tp3456
a(S'afternoon'
p3457
I2
tp3458
a(S'again.the'
p3459
I2
tp3460
a(S'againg'
p3461
I2
tp3462
a(S'aged'
p3463
I2
tp3464
a(S'ahead,\x94'
p3465
I2
tp3466
a(S'ahead:do'
p3467
I2
tp3468
a(S'aid'
p3469
I2
tp3470
a(S'allowed'
p3471
I2
tp3472
a(S'amazing'
p3473
I2
tp3474
a(S'amused'
p3475
I2
tp3476
a(S'animals.the'
p3477
I2
tp3478
a(S'annoyance'
p3479
I2
tp3480
a(S'anothe'
p3481
I2
tp3482
a(S'anyways'
p3483
I2
tp3484
a(S'apon'
p3485
I2
tp3486
a(S'approach'
p3487
I2
tp3488
a(S'arriving'
p3489
I2
tp3490
a(S'asking'
p3491
I2
tp3492
a(S'aspects'
p3493
I2
tp3494
a(S'assistance'
p3495
I2
tp3496
a(S'assured'
p3497
I2
tp3498
a(S'attempts'
p3499
I2
tp3500
a(S'average'
p3501
I2
tp3502
a(S'awhile'
p3503
I2
tp3504
a(S'back-blocked'
p3505
I2
tp3506
a(S'bag'
p3507
I2
tp3508
a(S'barley'
p3509
I2
tp3510
a(S'baron'
p3511
I2
tp3512
a(S'battle'
p3513
I2
tp3514
a(S'bearing'
p3515
I2
tp3516
a(S'beaten'
p3517
I2
tp3518
a(S'beauty'
p3519
I2
tp3520
a(S'becuse'
p3521
I2
tp3522
a(S'begging'
p3523
I2
tp3524
a(S'begun'
p3525
I2
tp3526
a(S'bet'
p3527
I2
tp3528
a(S'bet!\x94'
p3529
I2
tp3530
a(S'better.the'
p3531
I2
tp3532
a(S'bick'
p3533
I2
tp3534
a(S'bike.the'
p3535
I2
tp3536
a(S'billboard'
p3537
I2
tp3538
a(S'bite'
p3539
I2
tp3540
a(S'blazing'
p3541
I2
tp3542
a(S'blistering'
p3543
I2
tp3544
a(S'blues'
p3545
I2
tp3546
a(S'bought'
p3547
I2
tp3548
a(S'breathing'
p3549
I2
tp3550
a(S'brink'
p3551
I2
tp3552
a(S'broke'
p3553
I2
tp3554
a(S'broken'
p3555
I2
tp3556
a(S'build'
p3557
I2
tp3558
a(S'california.\x94'
p3559
I2
tp3560
a(S'calling'
p3561
I2
tp3562
a(S'cased'
p3563
I2
tp3564
a(S'chances'
p3565
I2
tp3566
a(S'changing.\x94'
p3567
I2
tp3568
a(S'characteristics'
p3569
I2
tp3570
a(S'circulate'
p3571
I2
tp3572
a(S'circumstances'
p3573
I2
tp3574
a(S'claimed'
p3575
I2
tp3576
a(S'claims'
p3577
I2
tp3578
a(S'climax'
p3579
I2
tp3580
a(S'climbed'
p3581
I2
tp3582
a(S'climbing'
p3583
I2
tp3584
a(S'closed'
p3585
I2
tp3586
a(S'clothes'
p3587
I2
tp3588
a(S'codgers\x94'
p3589
I2
tp3590
a(S'collapse'
p3591
I2
tp3592
a(S'combs'
p3593
I2
tp3594
a(S'comfort'
p3595
I2
tp3596
a(S'common'
p3597
I2
tp3598
a(S'company'
p3599
I2
tp3600
a(S'concentrate'
p3601
I2
tp3602
a(S'conclude'
p3603
I2
tp3604
a(S'conflicts'
p3605
I2
tp3606
a(S'confused'
p3607
I2
tp3608
a(S'conquer'
p3609
I2
tp3610
a(S'conserving'
p3611
I2
tp3612
a(S'cools'
p3613
I2
tp3614
a(S'correct'
p3615
I2
tp3616
a(S"couldn't"
p3617
I2
tp3618
a(S'could\x92ve'
p3619
I2
tp3620
a(S'crash'
p3621
I2
tp3622
a(S'create'
p3623
I2
tp3624
a(S'creates'
p3625
I2
tp3626
a(S'creatures'
p3627
I2
tp3628
a(S'crested'
p3629
I2
tp3630
a(S'crossing'
p3631
I2
tp3632
a(S'crucial'
p3633
I2
tp3634
a(S'cruel,\x94'
p3635
I2
tp3636
a(S'crushed'
p3637
I2
tp3638
a(S'curry'
p3639
I2
tp3640
a(S'cycling.the'
p3641
I2
tp3642
a(S'cyclist.many'
p3643
I2
tp3644
a(S'cyclistin'
p3645
I2
tp3646
a(S'cyclists\x92'
p3647
I2
tp3648
a(S'dangerously'
p3649
I2
tp3650
a(S'de'
p3651
I2
tp3652
a(S'decide'
p3653
I2
tp3654
a(S'deciding'
p3655
I2
tp3656
a(S'decrease'
p3657
I2
tp3658
a(S'decreased'
p3659
I2
tp3660
a(S'defination'
p3661
I2
tp3662
a(S'degrees\x94'
p3663
I2
tp3664
a(S'dehidrate'
p3665
I2
tp3666
a(S'dehidration'
p3667
I2
tp3668
a(S'dehydratied'
p3669
I2
tp3670
a(S'delayed'
p3671
I2
tp3672
a(S'depend'
p3673
I2
tp3674
a(S'depends'
p3675
I2
tp3676
a(S'depleating'
p3677
I2
tp3678
a(S'depressing'
p3679
I2
tp3680
a(S'desolation'
p3681
I2
tp3682
a(S'destroyed'
p3683
I2
tp3684
a(S'details'
p3685
I2
tp3686
a(S'devastated'
p3687
I2
tp3688
a(S'develop'
p3689
I2
tp3690
a(S'didn`t'
p3691
I2
tp3692
a(S'die.\x94'
p3693
I2
tp3694
a(S'died.the'
p3695
I2
tp3696
a(S'diferent'
p3697
I2
tp3698
a(S'difficult.in'
p3699
I2
tp3700
a(S'directed'
p3701
I2
tp3702
a(S'directions.in'
p3703
I2
tp3704
a(S'dirty'
p3705
I2
tp3706
a(S'dis'
p3707
I2
tp3708
a(S'disappoint'
p3709
I2
tp3710
a(S'discomfort'
p3711
I2
tp3712
a(S'diserted'
p3713
I2
tp3714
a(S'dissapointments'
p3715
I2
tp3716
a(S'disturbed'
p3717
I2
tp3718
a(S'doubtfull'
p3719
I2
tp3720
a(S'dow'
p3721
I2
tp3722
a(S'down,\x94'
p3723
I2
tp3724
a(S'dreadful'
p3725
I2
tp3726
a(S'dreary'
p3727
I2
tp3728
a(S'dress'
p3729
I2
tp3730
a(S'drieing'
p3731
I2
tp3732
a(S'drier'
p3733
I2
tp3734
a(S'drink.the'
p3735
I2
tp3736
a(S'dropping'
p3737
I2
tp3738
a(S'drops'
p3739
I2
tp3740
a(S'drys'
p3741
I2
tp3742
a(S'dust'
p3743
I2
tp3744
a(S'dusty'
p3745
I2
tp3746
a(S'dyhydration'
p3747
I2
tp3748
a(S'early-'
p3749
I2
tp3750
a(S'ease'
p3751
I2
tp3752
a(S'eassy'
p3753
I2
tp3754
a(S'eats'
p3755
I2
tp3756
a(S'eccentric'
p3757
I2
tp3758
a(S'elsewhere'
p3759
I2
tp3760
a(S'encouraged'
p3761
I2
tp3762
a(S'encouters'
p3763
I2
tp3764
a(S'endurance'
p3765
I2
tp3766
a(S'endured'
p3767
I2
tp3768
a(S'energetic'
p3769
I2
tp3770
a(S'enery'
p3771
I2
tp3772
a(S'enthusiastic'
p3773
I2
tp3774
a(S'environmental'
p3775
I2
tp3776
a(S'equipment'
p3777
I2
tp3778
a(S'essay.the'
p3779
I2
tp3780
a(S'establishments'
p3781
I2
tp3782
a(S'evening\x94'
p3783
I2
tp3784
a(S'eventhough'
p3785
I2
tp3786
a(S'everytime'
p3787
I2
tp3788
a(S'example.\x94'
p3789
I2
tp3790
a(S'excited\x94'
p3791
I2
tp3792
a(S'exeed'
p3793
I2
tp3794
a(S'exercise'
p3795
I2
tp3796
a(S'exhasted'
p3797
I2
tp3798
a(S'expedition'
p3799
I2
tp3800
a(S'experence'
p3801
I2
tp3802
a(S'experiencing'
p3803
I2
tp3804
a(S'explained'
p3805
I2
tp3806
a(S'expressing'
p3807
I2
tp3808
a(S'exspecially'
p3809
I2
tp3810
a(S'f'
I2
tp3811
a(S'face\x94'
p3812
I2
tp3813
a(S'factory\x94'
p3814
I2
tp3815
a(S'facts'
p3816
I2
tp3817
a(S'failed'
p3818
I2
tp3819
a(S'faint'
p3820
I2
tp3821
a(S'falling'
p3822
I2
tp3823
a(S'familiar'
p3824
I2
tp3825
a(S'fatigue'
p3826
I2
tp3827
a(S'fearful'
p3828
I2
tp3829
a(S'fears'
p3830
I2
tp3831
a(S'features.the'
p3832
I2
tp3833
a(S'feautures'
p3834
I2
tp3835
a(S'fell'
p3836
I2
tp3837
a(S'fighting'
p3838
I2
tp3839
a(S'figure'
p3840
I2
tp3841
a(S'finishing'
p3842
I2
tp3843
a(S'fock'
p3844
I2
tp3845
a(S'focused'
p3846
I2
tp3847
a(S'follwed'
p3848
I2
tp3849
a(S'form'
p3850
I2
tp3851
a(S'fortunately'
p3852
I2
tp3853
a(S'freely'
p3854
I2
tp3855
a(S'frightening'
p3856
I2
tp3857
a(S'fromthe'
p3858
I2
tp3859
a(S'frustrates'
p3860
I2
tp3861
a(S'functioning'
p3862
I2
tp3863
a(S'furthered'
p3864
I2
tp3865
a(S'futher'
p3866
I2
tp3867
a(S'future'
p3868
I2
tp3869
a(S'future.the'
p3870
I2
tp3871
a(S'gathered'
p3872
I2
tp3873
a(S'gentleman'
p3874
I2
tp3875
a(S'glad'
p3876
I2
tp3877
a(S'glimpse'
p3878
I2
tp3879
a(S'goin'
p3880
I2
tp3881
a(S'going.the'
p3882
I2
tp3883
a(S'gradually'
p3884
I2
tp3885
a(S'greatlly'
p3886
I2
tp3887
a(S'greatly.in'
p3888
I2
tp3889
a(S'green'
p3890
I2
tp3891
a(S'guess'
p3892
I2
tp3893
a(S'halfway'
p3894
I2
tp3895
a(S'hang'
p3896
I2
tp3897
a(S'hardship'
p3898
I2
tp3899
a(S'haw'
p3900
I2
tp3901
a(S'heat.in'
p3902
I2
tp3903
a(S'heath'
p3904
I2
tp3905
a(S'heating'
p3906
I2
tp3907
a(S'helpful'
p3908
I2
tp3909
a(S'helpless'
p3910
I2
tp3911
a(S'highways'
p3912
I2
tp3913
a(S'hill.the'
p3914
I2
tp3915
a(S'hills-all'
p3916
I2
tp3917
a(S'him.setting'
p3918
I2
tp3919
a(S'hindered'
p3920
I2
tp3921
a(S'ho'
p3922
I2
tp3923
a(S'holes'
p3924
I2
tp3925
a(S'homes'
p3926
I2
tp3927
a(S'honey'
p3928
I2
tp3929
a(S'hope.the'
p3930
I2
tp3931
a(S'hopless'
p3932
I2
tp3933
a(S'host'
p3934
I2
tp3935
a(S'hott'
p3936
I2
tp3937
a(S'humanity'
p3938
I2
tp3939
a(S'hungry'
p3940
I2
tp3941
a(S'hurting'
p3942
I2
tp3943
a(S'hydration'
p3944
I2
tp3945
a(S"i'd"
p3946
I2
tp3947
a(S'ideas'
p3948
I2
tp3949
a(S'im'
p3950
I2
tp3951
a(S'imagery'
p3952
I2
tp3953
a(S'immense'
p3954
I2
tp3955
a(S'implies'
p3956
I2
tp3957
a(S'impossible'
p3958
I2
tp3959
a(S'inability'
p3960
I2
tp3961
a(S'increases'
p3962
I2
tp3963
a(S'indifferent'
p3964
I2
tp3965
a(S'inevitable'
p3966
I2
tp3967
a(S'inferred'
p3968
I2
tp3969
a(S'info'
p3970
I2
tp3971
a(S'infrastructure'
p3972
I2
tp3973
a(S'infront'
p3974
I2
tp3975
a(S'inorder'
p3976
I2
tp3977
a(S'intensive'
p3978
I2
tp3979
a(S'intimidating'
p3980
I2
tp3981
a(S'intitled'
p3982
I2
tp3983
a(S'inward'
p3984
I2
tp3985
a(S'items'
p3986
I2
tp3987
a(S'jouney'
p3988
I2
tp3989
a(S'joyful'
p3990
I2
tp3991
a(S'juice\x94'
p3992
I2
tp3993
a(S'keen'
p3994
I2
tp3995
a(S'kicks'
p3996
I2
tp3997
a(S'killing'
p3998
I2
tp3999
a(S'kinds'
p4000
I2
tp4001
a(S'lakes'
p4002
I2
tp4003
a(S'landed'
p4004
I2
tp4005
a(S'landmark'
p4006
I2
tp4007
a(S'lands'
p4008
I2
tp4009
a(S'larger'
p4010
I2
tp4011
a(S'lasted'
p4012
I2
tp4013
a(S'laughs'
p4014
I2
tp4015
a(S'life.the'
p4016
I2
tp4017
a(S'lifted'
p4018
I2
tp4019
a(S'light'
p4020
I2
tp4021
a(S"limit''"
p4022
I2
tp4023
a(S'ling'
p4024
I2
tp4025
a(S'listens'
p4026
I2
tp4027
a(S'load'
p4028
I2
tp4029
a(S'locals'
p4030
I2
tp4031
a(S'loose'
p4032
I2
tp4033
a(S'loosing'
p4034
I2
tp4035
a(S'love'
p4036
I2
tp4037
a(S'mainly'
p4038
I2
tp4039
a(S'makeing'
p4040
I2
tp4041
a(S'managed'
p4042
I2
tp4043
a(S'me,\x94'
p4044
I2
tp4045
a(S'men.the'
p4046
I2
tp4047
a(S'ment'
p4048
I2
tp4049
a(S'men\x94'
p4050
I2
tp4051
a(S'mep'
p4052
I2
tp4053
a(S'mere'
p4054
I2
tp4055
a(S'mile'
p4056
I2
tp4057
a(S'mirage.\x94'
p4058
I2
tp4059
a(S'mirage\x94'
p4060
I2
tp4061
a(S'mocking'
p4062
I2
tp4063
a(S'mode'
p4064
I2
tp4065
a(S'moods'
p4066
I2
tp4067
a(S'motivation'
p4068
I2
tp4069
a(S'mouth,\x94'
p4070
I2
tp4071
a(S'mouth.\x94'
p4072
I2
tp4073
a(S'movie'
p4074
I2
tp4075
a(S'mph,\x94'
p4076
I2
tp4077
a(S'muscle'
p4078
I2
tp4079
a(S'muster'
p4080
I2
tp4081
a(S'must\x92ve'
p4082
I2
tp4083
a(S'narrator\x92s'
p4084
I2
tp4085
a(S'naturally'
p4086
I2
tp4087
a(S'navigate'
p4088
I2
tp4089
a(S'nearest'
p4090
I2
tp4091
a(S'needing'
p4092
I2
tp4093
a(S'nightmare'
p4094
I2
tp4095
a(S'note'
p4096
I2
tp4097
a(S'notes'
p4098
I2
tp4099
a(S'nothingness'
p4100
I2
tp4101
a(S'noticed.\x94'
p4102
I2
tp4103
a(S'now.the'
p4104
I2
tp4105
a(S'number'
p4106
I2
tp4107
a(S'o'
I2
tp4108
a(S'obsticle'
p4109
I2
tp4110
a(S'occasional'
p4111
I2
tp4112
a(S'ok'
p4113
I2
tp4114
a(S'on\x94'
p4115
I2
tp4116
a(S'opposed'
p4117
I2
tp4118
a(S'optical'
p4119
I2
tp4120
a(S'optimism'
p4121
I2
tp4122
a(S'out-dated'
p4123
I2
tp4124
a(S'out.\x94'
p4125
I2
tp4126
a(S'outcome'
p4127
I2
tp4128
a(S'overheated'
p4129
I2
tp4130
a(S'owners'
p4131
I2
tp4132
a(S'packed'
p4133
I2
tp4134
a(S'paid'
p4135
I2
tp4136
a(S'painful'
p4137
I2
tp4138
a(S'panicing'
p4139
I2
tp4140
a(S'panickly'
p4141
I2
tp4142
a(S'parched'
p4143
I2
tp4144
a(S'park.there'
p4145
I2
tp4146
a(S'partly'
p4147
I2
tp4148
a(S'path.\x94'
p4149
I2
tp4150
a(S'path\x94'
p4151
I2
tp4152
a(S'paved'
p4153
I2
tp4154
a(S'pavement.\x94'
p4155
I2
tp4156
a(S'pebble'
p4157
I2
tp4158
a(S'pedaled'
p4159
I2
tp4160
a(S'pedeling'
p4161
I2
tp4162
a(S'performence'
p4163
I2
tp4164
a(S'periods'
p4165
I2
tp4166
a(S'perseverance'
p4167
I2
tp4168
a(S'person1\x92s'
p4169
I2
tp4170
a(S'personally'
p4171
I2
tp4172
a(S'phyisicly'
p4173
I2
tp4174
a(S'picked'
p4175
I2
tp4176
a(S'planning'
p4177
I2
tp4178
a(S'plant.\x94'
p4179
I2
tp4180
a(S'plant\x94'
p4181
I2
tp4182
a(S'plot'
p4183
I2
tp4184
a(S'pop'
p4185
I2
tp4186
a(S'populated'
p4187
I2
tp4188
a(S'population'
p4189
I2
tp4190
a(S'position'
p4191
I2
tp4192
a(S'possitive'
p4193
I2
tp4194
a(S'potentially'
p4195
I2
tp4196
a(S'pounding'
p4197
I2
tp4198
a(S'precious'
p4199
I2
tp4200
a(S'predict'
p4201
I2
tp4202
a(S'presented'
p4203
I2
tp4204
a(S'pressed'
p4205
I2
tp4206
a(S'pressure'
p4207
I2
tp4208
a(S'prety'
p4209
I2
tp4210
a(S'prevents'
p4211
I2
tp4212
a(S'probaly'
p4213
I2
tp4214
a(S'produce'
p4215
I2
tp4216
a(S'progressed'
p4217
I2
tp4218
a(S'proper'
p4219
I2
tp4220
a(S'protagonist'
p4221
I2
tp4222
a(S'provide'
p4223
I2
tp4224
a(S'provision'
p4225
I2
tp4226
a(S'pull'
p4227
I2
tp4228
a(S'pulls'
p4229
I2
tp4230
a(S'pumps\x94'
p4231
I2
tp4232
a(S'quench'
p4233
I2
tp4234
a(S'quickley'
p4235
I2
tp4236
a(S'quoted'
p4237
I2
tp4238
a(S'rainy'
p4239
I2
tp4240
a(S'ram'
p4241
I2
tp4242
a(S'ration'
p4243
I2
tp4244
a(S'received'
p4245
I2
tp4246
a(S'rediculously'
p4247
I2
tp4248
a(S'reduced'
p4249
I2
tp4250
a(S'reference'
p4251
I2
tp4252
a(S'refers'
p4253
I2
tp4254
a(S'reflect'
p4255
I2
tp4256
a(S'reflects'
p4257
I2
tp4258
a(S'regain'
p4259
I2
tp4260
a(S'region'
p4261
I2
tp4262
a(S'regularly\x94'
p4263
I2
tp4264
a(S'relaxing'
p4265
I2
tp4266
a(S'relentless'
p4267
I2
tp4268
a(S'relied'
p4269
I2
tp4270
a(S'relieved.the'
p4271
I2
tp4272
a(S'reminded'
p4273
I2
tp4274
a(S'reminding'
p4275
I2
tp4276
a(S'removed'
p4277
I2
tp4278
a(S'resorted'
p4279
I2
tp4280
a(S'restock'
p4281
I2
tp4282
a(S'returned'
p4283
I2
tp4284
a(S'rid'
p4285
I2
tp4286
a(S'ride.in'
p4287
I2
tp4288
a(S'road.in'
p4289
I2
tp4290
a(S'roadways'
p4291
I2
tp4292
a(S'rock'
p4293
I2
tp4294
a(S'roll'
p4295
I2
tp4296
a(S'ruin'
p4297
I2
tp4298
a(S'ruined'
p4299
I2
tp4300
a(S'safely'
p4301
I2
tp4302
a(S'saliva'
p4303
I2
tp4304
a(S'sandy'
p4305
I2
tp4306
a(S'sarcastic'
p4307
I2
tp4308
a(S'scares'
p4309
I2
tp4310
a(S'scary'
p4311
I2
tp4312
a(S'scenary'
p4313
I2
tp4314
a(S'scene'
p4315
I2
tp4316
a(S'screaming'
p4317
I2
tp4318
a(S'searches'
p4319
I2
tp4320
a(S'see\x92s'
p4321
I2
tp4322
a(S'self-pitty'
p4323
I2
tp4324
a(S'sent'
p4325
I2
tp4326
a(S'sentences'
p4327
I2
tp4328
a(S'serves'
p4329
I2
tp4330
a(S'setback'
p4331
I2
tp4332
a(S'setting.in'
p4333
I2
tp4334
a(S'setting\x92s'
p4335
I2
tp4336
a(S'shake'
p4337
I2
tp4338
a(S'shiny'
p4339
I2
tp4340
a(S'shirt.\x94'
p4341
I2
tp4342
a(S'shirt\x94'
p4343
I2
tp4344
a(S'shop.the'
p4345
I2
tp4346
a(S'shortness'
p4347
I2
tp4348
a(S'simple'
p4349
I2
tp4350
a(S'sink.\x94'
p4351
I2
tp4352
a(S'sir!'
p4353
I2
tp4354
a(S'situation.in'
p4355
I2
tp4356
a(S'skills'
p4357
I2
tp4358
a(S'skin'
p4359
I2
tp4360
a(S'sky'
p4361
I2
tp4362
a(S'sleep'
p4363
I2
tp4364
a(S'slightly'
p4365
I2
tp4366
a(S'slows'
p4367
I2
tp4368
a(S'snake-'
p4369
I2
tp4370
a(S'somebody'
p4371
I2
tp4372
a(S'sore'
p4373
I2
tp4374
a(S'sorroundings'
p4375
I2
tp4376
a(S'soul'
p4377
I2
tp4378
a(S'sound'
p4379
I2
tp4380
a(S'sounded'
p4381
I2
tp4382
a(S'speaker\x92s'
p4383
I2
tp4384
a(S'speed.the'
p4385
I2
tp4386
a(S'spend'
p4387
I2
tp4388
a(S'spots'
p4389
I2
tp4390
a(S'stand'
p4391
I2
tp4392
a(S'stands'
p4393
I2
tp4394
a(S'statements'
p4395
I2
tp4396
a(S'stayed'
p4397
I2
tp4398
a(S'stays'
p4399
I2
tp4400
a(S'sticking'
p4401
I2
tp4402
a(S'stock'
p4403
I2
tp4404
a(S'story.in'
p4405
I2
tp4406
a(S'strangers'
p4407
I2
tp4408
a(S'stresses'
p4409
I2
tp4410
a(S'striving'
p4411
I2
tp4412
a(S'stroke.the'
p4413
I2
tp4414
a(S'strokes'
p4415
I2
tp4416
a(S'struck'
p4417
I2
tp4418
a(S'structures'
p4419
I2
tp4420
a(S'stumbled'
p4421
I2
tp4422
a(S'stumbles'
p4423
I2
tp4424
a(S'succeed'
p4425
I2
tp4426
a(S'sucks'
p4427
I2
tp4428
a(S'suffering.the'
p4429
I2
tp4430
a(S'suggest'
p4431
I2
tp4432
a(S'summer.the'
p4433
I2
tp4434
a(S'summers'
p4435
I2
tp4436
a(S'summer\x92s'
p4437
I2
tp4438
a(S'supported'
p4439
I2
tp4440
a(S'surrondings'
p4441
I2
tp4442
a(S'surrounded'
p4443
I2
tp4444
a(S'survive.the'
p4445
I2
tp4446
a(S'survives.in'
p4447
I2
tp4448
a(S'surviving'
p4449
I2
tp4450
a(S'sush'
p4451
I2
tp4452
a(S'symbol'
p4453
I2
tp4454
a(S'talked'
p4455
I2
tp4456
a(S'taste'
p4457
I2
tp4458
a(S'taunted'
p4459
I2
tp4460
a(S'te'
p4461
I2
tp4462
a(S'teaches'
p4463
I2
tp4464
a(S'teasing'
p4465
I2
tp4466
a(S'temp'
p4467
I2
tp4468
a(S'tempature'
p4469
I2
tp4470
a(S'terain'
p4471
I2
tp4472
a(S'terrains'
p4473
I2
tp4474
a(S'terrifying'
p4475
I2
tp4476
a(S'tests'
p4477
I2
tp4478
a(S'thankful'
p4479
I2
tp4480
a(S'them.the'
p4481
I2
tp4482
a(S'theme'
p4483
I2
tp4484
a(S'them\x94'
p4485
I2
tp4486
a(S'ther'
p4487
I2
tp4488
a(S'there.the'
p4489
I2
tp4490
a(S'therefor'
p4491
I2
tp4492
a(S'thes'
p4493
I2
tp4494
a(S'they\x92re'
p4495
I2
tp4496
a(S'threat'
p4497
I2
tp4498
a(S'thrist'
p4499
I2
tp4500
a(S'throat.\x94'
p4501
I2
tp4502
a(S'throat\x94'
p4503
I2
tp4504
a(S'throug'
p4505
I2
tp4506
a(S'throwing'
p4507
I2
tp4508
a(S'tiered'
p4509
I2
tp4510
a(S'till'
p4511
I2
tp4512
a(S'time-'
p4513
I2
tp4514
a(S'time-say'
p4515
I2
tp4516
a(S'time\x94'
p4517
I2
tp4518
a(S'tired.the'
p4519
I2
tp4520
a(S'tires'
p4521
I2
tp4522
a(S'tools'
p4523
I2
tp4524
a(S'trails'
p4525
I2
tp4526
a(S'travelers'
p4527
I2
tp4528
a(S'tremendously'
p4529
I2
tp4530
a(S'tripthe'
p4531
I2
tp4532
a(S'troubling.\x94'
p4533
I2
tp4534
a(S'trusting'
p4535
I2
tp4536
a(S'tumple'
p4537
I2
tp4538
a(S'twice'
p4539
I2
tp4540
a(S'twist\x94'
p4541
I2
tp4542
a(S'unbearable'
p4543
I2
tp4544
a(S'uneasy'
p4545
I2
tp4546
a(S'unfit'
p4547
I2
tp4548
a(S'unfortunate'
p4549
I2
tp4550
a(S'unwanted'
p4551
I2
tp4552
a(S'ups'
p4553
I2
tp4554
a(S'variety'
p4555
I2
tp4556
a(S'verbal'
p4557
I2
tp4558
a(S'views'
p4559
I2
tp4560
a(S'view\x94'
p4561
I2
tp4562
a(S'vowed'
p4563
I2
tp4564
a(S'wait'
p4565
I2
tp4566
a(S'war-'
p4567
I2
tp4568
a(S'wate'
p4569
I2
tp4570
a(S'water-'
p4571
I2
tp4572
a(S'waterthe'
p4573
I2
tp4574
a(S'wave'
p4575
I2
tp4576
a(S'way.in'
p4577
I2
tp4578
a(S'weakening'
p4579
I2
tp4580
a(S'welchs'
p4581
I2
tp4582
a(S'whatever'
p4583
I2
tp4584
a(S'what\x92s'
p4585
I2
tp4586
a(S'wheather'
p4587
I2
tp4588
a(S'who\x92s'
p4589
I2
tp4590
a(S'wi'
p4591
I2
tp4592
a(S'wilber'
p4593
I2
tp4594
a(S"wilber's"
p4595
I2
tp4596
a(S'wilbers'
p4597
I2
tp4598
a(S'willing'
p4599
I2
tp4600
a(S'win'
p4601
I2
tp4602
a(S'winter'
p4603
I2
tp4604
a(S'within'
p4605
I2
tp4606
a(S'wonder'
p4607
I2
tp4608
a(S'wonderful'
p4609
I2
tp4610
a(S'wont'
p4611
I2
tp4612
a(S'works'
p4613
I2
tp4614
a(S'worries'
p4615
I2
tp4616
a(S'worser'
p4617
I2
tp4618
a(S'wouldnt'
p4619
I2
tp4620
a(S'wound'
p4621
I2
tp4622
a(S'writing'
p4623
I2
tp4624
a(S'wrong.the'
p4625
I2
tp4626
a(S'years.the'
p4627
I2
tp4628
a(S'yosemite\x92s'
p4629
I2
tp4630
a(S'\x91rough'
p4631
I2
tp4632
a(S'\x91short'
p4633
I2
tp4634
a(S'\x91the'
p4635
I2
tp4636
a(S'\x91town\x92'
p4637
I2
tp4638
a(S'\x93(joe'
p4639
I2
tp4640
a(S'\x93.i'
p4641
I2
tp4642
a(S'\x93@caps2'
p4643
I2
tp4644
a(S'\x93by'
p4645
I2
tp4646
a(S'\x93chuckled'
p4647
I2
tp4648
a(S'\x93drank'
p4649
I2
tp4650
a(S'\x93drop'
p4651
I2
tp4652
a(S'\x93gathered'
p4653
I2
tp4654
a(S'\x93going'
p4655
I2
tp4656
a(S'\x93haven\x92t'
p4657
I2
tp4658
a(S'\x93if'
p4659
I2
tp4660
a(S'\x93l'
p4661
I2
tp4662
a(S'\x93like'
p4663
I2
tp4664
a(S'\x93long'
p4665
I2
tp4666
a(S'\x93ridiculously'
p4667
I2
tp4668
a(S'\x93rolling'
p4669
I2
tp4670
a(S'\x93serenity'
p4671
I2
tp4672
a(S'\x93several'
p4673
I2
tp4674
a(S'\x93was'
p4675
I2
tp4676
a(S'\x93yes'
p4677
I2
tp4678
a(S'!!'
p4679
I1
tp4680
a(S'$'
I1
tp4681
a(S"''...arrived"
p4682
I1
tp4683
a(S"''about"
p4684
I1
tp4685
a(S"''as"
p4686
I1
tp4687
a(S"''flatroad"
p4688
I1
tp4689
a(S"''one"
p4690
I1
tp4691
a(S"''over"
p4692
I1
tp4693
a(S"''rough"
p4694
I1
tp4695
a(S"''sometimes"
p4696
I1
tp4697
a(S"''that"
p4698
I1
tp4699
a(S"''the"
p4700
I1
tp4701
a(S"''this"
p4702
I1
tp4703
a(S"''town.''"
p4704
I1
tp4705
a(S"''when"
p4706
I1
tp4707
a(S"'@organization2'"
p4708
I1
tp4709
a(S"'since"
p4710
I1
tp4711
a(S'(@caps1).\x94'
p4712
I1
tp4713
a(S'(@num1.)'
p4714
I1
tp4715
a(S'(@num2'
p4716
I1
tp4717
a(S'(@num2.)'
p4718
I1
tp4719
a(S'(a'
p4720
I1
tp4721
a(S'(abandoned'
p4722
I1
tp4723
a(S'(his)'
p4724
I1
tp4725
a(S'(i'
p4726
I1
tp4727
a(S'(ister)'
p4728
I1
tp4729
a(S'(joe'
p4730
I1
tp4731
a(S'(just'
p4732
I1
tp4733
a(S'(kurmakie'
p4734
I1
tp4735
a(S'(of'
p4736
I1
tp4737
a(S'(the'
p4738
I1
tp4739
a(S'(when'
p4740
I1
tp4741
a(S';'
I1
tp4742
a(S';do'
p4743
I1
tp4744
a(S'??.????'
p4745
I1
tp4746
a(S'???(not'
p4747
I1
tp4748
a(S'???.the'
p4749
I1
tp4750
a(S'???.there'
p4751
I1
tp4752
a(S'???good'
p4753
I1
tp4754
a(S'???in'
p4755
I1
tp4756
a(S'???of'
p4757
I1
tp4758
a(S'[and]'
p4759
I1
tp4760
a(S'[he]'
p4761
I1
tp4762
a(S'[him]'
p4763
I1
tp4764
a(S'a,\x93ridiculously'
p4765
I1
tp4766
a(S'a.k.a'
p4767
I1
tp4768
a(S'aase'
p4769
I1
tp4770
a(S'abadond'
p4771
I1
tp4772
a(S'abait'
p4773
I1
tp4774
a(S'abandond'
p4775
I1
tp4776
a(S'abandoned,it'
p4777
I1
tp4778
a(S'abandoned.the'
p4779
I1
tp4780
a(S'abandoness'
p4781
I1
tp4782
a(S'abandured'
p4783
I1
tp4784
a(S'abanodoned'
p4785
I1
tp4786
a(S'abbandon'
p4787
I1
tp4788
a(S'abig'
p4789
I1
tp4790
a(S'abilitiesin'
p4791
I1
tp4792
a(S'ablut'
p4793
I1
tp4794
a(S'abondered'
p4795
I1
tp4796
a(S'abondored'
p4797
I1
tp4798
a(S'abounded'
p4799
I1
tp4800
a(S'about.i'
p4801
I1
tp4802
a(S'abundance'
p4803
I1
tp4804
a(S'abundanded'
p4805
I1
tp4806
a(S'accepted'
p4807
I1
tp4808
a(S'accepts'
p4809
I1
tp4810
a(S'accomplishing'
p4811
I1
tp4812
a(S'accoutered'
p4813
I1
tp4814
a(S'acctully'
p4815
I1
tp4816
a(S'ache;'
p4817
I1
tp4818
a(S'achieves'
p4819
I1
tp4820
a(S'achieving'
p4821
I1
tp4822
a(S'aciccted'
p4823
I1
tp4824
a(S'acid,\x94'
p4825
I1
tp4826
a(S'acid.\x92\x92'
p4827
I1
tp4828
a(S'acne.the'
p4829
I1
tp4830
a(S'across.the'
p4831
I1
tp4832
a(S'acsess'
p4833
I1
tp4834
a(S'actaire.in'
p4835
I1
tp4836
a(S'actions'
p4837
I1
tp4838
a(S'actual'
p4839
I1
tp4840
a(S'acually'
p4841
I1
tp4842
a(S'acused'
p4843
I1
tp4844
a(S'adaodoned.the'
p4845
I1
tp4846
a(S'adaodoness'
p4847
I1
tp4848
a(S'additional'
p4849
I1
tp4850
a(S'adequate'
p4851
I1
tp4852
a(S'adiamond'
p4853
I1
tp4854
a(S'adjust'
p4855
I1
tp4856
a(S'advance'
p4857
I1
tp4858
a(S'adventure.in'
p4859
I1
tp4860
a(S'adventure.the'
p4861
I1
tp4862
a(S'adventure\x94'
p4863
I1
tp4864
a(S'adventurous'
p4865
I1
tp4866
a(S'adversely'
p4867
I1
tp4868
a(S'adversities'
p4869
I1
tp4870
a(S'adversity.the'
p4871
I1
tp4872
a(S'advertised'
p4873
I1
tp4874
a(S'advertising'
p4875
I1
tp4876
a(S'adviced'
p4877
I1
tp4878
a(S'afected'
p4879
I1
tp4880
a(S'afects'
p4881
I1
tp4882
a(S'afeted'
p4883
I1
tp4884
a(S'affeced'
p4885
I1
tp4886
a(S'affect.the'
p4887
I1
tp4888
a(S'affectes'
p4889
I1
tp4890
a(S'affective'
p4891
I1
tp4892
a(S'affective.the'
p4893
I1
tp4894
a(S'affectively'
p4895
I1
tp4896
a(S'affecton'
p4897
I1
tp4898
a(S'affects.a'
p4899
I1
tp4900
a(S'affeted'
p4901
I1
tp4902
a(S'affore'
p4903
I1
tp4904
a(S'afftected'
p4905
I1
tp4906
a(S'afterward'
p4907
I1
tp4908
a(S'again.because'
p4909
I1
tp4910
a(S'again.features'
p4911
I1
tp4912
a(S'again.i'
p4913
I1
tp4914
a(S'again.in'
p4915
I1
tp4916
a(S'again.there'
p4917
I1
tp4918
a(S'againin'
p4919
I1
tp4920
a(S'agarsears'
p4921
I1
tp4922
a(S'ages'
p4923
I1
tp4924
a(S'agility'
p4925
I1
tp4926
a(S'agrees.in'
p4927
I1
tp4928
a(S'ahead!'
p4929
I1
tp4930
a(S'ahead.in'
p4931
I1
tp4932
a(S'ahead.\x94the'
p4933
I1
tp4934
a(S'ahead;do'
p4935
I1
tp4936
a(S'aiding'
p4937
I1
tp4938
a(S'aint'
p4939
I1
tp4940
a(S'air.the'
p4941
I1
tp4942
a(S'al'
p4943
I1
tp4944
a(S'alarming'
p4945
I1
tp4946
a(S'alaska'
p4947
I1
tp4948
a(S'alergic'
p4949
I1
tp4950
a(S'alittle.in'
p4951
I1
tp4952
a(S'alive.the'
p4953
I1
tp4954
a(S'all-'
p4955
I1
tp4956
a(S'all.the'
p4957
I1
tp4958
a(S'allow'
p4959
I1
tp4960
a(S'along.the'
p4961
I1
tp4962
a(S'alot.the'
p4963
I1
tp4964
a(S'aloud'
p4965
I1
tp4966
a(S'alright'
p4967
I1
tp4968
a(S'alright".this'
p4969
I1
tp4970
a(S'altitude'
p4971
I1
tp4972
a(S'altogether'
p4973
I1
tp4974
a(S'alway'
p4975
I1
tp4976
a(S'amajor'
p4977
I1
tp4978
a(S'amiss'
p4979
I1
tp4980
a(S'amounts'
p4981
I1
tp4982
a(S'amusement'
p4983
I1
tp4984
a(S'analyzing'
p4985
I1
tp4986
a(S'andin'
p4987
I1
tp4988
a(S'angre'
p4989
I1
tp4990
a(S'angred'
p4991
I1
tp4992
a(S'animal'
p4993
I1
tp4994
a(S'animated'
p4995
I1
tp4996
a(S'another.there'
p4997
I1
tp4998
a(S'answerin'
p4999
I1
tp5000
a(S'answers'
p5001
I1
tp5002
a(S'anther'
p5003
I1
tp5004
a(S'anxiety'
p5005
I1
tp5006
a(S'anxiousness'
p5007
I1
tp5008
a(S'any;'
p5009
I1
tp5010
a(S'anymore.there'
p5011
I1
tp5012
a(S'anything!'
p5013
I1
tp5014
a(S'anything.the'
p5015
I1
tp5016
a(S'anything.this'
p5017
I1
tp5018
a(S'anytime'
p5019
I1
tp5020
a(S'anywere'
p5021
I1
tp5022
a(S'anywhere.the'
p5023
I1
tp5024
a(S'apart.the'
p5025
I1
tp5026
a(S'apirean'
p5027
I1
tp5028
a(S'aplists'
p5029
I1
tp5030
a(S'apointed'
p5031
I1
tp5032
a(S'apparent'
p5033
I1
tp5034
a(S'appealing'
p5035
I1
tp5036
a(S'appears'
p5037
I1
tp5038
a(S'appert'
p5039
I1
tp5040
a(S'applauds'
p5041
I1
tp5042
a(S'appreciates'
p5043
I1
tp5044
a(S'appropriate'
p5045
I1
tp5046
a(S'approved'
p5047
I1
tp5048
a(S'apropreit'
p5049
I1
tp5050
a(S'aqusting'
p5051
I1
tp5052
a(S'arctic'
p5053
I1
tp5054
a(S'are.in'
p5055
I1
tp5056
a(S'are.that'
p5057
I1
tp5058
a(S'area.being'
p5059
I1
tp5060
a(S'area.in'
p5061
I1
tp5062
a(S'ared'
p5063
I1
tp5064
a(S'aridity'
p5065
I1
tp5066
a(S'arise'
p5067
I1
tp5068
a(S'arising'
p5069
I1
tp5070
a(S'arizona'
p5071
I1
tp5072
a(S'aroun'
p5073
I1
tp5074
a(S'around.the'
p5075
I1
tp5076
a(S'aroung'
p5077
I1
tp5078
a(S'arrest'
p5079
I1
tp5080
a(S'arround'
p5081
I1
tp5082
a(S'as;'
p5083
I1
tp5084
a(S'askes'
p5085
I1
tp5086
a(S'assurance'
p5087
I1
tp5088
a(S'ater'
p5089
I1
tp5090
a(S'athe'
p5091
I1
tp5092
a(S'athletic'
p5093
I1
tp5094
a(S'atm.\x94'
p5095
I1
tp5096
a(S'atmosphere'
p5097
I1
tp5098
a(S'attack'
p5099
I1
tp5100
a(S'attacked'
p5101
I1
tp5102
a(S'attempted'
p5103
I1
tp5104
a(S'attention'
p5105
I1
tp5106
a(S'atthat'
p5107
I1
tp5108
a(S'attitude.in'
p5109
I1
tp5110
a(S'attiude.the'
p5111
I1
tp5112
a(S'author.in'
p5113
I1
tp5114
a(S'author.\x93do'
p5115
I1
tp5116
a(S'author/cyclist'
p5117
I1
tp5118
a(S'authour'
p5119
I1
tp5120
a(S'automatically'
p5121
I1
tp5122
a(S'available'
p5123
I1
tp5124
a(S'avoided.the'
p5125
I1
tp5126
a(S'avoiding'
p5127
I1
tp5128
a(S'awaiting'
p5129
I1
tp5130
a(S'awareness'
p5131
I1
tp5132
a(S'aways'
p5133
I1
tp5134
a(S'bacames'
p5135
I1
tp5136
a(S'back-beaked'
p5137
I1
tp5138
a(S'back.the'
p5139
I1
tp5140
a(S'backin'
p5141
I1
tp5142
a(S'back\x94'
p5143
I1
tp5144
a(S'back\x96bloked'
p5145
I1
tp5146
a(S'bairly'
p5147
I1
tp5148
a(S'baite'
p5149
I1
tp5150
a(S'baits'
p5151
I1
tp5152
a(S'baitshop'
p5153
I1
tp5154
a(S'bake'
p5155
I1
tp5156
a(S'baked'
p5157
I1
tp5158
a(S'balanc'
p5159
I1
tp5160
a(S'balancing'
p5161
I1
tp5162
a(S'ball'
p5163
I1
tp5164
a(S'band'
p5165
I1
tp5166
a(S'bandoned'
p5167
I1
tp5168
a(S'bar'
p5169
I1
tp5170
a(S'baren'
p5171
I1
tp5172
a(S'barin'
p5173
I1
tp5174
a(S'barrenness'
p5175
I1
tp5176
a(S'bars'
p5177
I1
tp5178
a(S'barst'
p5179
I1
tp5180
a(S'basketball'
p5181
I1
tp5182
a(S'bate'
p5183
I1
tp5184
a(S'batey'
p5185
I1
tp5186
a(S'bathrooms'
p5187
I1
tp5188
a(S'bathroom\x94'
p5189
I1
tp5190
a(S'batteryacid'
p5191
I1
tp5192
a(S'bay'
p5193
I1
tp5194
a(S'be.[temperature]the'
p5195
I1
tp5196
a(S'be.certin'
p5197
I1
tp5198
a(S'be.in'
p5199
I1
tp5200
a(S'be.the'
p5201
I1
tp5202
a(S'beam'
p5203
I1
tp5204
a(S'beaming'
p5205
I1
tp5206
a(S'beat-up'
p5207
I1
tp5208
a(S'beatdown...\x94'
p5209
I1
tp5210
a(S'beaty'
p5211
I1
tp5212
a(S'becaus'
p5213
I1
tp5214
a(S'becaused'
p5215
I1
tp5216
a(S'becom'
p5217
I1
tp5218
a(S'beggining'
p5219
I1
tp5220
a(S'begginning'
p5221
I1
tp5222
a(S'beging'
p5223
I1
tp5224
a(S'beginining'
p5225
I1
tp5226
a(S'behave'
p5227
I1
tp5228
a(S'behavior'
p5229
I1
tp5230
a(S'beneath'
p5231
I1
tp5232
a(S'beneficial'
p5233
I1
tp5234
a(S'bent'
p5235
I1
tp5236
a(S'berough'
p5237
I1
tp5238
a(S'besides'
p5239
I1
tp5240
a(S'best.the'
p5241
I1
tp5242
a(S'bet."the'
p5243
I1
tp5244
a(S'bet\x94'
p5245
I1
tp5246
a(S'beyond'
p5247
I1
tp5248
a(S'biclist.the'
p5249
I1
tp5250
a(S'bicycle.the'
p5251
I1
tp5252
a(S'bicycles'
p5253
I1
tp5254
a(S'bicycling'
p5255
I1
tp5256
a(S'bike!'
p5257
I1
tp5258
a(S'bike,which'
p5259
I1
tp5260
a(S'bike-ride.the'
p5261
I1
tp5262
a(S'bike.in'
p5263
I1
tp5264
a(S'biker.the'
p5265
I1
tp5266
a(S'bikeride'
p5267
I1
tp5268
a(S'bike\x92s'
p5269
I1
tp5270
a(S'bilaver'
p5271
I1
tp5272
a(S'bin'
p5273
I1
tp5274
a(S'bird'
p5275
I1
tp5276
a(S'biter'
p5277
I1
tp5278
a(S'bitter'
p5279
I1
tp5280
a(S'bitting'
p5281
I1
tp5282
a(S'bivas'
p5283
I1
tp5284
a(S'bland'
p5285
I1
tp5286
a(S'blazen'
p5287
I1
tp5288
a(S'bleak'
p5289
I1
tp5290
a(S'blessing'
p5291
I1
tp5292
a(S'blizzard'
p5293
I1
tp5294
a(S'block'
p5295
I1
tp5296
a(S'blocks'
p5297
I1
tp5298
a(S'blow'
p5299
I1
tp5300
a(S'board'
p5301
I1
tp5302
a(S'boby'
p5303
I1
tp5304
a(S'bodies'
p5305
I1
tp5306
a(S'body.i'
p5307
I1
tp5308
a(S'bodys'
p5309
I1
tp5310
a(S'bolt'
p5311
I1
tp5312
a(S'bones'
p5313
I1
tp5314
a(S'booming'
p5315
I1
tp5316
a(S'boosted'
p5317
I1
tp5318
a(S'boosts'
p5319
I1
tp5320
a(S'boring'
p5321
I1
tp5322
a(S'bot'
p5323
I1
tp5324
a(S'bothe'
p5325
I1
tp5326
a(S'bother'
p5327
I1
tp5328
a(S'bothered'
p5329
I1
tp5330
a(S'bothering'
p5331
I1
tp5332
a(S'boulder'
p5333
I1
tp5334
a(S'bounces'
p5335
I1
tp5336
a(S'bound'
p5337
I1
tp5338
a(S'boundarys'
p5339
I1
tp5340
a(S'box'
p5341
I1
tp5342
a(S'brains'
p5343
I1
tp5344
a(S'brake'
p5345
I1
tp5346
a(S'braking'
p5347
I1
tp5348
a(S'brakish'
p5349
I1
tp5350
a(S'brang'
p5351
I1
tp5352
a(S'braved'
p5353
I1
tp5354
a(S'breakway'
p5355
I1
tp5356
a(S'breath'
p5357
I1
tp5358
a(S'brief'
p5359
I1
tp5360
a(S'bright.the'
p5361
I1
tp5362
a(S'brilliant'
p5363
I1
tp5364
a(S'bringing'
p5365
I1
tp5366
a(S'brown'
p5367
I1
tp5368
a(S'bud'
p5369
I1
tp5370
a(S'building-abandoned'
p5371
I1
tp5372
a(S'building/town'
p5373
I1
tp5374
a(S'builiding;'
p5375
I1
tp5376
a(S'buliding'
p5377
I1
tp5378
a(S'bulidings'
p5379
I1
tp5380
a(S'bulling'
p5381
I1
tp5382
a(S'bum.the'
p5383
I1
tp5384
a(S'bumpily'
p5385
I1
tp5386
a(S'bumps,\x94'
p5387
I1
tp5388
a(S'bumpsy'
p5389
I1
tp5390
a(S'burned'
p5391
I1
tp5392
a(S'burrows'
p5393
I1
tp5394
a(S'busting'
p5395
I1
tp5396
a(S'bustling'
p5397
I1
tp5398
a(S'busy'
p5399
I1
tp5400
a(S'butduring'
p5401
I1
tp5402
a(S'butt'
p5403
I1
tp5404
a(S'by.the'
p5405
I1
tp5406
a(S'bycles'
p5407
I1
tp5408
a(S'caations'
p5409
I1
tp5410
a(S'cald'
p5411
I1
tp5412
a(S'caldnt'
p5413
I1
tp5414
a(S'caldn\x92t'
p5415
I1
tp5416
a(S'califonia'
p5417
I1
tp5418
a(S'california.the'
p5419
I1
tp5420
a(S'californian'
p5421
I1
tp5422
a(S'call'
p5423
I1
tp5424
a(S'callada'
p5425
I1
tp5426
a(S'calmer'
p5427
I1
tp5428
a(S'calming'
p5429
I1
tp5430
a(S'calories'
p5431
I1
tp5432
a(S'calter'
p5433
I1
tp5434
a(S'calve'
p5435
I1
tp5436
a(S'camel'
p5437
I1
tp5438
a(S"camp''"
p5439
I1
tp5440
a(S'camp,\x94'
p5441
I1
tp5442
a(S'camp.the'
p5443
I1
tp5444
a(S'camp.this'
p5445
I1
tp5446
a(S'camp.\x94'
p5447
I1
tp5448
a(S'camps'
p5449
I1
tp5450
a(S'campsite'
p5451
I1
tp5452
a(S'canal'
p5453
I1
tp5454
a(S'candy'
p5455
I1
tp5456
a(S'canging'
p5457
I1
tp5458
a(S'caps1.the'
p5459
I1
tp5460
a(S'caps1;'
p5461
I1
tp5462
a(S'caps1\x94'
p5463
I1
tp5464
a(S'caps2).\x94'
p5465
I1
tp5466
a(S'caps2\x92s'
p5467
I1
tp5468
a(S'caps4'
p5469
I1
tp5470
a(S'car.the'
p5471
I1
tp5472
a(S'care.the'
p5473
I1
tp5474
a(S'cared'
p5475
I1
tp5476
a(S'carefree'
p5477
I1
tp5478
a(S'carefully'
p5479
I1
tp5480
a(S'carrol'
p5481
I1
tp5482
a(S'cases'
p5483
I1
tp5484
a(S'cat'
p5485
I1
tp5486
a(S'catch'
p5487
I1
tp5488
a(S'cationly'
p5489
I1
tp5490
a(S'cations'
p5491
I1
tp5492
a(S'catus'
p5493
I1
tp5494
a(S'catylist'
p5495
I1
tp5496
a(S'caueses'
p5497
I1
tp5498
a(S'cautiousin'
p5499
I1
tp5500
a(S'cautiously'
p5501
I1
tp5502
a(S'cautrous'
p5503
I1
tp5504
a(S'ceased'
p5505
I1
tp5506
a(S'center!'
p5507
I1
tp5508
a(S'certainly'
p5509
I1
tp5510
a(S'certin'
p5511
I1
tp5512
a(S'chains'
p5513
I1
tp5514
a(S'challenge;'
p5515
I1
tp5516
a(S'challenging.the'
p5517
I1
tp5518
a(S'changing\x93'
p5519
I1
tp5520
a(S'characteristic'
p5521
I1
tp5522
a(S'character\x92s'
p5523
I1
tp5524
a(S'charge'
p5525
I1
tp5526
a(S'chased'
p5527
I1
tp5528
a(S'checking'
p5529
I1
tp5530
a(S'cheerfully'
p5531
I1
tp5532
a(S'cheery'
p5533
I1
tp5534
a(S'cherry'
p5535
I1
tp5536
a(S'chest'
p5537
I1
tp5538
a(S'child'
p5539
I1
tp5540
a(S'choke'
p5541
I1
tp5542
a(S'choked'
p5543
I1
tp5544
a(S'choosing'
p5545
I1
tp5546
a(S'chosen'
p5547
I1
tp5548
a(S'chrested'
p5549
I1
tp5550
a(S'chronic'
p5551
I1
tp5552
a(S'chuckeled'
p5553
I1
tp5554
a(S'churchill'
p5555
I1
tp5556
a(S'cicle'
p5557
I1
tp5558
a(S'cimate'
p5559
I1
tp5560
a(S'circling'
p5561
I1
tp5562
a(S'circulate.\x94'
p5563
I1
tp5564
a(S'circulates'
p5565
I1
tp5566
a(S'circulate\x94'
p5567
I1
tp5568
a(S'civilisation'
p5569
I1
tp5570
a(S'civilizations'
p5571
I1
tp5572
a(S'claiming'
p5573
I1
tp5574
a(S'clan'
p5575
I1
tp5576
a(S'clean)'
p5577
I1
tp5578
a(S'clean,\x94'
p5579
I1
tp5580
a(S"clean.''"
p5581
I1
tp5582
a(S'clean.i'
p5583
I1
tp5584
a(S'clean.\x94when'
p5585
I1
tp5586
a(S'clearlier'
p5587
I1
tp5588
a(S'cleary'
p5589
I1
tp5590
a(S'clinched'
p5591
I1
tp5592
a(S'clist'
p5593
I1
tp5594
a(S'cloe'
p5595
I1
tp5596
a(S'closes'
p5597
I1
tp5598
a(S'closet'
p5599
I1
tp5600
a(S'closing'
p5601
I1
tp5602
a(S'cloud.there'
p5603
I1
tp5604
a(S'clyclist'
p5605
I1
tp5606
a(S'coast'
p5607
I1
tp5608
a(S'coaster'
p5609
I1
tp5610
a(S'cockish'
p5611
I1
tp5612
a(S'codi'
p5613
I1
tp5614
a(S'coggers\x94'
p5615
I1
tp5616
a(S'coheratly'
p5617
I1
tp5618
a(S'cold,clean'
p5619
I1
tp5620
a(S'collapsed'
p5621
I1
tp5622
a(S'collapses'
p5623
I1
tp5624
a(S'collide'
p5625
I1
tp5626
a(S'color'
p5627
I1
tp5628
a(S'colorful'
p5629
I1
tp5630
a(S'colors'
p5631
I1
tp5632
a(S'colud'
p5633
I1
tp5634
a(S'colun'
p5635
I1
tp5636
a(S'combined'
p5637
I1
tp5638
a(S'comesto'
p5639
I1
tp5640
a(S'comethe'
p5641
I1
tp5642
a(S'comlains'
p5643
I1
tp5644
a(S'communicate'
p5645
I1
tp5646
a(S'comp!'
p5647
I1
tp5648
a(S'compare'
p5649
I1
tp5650
a(S'completing'
p5651
I1
tp5652
a(S'completion'
p5653
I1
tp5654
a(S'complicating'
p5655
I1
tp5656
a(S'concentrated'
p5657
I1
tp5658
a(S'concerned'
p5659
I1
tp5660
a(S'concerve'
p5661
I1
tp5662
a(S'conclusion.the'
p5663
I1
tp5664
a(S'conclution'
p5665
I1
tp5666
a(S'concumption'
p5667
I1
tp5668
a(S'condisions'
p5669
I1
tp5670
a(S"condition's"
p5671
I1
tp5672
a(S'condition.the'
p5673
I1
tp5674
a(S'conditions.anyone'
p5675
I1
tp5676
a(S'conditions.the'
p5677
I1
tp5678
a(S'condition\x92s'
p5679
I1
tp5680
a(S'conditon'
p5681
I1
tp5682
a(S'confict'
p5683
I1
tp5684
a(S'confidenc'
p5685
I1
tp5686
a(S'confidence.in'
p5687
I1
tp5688
a(S'confidence;'
p5689
I1
tp5690
a(S'confidenceit'
p5691
I1
tp5692
a(S'confidens'
p5693
I1
tp5694
a(S'confident.heat'
p5695
I1
tp5696
a(S'confidentin'
p5697
I1
tp5698
a(S'confidently'
p5699
I1
tp5700
a(S'confiendce'
p5701
I1
tp5702
a(S'confined'
p5703
I1
tp5704
a(S'confinses'
p5705
I1
tp5706
a(S'confirms'
p5707
I1
tp5708
a(S'conflicting'
p5709
I1
tp5710
a(S'conflicts.the'
p5711
I1
tp5712
a(S'confront'
p5713
I1
tp5714
a(S'confronted'
p5715
I1
tp5716
a(S'confusing'
p5717
I1
tp5718
a(S'conlusio'
p5719
I1
tp5720
a(S'connected'
p5721
I1
tp5722
a(S'conscionous.the'
p5723
I1
tp5724
a(S'conserved'
p5725
I1
tp5726
a(S'conseve'
p5727
I1
tp5728
a(S'consider'
p5729
I1
tp5730
a(S'considered'
p5731
I1
tp5732
a(S'consist'
p5733
I1
tp5734
a(S'consisted'
p5735
I1
tp5736
a(S'consistent'
p5737
I1
tp5738
a(S'constintly'
p5739
I1
tp5740
a(S'consulting'
p5741
I1
tp5742
a(S'consumable'
p5743
I1
tp5744
a(S'consume'
p5745
I1
tp5746
a(S'consuming'
p5747
I1
tp5748
a(S'consumption'
p5749
I1
tp5750
a(S'contact'
p5751
I1
tp5752
a(S'contain'
p5753
I1
tp5754
a(S'containe'
p5755
I1
tp5756
a(S'containing'
p5757
I1
tp5758
a(S'conthe'
p5759
I1
tp5760
a(S'continually'
p5761
I1
tp5762
a(S'continuesly'
p5763
I1
tp5764
a(S'continuing'
p5765
I1
tp5766
a(S'contour'
p5767
I1
tp5768
a(S'contribute'
p5769
I1
tp5770
a(S'contributing'
p5771
I1
tp5772
a(S'control.steep'
p5773
I1
tp5774
a(S'controlled'
p5775
I1
tp5776
a(S'controls'
p5777
I1
tp5778
a(S'conversation'
p5779
I1
tp5780
a(S'conversing'
p5781
I1
tp5782
a(S'convince'
p5783
I1
tp5784
a(S'cool.\x94'
p5785
I1
tp5786
a(S'cooled'
p5787
I1
tp5788
a(S'coolest'
p5789
I1
tp5790
a(S'cooling'
p5791
I1
tp5792
a(S'cooperate'
p5793
I1
tp5794
a(S'cope'
p5795
I1
tp5796
a(S'coping'
p5797
I1
tp5798
a(S'cople'
p5799
I1
tp5800
a(S'coral'
p5801
I1
tp5802
a(S'corali'
p5803
I1
tp5804
a(S'cord'
p5805
I1
tp5806
a(S'corrall\x94'
p5807
I1
tp5808
a(S'correalates'
p5809
I1
tp5810
a(S'correct.the'
p5811
I1
tp5812
a(S'correctly'
p5813
I1
tp5814
a(S'corrol'
p5815
I1
tp5816
a(S'cosines'
p5817
I1
tp5818
a(S'cost'
p5819
I1
tp5820
a(S'cotagers'
p5821
I1
tp5822
a(S'could.in'
p5823
I1
tp5824
a(S'couldn`t'
p5825
I1
tp5826
a(S'could\x92nt'
p5827
I1
tp5828
a(S'could\x92t'
p5829
I1
tp5830
a(S'count'
p5831
I1
tp5832
a(S'countries'
p5833
I1
tp5834
a(S'countryside'
p5835
I1
tp5836
a(S'counts.\x94'
p5837
I1
tp5838
a(S'coupled'
p5839
I1
tp5840
a(S'courageous'
p5841
I1
tp5842
a(S'couragious'
p5843
I1
tp5844
a(S'course)'
p5845
I1
tp5846
a(S'courses'
p5847
I1
tp5848
a(S'cover'
p5849
I1
tp5850
a(S'covering'
p5851
I1
tp5852
a(S'cowed'
p5853
I1
tp5854
a(S'crashes'
p5855
I1
tp5856
a(S'crashing'
p5857
I1
tp5858
a(S'credited'
p5859
I1
tp5860
a(S'creeping'
p5861
I1
tp5862
a(S'creeps'
p5863
I1
tp5864
a(S'cried'
p5865
I1
tp5866
a(S'crippiling'
p5867
I1
tp5868
a(S'cripppling'
p5869
I1
tp5870
a(S'critters'
p5871
I1
tp5872
a(S'crosses'
p5873
I1
tp5874
a(S'crppling'
p5875
I1
tp5876
a(S'crucel'
p5877
I1
tp5878
a(S"cruel.''"
p5879
I1
tp5880
a(S'cruel.in'
p5881
I1
tp5882
a(S'cruel.\x94he'
p5883
I1
tp5884
a(S'crueler'
p5885
I1
tp5886
a(S'crush'
p5887
I1
tp5888
a(S'cue'
p5889
I1
tp5890
a(S'cup'
p5891
I1
tp5892
a(S'curbs'
p5893
I1
tp5894
a(S'current'
p5895
I1
tp5896
a(S'currently'
p5897
I1
tp5898
a(S'curved'
p5899
I1
tp5900
a(S'cut.\x94'
p5901
I1
tp5902
a(S'cut\x92'
p5903
I1
tp5904
a(S'cy'
p5905
I1
tp5906
a(S'cycclist'
p5907
I1
tp5908
a(S'cycilist'
p5909
I1
tp5910
a(S'cycilists.the'
p5911
I1
tp5912
a(S'cyclcist'
p5913
I1
tp5914
a(S'cycleist\x92s'
p5915
I1
tp5916
a(S'cyclest.a'
p5917
I1
tp5918
a(S'cyclest.the'
p5919
I1
tp5920
a(S'cycle\x92s'
p5921
I1
tp5922
a(S'cyclilst'
p5923
I1
tp5924
a(S'cycling)'
p5925
I1
tp5926
a(S'cyclisst'
p5927
I1
tp5928
a(S'cyclist(which'
p5929
I1
tp5930
a(S'cyclist)'
p5931
I1
tp5932
a(S'cyclist.@caps1'
p5933
I1
tp5934
a(S'cyclist.as'
p5935
I1
tp5936
a(S'cyclist.at'
p5937
I1
tp5938
a(S'cyclist.each'
p5939
I1
tp5940
a(S'cyclist.he'
p5941
I1
tp5942
a(S'cyclist.hot'
p5943
I1
tp5944
a(S'cyclist.i'
p5945
I1
tp5946
a(S'cyclist.it'
p5947
I1
tp5948
a(S'cyclist.nature'
p5949
I1
tp5950
a(S'cyclist.one'
p5951
I1
tp5952
a(S'cyclist.setting'
p5953
I1
tp5954
a(S'cyclist.some'
p5955
I1
tp5956
a(S'cyclist.that'
p5957
I1
tp5958
a(S'cyclist.when'
p5959
I1
tp5960
a(S'cyclistcycling'
p5961
I1
tp5962
a(S'cyclistis'
p5963
I1
tp5964
a(S'cyclists.as'
p5965
I1
tp5966
a(S'cyclists.in'
p5967
I1
tp5968
a(S'cyclists.the'
p5969
I1
tp5970
a(S'cyclit'
p5971
I1
tp5972
a(S'cycllist'
p5973
I1
tp5974
a(S'cyclsit.how'
p5975
I1
tp5976
a(S'cylceist'
p5977
I1
tp5978
a(S'cylist'
p5979
I1
tp5980
a(S'd'
I1
tp5981
a(S'damaged'
p5982
I1
tp5983
a(S'damper'
p5984
I1
tp5985
a(S'dance'
p5986
I1
tp5987
a(S'danger.as'
p5988
I1
tp5989
a(S'danger?'
p5990
I1
tp5991
a(S'dangerous.a'
p5992
I1
tp5993
a(S'dangerous.the'
p5994
I1
tp5995
a(S'dangerousness'
p5996
I1
tp5997
a(S'dangous'
p5998
I1
tp5999
a(S'date.\x93@caps1'
p6000
I1
tp6001
a(S'date2'
p6002
I1
tp6003
a(S'datted.the'
p6004
I1
tp6005
a(S'daunting'
p6006
I1
tp6007
a(S'daylight'
p6008
I1
tp6009
a(S'day\x94'
p6010
I1
tp6011
a(S'dead,either'
p6012
I1
tp6013
a(S'dead.the'
p6014
I1
tp6015
a(S'deal.the'
p6016
I1
tp6017
a(S'dealing'
p6018
I1
tp6019
a(S'death.i'
p6020
I1
tp6021
a(S'death.in'
p6022
I1
tp6023
a(S'debris'
p6024
I1
tp6025
a(S'decade'
p6026
I1
tp6027
a(S'decades\x94'
p6028
I1
tp6029
a(S'decimated'
p6030
I1
tp6031
a(S'decive'
p6032
I1
tp6033
a(S'declared'
p6034
I1
tp6035
a(S'decline'
p6036
I1
tp6037
a(S'decreased.he'
p6038
I1
tp6039
a(S'decreases'
p6040
I1
tp6041
a(S'dedication'
p6042
I1
tp6043
a(S'deep'
p6044
I1
tp6045
a(S'definately'
p6046
I1
tp6047
a(S'definite'
p6048
I1
tp6049
a(S'definuntly'
p6050
I1
tp6051
a(S'defying'
p6052
I1
tp6053
a(S'degers\x94'
p6054
I1
tp6055
a(S'degrees"(kurmaskie'
p6056
I1
tp6057
a(S'degrees,\x94'
p6058
I1
tp6059
a(S'degrees...it'
p6060
I1
tp6061
a(S'dehedrated'
p6062
I1
tp6063
a(S'dehidarted'
p6064
I1
tp6065
a(S'dehiderate'
p6066
I1
tp6067
a(S'dehiderated'
p6068
I1
tp6069
a(S'dehightrated'
p6070
I1
tp6071
a(S'dehirrated.the'
p6072
I1
tp6073
a(S'dehydrated,or'
p6074
I1
tp6075
a(S'dehydrated,passout'
p6076
I1
tp6077
a(S'dehydrated;'
p6078
I1
tp6079
a(S'dehydratiog'
p6080
I1
tp6081
a(S'dehydration.on'
p6082
I1
tp6083
a(S'dehygration'
p6084
I1
tp6085
a(S'dehyjradid.throughout'
p6086
I1
tp6087
a(S'delicacy'
p6088
I1
tp6089
a(S'delighted'
p6090
I1
tp6091
a(S'delinous'
p6092
I1
tp6093
a(S'deliriousness'
p6094
I1
tp6095
a(S'delivers'
p6096
I1
tp6097
a(S'demon'
p6098
I1
tp6099
a(S'demonsrtrating'
p6100
I1
tp6101
a(S'denyarated'
p6102
I1
tp6103
a(S'dep'
p6104
I1
tp6105
a(S'dependent'
p6106
I1
tp6107
a(S'depicted'
p6108
I1
tp6109
a(S'deplet'
p6110
I1
tp6111
a(S'deplete'
p6112
I1
tp6113
a(S'depletes'
p6114
I1
tp6115
a(S'depletion'
p6116
I1
tp6117
a(S'depress'
p6118
I1
tp6119
a(S'depressing.the'
p6120
I1
tp6121
a(S'depression'
p6122
I1
tp6123
a(S'deprive'
p6124
I1
tp6125
a(S'deprived'
p6126
I1
tp6127
a(S'depriving'
p6128
I1
tp6129
a(S'descriptions'
p6130
I1
tp6131
a(S'descriptions.setting'
p6132
I1
tp6133
a(S'desearted'
p6134
I1
tp6135
a(S'desented'
p6136
I1
tp6137
a(S'deseret'
p6138
I1
tp6139
a(S'desert,\x94'
p6140
I1
tp6141
a(S'desert-'
p6142
I1
tp6143
a(S'desert.in'
p6144
I1
tp6145
a(S'desert.the'
p6146
I1
tp6147
a(S'desertd'
p6148
I1
tp6149
a(S'deserted.though'
p6150
I1
tp6151
a(S'desertin'
p6152
I1
tp6153
a(S'deserts-all'
p6154
I1
tp6155
a(S'deserts.the'
p6156
I1
tp6157
a(S'desertthe'
p6158
I1
tp6159
a(S'desert\x92s'
p6160
I1
tp6161
a(S'deserve'
p6162
I1
tp6163
a(S'desireted'
p6164
I1
tp6165
a(S"desn't"
p6166
I1
tp6167
a(S'desolates'
p6168
I1
tp6169
a(S'desolet'
p6170
I1
tp6171
a(S'desolute'
p6172
I1
tp6173
a(S'despair.the'
p6174
I1
tp6175
a(S'despairing'
p6176
I1
tp6177
a(S'despairs'
p6178
I1
tp6179
a(S'despare'
p6180
I1
tp6181
a(S'desperatly'
p6182
I1
tp6183
a(S'despersion'
p6184
I1
tp6185
a(S'despirate'
p6186
I1
tp6187
a(S'desribes'
p6188
I1
tp6189
a(S'desteart'
p6190
I1
tp6191
a(S'destination.for'
p6192
I1
tp6193
a(S'destined'
p6194
I1
tp6195
a(S'destonation'
p6196
I1
tp6197
a(S'detail'
p6198
I1
tp6199
a(S'detailed'
p6200
I1
tp6201
a(S'details.in'
p6202
I1
tp6203
a(S'detened'
p6204
I1
tp6205
a(S'determained'
p6206
I1
tp6207
a(S'determand'
p6208
I1
tp6209
a(S'determination,you'
p6210
I1
tp6211
a(S'determind'
p6212
I1
tp6213
a(S'determines'
p6214
I1
tp6215
a(S'determining'
p6216
I1
tp6217
a(S'deterred'
p6218
I1
tp6219
a(S'detour'
p6220
I1
tp6221
a(S'devastating'
p6222
I1
tp6223
a(S'devastatingduring'
p6224
I1
tp6225
a(S'device'
p6226
I1
tp6227
a(S'devold'
p6228
I1
tp6229
a(S'deyhdrated'
p6230
I1
tp6231
a(S'dezerts'
p6232
I1
tp6233
a(S'diamondback-'
p6234
I1
tp6235
a(S'diamondback\x94'
p6236
I1
tp6237
a(S'diamondbrock'
p6238
I1
tp6239
a(S'diamondbuck-blooked'
p6240
I1
tp6241
a(S'dicride'
p6242
I1
tp6243
a(S'dicrided'
p6244
I1
tp6245
a(S'dictates'
p6246
I1
tp6247
a(S'did)'
p6248
I1
tp6249
a(S"didnn't"
p6250
I1
tp6251
a(S'die.in'
p6252
I1
tp6253
a(S'die.the'
p6254
I1
tp6255
a(S'die.there'
p6256
I1
tp6257
a(S'die.when'
p6258
I1
tp6259
a(S'die.\x93at'
p6260
I1
tp6261
a(S'died.in'
p6262
I1
tp6263
a(S'diel'
p6264
I1
tp6265
a(S'dieng'
p6266
I1
tp6267
a(S'dierections'
p6268
I1
tp6269
a(S'die\x94'
p6270
I1
tp6271
a(S'diferen'
p6272
I1
tp6273
a(S'difference'
p6274
I1
tp6275
a(S'differences'
p6276
I1
tp6277
a(S'different.he'
p6278
I1
tp6279
a(S'differently'
p6280
I1
tp6281
a(S'differing'
p6282
I1
tp6283
a(S'difficult.the'
p6284
I1
tp6285
a(S'difficut'
p6286
I1
tp6287
a(S'diffrent'
p6288
I1
tp6289
a(S'difical'
p6290
I1
tp6291
a(S'difificulty'
p6292
I1
tp6293
a(S'difinition'
p6294
I1
tp6295
a(S'diformed'
p6296
I1
tp6297
a(S'dig'
p6298
I1
tp6299
a(S'dihydration'
p6300
I1
tp6301
a(S'dilerious'
p6302
I1
tp6303
a(S'dilute'
p6304
I1
tp6305
a(S'diminished'
p6306
I1
tp6307
a(S'diminishing'
p6308
I1
tp6309
a(S'dimond'
p6310
I1
tp6311
a(S'dinking'
p6312
I1
tp6313
a(S'dipleted'
p6314
I1
tp6315
a(S'dirachion'
p6316
I1
tp6317
a(S'dire'
p6318
I1
tp6319
a(S'direcions'
p6320
I1
tp6321
a(S'direct'
p6322
I1
tp6323
a(S'directin'
p6324
I1
tp6325
a(S'direction.some'
p6326
I1
tp6327
a(S'direction.the'
p6328
I1
tp6329
a(S'direction.\x94'
p6330
I1
tp6331
a(S'directions.if'
p6332
I1
tp6333
a(S'diredness'
p6334
I1
tp6335
a(S'dirk'
p6336
I1
tp6337
a(S'disadvantage'
p6338
I1
tp6339
a(S'disapointment'
p6340
I1
tp6341
a(S'disappointing'
p6342
I1
tp6343
a(S'disappointments'
p6344
I1
tp6345
a(S'disappoints'
p6346
I1
tp6347
a(S'disaster.the'
p6348
I1
tp6349
a(S'discauraged'
p6350
I1
tp6351
a(S'discourage'
p6352
I1
tp6353
a(S'discouragement'
p6354
I1
tp6355
a(S'discourages'
p6356
I1
tp6357
a(S'discoured'
p6358
I1
tp6359
a(S'discribe'
p6360
I1
tp6361
a(S'discribed'
p6362
I1
tp6363
a(S'discribes'
p6364
I1
tp6365
a(S'discribing'
p6366
I1
tp6367
a(S'discride'
p6368
I1
tp6369
a(S'disfernded'
p6370
I1
tp6371
a(S'disgust'
p6372
I1
tp6373
a(S'disgusting'
p6374
I1
tp6375
a(S'dismiss'
p6376
I1
tp6377
a(S'disoriented'
p6378
I1
tp6379
a(S'dispair'
p6380
I1
tp6381
a(S'dispare'
p6382
I1
tp6383
a(S'displeasure'
p6384
I1
tp6385
a(S'disprate'
p6386
I1
tp6387
a(S'dissapointed'
p6388
I1
tp6389
a(S'dissapointment'
p6390
I1
tp6391
a(S'dissappoint'
p6392
I1
tp6393
a(S'dissetling'
p6394
I1
tp6395
a(S'distant'
p6396
I1
tp6397
a(S'distination'
p6398
I1
tp6399
a(S'distinct'
p6400
I1
tp6401
a(S'distorted'
p6402
I1
tp6403
a(S'distracted'
p6404
I1
tp6405
a(S'distractions'
p6406
I1
tp6407
a(S'distration'
p6408
I1
tp6409
a(S'distress'
p6410
I1
tp6411
a(S'distrought'
p6412
I1
tp6413
a(S'diying.in'
p6414
I1
tp6415
a(S'dizzy'
p6416
I1
tp6417
a(S'do.there'
p6418
I1
tp6419
a(S"does'nt"
p6420
I1
tp6421
a(S"doesn'twnt"
p6422
I1
tp6423
a(S'doesn,t'
p6424
I1
tp6425
a(S'doesnt'
p6426
I1
tp6427
a(S'dog'
p6428
I1
tp6429
a(S'dogers'
p6430
I1
tp6431
a(S'domper'
p6432
I1
tp6433
a(S"don't"
p6434
I1
tp6435
a(S'don`t'
p6436
I1
tp6437
a(S'door'
p6438
I1
tp6439
a(S'dosent'
p6440
I1
tp6441
a(S'dosen\x92t'
p6442
I1
tp6443
a(S'double'
p6444
I1
tp6445
a(S'doubted'
p6446
I1
tp6447
a(S'doun'
p6448
I1
tp6449
a(S'dout'
p6450
I1
tp6451
a(S'down...wide'
p6452
I1
tp6453
a(S'down.features'
p6454
I1
tp6455
a(S'down.i'
p6456
I1
tp6457
a(S'down.in'
p6458
I1
tp6459
a(S'down.many'
p6460
I1
tp6461
a(S'down.the'
p6462
I1
tp6463
a(S'down.there'
p6464
I1
tp6465
a(S'downin'
p6466
I1
tp6467
a(S'down\x94(kurmaskie'
p6468
I1
tp6469
a(S'drags'
p6470
I1
tp6471
a(S'drain'
p6472
I1
tp6473
a(S'drained'
p6474
I1
tp6475
a(S'draining'
p6476
I1
tp6477
a(S'drains'
p6478
I1
tp6479
a(S'drain\x92s'
p6480
I1
tp6481
a(S'dramatically.the'
p6482
I1
tp6483
a(S'dramaticaly'
p6484
I1
tp6485
a(S'draper'
p6486
I1
tp6487
a(S'drashed'
p6488
I1
tp6489
a(S'drastic'
p6490
I1
tp6491
a(S'drastically.in'
p6492
I1
tp6493
a(S'drawn'
p6494
I1
tp6495
a(S'dray'
p6496
I1
tp6497
a(S'dreaded'
p6498
I1
tp6499
a(S'driead'
p6500
I1
tp6501
a(S'dries'
p6502
I1
tp6503
a(S'drink;'
p6504
I1
tp6505
a(S'drinkthe'
p6506
I1
tp6507
a(S'drippen'
p6508
I1
tp6509
a(S'driven'
p6510
I1
tp6511
a(S'driver'
p6512
I1
tp6513
a(S'drops,".distances'
p6514
I1
tp6515
a(S'dry.like'
p6516
I1
tp6517
a(S'dry.second'
p6518
I1
tp6519
a(S'dude'
p6520
I1
tp6521
a(S'dumped'
p6522
I1
tp6523
a(S'dwelling'
p6524
I1
tp6525
a(S'dyhdration'
p6526
I1
tp6527
a(S'dyhrate'
p6528
I1
tp6529
a(S'dying)'
p6530
I1
tp6531
a(S'dying.the'
p6532
I1
tp6533
a(S'e'
I1
tp6534
a(S'ealier.\x94'
p6535
I1
tp6536
a(S'ear'
p6537
I1
tp6538
a(S'earbs'
p6539
I1
tp6540
a(S'earlier-had'
p6541
I1
tp6542
a(S'earlier.\x94'
p6543
I1
tp6544
a(S'early-summer'
p6545
I1
tp6546
a(S'earthley'
p6547
I1
tp6548
a(S'easier.many'
p6549
I1
tp6550
a(S'easlier'
p6551
I1
tp6552
a(S'easly'
p6553
I1
tp6554
a(S'ebbed'
p6555
I1
tp6556
a(S'effective'
p6557
I1
tp6558
a(S'effectthe'
p6559
I1
tp6560
a(S'elaborates'
p6561
I1
tp6562
a(S'elated'
p6563
I1
tp6564
a(S'elder'
p6565
I1
tp6566
a(S'elders'
p6567
I1
tp6568
a(S'eldrerly'
p6569
I1
tp6570
a(S'elements.the'
p6571
I1
tp6572
a(S'elevations'
p6573
I1
tp6574
a(S'elgo'
p6575
I1
tp6576
a(S'eliterat'
p6577
I1
tp6578
a(S'elses'
p6579
I1
tp6580
a(S'emotion'
p6581
I1
tp6582
a(S'emphasis'
p6583
I1
tp6584
a(S'emphasize'
p6585
I1
tp6586
a(S'emphasizes'
p6587
I1
tp6588
a(S'emphasizing'
p6589
I1
tp6590
a(S'empressed'
p6591
I1
tp6592
a(S'emptied'
p6593
I1
tp6594
a(S'emptying'
p6595
I1
tp6596
a(S'enable'
p6597
I1
tp6598
a(S'encounterd'
p6599
I1
tp6600
a(S'encountered.the'
p6601
I1
tp6602
a(S'encouragement'
p6603
I1
tp6604
a(S'encouraging'
p6605
I1
tp6606
a(S'end.in'
p6607
I1
tp6608
a(S'end.snake'
p6609
I1
tp6610
a(S'ending'
p6611
I1
tp6612
a(S'endlessly'
p6613
I1
tp6614
a(S'enduranc'
p6615
I1
tp6616
a(S'endurance.the'
p6617
I1
tp6618
a(S'endure.the'
p6619
I1
tp6620
a(S'endures'
p6621
I1
tp6622
a(S'enemies'
p6623
I1
tp6624
a(S'energised'
p6625
I1
tp6626
a(S'energized'
p6627
I1
tp6628
a(S'energy.these'
p6629
I1
tp6630
a(S'enformation'
p6631
I1
tp6632
a(S'enhance'
p6633
I1
tp6634
a(S'enhancing'
p6635
I1
tp6636
a(S'enjoying'
p6637
I1
tp6638
a(S'enjoyment'
p6639
I1
tp6640
a(S'enogth'
p6641
I1
tp6642
a(S'enormous'
p6643
I1
tp6644
a(S'enough.the'
p6645
I1
tp6646
a(S'enough.\x94'
p6647
I1
tp6648
a(S'epidemic.the'
p6649
I1
tp6650
a(S'equally'
p6651
I1
tp6652
a(S'equip'
p6653
I1
tp6654
a(S'er'
p6655
I1
tp6656
a(S'erected'
p6657
I1
tp6658
a(S'ergancy'
p6659
I1
tp6660
a(S'eseance'
p6661
I1
tp6662
a(S'essay/'
p6663
I1
tp6664
a(S'established'
p6665
I1
tp6666
a(S'establishment'
p6667
I1
tp6668
a(S'esteem'
p6669
I1
tp6670
a(S'etc.during'
p6671
I1
tp6672
a(S'ething'
p6673
I1
tp6674
a(S'evaporated'
p6675
I1
tp6676
a(S'evergreen'
p6677
I1
tp6678
a(S'everyday'
p6679
I1
tp6680
a(S'everything.the'
p6681
I1
tp6682
a(S'evey'
p6683
I1
tp6684
a(S'evidence'
p6685
I1
tp6686
a(S'evidenced'
p6687
I1
tp6688
a(S'evident'
p6689
I1
tp6690
a(S'evil'
p6691
I1
tp6692
a(S'ex'
p6693
I1
tp6694
a(S'exact'
p6695
I1
tp6696
a(S'exaction'
p6697
I1
tp6698
a(S'exagerate'
p6699
I1
tp6700
a(S'exaggerates'
p6701
I1
tp6702
a(S'exaggrate'
p6703
I1
tp6704
a(S'example,temperatare'
p6705
I1
tp6706
a(S'example;'
p6707
I1
tp6708
a(S'examples.in'
p6709
I1
tp6710
a(S'exasperated'
p6711
I1
tp6712
a(S'exauhsted'
p6713
I1
tp6714
a(S'exauhstion'
p6715
I1
tp6716
a(S'exauhtion'
p6717
I1
tp6718
a(S'exausition.the'
p6719
I1
tp6720
a(S'exaustion'
p6721
I1
tp6722
a(S'exaustion.there'
p6723
I1
tp6724
a(S'excedingly'
p6725
I1
tp6726
a(S'excess'
p6727
I1
tp6728
a(S'excessive'
p6729
I1
tp6730
a(S'exchanged'
p6731
I1
tp6732
a(S'excited.\x94'
p6733
I1
tp6734
a(S'excitement'
p6735
I1
tp6736
a(S'exciting'
p6737
I1
tp6738
a(S'excution'
p6739
I1
tp6740
a(S'exercising'
p6741
I1
tp6742
a(S'exhaust'
p6743
I1
tp6744
a(S'exhausted\x94'
p6745
I1
tp6746
a(S'exhausting'
p6747
I1
tp6748
a(S'exhausting,never'
p6749
I1
tp6750
a(S'exhaustion.in'
p6751
I1
tp6752
a(S'exhaustion.the'
p6753
I1
tp6754
a(S'exhausts'
p6755
I1
tp6756
a(S'exhuberate'
p6757
I1
tp6758
a(S'exist'
p6759
I1
tp6760
a(S'existed'
p6761
I1
tp6762
a(S'exited'
p6763
I1
tp6764
a(S'exlained'
p6765
I1
tp6766
a(S'exospodent'
p6767
I1
tp6768
a(S'exostied'
p6769
I1
tp6770
a(S'exoustion'
p6771
I1
tp6772
a(S'expearenced.i'
p6773
I1
tp6774
a(S'expecially'
p6775
I1
tp6776
a(S'expects'
p6777
I1
tp6778
a(S'expenses'
p6779
I1
tp6780
a(S'experience.when'
p6781
I1
tp6782
a(S'expert'
p6783
I1
tp6784
a(S'expierences'
p6785
I1
tp6786
a(S'expirenced'
p6787
I1
tp6788
a(S'explaning'
p6789
I1
tp6790
a(S'explenced'
p6791
I1
tp6792
a(S'exposed'
p6793
I1
tp6794
a(S'exposure'
p6795
I1
tp6796
a(S'expresses'
p6797
I1
tp6798
a(S'exsempl'
p6799
I1
tp6800
a(S'exsercising'
p6801
I1
tp6802
a(S'exsisted.in'
p6803
I1
tp6804
a(S'exsostion\x94'
p6805
I1
tp6806
a(S'exsusaing'
p6807
I1
tp6808
a(S'extended'
p6809
I1
tp6810
a(S'extends'
p6811
I1
tp6812
a(S'extension'
p6813
I1
tp6814
a(S'extreamly'
p6815
I1
tp6816
a(S'extrem'
p6817
I1
tp6818
a(S'extremes'
p6819
I1
tp6820
a(S'eye'
p6821
I1
tp6822
a(S"face.''"
p6823
I1
tp6824
a(S'faceing'
p6825
I1
tp6826
a(S'facility'
p6827
I1
tp6828
a(S'factal'
p6829
I1
tp6830
a(S'factor;'
p6831
I1
tp6832
a(S'factory.\x94'
p6833
I1
tp6834
a(S'factory.\x94ironic'
p6835
I1
tp6836
a(S'factory;'
p6837
I1
tp6838
a(S'factry.it'
p6839
I1
tp6840
a(S'factt'
p6841
I1
tp6842
a(S'fading'
p6843
I1
tp6844
a(S'fading.\x94'
p6845
I1
tp6846
a(S'faetures'
p6847
I1
tp6848
a(S'failure'
p6849
I1
tp6850
a(S'fainted'
p6851
I1
tp6852
a(S'fairly'
p6853
I1
tp6854
a(S'fait'
p6855
I1
tp6856
a(S'faling'
p6857
I1
tp6858
a(S'fall.the'
p6859
I1
tp6860
a(S'fallen'
p6861
I1
tp6862
a(S'falls'
p6863
I1
tp6864
a(S'falt'
p6865
I1
tp6866
a(S'family'
p6867
I1
tp6868
a(S'far.many'
p6869
I1
tp6870
a(S'fast.the'
p6871
I1
tp6872
a(S'faster.the'
p6873
I1
tp6874
a(S'father'
p6875
I1
tp6876
a(S'fatigued'
p6877
I1
tp6878
a(S'fatures'
p6879
I1
tp6880
a(S'fault'
p6881
I1
tp6882
a(S'faulty'
p6883
I1
tp6884
a(S'fauret'
p6885
I1
tp6886
a(S'favor'
p6887
I1
tp6888
a(S'favor.in'
p6889
I1
tp6890
a(S'favorite'
p6891
I1
tp6892
a(S'feared'
p6893
I1
tp6894
a(S'fearing'
p6895
I1
tp6896
a(S"feature's"
p6897
I1
tp6898
a(S'feature\x92s'
p6899
I1
tp6900
a(S'featuring'
p6901
I1
tp6902
a(S'featurs'
p6903
I1
tp6904
a(S'fechmisburg'
p6905
I1
tp6906
a(S'feeling.in'
p6907
I1
tp6908
a(S'feelings.the'
p6909
I1
tp6910
a(S'feelso'
p6911
I1
tp6912
a(S'feet'
p6913
I1
tp6914
a(S'feeting'
p6915
I1
tp6916
a(S'feling'
p6917
I1
tp6918
a(S'fella'
p6919
I1
tp6920
a(S'felling'
p6921
I1
tp6922
a(S'fellows'
p6923
I1
tp6924
a(S'felt.well'
p6925
I1
tp6926
a(S'ff'
p6927
I1
tp6928
a(S'fierce'
p6929
I1
tp6930
a(S'fifth'
p6931
I1
tp6932
a(S'fifty'
p6933
I1
tp6934
a(S'fifty-five'
p6935
I1
tp6936
a(S'figured'
p6937
I1
tp6938
a(S'figures'
p6939
I1
tp6940
a(S'fills'
p6941
I1
tp6942
a(S'finale'
p6943
I1
tp6944
a(S'findswater'
p6945
I1
tp6946
a(S'fine,\x94'
p6947
I1
tp6948
a(S'fine.during'
p6949
I1
tp6950
a(S'fine.in'
p6951
I1
tp6952
a(S'fined'
p6953
I1
tp6954
a(S'finish.in'
p6955
I1
tp6956
a(S'finish.the'
p6957
I1
tp6958
a(S'finished'
p6959
I1
tp6960
a(S'finnaly'
p6961
I1
tp6962
a(S'firstly'
p6963
I1
tp6964
a(S'fish-if'
p6965
I1
tp6966
a(S'fisrt'
p6967
I1
tp6968
a(S'five'
p6969
I1
tp6970
a(S'fixing'
p6971
I1
tp6972
a(S'flatland'
p6973
I1
tp6974
a(S'flip'
p6975
I1
tp6976
a(S'flood'
p6977
I1
tp6978
a(S'flowed'
p6979
I1
tp6980
a(S'flower'
p6981
I1
tp6982
a(S'flowing'
p6983
I1
tp6984
a(S'fluent'
p6985
I1
tp6986
a(S'fluids'
p6987
I1
tp6988
a(S'flustrated'
p6989
I1
tp6990
a(S'foctary'
p6991
I1
tp6992
a(S'folkes'
p6993
I1
tp6994
a(S'folluwed'
p6995
I1
tp6996
a(S'food.at'
p6997
I1
tp6998
a(S'fool'
p6999
I1
tp7000
a(S'for.\x94'
p7001
I1
tp7002
a(S'forces'
p7003
I1
tp7004
a(S'forcing'
p7005
I1
tp7006
a(S'forested'
p7007
I1
tp7008
a(S'forexample'
p7009
I1
tp7010
a(S'forlorn'
p7011
I1
tp7012
a(S'format'
p7013
I1
tp7014
a(S'formed'
p7015
I1
tp7016
a(S'forms'
p7017
I1
tp7018
a(S'forsaken'
p7019
I1
tp7020
a(S'fort'
p7021
I1
tp7022
a(S'forth'
p7023
I1
tp7024
a(S'forwad'
p7025
I1
tp7026
a(S'foul'
p7027
I1
tp7028
a(S'fountain'
p7029
I1
tp7030
a(S'fourth'
p7031
I1
tp7032
a(S'fourther'
p7033
I1
tp7034
a(S'fourty'
p7035
I1
tp7036
a(S'foward'
p7037
I1
tp7038
a(S'fowks'
p7039
I1
tp7040
a(S'freezing'
p7041
I1
tp7042
a(S'freshen'
p7043
I1
tp7044
a(S'fret'
p7045
I1
tp7046
a(S'friend'
p7047
I1
tp7048
a(S'frighten'
p7049
I1
tp7050
a(S'frind'
p7051
I1
tp7052
a(S'frist'
p7053
I1
tp7054
a(S'frol'
p7055
I1
tp7056
a(S'frot'
p7057
I1
tp7058
a(S'fruit'
p7059
I1
tp7060
a(S'frustating'
p7061
I1
tp7062
a(S'frustration'
p7063
I1
tp7064
a(S'fuier'
p7065
I1
tp7066
a(S'fun'
p7067
I1
tp7068
a(S'function'
p7069
I1
tp7070
a(S'funny'
p7071
I1
tp7072
a(S'future.during'
p7073
I1
tp7074
a(S'future.\x94'
p7075
I1
tp7076
a(S'futures'
p7077
I1
tp7078
a(S'gains'
p7079
I1
tp7080
a(S'game'
p7081
I1
tp7082
a(S'games'
p7083
I1
tp7084
a(S'gart'
p7085
I1
tp7086
a(S'gas'
p7087
I1
tp7088
a(S'gated'
p7089
I1
tp7090
a(S'gather'
p7091
I1
tp7092
a(S'gazing'
p7093
I1
tp7094
a(S'gbost'
p7095
I1
tp7096
a(S'gears.\x94'
p7097
I1
tp7098
a(S'gear\x94'
p7099
I1
tp7100
a(S'general'
p7101
I1
tp7102
a(S'generally'
p7103
I1
tp7104
a(S'gentle'
p7105
I1
tp7106
a(S'gently'
p7107
I1
tp7108
a(S"get's"
p7109
I1
tp7110
a(S'getin'
p7111
I1
tp7112
a(S'geting'
p7113
I1
tp7114
a(S'getts'
p7115
I1
tp7116
a(S'ghost-town'
p7117
I1
tp7118
a(S'ghoust'
p7119
I1
tp7120
a(S'gian'
p7121
I1
tp7122
a(S'ginaupupthe'
p7123
I1
tp7124
a(S'git'
p7125
I1
tp7126
a(S'glitches'
p7127
I1
tp7128
a(S'gloomy'
p7129
I1
tp7130
a(S"go's"
p7131
I1
tp7132
a(S'go.in'
p7133
I1
tp7134
a(S'go.the'
p7135
I1
tp7136
a(S'goal.the'
p7137
I1
tp7138
a(S'goet'
p7139
I1
tp7140
a(S'goin.the'
p7141
I1
tp7142
a(S'goregous'
p7143
I1
tp7144
a(S'gorgeouse'
p7145
I1
tp7146
a(S'gorgerous'
p7147
I1
tp7148
a(S'gorgous'
p7149
I1
tp7150
a(S'gorqeas'
p7151
I1
tp7152
a(S'gosh'
p7153
I1
tp7154
a(S'goten'
p7155
I1
tp7156
a(S'goup'
p7157
I1
tp7158
a(S'grading'
p7159
I1
tp7160
a(S'grapes'
p7161
I1
tp7162
a(S'grate'
p7163
I1
tp7164
a(S'grave'
p7165
I1
tp7166
a(S'gravel'
p7167
I1
tp7168
a(S'gravity'
p7169
I1
tp7170
a(S'greater'
p7171
I1
tp7172
a(S'greatful'
p7173
I1
tp7174
a(S'greatly.i'
p7175
I1
tp7176
a(S'grim'
p7177
I1
tp7178
a(S'grounds'
p7179
I1
tp7180
a(S'grow'
p7181
I1
tp7182
a(S'grows'
p7183
I1
tp7184
a(S'growth'
p7185
I1
tp7186
a(S'gruding'
p7187
I1
tp7188
a(S'guest'
p7189
I1
tp7190
a(S'guiding'
p7191
I1
tp7192
a(S'gulp'
p7193
I1
tp7194
a(S'gunk'
p7195
I1
tp7196
a(S'guns'
p7197
I1
tp7198
a(S'gust'
p7199
I1
tp7200
a(S'gut'
p7201
I1
tp7202
a(S'guys.the'
p7203
I1
tp7204
a(S'guzzling'
p7205
I1
tp7206
a(S'h'
I1
tp7207
a(S'hab'
p7208
I1
tp7209
a(S'had.the'
p7210
I1
tp7211
a(S'haden\x92t'
p7212
I1
tp7213
a(S"hadn't"
p7214
I1
tp7215
a(S'hadnt'
p7216
I1
tp7217
a(S'haede'
p7218
I1
tp7219
a(S'haes'
p7220
I1
tp7221
a(S'hail'
p7222
I1
tp7223
a(S'hair'
p7224
I1
tp7225
a(S'hald'
p7226
I1
tp7227
a(S'hallucinations'
p7228
I1
tp7229
a(S'handed'
p7230
I1
tp7231
a(S'handing'
p7232
I1
tp7233
a(S'hands.the'
p7234
I1
tp7235
a(S'hangs'
p7236
I1
tp7237
a(S'happen.the'
p7238
I1
tp7239
a(S'happen.you'
p7240
I1
tp7241
a(S'happend'
p7242
I1
tp7243
a(S'happening'
p7244
I1
tp7245
a(S'happens.if'
p7246
I1
tp7247
a(S'happier'
p7248
I1
tp7249
a(S'happsy!'
p7250
I1
tp7251
a(S'happsythe'
p7252
I1
tp7253
a(S'hapy'
p7254
I1
tp7255
a(S'hard.in'
p7256
I1
tp7257
a(S'hard.the'
p7258
I1
tp7259
a(S'harded'
p7260
I1
tp7261
a(S'harden'
p7262
I1
tp7263
a(S'hardships.the'
p7264
I1
tp7265
a(S'hardy'
p7266
I1
tp7267
a(S'harmed'
p7268
I1
tp7269
a(S'harzardous'
p7270
I1
tp7271
a(S'hates'
p7272
I1
tp7273
a(S'haunting'
p7274
I1
tp7275
a(S'haurst'
p7276
I1
tp7277
a(S'haved'
p7278
I1
tp7279
a(S'haves'
p7280
I1
tp7281
a(S'hav\x92nt'
p7282
I1
tp7283
a(S'hazardous'
p7284
I1
tp7285
a(S'he.the'
p7286
I1
tp7287
a(S'he?'
p7288
I1
tp7289
a(S'head,\x94'
p7290
I1
tp7291
a(S"head.''"
p7292
I1
tp7293
a(S'heads'
p7294
I1
tp7295
a(S'hear'
p7296
I1
tp7297
a(S'hears'
p7298
I1
tp7299
a(S'heartsroke'
p7300
I1
tp7301
a(S'heartstroke'
p7302
I1
tp7303
a(S'heat;'
p7304
I1
tp7305
a(S'heats'
p7306
I1
tp7307
a(S'heatstake'
p7308
I1
tp7309
a(S'heatstore'
p7310
I1
tp7311
a(S'heatstroke,\x94'
p7312
I1
tp7313
a(S'heatstroke...\x94'
p7314
I1
tp7315
a(S'heatstroke.\x94the'
p7316
I1
tp7317
a(S'heatstrokes'
p7318
I1
tp7319
a(S'heighten'
p7320
I1
tp7321
a(S'hein'
p7322
I1
tp7323
a(S'held'
p7324
I1
tp7325
a(S'helmet'
p7326
I1
tp7327
a(S'help.the'
p7328
I1
tp7329
a(S'helpers'
p7330
I1
tp7331
a(S'helplessness'
p7332
I1
tp7333
a(S'hence'
p7334
I1
tp7335
a(S'herb'
p7336
I1
tp7337
a(S'here.any'
p7338
I1
tp7339
a(S'hgh'
p7340
I1
tp7341
a(S'hi'
p7342
I1
tp7343
a(S'hidden'
p7344
I1
tp7345
a(S'highdrated'
p7346
I1
tp7347
a(S'higher'
p7348
I1
tp7349
a(S'highly'
p7350
I1
tp7351
a(S'hil'
p7352
I1
tp7353
a(S'hill,\x94'
p7354
I1
tp7355
a(S'hill-and'
p7356
I1
tp7357
a(S"hill.''"
p7358
I1
tp7359
a(S'hill...\x94'
p7360
I1
tp7361
a(S'hill.many'
p7362
I1
tp7363
a(S'hills.\x94the'
p7364
I1
tp7365
a(S'hills\x94(kurmaskie'
p7366
I1
tp7367
a(S"hils.''"
p7368
I1
tp7369
a(S'him.i'
p7370
I1
tp7371
a(S'him.on'
p7372
I1
tp7373
a(S'him.that'
p7374
I1
tp7375
a(S'him.there'
p7376
I1
tp7377
a(S'him.varias'
p7378
I1
tp7379
a(S'him.when'
p7380
I1
tp7381
a(S'him.with'
p7382
I1
tp7383
a(S'him/her'
p7384
I1
tp7385
a(S'him/her.the'
p7386
I1
tp7387
a(S'him;'
p7388
I1
tp7389
a(S'hime'
p7390
I1
tp7391
a(S'himout'
p7392
I1
tp7393
a(S'himselfs'
p7394
I1
tp7395
a(S'himself\x94'
p7396
I1
tp7397
a(S'himslef'
p7398
I1
tp7399
a(S'himthe'
p7400
I1
tp7401
a(S'hindering'
p7402
I1
tp7403
a(S'hing'
p7404
I1
tp7405
a(S'hint'
p7406
I1
tp7407
a(S'hinting'
p7408
I1
tp7409
a(S'hiss'
p7410
I1
tp7411
a(S'hit\x94'
p7412
I1
tp7413
a(S'hm'
p7414
I1
tp7415
a(S'hobbles'
p7416
I1
tp7417
a(S'hole'
p7418
I1
tp7419
a(S'home.the'
p7420
I1
tp7421
a(S'homeless'
p7422
I1
tp7423
a(S'homthese'
p7424
I1
tp7425
a(S'hon'
p7426
I1
tp7427
a(S'honeycombs'
p7428
I1
tp7429
a(S'hoped'
p7430
I1
tp7431
a(S'hopeful.the'
p7432
I1
tp7433
a(S'hopelee'
p7434
I1
tp7435
a(S'hopelessly'
p7436
I1
tp7437
a(S'hopelessness.the'
p7438
I1
tp7439
a(S'hopeless\x94'
p7440
I1
tp7441
a(S'hopelssly'
p7442
I1
tp7443
a(S'hopfull'
p7444
I1
tp7445
a(S'hoplessness.the'
p7446
I1
tp7447
a(S'horable'
p7448
I1
tp7449
a(S'horizon/hill'
p7450
I1
tp7451
a(S'horizon\x94'
p7452
I1
tp7453
a(S'horrid'
p7454
I1
tp7455
a(S'horrific.flat'
p7456
I1
tp7457
a(S'horrifying'
p7458
I1
tp7459
a(S'hort'
p7460
I1
tp7461
a(S'hostile'
p7462
I1
tp7463
a(S'hot!'
p7464
I1
tp7465
a(S'hot,gross'
p7466
I1
tp7467
a(S'hot,tired'
p7468
I1
tp7469
a(S'hot.many'
p7470
I1
tp7471
a(S'hotel'
p7472
I1
tp7473
a(S'hoter'
p7474
I1
tp7475
a(S'hotlike'
p7476
I1
tp7477
a(S'hotnes'
p7478
I1
tp7479
a(S'hotness'
p7480
I1
tp7481
a(S'hotter-'
p7482
I1
tp7483
a(S'hottnes'
p7484
I1
tp7485
a(S'houever'
p7486
I1
tp7487
a(S'hourly'
p7488
I1
tp7489
a(S'hours\x94'
p7490
I1
tp7491
a(S'howl'
p7492
I1
tp7493
a(S'hr'
p7494
I1
tp7495
a(S'hte'
p7496
I1
tp7497
a(S'humans'
p7498
I1
tp7499
a(S'humble'
p7500
I1
tp7501
a(S'hummid'
p7502
I1
tp7503
a(S'humorous'
p7504
I1
tp7505
a(S'hundreds'
p7506
I1
tp7507
a(S'hunger'
p7508
I1
tp7509
a(S'hurried'
p7510
I1
tp7511
a(S'hurry'
p7512
I1
tp7513
a(S'huting'
p7514
I1
tp7515
a(S'hydrate'
p7516
I1
tp7517
a(S'hydrating'
p7518
I1
tp7519
a(S'hyperbole'
p7520
I1
tp7521
a(S'hypo'
p7522
I1
tp7523
a(S'ia'
p7524
I1
tp7525
a(S'icy'
p7526
I1
tp7527
a(S'idea.this'
p7528
I1
tp7529
a(S'ideal'
p7530
I1
tp7531
a(S'identify'
p7532
I1
tp7533
a(S'ife'
p7534
I1
tp7535
a(S'ignore'
p7536
I1
tp7537
a(S'ignoring'
p7538
I1
tp7539
a(S'illusion'
p7540
I1
tp7541
a(S'illusionalistic'
p7542
I1
tp7543
a(S'images'
p7544
I1
tp7545
a(S'imaginate'
p7546
I1
tp7547
a(S'imagines'
p7548
I1
tp7549
a(S'imagining'
p7550
I1
tp7551
a(S'imagton'
p7552
I1
tp7553
a(S'immediate'
p7554
I1
tp7555
a(S'impacts'
p7556
I1
tp7557
a(S'impare'
p7558
I1
tp7559
a(S'impared'
p7560
I1
tp7561
a(S'impatient'
p7562
I1
tp7563
a(S'impatientress'
p7564
I1
tp7565
a(S'implying'
p7566
I1
tp7567
a(S'import'
p7568
I1
tp7569
a(S'importantly'
p7570
I1
tp7571
a(S'impossible.the'
p7572
I1
tp7573
a(S'impression'
p7574
I1
tp7575
a(S'in,\x94do'
p7576
I1
tp7577
a(S'in.early'
p7578
I1
tp7579
a(S'in.well'
p7580
I1
tp7581
a(S'in???'
p7582
I1
tp7583
a(S'inadequet'
p7584
I1
tp7585
a(S'incase'
p7586
I1
tp7587
a(S'inches'
p7588
I1
tp7589
a(S'incline'
p7590
I1
tp7591
a(S'inconclusion'
p7592
I1
tp7593
a(S'inconsistancy'
p7594
I1
tp7595
a(S'inconsistant'
p7596
I1
tp7597
a(S'incorrect'
p7598
I1
tp7599
a(S'incountered'
p7600
I1
tp7601
a(S'incounters'
p7602
I1
tp7603
a(S'increase'
p7604
I1
tp7605
a(S'increasing'
p7606
I1
tp7607
a(S'increasingly'
p7608
I1
tp7609
a(S'incredibly'
p7610
I1
tp7611
a(S'independent.the'
p7612
I1
tp7613
a(S'indespair'
p7614
I1
tp7615
a(S'individual'
p7616
I1
tp7617
a(S'industriated'
p7618
I1
tp7619
a(S'infe'
p7620
I1
tp7621
a(S'inferal'
p7622
I1
tp7623
a(S'infereal'
p7624
I1
tp7625
a(S'infested'
p7626
I1
tp7627
a(S'inflated'
p7628
I1
tp7629
a(S'influences'
p7630
I1
tp7631
a(S'influental'
p7632
I1
tp7633
a(S'influential'
p7634
I1
tp7635
a(S'inforce'
p7636
I1
tp7637
a(S'informed'
p7638
I1
tp7639
a(S'informs'
p7640
I1
tp7641
a(S'inhabined'
p7642
I1
tp7643
a(S'inhabited'
p7644
I1
tp7645
a(S'inhance'
p7646
I1
tp7647
a(S'initially'
p7648
I1
tp7649
a(S'injure'
p7650
I1
tp7651
a(S'injured'
p7652
I1
tp7653
a(S'insane'
p7654
I1
tp7655
a(S'inspiration'
p7656
I1
tp7657
a(S'inspire'
p7658
I1
tp7659
a(S'instence'
p7660
I1
tp7661
a(S'instinct'
p7662
I1
tp7663
a(S'instincts'
p7664
I1
tp7665
a(S'instructions'
p7666
I1
tp7667
a(S'insufficient'
p7668
I1
tp7669
a(S'insuring'
p7670
I1
tp7671
a(S'intefering'
p7672
I1
tp7673
a(S'intensely'
p7674
I1
tp7675
a(S'intensity'
p7676
I1
tp7677
a(S'intention.the'
p7678
I1
tp7679
a(S'interenting'
p7680
I1
tp7681
a(S'interfered'
p7682
I1
tp7683
a(S'intimidates'
p7684
I1
tp7685
a(S'into?!\x94'
p7686
I1
tp7687
a(S'inusuable;'
p7688
I1
tp7689
a(S'invalidated'
p7690
I1
tp7691
a(S'involved'
p7692
I1
tp7693
a(S'involves'
p7694
I1
tp7695
a(S'in\x94'
p7696
I1
tp7697
a(S'irds'
p7698
I1
tp7699
a(S'ironical'
p7700
I1
tp7701
a(S'ironics,he'
p7702
I1
tp7703
a(S'irratable'
p7704
I1
tp7705
a(S'irresponsible.the'
p7706
I1
tp7707
a(S'irrisistable'
p7708
I1
tp7709
a(S'irritaed'
p7710
I1
tp7711
a(S'irritated'
p7712
I1
tp7713
a(S'is,\x94'
p7714
I1
tp7715
a(S'is.the'
p7716
I1
tp7717
a(S'is.when'
p7718
I1
tp7719
a(S'isnt'
p7720
I1
tp7721
a(S'iso'
p7722
I1
tp7723
a(S'isolated'
p7724
I1
tp7725
a(S'ispiring'
p7726
I1
tp7727
a(S"it's"
p7728
I1
tp7729
a(S'it,and'
p7730
I1
tp7731
a(S'it-had'
p7732
I1
tp7733
a(S'it...i'
p7734
I1
tp7735
a(S'it.there'
p7736
I1
tp7737
a(S'it?!'
p7738
I1
tp7739
a(S'it?????????'
p7740
I1
tp7741
a(S'it`s'
p7742
I1
tp7743
a(S'italso'
p7744
I1
tp7745
a(S'it\x91s'
p7746
I1
tp7747
a(S'it\x93'
p7748
I1
tp7749
a(S'i\x92ll'
p7750
I1
tp7751
a(S'i\x92ve'
p7752
I1
tp7753
a(S'jagged'
p7754
I1
tp7755
a(S'jarthe'
p7756
I1
tp7757
a(S'jaunt.\x94'
p7758
I1
tp7759
a(S'jerny'
p7760
I1
tp7761
a(S'jogging'
p7762
I1
tp7763
a(S'joke'
p7764
I1
tp7765
a(S'journey.as'
p7766
I1
tp7767
a(S'journey.with'
p7768
I1
tp7769
a(S'journey?'
p7770
I1
tp7771
a(S'journeys'
p7772
I1
tp7773
a(S'journied'
p7774
I1
tp7775
a(S'joys'
p7776
I1
tp7777
a(S'judgement'
p7778
I1
tp7779
a(S'judging'
p7780
I1
tp7781
a(S'judjment'
p7782
I1
tp7783
a(S'jug'
p7784
I1
tp7785
a(S'juice,this'
p7786
I1
tp7787
a(S'jumped.the'
p7788
I1
tp7789
a(S'jumping'
p7790
I1
tp7791
a(S'june."(kurmaskie'
p7792
I1
tp7793
a(S"june.''"
p7794
I1
tp7795
a(S'june.as'
p7796
I1
tp7797
a(S'june.the'
p7798
I1
tp7799
a(S'june.their'
p7800
I1
tp7801
a(S'june.\x93'
p7802
I1
tp7803
a(S'june\x94(kurmaskie'
p7804
I1
tp7805
a(S'key'
p7806
I1
tp7807
a(S'kicked'
p7808
I1
tp7809
a(S'kiiled'
p7810
I1
tp7811
a(S'kind,\x94'
p7812
I1
tp7813
a(S'kind.\x94in'
p7814
I1
tp7815
a(S'kinda'
p7816
I1
tp7817
a(S'knee'
p7818
I1
tp7819
a(S'knes'
p7820
I1
tp7821
a(S'kness'
p7822
I1
tp7823
a(S'knowns'
p7824
I1
tp7825
a(S'kurmaksie,greatly'
p7826
I1
tp7827
a(S'kurmaskie\x94'
p7828
I1
tp7829
a(S'labes'
p7830
I1
tp7831
a(S'lacking'
p7832
I1
tp7833
a(S'lact'
p7834
I1
tp7835
a(S'lading'
p7836
I1
tp7837
a(S'laffect'
p7838
I1
tp7839
a(S'lament'
p7840
I1
tp7841
a(S'land.\x94'
p7842
I1
tp7843
a(S'land;in'
p7844
I1
tp7845
a(S'landmarks'
p7846
I1
tp7847
a(S'landscapes'
p7848
I1
tp7849
a(S'lane'
p7850
I1
tp7851
a(S'larges'
p7852
I1
tp7853
a(S'largest'
p7854
I1
tp7855
a(S'large\x94'
p7856
I1
tp7857
a(S'larse'
p7858
I1
tp7859
a(S'las'
p7860
I1
tp7861
a(S'lasely'
p7862
I1
tp7863
a(S'laster'
p7864
I1
tp7865
a(S'laugh.\x94'
p7866
I1
tp7867
a(S'laughed'
p7868
I1
tp7869
a(S'laws'
p7870
I1
tp7871
a(S'lay'
p7872
I1
tp7873
a(S'leaf'
p7874
I1
tp7875
a(S'leaking'
p7876
I1
tp7877
a(S'leanes'
p7878
I1
tp7879
a(S'learning'
p7880
I1
tp7881
a(S'learns'
p7882
I1
tp7883
a(S'learntedat'
p7884
I1
tp7885
a(S'leas'
p7886
I1
tp7887
a(S'leasing'
p7888
I1
tp7889
a(S'leason'
p7890
I1
tp7891
a(S'lecatracy'
p7892
I1
tp7893
a(S'left.the'
p7894
I1
tp7895
a(S'leg'
p7896
I1
tp7897
a(S'legible'
p7898
I1
tp7899
a(S'lent'
p7900
I1
tp7901
a(S'lerns'
p7902
I1
tp7903
a(S'lersury'
p7904
I1
tp7905
a(S'lesort'
p7906
I1
tp7907
a(S'lessen'
p7908
I1
tp7909
a(S'lession'
p7910
I1
tp7911
a(S'lesson.the'
p7912
I1
tp7913
a(S'lest'
p7914
I1
tp7915
a(S'lesy'
p7916
I1
tp7917
a(S'letting'
p7918
I1
tp7919
a(S'levals'
p7920
I1
tp7921
a(S'levels.the'
p7922
I1
tp7923
a(S'lf'
p7924
I1
tp7925
a(S'lies'
p7926
I1
tp7927
a(S'liesurly'
p7928
I1
tp7929
a(S'lif'
p7930
I1
tp7931
a(S'life.during'
p7932
I1
tp7933
a(S'life.to'
p7934
I1
tp7935
a(S'life;'
p7936
I1
tp7937
a(S'lifeles'
p7938
I1
tp7939
a(S'lifethe'
p7940
I1
tp7941
a(S'liked'
p7942
I1
tp7943
a(S'lil'
p7944
I1
tp7945
a(S'limb'
p7946
I1
tp7947
a(S"limit,''"
p7948
I1
tp7949
a(S'limit."the'
p7950
I1
tp7951
a(S'limit.\x94the'
p7952
I1
tp7953
a(S'limit.\x94this'
p7954
I1
tp7955
a(S'limit.\xe2\x80\x9d'
p7956
I1
tp7957
a(S'limiting'
p7958
I1
tp7959
a(S'limits,\x94'
p7960
I1
tp7961
a(S'limits\x94'
p7962
I1
tp7963
a(S'limit\x94(joe'
p7964
I1
tp7965
a(S'limit\x94by'
p7966
I1
tp7967
a(S'lines'
p7968
I1
tp7969
a(S'link'
p7970
I1
tp7971
a(S'liquids'
p7972
I1
tp7973
a(S'lisined'
p7974
I1
tp7975
a(S'listing'
p7976
I1
tp7977
a(S'listned'
p7978
I1
tp7979
a(S'lists'
p7980
I1
tp7981
a(S'lit'
p7982
I1
tp7983
a(S'literay'
p7984
I1
tp7985
a(S'littlest'
p7986
I1
tp7987
a(S'live.at'
p7988
I1
tp7989
a(S'lives'
p7990
I1
tp7991
a(S'lizards'
p7992
I1
tp7993
a(S'll'
p7994
I1
tp7995
a(S'location3'
p7996
I1
tp7997
a(S'locations'
p7998
I1
tp7999
a(S'lock'
p8000
I1
tp8001
a(S'lodged'
p8002
I1
tp8003
a(S'logically'
p8004
I1
tp8005
a(S'lon'
p8006
I1
tp8007
a(S'lone'
p8008
I1
tp8009
a(S'loneleness'
p8010
I1
tp8011
a(S'lonelier'
p8012
I1
tp8013
a(S'lonelyness'
p8014
I1
tp8015
a(S'longs'
p8016
I1
tp8017
a(S'lonlieness'
p8018
I1
tp8019
a(S'looses'
p8020
I1
tp8021
a(S'lossing'
p8022
I1
tp8023
a(S'lost-all'
p8024
I1
tp8025
a(S'lot.several'
p8026
I1
tp8027
a(S'lot.well'
p8028
I1
tp8029
a(S'lotof'
p8030
I1
tp8031
a(S'louage'
p8032
I1
tp8033
a(S'lough.\x94'
p8034
I1
tp8035
a(S'lovers'
p8036
I1
tp8037
a(S'luckly'
p8038
I1
tp8039
a(S'lucky.the'
p8040
I1
tp8041
a(S'luer'
p8042
I1
tp8043
a(S'lugubvious'
p8044
I1
tp8045
a(S'lunch'
p8046
I1
tp8047
a(S'lungs'
p8048
I1
tp8049
a(S'luxurious'
p8050
I1
tp8051
a(S'lyand'
p8052
I1
tp8053
a(S'lying'
p8054
I1
tp8055
a(S'mabey'
p8056
I1
tp8057
a(S'mach'
p8058
I1
tp8059
a(S'madon'
p8060
I1
tp8061
a(S'maid'
p8062
I1
tp8063
a(S'mail'
p8064
I1
tp8065
a(S'maintain'
p8066
I1
tp8067
a(S'maintaining'
p8068
I1
tp8069
a(S'majory'
p8070
I1
tp8071
a(S"make's"
p8072
I1
tp8073
a(S'malice'
p8074
I1
tp8075
a(S'man-made'
p8076
I1
tp8077
a(S'man.there'
p8078
I1
tp8079
a(S'managementthis'
p8080
I1
tp8081
a(S'maneuvering'
p8082
I1
tp8083
a(S'manevuered'
p8084
I1
tp8085
a(S'manner'
p8086
I1
tp8087
a(S'manouvered'
p8088
I1
tp8089
a(S'manuever'
p8090
I1
tp8091
a(S'manuvers'
p8092
I1
tp8093
a(S'manyway'
p8094
I1
tp8095
a(S'map,\x94'
p8096
I1
tp8097
a(S"map.''i"
p8098
I1
tp8099
a(S'map.many'
p8100
I1
tp8101
a(S'mapped'
p8102
I1
tp8103
a(S'mapping'
p8104
I1
tp8105
a(S'map\x94'
p8106
I1
tp8107
a(S'marathon'
p8108
I1
tp8109
a(S'marked'
p8110
I1
tp8111
a(S'massive'
p8112
I1
tp8113
a(S'mat'
p8114
I1
tp8115
a(S'match'
p8116
I1
tp8117
a(S'materialize'
p8118
I1
tp8119
a(S'materials'
p8120
I1
tp8121
a(S'matters.in'
p8122
I1
tp8123
a(S'maximum'
p8124
I1
tp8125
a(S'me.in'
p8126
I1
tp8127
a(S'me.\x93'
p8128
I1
tp8129
a(S'me.\x94(kurmaskie'
p8130
I1
tp8131
a(S'me.\x94the'
p8132
I1
tp8133
a(S'mear'
p8134
I1
tp8135
a(S'mediocre'
p8136
I1
tp8137
a(S'meet'
p8138
I1
tp8139
a(S'meeting'
p8140
I1
tp8141
a(S'meloncholy'
p8142
I1
tp8143
a(S'meneuver'
p8144
I1
tp8145
a(S'merry'
p8146
I1
tp8147
a(S'meschy'
p8148
I1
tp8149
a(S'mesem'
p8150
I1
tp8151
a(S'mess'
p8152
I1
tp8153
a(S'message'
p8154
I1
tp8155
a(S'messe'
p8156
I1
tp8157
a(S'messing'
p8158
I1
tp8159
a(S'metaphor'
p8160
I1
tp8161
a(S'metaphorically'
p8162
I1
tp8163
a(S'metaphors'
p8164
I1
tp8165
a(S'methods'
p8166
I1
tp8167
a(S'metions'
p8168
I1
tp8169
a(S'midwest'
p8170
I1
tp8171
a(S'milessome'
p8172
I1
tp8173
a(S'milker'
p8174
I1
tp8175
a(S'mimic'
p8176
I1
tp8177
a(S'mind.in'
p8178
I1
tp8179
a(S'mind;'
p8180
I1
tp8181
a(S'miniture'
p8182
I1
tp8183
a(S'minor'
p8184
I1
tp8185
a(S'minut'
p8186
I1
tp8187
a(S'minute'
p8188
I1
tp8189
a(S'mirage.when'
p8190
I1
tp8191
a(S'mirage;'
p8192
I1
tp8193
a(S'mirge.\x94'
p8194
I1
tp8195
a(S'mirrage,\x94'
p8196
I1
tp8197
a(S'misery'
p8198
I1
tp8199
a(S'misfortune'
p8200
I1
tp8201
a(S'misleadingthe'
p8202
I1
tp8203
a(S'misled'
p8204
I1
tp8205
a(S'mistaken'
p8206
I1
tp8207
a(S'mistakes'
p8208
I1
tp8209
a(S'mles'
p8210
I1
tp8211
a(S'models'
p8212
I1
tp8213
a(S'moist'
p8214
I1
tp8215
a(S'moisture'
p8216
I1
tp8217
a(S'moment'
p8218
I1
tp8219
a(S'moment.the'
p8220
I1
tp8221
a(S'money'
p8222
I1
tp8223
a(S'months'
p8224
I1
tp8225
a(S'mooble'
p8226
I1
tp8227
a(S'mood.after'
p8228
I1
tp8229
a(S'moods.in'
p8230
I1
tp8231
a(S'moral'
p8232
I1
tp8233
a(S'more.whether'
p8234
I1
tp8235
a(S'more.\x94'
p8236
I1
tp8237
a(S'morning...with'
p8238
I1
tp8239
a(S'morphs'
p8240
I1
tp8241
a(S'mos'
p8242
I1
tp8243
a(S'most.the'
p8244
I1
tp8245
a(S'mostly.the'
p8246
I1
tp8247
a(S'moth'
p8248
I1
tp8249
a(S'mother'
p8250
I1
tp8251
a(S'motor'
p8252
I1
tp8253
a(S'motorcycle'
p8254
I1
tp8255
a(S'motuising'
p8256
I1
tp8257
a(S'mountianous'
p8258
I1
tp8259
a(S'mountin'
p8260
I1
tp8261
a(S'mouth.the'
p8262
I1
tp8263
a(S'mouth\x94(kurmaskie).the'
p8264
I1
tp8265
a(S'move.an'
p8266
I1
tp8267
a(S'movement'
p8268
I1
tp8269
a(S'movies'
p8270
I1
tp8271
a(S'much.rolling'
p8272
I1
tp8273
a(S"mule''"
p8274
I1
tp8275
a(S'musky'
p8276
I1
tp8277
a(S'mute'
p8278
I1
tp8279
a(S'nagging'
p8280
I1
tp8281
a(S'nam'
p8282
I1
tp8283
a(S'name.\x94'
p8284
I1
tp8285
a(S'namely'
p8286
I1
tp8287
a(S'naraer'
p8288
I1
tp8289
a(S'narritive'
p8290
I1
tp8291
a(S'narrorator'
p8292
I1
tp8293
a(S'narrow'
p8294
I1
tp8295
a(S'nass'
p8296
I1
tp8297
a(S'native'
p8298
I1
tp8299
a(S'nautious'
p8300
I1
tp8301
a(S'navigated'
p8302
I1
tp8303
a(S'nd'
p8304
I1
tp8305
a(S'nde'
p8306
I1
tp8307
a(S'ne'
p8308
I1
tp8309
a(S'nearer'
p8310
I1
tp8311
a(S'neat'
p8312
I1
tp8313
a(S'neat,lack'
p8314
I1
tp8315
a(S'neccesary'
p8316
I1
tp8317
a(S'necessity'
p8318
I1
tp8319
a(S'neck'
p8320
I1
tp8321
a(S'needs)'
p8322
I1
tp8323
a(S'needs.in'
p8324
I1
tp8325
a(S'neer'
p8326
I1
tp8327
a(S'neighbar'
p8328
I1
tp8329
a(S'neighbor'
p8330
I1
tp8331
a(S'neighbourhood'
p8332
I1
tp8333
a(S'nething'
p8334
I1
tp8335
a(S'netting'
p8336
I1
tp8337
a(S'neurotic'
p8338
I1
tp8339
a(S'next.the'
p8340
I1
tp8341
a(S'night'
p8342
I1
tp8343
a(S'nite'
p8344
I1
tp8345
a(S'nitting'
p8346
I1
tp8347
a(S'no-brairer'
p8348
I1
tp8349
a(S'no-one'
p8350
I1
tp8351
a(S'no-where'
p8352
I1
tp8353
a(S'no.in'
p8354
I1
tp8355
a(S'no.the'
p8356
I1
tp8357
a(S'no???'
p8358
I1
tp8359
a(S'non'
p8360
I1
tp8361
a(S'non-paved'
p8362
I1
tp8363
a(S'nonstop'
p8364
I1
tp8365
a(S'normaly'
p8366
I1
tp8367
a(S'nort'
p8368
I1
tp8369
a(S'northern'
p8370
I1
tp8371
a(S'not.in'
p8372
I1
tp8373
a(S'not.the'
p8374
I1
tp8375
a(S'nothing.do'
p8376
I1
tp8377
a(S'nothing.the'
p8378
I1
tp8379
a(S'nothing.this'
p8380
I1
tp8381
a(S'noticable'
p8382
I1
tp8383
a(S'noticeable'
p8384
I1
tp8385
a(S'noticed,\x94'
p8386
I1
tp8387
a(S'noticing'
p8388
I1
tp8389
a(S'noting'
p8390
I1
tp8391
a(S'notthe'
p8392
I1
tp8393
a(S'nottice'
p8394
I1
tp8395
a(S'noune'
p8396
I1
tp8397
a(S'nouroushment'
p8398
I1
tp8399
a(S'nowhea'
p8400
I1
tp8401
a(S'nthis'
p8402
I1
tp8403
a(S'num1).the'
p8404
I1
tp8405
a(S'num1,were'
p8406
I1
tp8407
a(S'num1,\x94'
p8408
I1
tp8409
a(S'num1.also'
p8410
I1
tp8411
a(S'num1\x92@caps1.the'
p8412
I1
tp8413
a(S'num1\xb0'
p8414
I1
tp8415
a(S'num2)\x94'
p8416
I1
tp8417
a(S'num2.in'
p8418
I1
tp8419
a(S'num2.\x94almost'
p8420
I1
tp8421
a(S'num2\x94'
p8422
I1
tp8423
a(S'num3.\x94'
p8424
I1
tp8425
a(S'num4'
p8426
I1
tp8427
a(S'num5'
p8428
I1
tp8429
a(S'num7'
p8430
I1
tp8431
a(S'numerous'
p8432
I1
tp8433
a(S'n\x92t'
p8434
I1
tp8435
a(S'oasis'
p8436
I1
tp8437
a(S'objective'
p8438
I1
tp8439
a(S'obligations'
p8440
I1
tp8441
a(S'obnonely'
p8442
I1
tp8443
a(S'obsticales'
p8444
I1
tp8445
a(S'obsticals'
p8446
I1
tp8447
a(S'obstraction'
p8448
I1
tp8449
a(S'obtain'
p8450
I1
tp8451
a(S'obtaining'
p8452
I1
tp8453
a(S'occasions'
p8454
I1
tp8455
a(S'occupied'
p8456
I1
tp8457
a(S'occured'
p8458
I1
tp8459
a(S'occurred'
p8460
I1
tp8461
a(S'ocean'
p8462
I1
tp8463
a(S'ocha'
p8464
I1
tp8465
a(S'od'
p8466
I1
tp8467
a(S'odds'
p8468
I1
tp8469
a(S'of.there'
p8470
I1
tp8471
a(S'ofa'
p8472
I1
tp8473
a(S'offers'
p8474
I1
tp8475
a(S'office)'
p8476
I1
tp8477
a(S'office,\x94'
p8478
I1
tp8479
a(S'office.i'
p8480
I1
tp8481
a(S'office.the'
p8482
I1
tp8483
a(S'office.\x94(kurmaskie'
p8484
I1
tp8485
a(S'office\x94i'
p8486
I1
tp8487
a(S'offing\x94'
p8488
I1
tp8489
a(S'ofter'
p8490
I1
tp8491
a(S'okay'
p8492
I1
tp8493
a(S'olcasly'
p8494
I1
tp8495
a(S'old-'
p8496
I1
tp8497
a(S'old-folks'
p8498
I1
tp8499
a(S'oldest'
p8500
I1
tp8501
a(S'oldmen'
p8502
I1
tp8503
a(S'oldtimers'
p8504
I1
tp8505
a(S'old\x92s'
p8506
I1
tp8507
a(S'oledrar'
p8508
I1
tp8509
a(S'olwing'
p8510
I1
tp8511
a(S'on('
p8512
I1
tp8513
a(S'on,\x94'
p8514
I1
tp8515
a(S'on.at'
p8516
I1
tp8517
a(S'on.\x94'
p8518
I1
tp8519
a(S'one.iin'
p8520
I1
tp8521
a(S'onelong'
p8522
I1
tp8523
a(S'ong'
p8524
I1
tp8525
a(S'onpiling'
p8526
I1
tp8527
a(S'onwards)in'
p8528
I1
tp8529
a(S'ooed'
p8530
I1
tp8531
a(S'ooey'
p8532
I1
tp8533
a(S'oozing'
p8534
I1
tp8535
a(S'op'
p8536
I1
tp8537
a(S'opened'
p8538
I1
tp8539
a(S'operate'
p8540
I1
tp8541
a(S'opposing'
p8542
I1
tp8543
a(S'opt'
p8544
I1
tp8545
a(S'optimistic.there'
p8546
I1
tp8547
a(S'optionistic.the'
p8548
I1
tp8549
a(S'ordeal'
p8550
I1
tp8551
a(S'organization2'
p8552
I1
tp8553
a(S'organs'
p8554
I1
tp8555
a(S'othe'
p8556
I1
tp8557
a(S'others.the'
p8558
I1
tp8559
a(S'out.features'
p8560
I1
tp8561
a(S'out.in'
p8562
I1
tp8563
a(S'out.snake'
p8564
I1
tp8565
a(S'out;'
p8566
I1
tp8567
a(S'outand'
p8568
I1
tp8569
a(S'outcast'
p8570
I1
tp8571
a(S'outcome,if'
p8572
I1
tp8573
a(S'outdoors'
p8574
I1
tp8575
a(S'outing'
p8576
I1
tp8577
a(S'outrage'
p8578
I1
tp8579
a(S'overall.the'
p8580
I1
tp8581
a(S'overjoyed!'
p8582
I1
tp8583
a(S'overly'
p8584
I1
tp8585
a(S'overpowering'
p8586
I1
tp8587
a(S'overtime'
p8588
I1
tp8589
a(S'overwhelmed'
p8590
I1
tp8591
a(S'own.the'
p8592
I1
tp8593
a(S'owner'
p8594
I1
tp8595
a(S'owning'
p8596
I1
tp8597
a(S'pack'
p8598
I1
tp8599
a(S'painfully'
p8600
I1
tp8601
a(S'paint'
p8602
I1
tp8603
a(S'palce'
p8604
I1
tp8605
a(S'pangs'
p8606
I1
tp8607
a(S'panice'
p8608
I1
tp8609
a(S'paniced'
p8610
I1
tp8611
a(S'panicked'
p8612
I1
tp8613
a(S'panicked;'
p8614
I1
tp8615
a(S'panics'
p8616
I1
tp8617
a(S'parably'
p8618
I1
tp8619
a(S'paragraphs'
p8620
I1
tp8621
a(S'paranoid'
p8622
I1
tp8623
a(S'parches'
p8624
I1
tp8625
a(S'parentasis'
p8626
I1
tp8627
a(S'pargraph\x94'
p8628
I1
tp8629
a(S'park.during'
p8630
I1
tp8631
a(S'park.in'
p8632
I1
tp8633
a(S'park\x94'
p8634
I1
tp8635
a(S'parse'
p8636
I1
tp8637
a(S'part.the'
p8638
I1
tp8639
a(S'partially'
p8640
I1
tp8641
a(S'particular'
p8642
I1
tp8643
a(S'party'
p8644
I1
tp8645
a(S'pased'
p8646
I1
tp8647
a(S'pass-out'
p8648
I1
tp8649
a(S'past!'
p8650
I1
tp8651
a(S'past,trying'
p8652
I1
tp8653
a(S'past.\x94'
p8654
I1
tp8655
a(S'pasted'
p8656
I1
tp8657
a(S'path..\x94'
p8658
I1
tp8659
a(S'path\x93'
p8660
I1
tp8661
a(S'patience'
p8662
I1
tp8663
a(S'payed'
p8664
I1
tp8665
a(S'pays'
p8666
I1
tp8667
a(S'peace'
p8668
I1
tp8669
a(S'peacefulness'
p8670
I1
tp8671
a(S'peadiling'
p8672
I1
tp8673
a(S'peanut'
p8674
I1
tp8675
a(S'peanuts'
p8676
I1
tp8677
a(S'pebbtes'
p8678
I1
tp8679
a(S'peck'
p8680
I1
tp8681
a(S'pedai'
p8682
I1
tp8683
a(S'pedal.the'
p8684
I1
tp8685
a(S'pedde'
p8686
I1
tp8687
a(S'peddl'
p8688
I1
tp8689
a(S'peddled'
p8690
I1
tp8691
a(S'pedeled'
p8692
I1
tp8693
a(S'pedling'
p8694
I1
tp8695
a(S'peek'
p8696
I1
tp8697
a(S'peen'
p8698
I1
tp8699
a(S'peldder'
p8700
I1
tp8701
a(S'peole'
p8702
I1
tp8703
a(S'peopl'
p8704
I1
tp8705
a(S'people!'
p8706
I1
tp8707
a(S'people.in'
p8708
I1
tp8709
a(S'people.there'
p8710
I1
tp8711
a(S'peoples'
p8712
I1
tp8713
a(S'perches'
p8714
I1
tp8715
a(S'percieved'
p8716
I1
tp8717
a(S'perfectly'
p8718
I1
tp8719
a(S'perform'
p8720
I1
tp8721
a(S'perhaps'
p8722
I1
tp8723
a(S'persaveering'
p8724
I1
tp8725
a(S'perserver'
p8726
I1
tp8727
a(S'perserverd'
p8728
I1
tp8729
a(S'perservere'
p8730
I1
tp8731
a(S'perservered'
p8732
I1
tp8733
a(S'persevere'
p8734
I1
tp8735
a(S'persisted'
p8736
I1
tp8737
a(S'person.the'
p8738
I1
tp8739
a(S'perspective'
p8740
I1
tp8741
a(S'perspore,causing'
p8742
I1
tp8743
a(S'persuaded'
p8744
I1
tp8745
a(S'persueing'
p8746
I1
tp8747
a(S'pert'
p8748
I1
tp8749
a(S'pessamistic'
p8750
I1
tp8751
a(S'pessimism.eventually'
p8752
I1
tp8753
a(S'pessimist'
p8754
I1
tp8755
a(S'petaled'
p8756
I1
tp8757
a(S'petalling'
p8758
I1
tp8759
a(S'phase'
p8760
I1
tp8761
a(S'phases'
p8762
I1
tp8763
a(S'photo'
p8764
I1
tp8765
a(S'phrase'
p8766
I1
tp8767
a(S'phrases'
p8768
I1
tp8769
a(S'physicall'
p8770
I1
tp8771
a(S'physically.in'
p8772
I1
tp8773
a(S'physically.weather'
p8774
I1
tp8775
a(S'physicly'
p8776
I1
tp8777
a(S'picking'
p8778
I1
tp8779
a(S'pictured'
p8780
I1
tp8781
a(S'pined'
p8782
I1
tp8783
a(S'pines\x94'
p8784
I1
tp8785
a(S'piney'
p8786
I1
tp8787
a(S'pipe'
p8788
I1
tp8789
a(S'piping'
p8790
I1
tp8791
a(S'pires'
p8792
I1
tp8793
a(S'pitty'
p8794
I1
tp8795
a(S'piture'
p8796
I1
tp8797
a(S'placesin'
p8798
I1
tp8799
a(S'plagued'
p8800
I1
tp8801
a(S'plains'
p8802
I1
tp8803
a(S'plane'
p8804
I1
tp8805
a(S'plans'
p8806
I1
tp8807
a(S"plant.''"
p8808
I1
tp8809
a(S'plants'
p8810
I1
tp8811
a(S'plase'
p8812
I1
tp8813
a(S'plass'
p8814
I1
tp8815
a(S'play.he'
p8816
I1
tp8817
a(S'please'
p8818
I1
tp8819
a(S'pleasurable'
p8820
I1
tp8821
a(S'pluk'
p8822
I1
tp8823
a(S'pluse'
p8824
I1
tp8825
a(S'poarch.there'
p8826
I1
tp8827
a(S'poiches'
p8828
I1
tp8829
a(S'point,tumbleweeds'
p8830
I1
tp8831
a(S'point.it'
p8832
I1
tp8833
a(S'pointed'
p8834
I1
tp8835
a(S'pointing'
p8836
I1
tp8837
a(S'pointless'
p8838
I1
tp8839
a(S'poisioness'
p8840
I1
tp8841
a(S'poisnous'
p8842
I1
tp8843
a(S'poison'
p8844
I1
tp8845
a(S'poison.first'
p8846
I1
tp8847
a(S'poisoness'
p8848
I1
tp8849
a(S'polution'
p8850
I1
tp8851
a(S'ponds'
p8852
I1
tp8853
a(S'pop.the'
p8854
I1
tp8855
a(S'popular'
p8856
I1
tp8857
a(S'porblem'
p8858
I1
tp8859
a(S'porch.in'
p8860
I1
tp8861
a(S'porched'
p8862
I1
tp8863
a(S'porchers'
p8864
I1
tp8865
a(S'portrayed'
p8866
I1
tp8867
a(S'portrin'
p8868
I1
tp8869
a(S'portrons'
p8870
I1
tp8871
a(S'posed'
p8872
I1
tp8873
a(S'poses'
p8874
I1
tp8875
a(S'posion'
p8876
I1
tp8877
a(S'positively'
p8878
I1
tp8879
a(S'positivly'
p8880
I1
tp8881
a(S'possesion'
p8882
I1
tp8883
a(S'possibley'
p8884
I1
tp8885
a(S'post'
p8886
I1
tp8887
a(S'postal'
p8888
I1
tp8889
a(S'poster'
p8890
I1
tp8891
a(S'posts'
p8892
I1
tp8893
a(S'potentialy'
p8894
I1
tp8895
a(S'potholes'
p8896
I1
tp8897
a(S'poured'
p8898
I1
tp8899
a(S'pourng'
p8900
I1
tp8901
a(S'pours'
p8902
I1
tp8903
a(S'power/efficiency'
p8904
I1
tp8905
a(S'powerless'
p8906
I1
tp8907
a(S'powing'
p8908
I1
tp8909
a(S'poys'
p8910
I1
tp8911
a(S'practice'
p8912
I1
tp8913
a(S'praise'
p8914
I1
tp8915
a(S'prasority'
p8916
I1
tp8917
a(S'pray'
p8918
I1
tp8919
a(S'precarious'
p8920
I1
tp8921
a(S'precaution'
p8922
I1
tp8923
a(S'preclaminatly'
p8924
I1
tp8925
a(S'predominant'
p8926
I1
tp8927
a(S'preparation'
p8928
I1
tp8929
a(S'prepares'
p8930
I1
tp8931
a(S'president'
p8932
I1
tp8933
a(S'presumed'
p8934
I1
tp8935
a(S'pretenses'
p8936
I1
tp8937
a(S'prevelent'
p8938
I1
tp8939
a(S'preview'
p8940
I1
tp8941
a(S'previous'
p8942
I1
tp8943
a(S'previously'
p8944
I1
tp8945
a(S'pride'
p8946
I1
tp8947
a(S'prit'
p8948
I1
tp8949
a(S'pritty'
p8950
I1
tp8951
a(S'probablly'
p8952
I1
tp8953
a(S'probably.the'
p8954
I1
tp8955
a(S'problem.how'
p8956
I1
tp8957
a(S'problems.the'
p8958
I1
tp8959
a(S'probly'
p8960
I1
tp8961
a(S'prodlem'
p8962
I1
tp8963
a(S'professional'
p8964
I1
tp8965
a(S'progress'
p8966
I1
tp8967
a(S'progresses'
p8968
I1
tp8969
a(S'prolly'
p8970
I1
tp8971
a(S'promise'
p8972
I1
tp8973
a(S'prone'
p8974
I1
tp8975
a(S'properly'
p8976
I1
tp8977
a(S'prosperous'
p8978
I1
tp8979
a(S'protection'
p8980
I1
tp8981
a(S'proud'
p8982
I1
tp8983
a(S'prove'
p8984
I1
tp8985
a(S'proved'
p8986
I1
tp8987
a(S'proven'
p8988
I1
tp8989
a(S'provided'
p8990
I1
tp8991
a(S'provides'
p8992
I1
tp8993
a(S'provisions'
p8994
I1
tp8995
a(S'provoking'
p8996
I1
tp8997
a(S'prowl'
p8998
I1
tp8999
a(S'puffy'
p9000
I1
tp9001
a(S'pulled'
p9002
I1
tp9003
a(S'pump,\x94'
p9004
I1
tp9005
a(S'pumps,\x94'
p9006
I1
tp9007
a(S'pump\x92s'
p9008
I1
tp9009
a(S'punishments'
p9010
I1
tp9011
a(S'pur'
p9012
I1
tp9013
a(S'purchess,hce'
p9014
I1
tp9015
a(S'pushes'
p9016
I1
tp9017
a(S'pushs'
p9018
I1
tp9019
a(S'puzzled'
p9020
I1
tp9021
a(S'quaint'
p9022
I1
tp9023
a(S'quenched'
p9024
I1
tp9025
a(S'quest-like'
p9026
I1
tp9027
a(S'quick'
p9028
I1
tp9029
a(S'quickest'
p9030
I1
tp9031
a(S'quickly.\x94'
p9032
I1
tp9033
a(S'quickness'
p9034
I1
tp9035
a(S'quinch'
p9036
I1
tp9037
a(S'quotes'
p9038
I1
tp9039
a(S'race.some'
p9040
I1
tp9041
a(S'radio'
p9042
I1
tp9043
a(S'rafh'
p9044
I1
tp9045
a(S'ragady'
p9046
I1
tp9047
a(S'rage'
p9048
I1
tp9049
a(S'raining'
p9050
I1
tp9051
a(S'raised'
p9052
I1
tp9053
a(S'raised.the'
p9054
I1
tp9055
a(S'raising'
p9056
I1
tp9057
a(S'ramshack'
p9058
I1
tp9059
a(S'ramshacke'
p9060
I1
tp9061
a(S'ramshackie'
p9062
I1
tp9063
a(S'ramshackled'
p9064
I1
tp9065
a(S'ramshackleshed'
p9066
I1
tp9067
a(S'ramshacle'
p9068
I1
tp9069
a(S'ramshockle'
p9070
I1
tp9071
a(S'randing'
p9072
I1
tp9073
a(S'rasted'
p9074
I1
tp9075
a(S'rationing'
p9076
I1
tp9077
a(S'rattlesnake'
p9078
I1
tp9079
a(S'raugher'
p9080
I1
tp9081
a(S'reacher'
p9082
I1
tp9083
a(S'react'
p9084
I1
tp9085
a(S'reacted'
p9086
I1
tp9087
a(S'reaction'
p9088
I1
tp9089
a(S'reacts'
p9090
I1
tp9091
a(S'reader\x92s'
p9092
I1
tp9093
a(S'reading,\x94'
p9094
I1
tp9095
a(S'read\x94'
p9096
I1
tp9097
a(S'realeoved'
p9098
I1
tp9099
a(S'realice'
p9100
I1
tp9101
a(S'realiced'
p9102
I1
tp9103
a(S'realistic'
p9104
I1
tp9105
a(S'reality'
p9106
I1
tp9107
a(S'realived'
p9108
I1
tp9109
a(S'realivingly'
p9110
I1
tp9111
a(S'realling'
p9112
I1
tp9113
a(S'realyed'
p9114
I1
tp9115
a(S'reasoning'
p9116
I1
tp9117
a(S'reassurance'
p9118
I1
tp9119
a(S'reassured'
p9120
I1
tp9121
a(S'reassuring'
p9122
I1
tp9123
a(S'reasurance'
p9124
I1
tp9125
a(S'reboost'
p9126
I1
tp9127
a(S'recalled'
p9128
I1
tp9129
a(S'recalls'
p9130
I1
tp9131
a(S'receives'
p9132
I1
tp9133
a(S'receiving'
p9134
I1
tp9135
a(S'recieve'
p9136
I1
tp9137
a(S'recieved'
p9138
I1
tp9139
a(S'recieves'
p9140
I1
tp9141
a(S'recovers'
p9142
I1
tp9143
a(S'recteved'
p9144
I1
tp9145
a(S'recycle'
p9146
I1
tp9147
a(S'red'
p9148
I1
tp9149
a(S'redicuious'
p9150
I1
tp9151
a(S'redicuiouthe'
p9152
I1
tp9153
a(S'reduce'
p9154
I1
tp9155
a(S'reek'
p9156
I1
tp9157
a(S'refer'
p9158
I1
tp9159
a(S'refering'
p9160
I1
tp9161
a(S'refilling'
p9162
I1
tp9163
a(S'refills'
p9164
I1
tp9165
a(S'reflected'
p9166
I1
tp9167
a(S'refreashed'
p9168
I1
tp9169
a(S'refreashing'
p9170
I1
tp9171
a(S'refresh'
p9172
I1
tp9173
a(S'refreshes'
p9174
I1
tp9175
a(S'refreshment'
p9176
I1
tp9177
a(S'refreshments'
p9178
I1
tp9179
a(S'refudge'
p9180
I1
tp9181
a(S'refuel'
p9182
I1
tp9183
a(S'refueled'
p9184
I1
tp9185
a(S'refused'
p9186
I1
tp9187
a(S'refuses'
p9188
I1
tp9189
a(S'reganed'
p9190
I1
tp9191
a(S'regions'
p9192
I1
tp9193
a(S'regret'
p9194
I1
tp9195
a(S'regrets'
p9196
I1
tp9197
a(S'regretted'
p9198
I1
tp9199
a(S'reguarly'
p9200
I1
tp9201
a(S'regular'
p9202
I1
tp9203
a(S'regularly,\x94'
p9204
I1
tp9205
a(S'regularly.\x94'
p9206
I1
tp9207
a(S'regularlyand'
p9208
I1
tp9209
a(S'regularly\x93'
p9210
I1
tp9211
a(S'regulary'
p9212
I1
tp9213
a(S'rehydrate'
p9214
I1
tp9215
a(S'rehydrate.at'
p9216
I1
tp9217
a(S'rehydrated'
p9218
I1
tp9219
a(S'reining'
p9220
I1
tp9221
a(S'relate'
p9222
I1
tp9223
a(S'relaxation'
p9224
I1
tp9225
a(S'relaxes'
p9226
I1
tp9227
a(S'releases'
p9228
I1
tp9229
a(S'releaxed'
p9230
I1
tp9231
a(S'relief.in'
p9232
I1
tp9233
a(S'reliefed'
p9234
I1
tp9235
a(S'relies'
p9236
I1
tp9237
a(S'relif'
p9238
I1
tp9239
a(S'relifed'
p9240
I1
tp9241
a(S'relise'
p9242
I1
tp9243
a(S'relization'
p9244
I1
tp9245
a(S'relizes'
p9246
I1
tp9247
a(S'reloaded'
p9248
I1
tp9249
a(S'relouded'
p9250
I1
tp9251
a(S'rely'
p9252
I1
tp9253
a(S'relylittic'
p9254
I1
tp9255
a(S'remain'
p9256
I1
tp9257
a(S'remained'
p9258
I1
tp9259
a(S'remains'
p9260
I1
tp9261
a(S'remembered'
p9262
I1
tp9263
a(S'reminds'
p9264
I1
tp9265
a(S'remined'
p9266
I1
tp9267
a(S'remotness'
p9268
I1
tp9269
a(S'renew'
p9270
I1
tp9271
a(S'renewed'
p9272
I1
tp9273
a(S'repalced'
p9274
I1
tp9275
a(S'repeatedly'
p9276
I1
tp9277
a(S'replace'
p9278
I1
tp9279
a(S'replenishing'
p9280
I1
tp9281
a(S'replerilshed'
p9282
I1
tp9283
a(S'requested'
p9284
I1
tp9285
a(S'requires'
p9286
I1
tp9287
a(S'resembled'
p9288
I1
tp9289
a(S'resembles'
p9290
I1
tp9291
a(S'resentment'
p9292
I1
tp9293
a(S'reserveir'
p9294
I1
tp9295
a(S'resevoir'
p9296
I1
tp9297
a(S'resigned'
p9298
I1
tp9299
a(S'resolution'
p9300
I1
tp9301
a(S'resort'
p9302
I1
tp9303
a(S'responese'
p9304
I1
tp9305
a(S'restaurant'
p9306
I1
tp9307
a(S'restocked'
p9308
I1
tp9309
a(S'restored'
p9310
I1
tp9311
a(S'restroom'
p9312
I1
tp9313
a(S'result'
p9314
I1
tp9315
a(S'resulted'
p9316
I1
tp9317
a(S'retain'
p9318
I1
tp9319
a(S'retarded'
p9320
I1
tp9321
a(S'retention'
p9322
I1
tp9323
a(S'rethink'
p9324
I1
tp9325
a(S'return'
p9326
I1
tp9327
a(S'returned.the'
p9328
I1
tp9329
a(S'reveal'
p9330
I1
tp9331
a(S'reward'
p9332
I1
tp9333
a(S'rewarded'
p9334
I1
tp9335
a(S'rework'
p9336
I1
tp9337
a(S'rickety'
p9338
I1
tp9339
a(S'ride.every'
p9340
I1
tp9341
a(S'ride.\x93do'
p9342
I1
tp9343
a(S'ride;'
p9344
I1
tp9345
a(S'rideeasy'
p9346
I1
tp9347
a(S'rider\x92s'
p9348
I1
tp9349
a(S'rides.different'
p9350
I1
tp9351
a(S'rideto'
p9352
I1
tp9353
a(S'ridicuosly'
p9354
I1
tp9355
a(S'ridicuously'
p9356
I1
tp9357
a(S'ridin'
p9358
I1
tp9359
a(S'riding,\x94'
p9360
I1
tp9361
a(S'ridy'
p9362
I1
tp9363
a(S'right,but'
p9364
I1
tp9365
a(S'right,had'
p9366
I1
tp9367
a(S'rightthe'
p9368
I1
tp9369
a(S'rigorous'
p9370
I1
tp9371
a(S'riht'
p9372
I1
tp9373
a(S'rippling'
p9374
I1
tp9375
a(S'rising'
p9376
I1
tp9377
a(S'risking'
p9378
I1
tp9379
a(S'risky'
p9380
I1
tp9381
a(S'risle'
p9382
I1
tp9383
a(S'rivers\x94...he'
p9384
I1
tp9385
a(S'road.during'
p9386
I1
tp9387
a(S'road.heat'
p9388
I1
tp9389
a(S'road.when'
p9390
I1
tp9391
a(S'road:do'
p9392
I1
tp9393
a(S'road;'
p9394
I1
tp9395
a(S'roads.the'
p9396
I1
tp9397
a(S'roads.this'
p9398
I1
tp9399
a(S'roadwas'
p9400
I1
tp9401
a(S'road\x92s'
p9402
I1
tp9403
a(S'rod'
p9404
I1
tp9405
a(S'rods'
p9406
I1
tp9407
a(S'roling'
p9408
I1
tp9409
a(S'rollar'
p9410
I1
tp9411
a(S'romds'
p9412
I1
tp9413
a(S'rond'
p9414
I1
tp9415
a(S'roods'
p9416
I1
tp9417
a(S'rope'
p9418
I1
tp9419
a(S'rote'
p9420
I1
tp9421
a(S'roud'
p9422
I1
tp9423
a(S'rougher.at'
p9424
I1
tp9425
a(S'rought'
p9426
I1
tp9427
a(S'round'
p9428
I1
tp9429
a(S'rounded'
p9430
I1
tp9431
a(S'rounds'
p9432
I1
tp9433
a(S'rout'
p9434
I1
tp9435
a(S'row'
p9436
I1
tp9437
a(S'ruffin'
p9438
I1
tp9439
a(S'rum'
p9440
I1
tp9441
a(S'rumshackle'
p9442
I1
tp9443
a(S'run-down'
p9444
I1
tp9445
a(S'run.the'
p9446
I1
tp9447
a(S'runningout'
p9448
I1
tp9449
a(S'rush'
p9450
I1
tp9451
a(S'rusty-bumpy'
p9452
I1
tp9453
a(S'sadistic'
p9454
I1
tp9455
a(S'sadists'
p9456
I1
tp9457
a(S'sadly'
p9458
I1
tp9459
a(S'safe.the'
p9460
I1
tp9461
a(S'safty'
p9462
I1
tp9463
a(S"said''"
p9464
I1
tp9465
a(S'said.he'
p9466
I1
tp9467
a(S'said.in'
p9468
I1
tp9469
a(S'saids.the'
p9470
I1
tp9471
a(S'said\x94'
p9472
I1
tp9473
a(S'sailing'
p9474
I1
tp9475
a(S'sald'
p9476
I1
tp9477
a(S'salt'
p9478
I1
tp9479
a(S'salvation'
p9480
I1
tp9481
a(S'sammertime'
p9482
I1
tp9483
a(S'sands'
p9484
I1
tp9485
a(S'sane'
p9486
I1
tp9487
a(S'sanity'
p9488
I1
tp9489
a(S'sank'
p9490
I1
tp9491
a(S'sarive.the'
p9492
I1
tp9493
a(S'sat'
p9494
I1
tp9495
a(S'satiricle'
p9496
I1
tp9497
a(S'satisfaction'
p9498
I1
tp9499
a(S'satisfy'
p9500
I1
tp9501
a(S'satisfying'
p9502
I1
tp9503
a(S'sats'
p9504
I1
tp9505
a(S'saved.some'
p9506
I1
tp9507
a(S'saving'
p9508
I1
tp9509
a(S'savior!'
p9510
I1
tp9511
a(S'sawes'
p9512
I1
tp9513
a(S'sayin'
p9514
I1
tp9515
a(S'says,"somewhere'
p9516
I1
tp9517
a(S'says,\x93it'
p9518
I1
tp9519
a(S'says,\x94'
p9520
I1
tp9521
a(S'says,\x94in'
p9522
I1
tp9523
a(S'says.\x93the'
p9524
I1
tp9525
a(S'says.\x94'
p9526
I1
tp9527
a(S'saysown'
p9528
I1
tp9529
a(S'scarce'
p9530
I1
tp9531
a(S'scarcity'
p9532
I1
tp9533
a(S'scare'
p9534
I1
tp9535
a(S'scery'
p9536
I1
tp9537
a(S'school\x92s'
p9538
I1
tp9539
a(S'scketle'
p9540
I1
tp9541
a(S'scorcing'
p9542
I1
tp9543
a(S'scorging'
p9544
I1
tp9545
a(S'scortching'
p9546
I1
tp9547
a(S'screw'
p9548
I1
tp9549
a(S'scroaching'
p9550
I1
tp9551
a(S'se'
p9552
I1
tp9553
a(S'seal'
p9554
I1
tp9555
a(S'searched'
p9556
I1
tp9557
a(S'seclusion'
p9558
I1
tp9559
a(S'secont'
p9560
I1
tp9561
a(S'secured'
p9562
I1
tp9563
a(S'security'
p9564
I1
tp9565
a(S'sedring'
p9566
I1
tp9567
a(S'seeming'
p9568
I1
tp9569
a(S'seen.\x94'
p9570
I1
tp9571
a(S'seen\x94'
p9572
I1
tp9573
a(S'selection'
p9574
I1
tp9575
a(S'self,\x94'
p9576
I1
tp9577
a(S'self-'
p9578
I1
tp9579
a(S'self-control'
p9580
I1
tp9581
a(S'self.the'
p9582
I1
tp9583
a(S'self\x96determination'
p9584
I1
tp9585
a(S'selling'
p9586
I1
tp9587
a(S'semi'
p9588
I1
tp9589
a(S'sending'
p9590
I1
tp9591
a(S'sends'
p9592
I1
tp9593
a(S'seneries'
p9594
I1
tp9595
a(S'senery'
p9596
I1
tp9597
a(S'sensation'
p9598
I1
tp9599
a(S'senses'
p9600
I1
tp9601
a(S'seranety'
p9602
I1
tp9603
a(S'serene'
p9604
I1
tp9605
a(S'serre'
p9606
I1
tp9607
a(S'serve'
p9608
I1
tp9609
a(S'service'
p9610
I1
tp9611
a(S'setbacks'
p9612
I1
tp9613
a(S'setent'
p9614
I1
tp9615
a(S'seting'
p9616
I1
tp9617
a(S'setling'
p9618
I1
tp9619
a(S'settin'
p9620
I1
tp9621
a(S"setting's"
p9622
I1
tp9623
a(S'setting,and'
p9624
I1
tp9625
a(S'setting-related'
p9626
I1
tp9627
a(S'setting.because'
p9628
I1
tp9629
a(S'setting.everything'
p9630
I1
tp9631
a(S'setting.heat'
p9632
I1
tp9633
a(S'setting.i'
p9634
I1
tp9635
a(S'settings.the'
p9636
I1
tp9637
a(S'settingshe'
p9638
I1
tp9639
a(S'settingthe'
p9640
I1
tp9641
a(S'settlements'
p9642
I1
tp9643
a(S'settnig'
p9644
I1
tp9645
a(S'severall'
p9646
I1
tp9647
a(S'severe'
p9648
I1
tp9649
a(S'severely'
p9650
I1
tp9651
a(S'severly'
p9652
I1
tp9653
a(S'sffects'
p9654
I1
tp9655
a(S'shackle'
p9656
I1
tp9657
a(S'shackled'
p9658
I1
tp9659
a(S'shade-all'
p9660
I1
tp9661
a(S'shady'
p9662
I1
tp9663
a(S'shake,\x94'
p9664
I1
tp9665
a(S'shake.\x94'
p9666
I1
tp9667
a(S'shape.the'
p9668
I1
tp9669
a(S'shaped'
p9670
I1
tp9671
a(S'shard'
p9672
I1
tp9673
a(S'she/he'
p9674
I1
tp9675
a(S'shed...\x94'
p9676
I1
tp9677
a(S'shed.\x94'
p9678
I1
tp9679
a(S'shed.\x94@caps1'
p9680
I1
tp9681
a(S'shed[s]'
p9682
I1
tp9683
a(S'shed\x92'
p9684
I1
tp9685
a(S'shed\x94'
p9686
I1
tp9687
a(S'shep'
p9688
I1
tp9689
a(S'shile'
p9690
I1
tp9691
a(S'shining'
p9692
I1
tp9693
a(S'shirt,\x94'
p9694
I1
tp9695
a(S'shirt."the'
p9696
I1
tp9697
a(S'shirt.\x94there'
p9698
I1
tp9699
a(S'shocking'
p9700
I1
tp9701
a(S'shoes'
p9702
I1
tp9703
a(S'shold'
p9704
I1
tp9705
a(S'shoot'
p9706
I1
tp9707
a(S'shopped'
p9708
I1
tp9709
a(S'shore'
p9710
I1
tp9711
a(S'short-cut'
p9712
I1
tp9713
a(S'short-cuts'
p9714
I1
tp9715
a(S'shortcuts'
p9716
I1
tp9717
a(S'shortcut\x94'
p9718
I1
tp9719
a(S'shot'
p9720
I1
tp9721
a(S'shoud'
p9722
I1
tp9723
a(S'shoutcut'
p9724
I1
tp9725
a(S'shuold'
p9726
I1
tp9727
a(S'sicocss'
p9728
I1
tp9729
a(S'side-over'
p9730
I1
tp9731
a(S'side.the'
p9732
I1
tp9733
a(S'siga'
p9734
I1
tp9735
a(S'sight.the'
p9736
I1
tp9737
a(S'sight.\x94'
p9738
I1
tp9739
a(S'sights\x94'
p9740
I1
tp9741
a(S'sign.the'
p9742
I1
tp9743
a(S'significance'
p9744
I1
tp9745
a(S'significant'
p9746
I1
tp9747
a(S'significantly'
p9748
I1
tp9749
a(S'signifigant'
p9750
I1
tp9751
a(S'siked'
p9752
I1
tp9753
a(S'silly'
p9754
I1
tp9755
a(S'simplist'
p9756
I1
tp9757
a(S'sin'
p9758
I1
tp9759
a(S'sine'
p9760
I1
tp9761
a(S'singn'
p9762
I1
tp9763
a(S'sings'
p9764
I1
tp9765
a(S'sink.in'
p9766
I1
tp9767
a(S'sink;'
p9768
I1
tp9769
a(S'sinks'
p9770
I1
tp9771
a(S'sink\x94'
p9772
I1
tp9773
a(S'sinle.\x94'
p9774
I1
tp9775
a(S'sips,\x94'
p9776
I1
tp9777
a(S'sir'
p9778
I1
tp9779
a(S'sit'
p9780
I1
tp9781
a(S'situation.the'
p9782
I1
tp9783
a(S'sixty'
p9784
I1
tp9785
a(S'size'
p9786
I1
tp9787
a(S'skilled'
p9788
I1
tp9789
a(S'skilt'
p9790
I1
tp9791
a(S'skirt'
p9792
I1
tp9793
a(S'skrewed'
p9794
I1
tp9795
a(S'slept'
p9796
I1
tp9797
a(S'slic'
p9798
I1
tp9799
a(S'slight'
p9800
I1
tp9801
a(S'slip'
p9802
I1
tp9803
a(S'slips'
p9804
I1
tp9805
a(S'slopes'
p9806
I1
tp9807
a(S'slowes'
p9808
I1
tp9809
a(S'sludge'
p9810
I1
tp9811
a(S'sluggish'
p9812
I1
tp9813
a(S'slumped'
p9814
I1
tp9815
a(S'smile.\x94'
p9816
I1
tp9817
a(S'smile\x94'
p9818
I1
tp9819
a(S'smile\x94according'
p9820
I1
tp9821
a(S'smiling'
p9822
I1
tp9823
a(S'smoggy'
p9824
I1
tp9825
a(S'smoky'
p9826
I1
tp9827
a(S'smoot'
p9828
I1
tp9829
a(S'smothness'
p9830
I1
tp9831
a(S'snack'
p9832
I1
tp9833
a(S'snak'
p9834
I1
tp9835
a(S'snake,\x94'
p9836
I1
tp9837
a(S'snake-it'
p9838
I1
tp9839
a(S"snake.''"
p9840
I1
tp9841
a(S'snakes,and'
p9842
I1
tp9843
a(S'snakes.its'
p9844
I1
tp9845
a(S'snakes\x94'
p9846
I1
tp9847
a(S'sneak'
p9848
I1
tp9849
a(S'snowing'
p9850
I1
tp9851
a(S'so-'
p9852
I1
tp9853
a(S'so-called'
p9854
I1
tp9855
a(S'so.in'
p9856
I1
tp9857
a(S'soaking'
p9858
I1
tp9859
a(S'soccer'
p9860
I1
tp9861
a(S'soda'
p9862
I1
tp9863
a(S'soil'
p9864
I1
tp9865
a(S'sold'
p9866
I1
tp9867
a(S'solids'
p9868
I1
tp9869
a(S'soluation'
p9870
I1
tp9871
a(S'solution.the'
p9872
I1
tp9873
a(S'solve'
p9874
I1
tp9875
a(S'somehow'
p9876
I1
tp9877
a(S'somelane'
p9878
I1
tp9879
a(S'someone.many'
p9880
I1
tp9881
a(S'somewahat'
p9882
I1
tp9883
a(S'somewhat'
p9884
I1
tp9885
a(S'son'
p9886
I1
tp9887
a(S'song'
p9888
I1
tp9889
a(S'sooooooooooooo'
p9890
I1
tp9891
a(S'soothing'
p9892
I1
tp9893
a(S'sopped'
p9894
I1
tp9895
a(S'sopping'
p9896
I1
tp9897
a(S'sorching'
p9898
I1
tp9899
a(S'sorrs'
p9900
I1
tp9901
a(S'sorts\x94'
p9902
I1
tp9903
a(S'souding'
p9904
I1
tp9905
a(S'sounding'
p9906
I1
tp9907
a(S'sour'
p9908
I1
tp9909
a(S'source.\x94the'
p9910
I1
tp9911
a(S'souther'
p9912
I1
tp9913
a(S'sow'
p9914
I1
tp9915
a(S'space'
p9916
I1
tp9917
a(S'spaces'
p9918
I1
tp9919
a(S'spare'
p9920
I1
tp9921
a(S'spark'
p9922
I1
tp9923
a(S'spasked'
p9924
I1
tp9925
a(S'speaks'
p9926
I1
tp9927
a(S'specific'
p9928
I1
tp9929
a(S'spectaculiar'
p9930
I1
tp9931
a(S'sped'
p9932
I1
tp9933
a(S'spedd'
p9934
I1
tp9935
a(S'speed.\x94'
p9936
I1
tp9937
a(S'speeds'
p9938
I1
tp9939
a(S'speeed'
p9940
I1
tp9941
a(S'spell'
p9942
I1
tp9943
a(S'spent'
p9944
I1
tp9945
a(S'spirit"(@num1)'
p9946
I1
tp9947
a(S'spirit.\x94'
p9948
I1
tp9949
a(S'spirit\x94'
p9950
I1
tp9951
a(S'spoiled'
p9952
I1
tp9953
a(S'spotted'
p9954
I1
tp9955
a(S'spring'
p9956
I1
tp9957
a(S'sreach'
p9958
I1
tp9959
a(S'sructure'
p9960
I1
tp9961
a(S'stable'
p9962
I1
tp9963
a(S'stack'
p9964
I1
tp9965
a(S'staggered'
p9966
I1
tp9967
a(S'stamena'
p9968
I1
tp9969
a(S'stamina'
p9970
I1
tp9971
a(S'standard'
p9972
I1
tp9973
a(S'standards'
p9974
I1
tp9975
a(S'standing'
p9976
I1
tp9977
a(S'starters'
p9978
I1
tp9979
a(S'starving'
p9980
I1
tp9981
a(S'stat'
p9982
I1
tp9983
a(S'state.in'
p9984
I1
tp9985
a(S'state.thes'
p9986
I1
tp9987
a(S'stated,\x94'
p9988
I1
tp9989
a(S'states,"water'
p9990
I1
tp9991
a(S'states,the'
p9992
I1
tp9993
a(S'states,\x93the'
p9994
I1
tp9995
a(S'state\x94(@caps1'
p9996
I1
tp9997
a(S'stating'
p9998
I1
tp9999
a(S'station'
p10000
I1
tp10001
a(S'staying'
p10002
I1
tp10003
a(S'staying.rough'
p10004
I1
tp10005
a(S'steal'
p10006
I1
tp10007
a(S'steepness'
p10008
I1
tp10009
a(S'steryotypically'
p10010
I1
tp10011
a(S'stey'
p10012
I1
tp10013
a(S'sticks'
p10014
I1
tp10015
a(S'sticky'
p10016
I1
tp10017
a(S'stirved'
p10018
I1
tp10019
a(S'stll'
p10020
I1
tp10021
a(S'stoff'
p10022
I1
tp10023
a(S'stopat'
p10024
I1
tp10025
a(S'stoping'
p10026
I1
tp10027
a(S'stopping'
p10028
I1
tp10029
a(S'stop\x92s'
p10030
I1
tp10031
a(S'stories'
p10032
I1
tp10033
a(S'stories.the'
p10034
I1
tp10035
a(S'story"do'
p10036
I1
tp10037
a(S'story,\x94'
p10038
I1
tp10039
a(S'story.i'
p10040
I1
tp10041
a(S'story.setting'
p10042
I1
tp10043
a(S'story;'
p10044
I1
tp10045
a(S'storys'
p10046
I1
tp10047
a(S'storythe'
p10048
I1
tp10049
a(S'stoy'
p10050
I1
tp10051
a(S'strained'
p10052
I1
tp10053
a(S'strainful'
p10054
I1
tp10055
a(S'strand'
p10056
I1
tp10057
a(S'strange'
p10058
I1
tp10059
a(S'stranger'
p10060
I1
tp10061
a(S'strangers.\x94'
p10062
I1
tp10063
a(S'strat'
p10064
I1
tp10065
a(S'strats'
p10066
I1
tp10067
a(S'straw'
p10068
I1
tp10069
a(S'streaming'
p10070
I1
tp10071
a(S'strech'
p10072
I1
tp10073
a(S'street'
p10074
I1
tp10075
a(S'streets'
p10076
I1
tp10077
a(S'streetsigns'
p10078
I1
tp10079
a(S'stregth'
p10080
I1
tp10081
a(S'strenght'
p10082
I1
tp10083
a(S'strength.the'
p10084
I1
tp10085
a(S'strength.\x94'
p10086
I1
tp10087
a(S'strength\x94'
p10088
I1
tp10089
a(S'stress.the'
p10090
I1
tp10091
a(S'stressed'
p10092
I1
tp10093
a(S'stressing'
p10094
I1
tp10095
a(S'strest'
p10096
I1
tp10097
a(S'stretches'
p10098
I1
tp10099
a(S'stricken'
p10100
I1
tp10101
a(S'strike'
p10102
I1
tp10103
a(S'strock'
p10104
I1
tp10105
a(S'stroke...laugh.\x94'
p10106
I1
tp10107
a(S'stroke.\x94the'
p10108
I1
tp10109
a(S'stroke\x94'
p10110
I1
tp10111
a(S'strong.in'
p10112
I1
tp10113
a(S'stronger.the'
p10114
I1
tp10115
a(S'strote'
p10116
I1
tp10117
a(S'strraing'
p10118
I1
tp10119
a(S'struggle.in'
p10120
I1
tp10121
a(S'stumbels'
p10122
I1
tp10123
a(S'stupid'
p10124
I1
tp10125
a(S'sub'
p10126
I1
tp10127
a(S'subburbs'
p10128
I1
tp10129
a(S'subconsciously'
p10130
I1
tp10131
a(S'subject'
p10132
I1
tp10133
a(S'substain'
p10134
I1
tp10135
a(S'substantitially'
p10136
I1
tp10137
a(S'succeeded'
p10138
I1
tp10139
a(S'succeeding'
p10140
I1
tp10141
a(S'success.the'
p10142
I1
tp10143
a(S'successful'
p10144
I1
tp10145
a(S'successs'
p10146
I1
tp10147
a(S'suceeded'
p10148
I1
tp10149
a(S'suckenc-stone'
p10150
I1
tp10151
a(S'sudden'
p10152
I1
tp10153
a(S'suddenly'
p10154
I1
tp10155
a(S'suffering'
p10156
I1
tp10157
a(S'suffers'
p10158
I1
tp10159
a(S'suggesting'
p10160
I1
tp10161
a(S'summary'
p10162
I1
tp10163
a(S'summer-'
p10164
I1
tp10165
a(S'summertime'
p10166
I1
tp10167
a(S'sun.in'
p10168
I1
tp10169
a(S'sunburn'
p10170
I1
tp10171
a(S'suns'
p10172
I1
tp10173
a(S'sunset'
p10174
I1
tp10175
a(S'sun\x94'
p10176
I1
tp10177
a(S'suposely'
p10178
I1
tp10179
a(S'supples'
p10180
I1
tp10181
a(S'supplie'
p10182
I1
tp10183
a(S'supposedly'
p10184
I1
tp10185
a(S'surged'
p10186
I1
tp10187
a(S'surprised'
p10188
I1
tp10189
a(S'surrandings'
p10190
I1
tp10191
a(S'surrouding'
p10192
I1
tp10193
a(S'surrounds'
p10194
I1
tp10195
a(S'survival.the'
p10196
I1
tp10197
a(S'survives'
p10198
I1
tp10199
a(S'surviving.the'
p10200
I1
tp10201
a(S'survivor'
p10202
I1
tp10203
a(S'suspect'
p10204
I1
tp10205
a(S'swallowed'
p10206
I1
tp10207
a(S'swallowing'
p10208
I1
tp10209
a(S'swampland'
p10210
I1
tp10211
a(S'swear'
p10212
I1
tp10213
a(S'sweety'
p10214
I1
tp10215
a(S'sweltering'
p10216
I1
tp10217
a(S'swore'
p10218
I1
tp10219
a(S'swreating'
p10220
I1
tp10221
a(S'symptom'
p10222
I1
tp10223
a(S'tack'
p10224
I1
tp10225
a(S'tacks'
p10226
I1
tp10227
a(S'tainted'
p10228
I1
tp10229
a(S'talk\x92s'
p10230
I1
tp10231
a(S'tambleweeds'
p10232
I1
tp10233
a(S'tamest'
p10234
I1
tp10235
a(S'tantalize'
p10236
I1
tp10237
a(S'tantallizg'
p10238
I1
tp10239
a(S'tantallizing'
p10240
I1
tp10241
a(S'tantilizing'
p10242
I1
tp10243
a(S'tap'
p10244
I1
tp10245
a(S'target'
p10246
I1
tp10247
a(S'tarrens'
p10248
I1
tp10249
a(S'tast'
p10250
I1
tp10251
a(S'tasts'
p10252
I1
tp10253
a(S'taunting'
p10254
I1
tp10255
a(S'taunts'
p10256
I1
tp10257
a(S'tay'
p10258
I1
tp10259
a(S'teach'
p10260
I1
tp10261
a(S'tean'
p10262
I1
tp10263
a(S'tear'
p10264
I1
tp10265
a(S'tease'
p10266
I1
tp10267
a(S'technology'
p10268
I1
tp10269
a(S'teenager'
p10270
I1
tp10271
a(S'temperature.in'
p10272
I1
tp10273
a(S'tempeter'
p10274
I1
tp10275
a(S'tempt'
p10276
I1
tp10277
a(S'tempted'
p10278
I1
tp10279
a(S'tempting'
p10280
I1
tp10281
a(S'temptures'
p10282
I1
tp10283
a(S'tempures'
p10284
I1
tp10285
a(S'tend'
p10286
I1
tp10287
a(S'tender'
p10288
I1
tp10289
a(S'tensely'
p10290
I1
tp10291
a(S'tents'
p10292
I1
tp10293
a(S'terains'
p10294
I1
tp10295
a(S'terair'
p10296
I1
tp10297
a(S'term'
p10298
I1
tp10299
a(S'terrail'
p10300
I1
tp10301
a(S'terrain.excitement'
p10302
I1
tp10303
a(S'terrain.the'
p10304
I1
tp10305
a(S'terraine'
p10306
I1
tp10307
a(S'terran'
p10308
I1
tp10309
a(S'terrian'
p10310
I1
tp10311
a(S'terrible'
p10312
I1
tp10313
a(S'terrified'
p10314
I1
tp10315
a(S'text"i'
p10316
I1
tp10317
a(S'th'
p10318
I1
tp10319
a(S'thanked'
p10320
I1
tp10321
a(S'thankful.the'
p10322
I1
tp10323
a(S'thanks'
p10324
I1
tp10325
a(S'that!\x94'
p10326
I1
tp10327
a(S'that.in'
p10328
I1
tp10329
a(S'thathe'
p10330
I1
tp10331
a(S'thatin'
p10332
I1
tp10333
a(S"the's"
p10334
I1
tp10335
a(S'the???'
p10336
I1
tp10337
a(S'theer'
p10338
I1
tp10339
a(S'theirjudgement'
p10340
I1
tp10341
a(S'them,\x94'
p10342
I1
tp10343
a(S'then..leaves'
p10344
I1
tp10345
a(S'there!'
p10346
I1
tp10347
a(S'there.in'
p10348
I1
tp10349
a(S'there?\x94'
p10350
I1
tp10351
a(S'thereafter'
p10352
I1
tp10353
a(S'therefour'
p10354
I1
tp10355
a(S'therewhen'
p10356
I1
tp10357
a(S'there\x92d'
p10358
I1
tp10359
a(S'thermia'
p10360
I1
tp10361
a(S'thesettings'
p10362
I1
tp10363
a(S"they're"
p10364
I1
tp10365
a(S'theyre'
p10366
I1
tp10367
a(S'they\x92d'
p10368
I1
tp10369
a(S'they\x92ll'
p10370
I1
tp10371
a(S'thickest'
p10372
I1
tp10373
a(S'thined'
p10374
I1
tp10375
a(S'thing.in'
p10376
I1
tp10377
a(S'things.the'
p10378
I1
tp10379
a(S'thinning'
p10380
I1
tp10381
a(S'thirdly'
p10382
I1
tp10383
a(S'thirst,\x94'
p10384
I1
tp10385
a(S'thirst.\x94'
p10386
I1
tp10387
a(S'thirstier.the'
p10388
I1
tp10389
a(S'thirsties'
p10390
I1
tp10391
a(S'thirsty,and'
p10392
I1
tp10393
a(S'thirsty.in'
p10394
I1
tp10395
a(S'thirsty;'
p10396
I1
tp10397
a(S'thirst\x94'
p10398
I1
tp10399
a(S'thirteen'
p10400
I1
tp10401
a(S'thirtier'
p10402
I1
tp10403
a(S'thirty'
p10404
I1
tp10405
a(S'thisas'
p10406
I1
tp10407
a(S'thiving'
p10408
I1
tp10409
a(S'thot'
p10410
I1
tp10411
a(S'thoug'
p10412
I1
tp10413
a(S'though.the'
p10414
I1
tp10415
a(S'thought.the'
p10416
I1
tp10417
a(S'thout'
p10418
I1
tp10419
a(S'thr'
p10420
I1
tp10421
a(S'thre'
p10422
I1
tp10423
a(S'threatened'
p10424
I1
tp10425
a(S'threating'
p10426
I1
tp10427
a(S'threats'
p10428
I1
tp10429
a(S'threes'
p10430
I1
tp10431
a(S'thribiy'
p10432
I1
tp10433
a(S'thrister'
p10434
I1
tp10435
a(S'thristy'
p10436
I1
tp10437
a(S'thrist\x94'
p10438
I1
tp10439
a(S'throat\x94(@num1).the'
p10440
I1
tp10441
a(S'through-out'
p10442
I1
tp10443
a(S'through.one'
p10444
I1
tp10445
a(S'through;'
p10446
I1
tp10447
a(S'thrown'
p10448
I1
tp10449
a(S'throws'
p10450
I1
tp10451
a(S'thugs'
p10452
I1
tp10453
a(S'ticed'
p10454
I1
tp10455
a(S'tiering'
p10456
I1
tp10457
a(S'til'
p10458
I1
tp10459
a(S'tilling'
p10460
I1
tp10461
a(S'time-sat'
p10462
I1
tp10463
a(S'time.since'
p10464
I1
tp10465
a(S'time.\x94'
p10466
I1
tp10467
a(S'time;'
p10468
I1
tp10469
a(S'timein'
p10470
I1
tp10471
a(S'times.they'
p10472
I1
tp10473
a(S'time\x92'
p10474
I1
tp10475
a(S'timid'
p10476
I1
tp10477
a(S'tine'
p10478
I1
tp10479
a(S'tined'
p10480
I1
tp10481
a(S'tip'
p10482
I1
tp10483
a(S'tired,the'
p10484
I1
tp10485
a(S'tiredin'
p10486
I1
tp10487
a(S'tireds'
p10488
I1
tp10489
a(S'tiresa'
p10490
I1
tp10491
a(S'tiresome'
p10492
I1
tp10493
a(S'titled'
p10494
I1
tp10495
a(S'tiv'
p10496
I1
tp10497
a(S'ti\x92s'
p10498
I1
tp10499
a(S'to!'
p10500
I1
tp10501
a(S'to,his'
p10502
I1
tp10503
a(S'to.the'
p10504
I1
tp10505
a(S'to;to'
p10506
I1
tp10507
a(S'tock'
p10508
I1
tp10509
a(S'today'
p10510
I1
tp10511
a(S'todi'
p10512
I1
tp10513
a(S'toil'
p10514
I1
tp10515
a(S'toiledon\x94'
p10516
I1
tp10517
a(S'toke'
p10518
I1
tp10519
a(S'tole'
p10520
I1
tp10521
a(S'tollon'
p10522
I1
tp10523
a(S'tontalizing'
p10524
I1
tp10525
a(S'tool'
p10526
I1
tp10527
a(S'topof'
p10528
I1
tp10529
a(S'tormenting'
p10530
I1
tp10531
a(S'torn'
p10532
I1
tp10533
a(S'torns'
p10534
I1
tp10535
a(S'torturous'
p10536
I1
tp10537
a(S'toslice'
p10538
I1
tp10539
a(S'tostick'
p10540
I1
tp10541
a(S'tot'
p10542
I1
tp10543
a(S'total'
p10544
I1
tp10545
a(S'totally'
p10546
I1
tp10547
a(S'totalt'
p10548
I1
tp10549
a(S'totaly'
p10550
I1
tp10551
a(S'tothe'
p10552
I1
tp10553
a(S'totzy'
p10554
I1
tp10555
a(S'touch'
p10556
I1
tp10557
a(S'touenting'
p10558
I1
tp10559
a(S'tough.the'
p10560
I1
tp10561
a(S'toughest'
p10562
I1
tp10563
a(S'tought'
p10564
I1
tp10565
a(S'touring'
p10566
I1
tp10567
a(S'tourtement'
p10568
I1
tp10569
a(S'town"and'
p10570
I1
tp10571
a(S"town''...it"
p10572
I1
tp10573
a(S"town's"
p10574
I1
tp10575
a(S'town,\x94'
p10576
I1
tp10577
a(S"town.''this"
p10578
I1
tp10579
a(S'town.on'
p10580
I1
tp10581
a(S'town.the'
p10582
I1
tp10583
a(S'town.\x94an'
p10584
I1
tp10585
a(S'townin'
p10586
I1
tp10587
a(S'townno'
p10588
I1
tp10589
a(S'town\x94.the'
p10590
I1
tp10591
a(S'toxic'
p10592
I1
tp10593
a(S'tp'
p10594
I1
tp10595
a(S'tradition'
p10596
I1
tp10597
a(S'traffic'
p10598
I1
tp10599
a(S'train'
p10600
I1
tp10601
a(S'trait'
p10602
I1
tp10603
a(S'tramatizing'
p10604
I1
tp10605
a(S'transportation'
p10606
I1
tp10607
a(S'trapped'
p10608
I1
tp10609
a(S'trash'
p10610
I1
tp10611
a(S'trational'
p10612
I1
tp10613
a(S'trave'
p10614
I1
tp10615
a(S'travellers'
p10616
I1
tp10617
a(S'travels,"i'
p10618
I1
tp10619
a(S'travelthe'
p10620
I1
tp10621
a(S'traver'
p10622
I1
tp10623
a(S'travled'
p10624
I1
tp10625
a(S'treachorous'
p10626
I1
tp10627
a(S'treain'
p10628
I1
tp10629
a(S'treck'
p10630
I1
tp10631
a(S'trek'
p10632
I1
tp10633
a(S'tremendously.the'
p10634
I1
tp10635
a(S'trials'
p10636
I1
tp10637
a(S'trick'
p10638
I1
tp10639
a(S'trick.the'
p10640
I1
tp10641
a(S'trie'
p10642
I1
tp10643
a(S'triggered'
p10644
I1
tp10645
a(S'trips'
p10646
I1
tp10647
a(S'triumph'
p10648
I1
tp10649
a(S'triumphs'
p10650
I1
tp10651
a(S'trouble.hot'
p10652
I1
tp10653
a(S'troubleing,\x94'
p10654
I1
tp10655
a(S'troubling...\x94'
p10656
I1
tp10657
a(S'troubling.\x94he'
p10658
I1
tp10659
a(S'trough'
p10660
I1
tp10661
a(S'trowoling\x94'
p10662
I1
tp10663
a(S'truck'
p10664
I1
tp10665
a(S'trudge'
p10666
I1
tp10667
a(S'trustworthy'
p10668
I1
tp10669
a(S'trusty'
p10670
I1
tp10671
a(S'trying,\x94'
p10672
I1
tp10673
a(S'trying.the'
p10674
I1
tp10675
a(S'trys'
p10676
I1
tp10677
a(S'try\x92s'
p10678
I1
tp10679
a(S'tumberweeds'
p10680
I1
tp10681
a(S'tumbleweeds\x94'
p10682
I1
tp10683
a(S'twist.\x94in'
p10684
I1
tp10685
a(S'twists'
p10686
I1
tp10687
a(S'two-hundred'
p10688
I1
tp10689
a(S'tying'
p10690
I1
tp10691
a(S'typess'
p10692
I1
tp10693
a(S'tyring'
p10694
I1
tp10695
a(S'u'
I1
tp10696
a(S'ugly'
p10697
I1
tp10698
a(S'ulcoming'
p10699
I1
tp10700
a(S'ultimate'
p10701
I1
tp10702
a(S'un'
p10703
I1
tp10704
a(S'unable'
p10705
I1
tp10706
a(S'unaware'
p10707
I1
tp10708
a(S'unbearable.in'
p10709
I1
tp10710
a(S'unbelievable'
p10711
I1
tp10712
a(S'uncaring'
p10713
I1
tp10714
a(S'unclean'
p10715
I1
tp10716
a(S'uncocleible'
p10717
I1
tp10718
a(S'unconscious'
p10719
I1
tp10720
a(S'undergoing'
p10721
I1
tp10722
a(S'understand'
p10723
I1
tp10724
a(S'undrinkable'
p10725
I1
tp10726
a(S'unease'
p10727
I1
tp10728
a(S'uneven'
p10729
I1
tp10730
a(S'unfamiliar'
p10731
I1
tp10732
a(S'unfocus'
p10733
I1
tp10734
a(S'unfortonatly'
p10735
I1
tp10736
a(S'unfortunately'
p10737
I1
tp10738
a(S'uninhabited'
p10739
I1
tp10740
a(S'unlike'
p10741
I1
tp10742
a(S'unmarked'
p10743
I1
tp10744
a(S'unmercifully'
p10745
I1
tp10746
a(S'unnerved'
p10747
I1
tp10748
a(S'unpleasant'
p10749
I1
tp10750
a(S'unpleasantly'
p10751
I1
tp10752
a(S'unreliable'
p10753
I1
tp10754
a(S'unsafe'
p10755
I1
tp10756
a(S'unstable'
p10757
I1
tp10758
a(S'unsteady'
p10759
I1
tp10760
a(S'unuseful'
p10761
I1
tp10762
a(S'unuseland'
p10763
I1
tp10764
a(S'up-hill'
p10765
I1
tp10766
a(S'upbeat'
p10767
I1
tp10768
a(S'upheat'
p10769
I1
tp10770
a(S'uplifting'
p10771
I1
tp10772
a(S'upsets'
p10773
I1
tp10774
a(S'upthe'
p10775
I1
tp10776
a(S'urbanized'
p10777
I1
tp10778
a(S'urging'
p10779
I1
tp10780
a(S'useable.\x94'
p10781
I1
tp10782
a(S'useful'
p10783
I1
tp10784
a(S'usings'
p10785
I1
tp10786
a(S'usualier'
p10787
I1
tp10788
a(S'utterly'
p10789
I1
tp10790
a(S'v.s'
p10791
I1
tp10792
a(S'vacation'
p10793
I1
tp10794
a(S'vacation.this'
p10795
I1
tp10796
a(S'vague'
p10797
I1
tp10798
a(S'valuable'
p10799
I1
tp10800
a(S'various'
p10801
I1
tp10802
a(S'vegetation'
p10803
I1
tp10804
a(S'velches'
p10805
I1
tp10806
a(S'venomous'
p10807
I1
tp10808
a(S'verry'
p10809
I1
tp10810
a(S'version'
p10811
I1
tp10812
a(S'victimized'
p10813
I1
tp10814
a(S'vies'
p10815
I1
tp10816
a(S'view!'
p10817
I1
tp10818
a(S'view.\x94'
p10819
I1
tp10820
a(S'viewing'
p10821
I1
tp10822
a(S'viewpoint'
p10823
I1
tp10824
a(S'views.\x94'
p10825
I1
tp10826
a(S'vigorous'
p10827
I1
tp10828
a(S'violent'
p10829
I1
tp10830
a(S'vision'
p10831
I1
tp10832
a(S'visions'
p10833
I1
tp10834
a(S'visited'
p10835
I1
tp10836
a(S'visual'
p10837
I1
tp10838
a(S'vivid'
p10839
I1
tp10840
a(S'vividly'
p10841
I1
tp10842
a(S'vocubulary'
p10843
I1
tp10844
a(S'volcanoes'
p10845
I1
tp10846
a(S'wa'
p10847
I1
tp10848
a(S'waas'
p10849
I1
tp10850
a(S'wading'
p10851
I1
tp10852
a(S'waiter'
p10853
I1
tp10854
a(S'waiting'
p10855
I1
tp10856
a(S'wakes'
p10857
I1
tp10858
a(S'wald'
p10859
I1
tp10860
a(S'wall'
p10861
I1
tp10862
a(S'war-but'
p10863
I1
tp10864
a(S'ware'
p10865
I1
tp10866
a(S'warmers'
p10867
I1
tp10868
a(S'warming'
p10869
I1
tp10870
a(S'warms'
p10871
I1
tp10872
a(S'warmth'
p10873
I1
tp10874
a(S'wary'
p10875
I1
tp10876
a(S'war\x92'
p10877
I1
tp10878
a(S'was.as'
p10879
I1
tp10880
a(S'was.the'
p10881
I1
tp10882
a(S'was.well'
p10883
I1
tp10884
a(S'wasen\x92t'
p10885
I1
tp10886
a(S'wasn`t'
p10887
I1
tp10888
a(S'wass'
p10889
I1
tp10890
a(S'was\x94'
p10891
I1
tp10892
a(S'wat'
p10893
I1
tp10894
a(S'water,and'
p10895
I1
tp10896
a(S'water,\x93the'
p10897
I1
tp10898
a(S'water-deleting'
p10899
I1
tp10900
a(S'water."in'
p10901
I1
tp10902
a(S'water.a'
p10903
I1
tp10904
a(S'water.poor'
p10905
I1
tp10906
a(S'water.this'
p10907
I1
tp10908
a(S'water.to'
p10909
I1
tp10910
a(S'water.\x94'
p10911
I1
tp10912
a(S'water;'
p10913
I1
tp10914
a(S'waterat'
p10915
I1
tp10916
a(S'waterbottle'
p10917
I1
tp10918
a(S'waterdepleting'
p10919
I1
tp10920
a(S'waterflow'
p10921
I1
tp10922
a(S'waters'
p10923
I1
tp10924
a(S'waveng'
p10925
I1
tp10926
a(S'way,which'
p10927
I1
tp10928
a(S'way.due'
p10929
I1
tp10930
a(S'way.it'
p10931
I1
tp10932
a(S'way;'
p10933
I1
tp10934
a(S'wayin'
p10935
I1
tp10936
a(S'ways.for'
p10937
I1
tp10938
a(S'ways.he'
p10939
I1
tp10940
a(S'ways.if'
p10941
I1
tp10942
a(S'ways.in'
p10943
I1
tp10944
a(S'waythere'
p10945
I1
tp10946
a(S'weakened'
p10947
I1
tp10948
a(S'weaker'
p10949
I1
tp10950
a(S'weakness'
p10951
I1
tp10952
a(S'wearing'
p10953
I1
tp10954
a(S'weatheris'
p10955
I1
tp10956
a(S'weeks'
p10957
I1
tp10958
a(S'weigh'
p10959
I1
tp10960
a(S'weird'
p10961
I1
tp10962
a(S'welch'
p10963
I1
tp10964
a(S'welch\x91s'
p10965
I1
tp10966
a(S'welcoming'
p10967
I1
tp10968
a(S'well.knew'
p10969
I1
tp10970
a(S'well.\x94'
p10971
I1
tp10972
a(S'went.in'
p10973
I1
tp10974
a(S'wer'
p10975
I1
tp10976
a(S'were.it'
p10977
I1
tp10978
a(S'were.the'
p10979
I1
tp10980
a(S'werry'
p10981
I1
tp10982
a(S'wesstern'
p10983
I1
tp10984
a(S'west'
p10985
I1
tp10986
a(S'wet'
p10987
I1
tp10988
a(S'wether'
p10989
I1
tp10990
a(S'we\x92ve'
p10991
I1
tp10992
a(S'wheater'
p10993
I1
tp10994
a(S'wheels'
p10995
I1
tp10996
a(S'whelches'
p10997
I1
tp10998
a(S'whenever'
p10999
I1
tp11000
a(S'whetther'
p11001
I1
tp11002
a(S'while.the'
p11003
I1
tp11004
a(S'whinedy'
p11005
I1
tp11006
a(S'whipped'
p11007
I1
tp11008
a(S'white'
p11009
I1
tp11010
a(S'whys'
p11011
I1
tp11012
a(S'wicked'
p11013
I1
tp11014
a(S'wid'
p11015
I1
tp11016
a(S'wilbells'
p11017
I1
tp11018
a(S'will-power'
p11019
I1
tp11020
a(S'will.the'
p11021
I1
tp11022
a(S'willed'
p11023
I1
tp11024
a(S'win.the'
p11025
I1
tp11026
a(S'winday'
p11027
I1
tp11028
a(S'winded'
p11029
I1
tp11030
a(S'winds'
p11031
I1
tp11032
a(S'wind\x92s'
p11033
I1
tp11034
a(S'winston'
p11035
I1
tp11036
a(S'wiping'
p11037
I1
tp11038
a(S'wirte'
p11039
I1
tp11040
a(S'wise.the'
p11041
I1
tp11042
a(S'wised'
p11043
I1
tp11044
a(S'wisely'
p11045
I1
tp11046
a(S'wish'
p11047
I1
tp11048
a(S'wished'
p11049
I1
tp11050
a(S'wishes'
p11051
I1
tp11052
a(S'wishing'
p11053
I1
tp11054
a(S'wisly'
p11055
I1
tp11056
a(S'wit'
p11057
I1
tp11058
a(S'with;'
p11059
I1
tp11060
a(S'wither'
p11061
I1
tp11062
a(S'wn'
p11063
I1
tp11064
a(S'wobbling'
p11065
I1
tp11066
a(S'woke'
p11067
I1
tp11068
a(S'wold'
p11069
I1
tp11070
a(S'woman'
p11071
I1
tp11072
a(S"won't"
p11073
I1
tp11074
a(S'woohoo!'
p11075
I1
tp11076
a(S'words,\x93sometimes'
p11077
I1
tp11078
a(S'words,\x93this'
p11079
I1
tp11080
a(S'work.the'
p11081
I1
tp11082
a(S'working,the'
p11083
I1
tp11084
a(S'worned'
p11085
I1
tp11086
a(S'wornout'
p11087
I1
tp11088
a(S'worried,but'
p11089
I1
tp11090
a(S'worried/'
p11091
I1
tp11092
a(S'worrying'
p11093
I1
tp11094
a(S'worse!the'
p11095
I1
tp11096
a(S'worse-'
p11097
I1
tp11098
a(S'worsed'
p11099
I1
tp11100
a(S'worth'
p11101
I1
tp11102
a(S'wos'
p11103
I1
tp11104
a(S"woudn't"
p11105
I1
tp11106
a(S'woudn\x92t'
p11107
I1
tp11108
a(S'wouldint'
p11109
I1
tp11110
a(S'wrideing'
p11111
I1
tp11112
a(S'writer\x92s'
p11113
I1
tp11114
a(S'wrong.in'
p11115
I1
tp11116
a(S'wt'
p11117
I1
tp11118
a(S'wuold'
p11119
I1
tp11120
a(S'ya'
p11121
I1
tp11122
a(S'years.some'
p11123
I1
tp11124
a(S'years.there'
p11125
I1
tp11126
a(S'years;'
p11127
I1
tp11128
a(S'yo'
p11129
I1
tp11130
a(S'yosemite...\x94'
p11131
I1
tp11132
a(S'yosemite.in'
p11133
I1
tp11134
a(S'yosemite.when'
p11135
I1
tp11136
a(S'yosemite\x94'
p11137
I1
tp11138
a(S'yosomite'
p11139
I1
tp11140
a(S'yoth'
p11141
I1
tp11142
a(S'you.durring'
p11143
I1
tp11144
a(S'you.the'
p11145
I1
tp11146
a(S'youg'
p11147
I1
tp11148
a(S'younger'
p11149
I1
tp11150
a(S'your-self'
p11151
I1
tp11152
a(S'you\x92ll'
p11153
I1
tp11154
a(S'yuuth,\x94'
p11155
I1
tp11156
a(S'zoo'
p11157
I1
tp11158
a(S'\x91'
I1
tp11159
a(S'\x91because'
p11160
I1
tp11161
a(S'\x91heatstroke\x92'
p11162
I1
tp11163
a(S'\x91ramshackle'
p11164
I1
tp11165
a(S'\x91shack'
p11166
I1
tp11167
a(S'\x91summer'
p11168
I1
tp11169
a(S'\x91t'
p11170
I1
tp11171
a(S'\x91town.\x92'
p11172
I1
tp11173
a(S'\x91towns\x92'
p11174
I1
tp11175
a(S'\x93(@num1)'
p11176
I1
tp11177
a(S'\x93(kurmaskie'
p11178
I1
tp11179
a(S'\x93(kurmaskie)'
p11180
I1
tp11181
a(S'\x93...i'
p11182
I1
tp11183
a(S'\x93...it'
p11184
I1
tp11185
a(S'\x93...sight'
p11186
I1
tp11187
a(S'\x93..and'
p11188
I1
tp11189
a(S'\x93@caps1\x92t'
p11190
I1
tp11191
a(S'\x93@caps1\x94'
p11192
I1
tp11193
a(S'\x93@num1'
p11194
I1
tp11195
a(S'\x93[he]'
p11196
I1
tp11197
a(S'\x93affect'
p11198
I1
tp11199
a(S'\x93after'
p11200
I1
tp11201
a(S'\x93an'
p11202
I1
tp11203
a(S'\x93arrived'
p11204
I1
tp11205
a(S'\x93as'
p11206
I1
tp11207
a(S'\x93baren'
p11208
I1
tp11209
a(S'\x93because'
p11210
I1
tp11211
a(S'\x93behind\x94'
p11212
I1
tp11213
a(S'\x93brackish'
p11214
I1
tp11215
a(S'\x93building-abandoned'
p11216
I1
tp11217
a(S'\x93burning'
p11218
I1
tp11219
a(S'\x93but'
p11220
I1
tp11221
a(S'\x93california'
p11222
I1
tp11223
a(S'\x93codgens\x94'
p11224
I1
tp11225
a(S'\x93codgers\x94'
p11226
I1
tp11227
a(S'\x93crippling'
p11228
I1
tp11229
a(S'\x93crippling\x94'
p11230
I1
tp11231
a(S'\x93denyoved'
p11232
I1
tp11233
a(S'\x93denyoyed\x94'
p11234
I1
tp11235
a(S'\x93desert'
p11236
I1
tp11237
a(S'\x93deserts'
p11238
I1
tp11239
a(S'\x93diamond'
p11240
I1
tp11241
a(S'\x93dimond'
p11242
I1
tp11243
a(S'\x93doing'
p11244
I1
tp11245
a(S'\x93don\x92t'
p11246
I1
tp11247
a(S'\x93d\x94'
p11248
I1
tp11249
a(S'\x93easy'
p11250
I1
tp11251
a(S'\x93gentlemen\x94'
p11252
I1
tp11253
a(S'\x93gost'
p11254
I1
tp11255
a(S'\x93got'
p11256
I1
tp11257
a(S'\x93grape'
p11258
I1
tp11259
a(S'\x93have'
p11260
I1
tp11261
a(S'\x93heat'
p11262
I1
tp11263
a(S'\x93helped\x94'
p11264
I1
tp11265
a(S'\x93helping\x94'
p11266
I1
tp11267
a(S'\x93his'
p11268
I1
tp11269
a(S'\x93hitting\x93'
p11270
I1
tp11271
a(S'\x93hope'
p11272
I1
tp11273
a(S'\x93hung'
p11274
I1
tp11275
a(S'\x93inner'
p11276
I1
tp11277
a(S'\x93into'
p11278
I1
tp11279
a(S'\x93ironic'
p11280
I1
tp11281
a(S'\x93is'
p11282
I1
tp11283
a(S'\x93i\x92m'
p11284
I1
tp11285
a(S'\x93i\x94'
p11286
I1
tp11287
a(S'\x93know'
p11288
I1
tp11289
a(S'\x93large'
p11290
I1
tp11291
a(S'\x93life'
p11292
I1
tp11293
a(S'\x93long\x94'
p11294
I1
tp11295
a(S'\x93looked'
p11296
I1
tp11297
a(S'\x93losing'
p11298
I1
tp11299
a(S'\x93manuevered\x94'
p11300
I1
tp11301
a(S'\x93might'
p11302
I1
tp11303
a(S'\x93modern'
p11304
I1
tp11305
a(S'\x93modernized\x94'
p11306
I1
tp11307
a(S'\x93my'
p11308
I1
tp11309
a(S'\x93nothing'
p11310
I1
tp11311
a(S'\x93old-timers.\x94'
p11312
I1
tp11313
a(S'\x93only'
p11314
I1
tp11315
a(S'\x93rattled'
p11316
I1
tp11317
a(S'\x93rediculously'
p11318
I1
tp11319
a(S'\x93roughin'
p11320
I1
tp11321
a(S'\x93run-down\x94'
p11322
I1
tp11323
a(S'\x93rusted'
p11324
I1
tp11325
a(S'\x93sandblasted'
p11326
I1
tp11327
a(S'\x93saved\x94'
p11328
I1
tp11329
a(S'\x93set'
p11330
I1
tp11331
a(S'\x93she'
p11332
I1
tp11333
a(S'\x93short-cut.\x94'
p11334
I1
tp11335
a(S'\x93slice'
p11336
I1
tp11337
a(S'\x93slowly'
p11338
I1
tp11339
a(S'\x93somehow'
p11340
I1
tp11341
a(S'\x93substance\x94'
p11342
I1
tp11343
a(S'\x93summer'
p11344
I1
tp11345
a(S'\x93sun'
p11346
I1
tp11347
a(S'\x93tarlike\x94'
p11348
I1
tp11349
a(S'\x93these'
p11350
I1
tp11351
a(S'\x93to'
p11352
I1
tp11353
a(S'\x93toiled\x94'
p11354
I1
tp11355
a(S'\x93toun\x94'
p11356
I1
tp11357
a(S'\x93town,\x94'
p11358
I1
tp11359
a(S'\x93troubling'
p11360
I1
tp11361
a(S'\x93tumble'
p11362
I1
tp11363
a(S'\x93tumbleweeds\x94'
p11364
I1
tp11365
a(S'\x93twenty'
p11366
I1
tp11367
a(S'\x93water-depleting'
p11368
I1
tp11369
a(S'\x93what'
p11370
I1
tp11371
a(S'\x93who'
p11372
I1
tp11373
a(S'\x93wiped'
p11374
I1
tp11375
a(S'\x93yosemite.\x94the'
p11376
I1
tp11377
a(S'\x93yosemite\x94'
p11378
I1
tp11379
a(S'\x93young'
p11380
I1
tp11381
a(S'\x94at'
p11382
I1
tp11383
a(S'\x94by'
p11384
I1
tp11385
a(S'\x94flat'
p11386
I1
tp11387
a(S'\x94in'
p11388
I1
tp11389
a(S'\x94rough'
p11390
I1
tp11391
a(S'\x94tumbleweeds'
p11392
I1
tp11393
a(S'\x94water-deplating\x94'
p11394
I1
tp11395
a(S'\x94wide'
p11396
I1
tp11397
a(S'\x96all'
p11398
I1
tp11399
a(S'\x96ans'
p11400
I1
tp11401
a(S'\x96\x93tumble'
p11402
I1
tp11403
a(S'\xe2\x80\x9d'
p11404
I1
tp11405
a.