(lp1
(S'mood'
p2
I1820
tp3
a(S'parents'
p4
I1578
tp5
a(S'family'
p6
I1342
tp7
a(S'author'
p8
I1123
tp9
a(S'memoir'
p10
I1117
tp11
a(S'narciso'
p12
I878
tp13
a(S'home'
p14
I774
tp15
a(S'love'
p16
I773
tp17
a(S'happy'
p18
I637
tp19
a(S'caps1'
p20
I631
tp21
a(S'created'
p22
I617
tp23
a(S'grateful'
p24
I588
tp25
a(S'life'
p26
I563
tp27
a(S'rodriguez'
p28
I536
tp29
a(S'also'
p30
I495
tp31
a(S'house'
p32
I494
tp33
a(S'always'
p34
I452
tp35
a(S'paragraph'
p36
I393
tp37
a(S'says'
p38
I390
tp39
a(S'people'
p40
I382
tp41
a(S'cuban'
p42
I348
tp43
a(S'friends'
p44
I335
tp45
a(S'many'
p46
I317
tp47
a(S'shows'
p48
I308
tp49
a(S'better'
p50
I273
tp51
a(S'story'
p52
I268
tp53
a(S'came'
p54
I253
tp55
a(S'loving'
p56
I235
tp57
a(S'one'
p58
I234
tp59
a(S'great'
p60
I230
tp61
a(S'num1'
p62
I225
tp63
a(S'would'
p64
I224
tp65
a(S'sacrifice'
p66
I220
tp67
a(S'talks'
p68
I216
tp69
a(S'like'
p70
I215
tp71
a(S'never'
p72
I215
tp73
a(S'lives'
p74
I198
tp75
a(S'think'
p76
I197
tp77
a(S'neighborhood'
p78
I195
tp79
a(S'way'
p80
I193
tp81
a(S'much'
p82
I192
tp83
a(S'example'
p84
I191
tp85
a(S'music'
p86
I190
tp87
a(S'happiness'
p88
I186
tp89
a(S'simple'
p90
I186
tp91
a(S'even'
p92
I185
tp93
a(S'creates'
p94
I184
tp95
a(S'cuba'
p96
I182
tp97
a(S'warm'
p98
I180
tp99
a(S'cooking'
p100
I179
tp101
a(S'caps2'
p102
I178
tp103
a(S'location1'
p104
I177
tp105
a(S'give'
p106
I175
tp107
a(S'good'
p108
I175
tp109
a(S'states'
p110
I174
tp111
a(S'could'
p112
I172
tp113
a(S'forget'
p114
I172
tp115
a(S'thankful'
p116
I164
tp117
a(S'together'
p118
I163
tp119
a(S'loved'
p120
I162
tp121
a(S'country'
p122
I161
tp123
a(S'children'
p124
I159
tp125
a(S'made'
p126
I153
tp127
a(S'culture'
p128
I151
tp129
a(S'things'
p130
I149
tp131
a(S'learned'
p132
I145
tp133
a(S'blood'
p134
I142
tp135
a(S'turned'
p136
I137
tp137
a(S'childhood'
p138
I135
tp139
a(S'greatful'
p140
I135
tp141
a(S'kitchen'
p142
I132
tp143
a(S'first'
p144
I131
tp145
a(S'person1'
p146
I130
tp147
a(S'feel'
p148
I129
tp149
a(S'though'
p150
I128
tp151
a(S'immigrants'
p152
I125
tp153
a(S'describes'
p154
I123
tp155
a(S'everything'
p156
I123
tp157
a(S'another'
p158
I122
tp159
a(S'us'
p160
I122
tp161
a(S'open'
p162
I121
tp163
a(S'still'
p164
I120
tp165
a(S'come'
p166
I117
tp167
a(S'num2'
p168
I117
tp169
a(S'caring'
p170
I113
tp171
a(S'community'
p172
I112
tp173
a(S'gratitude'
p174
I112
tp175
a(S'feeling'
p176
I109
tp177
a(S'sense'
p178
I107
tp179
a(S'explains'
p180
I106
tp181
a(S'said'
p182
I106
tp183
a(S'done'
p184
I105
tp185
a(S'filled'
p186
I104
tp187
a(S'get'
p188
I103
tp189
a(S'moods'
p190
I103
tp191
a(S'often'
p192
I102
tp193
a(S'blueprints'
p194
I101
tp195
a(S'nothing'
p196
I101
tp197
a(S'thing'
p198
I100
tp199
a(S'friendship'
p200
I99
tp201
a(S'growing'
p202
I99
tp203
a(S'make'
p204
I98
tp205
a(S'really'
p206
I98
tp207
a(S'time'
p208
I96
tp209
a(S'arms'
p210
I95
tp211
a(S'kept'
p212
I95
tp213
a(S"narciso's"
p214
I93
tp215
a(S'live'
p216
I92
tp217
a(S'quote'
p218
I91
tp219
a(S'throughout'
p220
I91
tp221
a(S'behind'
p222
I90
tp223
a(S'hard'
p224
I88
tp225
a(S'proud'
p226
I88
tp227
a(S'kind'
p228
I87
tp229
a(S'makes'
p230
I87
tp231
a(S'new'
p232
I87
tp233
a(S'courage'
p234
I86
tp235
a(S'leaving'
p236
I86
tp237
a(S'families'
p238
I85
tp239
a(S'reason'
p240
I85
tp241
a(S'times'
p242
I85
tp243
a(S'told'
p244
I85
tp245
a(S'different'
p246
I84
tp247
a(S'door'
p248
I84
tp249
a(S'air'
p250
I83
tp251
a(S'caps3'
p252
I83
tp253
a(S'reader'
p254
I83
tp255
a(S'united'
p256
I83
tp257
a(S'everyone'
p258
I82
tp259
a(S'know'
p260
I82
tp261
a(S'sad'
p262
I81
tp263
a(S'lived'
p264
I79
tp265
a(S'considered'
p266
I78
tp267
a(S'selflessly'
p268
I78
tp269
a(S'back'
p270
I77
tp271
a(S'help'
p272
I77
tp273
a(S'important'
p274
I77
tp275
a(S'loves'
p276
I77
tp277
a(S'real'
p278
I77
tp279
a(S'cultures'
p280
I76
tp281
a(S'gave'
p282
I76
tp283
a(S'passionate'
p284
I76
tp285
a(S'apartment'
p286
I75
tp287
a(S'definition'
p288
I75
tp289
a(S'relative'
p290
I74
tp291
a(S'saying'
p292
I74
tp293
a(S"author's"
p294
I73
tp295
a(S'memories'
p296
I73
tp297
a(S'talking'
p298
I73
tp299
a(S'gives'
p300
I72
tp301
a(S'lot'
p302
I72
tp303
a(S'place'
p304
I72
tp305
a(S"i've"
p306
I71
tp307
a(S'showed'
p308
I71
tp309
a(S'skills'
p310
I71
tp311
a(S'tells'
p312
I71
tp313
a(S'celebrations'
p314
I70
tp315
a(S'last'
p316
I69
tp317
a(S'whole'
p318
I69
tp319
a(S'knowing'
p320
I67
tp321
a(S'need'
p322
I67
tp323
a(S'today'
p324
I67
tp325
a(S'moved'
p326
I66
tp327
a(S'nice'
p328
I66
tp329
a(S'warmth'
p330
I66
tp331
a(S'meant'
p332
I65
tp333
a(S'mother'
p334
I65
tp335
a(S'set'
p336
I65
tp337
a(S'got'
p338
I64
tp339
a(S'careers'
p340
I63
tp341
a(S'father'
p342
I63
tp343
a(S'jobs'
p344
I63
tp345
a(S'rich'
p346
I63
tp347
a(S'sets'
p348
I63
tp349
a(S'solidarity'
p350
I63
tp351
a(S'culinary'
p352
I61
tp353
a(S'excerpt'
p354
I61
tp355
a(S'passed'
p356
I61
tp357
a(S'admiration'
p358
I60
tp359
a(S'endless'
p360
I59
tp361
a(S'generosity'
p362
I59
tp363
a(S'able'
p364
I58
tp365
a(S'congregation'
p366
I58
tp367
a(S'traditional'
p368
I58
tp369
a(S'backdrop'
p370
I57
tp371
a(S'close'
p372
I57
tp373
a(S'formed'
p374
I57
tp375
a(S'gracious'
p376
I56
tp377
a(S'innocence'
p378
I56
tp379
a(S'language'
p380
I56
tp381
a(S'num3'
p382
I55
tp383
a(S'writes'
p384
I55
tp385
a(S'calm'
p386
I54
tp387
a(S'express'
p388
I54
tp389
a(S'around'
p390
I53
tp391
a(S'ever'
p392
I53
tp393
a(S'gratefulness'
p394
I53
tp395
a(S'towards'
p396
I53
tp397
a(S'two'
p398
I52
tp399
a(S'eternally'
p400
I51
tp401
a(S'left'
p402
I51
tp403
a(S'care'
p404
I50
tp405
a(S'courageous'
p406
I50
tp407
a(S'environment'
p408
I50
tp409
a(S'instilled'
p410
I50
tp411
a(S"it's"
p412
I50
tp413
a(S'means'
p414
I50
tp415
a(S'well'
p416
I50
tp417
a(S'without'
p418
I50
tp419
a(S'article'
p420
I49
tp421
a(S'overall'
p422
I49
tp423
a(S'thanks'
p424
I49
tp425
a(S''
I48
tp426
a(S'living'
p427
I48
tp428
a(S'positive'
p429
I48
tp430
a(S'aromas'
p431
I47
tp432
a(S'encompassed'
p433
I47
tp434
a(S'food'
p435
I47
tp436
a(S'grew'
p437
I47
tp438
a(S'tone'
p439
I47
tp440
a(S'&'
I46
tp441
a(S'memoir.the'
p442
I46
tp443
a(S'perseverance'
p444
I46
tp445
a(S'sentence'
p446
I46
tp447
a(S'taught'
p448
I46
tp449
a(S'extended'
p450
I45
tp451
a(S'feet'
p452
I45
tp453
a(S'num1)'
p454
I45
tp455
a(S'start'
p456
I45
tp457
a(S'unity'
p458
I45
tp459
a(S'words'
p460
I45
tp461
a(S'work'
p462
I45
tp463
a(S'end'
p464
I44
tp465
a(S'move'
p466
I44
tp467
a(S'parent'
p468
I44
tp469
a(S'shared'
p470
I44
tp471
a(S'three'
p472
I44
tp473
a(S'feels'
p474
I43
tp475
a(S'leave'
p476
I43
tp477
a(S'say'
p478
I43
tp479
a(S'stay'
p480
I43
tp481
a(S'heart'
p482
I42
tp483
a(S'racism'
p484
I42
tp485
a(S"rodriguez's"
p486
I42
tp487
a(S'show'
p488
I42
tp489
a(S'showing'
p490
I42
tp491
a(S'strength'
p492
I42
tp493
a(S'born'
p494
I41
tp495
a(S'child'
p496
I41
tp497
a(S'conclusion'
p498
I41
tp499
a(S'see'
p500
I41
tp501
a(S'appreciation'
p502
I40
tp503
a(S'knowledge'
p504
I40
tp505
a(S'lastly'
p506
I40
tp507
a(S'let'
p508
I40
tp509
a(S'neighbors'
p510
I40
tp511
a(S'spirit'
p512
I40
tp513
a(S'felt'
p514
I39
tp515
a(S'heritage'
p516
I39
tp517
a(S'ways'
p518
I39
tp519
a(S'(and'
p520
I38
tp521
a(S'authors'
p522
I38
tp523
a(S'clearly'
p524
I38
tp525
a(S'coming'
p526
I38
tp527
a(S'described'
p528
I38
tp529
a(S'room'
p530
I38
tp531
a(S'table'
p532
I38
tp533
a(S'thank'
p534
I38
tp535
a(S'thanked'
p536
I38
tp537
a(S'caps4'
p538
I37
tp539
a(S'despite'
p540
I37
tp541
a(S'duties'
p542
I37
tp543
a(S'helped'
p544
I37
tp545
a(S'mixing'
p546
I37
tp547
a(S'others'
p548
I37
tp549
a(S'related'
p550
I37
tp551
a(S'young'
p552
I37
tp553
a(S'(which'
p554
I36
tp555
a(S'full'
p556
I36
tp557
a(S'going'
p558
I36
tp559
a(S'hand'
p560
I36
tp561
a(S'honest'
p562
I36
tp563
a(S'cared'
p564
I35
tp565
a(S'find'
p566
I35
tp567
a(S'friend'
p568
I35
tp569
a(S'person2'
p570
I35
tp571
a(S'someone'
p572
I35
tp573
a(S'(@caps1'
p574
I34
tp575
a(S'adore'
p576
I34
tp577
a(S'anyone'
p578
I34
tp579
a(S'members'
p580
I34
tp581
a(S'needed'
p582
I34
tp583
a(S'passage'
p584
I34
tp585
a(S'sacrificed'
p586
I34
tp587
a(S'second'
p588
I34
tp589
a(S'tell'
p590
I34
tp591
a(S'thier'
p592
I34
tp593
a(S'trying'
p594
I34
tp595
a(S'unwittingly'
p596
I34
tp597
a(S'went'
p598
I34
tp599
a(S'age'
p600
I33
tp601
a(S'alot'
p602
I33
tp603
a(S'big'
p604
I33
tp605
a(S'comforting'
p606
I33
tp607
a(S"didn't"
p608
I33
tp609
a(S'dinner'
p610
I33
tp611
a(S'grandparents'
p612
I33
tp613
a(S'matter'
p614
I33
tp615
a(S'mostly'
p616
I33
tp617
a(S'part'
p618
I33
tp619
a(S'wanted'
p620
I33
tp621
a(S'auther'
p622
I32
tp623
a(S'day)'
p624
I32
tp625
a(S'early'
p626
I32
tp627
a(S'relatives'
p628
I32
tp629
a(S'selflessness'
p630
I32
tp631
a(S'strong'
p632
I32
tp633
a(S'impressed'
p634
I31
tp635
a(S'jersey'
p636
I31
tp637
a(S'little'
p638
I31
tp639
a(S'appreciative'
p640
I30
tp641
a(S'create'
p642
I30
tp643
a(S'every'
p644
I30
tp645
a(S'finally'
p646
I30
tp647
a(S'hardworking'
p648
I30
tp649
a(S'num2)'
p650
I30
tp651
a(S'repeatedly'
p652
I30
tp653
a(S'shown'
p654
I30
tp655
a(S'talked'
p656
I30
tp657
a(S'upon'
p658
I30
tp659
a(S'welcomed'
p660
I30
tp661
a(S'welcoming'
p662
I30
tp663
a(S'best'
p664
I29
tp665
a(S'close-knit'
p666
I29
tp667
a(S'cook'
p668
I29
tp669
a(S'customs'
p670
I29
tp671
a(S'giving'
p672
I29
tp673
a(S"he's"
p674
I29
tp675
a(S'peaceful'
p676
I29
tp677
a(S'reading'
p678
I29
tp679
a(S'reality'
p680
I29
tp681
a(S'struggled'
p682
I29
tp683
a(S'thats'
p684
I29
tp685
a(S'took'
p686
I29
tp687
a(S'true'
p688
I29
tp689
a(S'describing'
p690
I28
tp691
a(S'spanish'
p692
I28
tp693
a(S'describe'
p694
I27
tp695
a(S'fact'
p696
I27
tp697
a(S'family.the'
p698
I27
tp699
a(S'given'
p700
I27
tp701
a(S'moving'
p702
I27
tp703
a(S'organization1'
p704
I27
tp705
a(S'personally'
p706
I27
tp707
a(S'refugees'
p708
I27
tp709
a(S'sacrifices'
p710
I27
tp711
a(S'something'
p712
I27
tp713
a(S'elsewhere'
p714
I26
tp715
a(S'expresses'
p716
I26
tp717
a(S'grow'
p718
I26
tp719
a(S'knew'
p720
I26
tp721
a(S'meaning'
p722
I26
tp723
a(S'segregation'
p724
I26
tp725
a(S'demonstration'
p726
I25
tp727
a(S"doesn't"
p728
I25
tp729
a(S'expressed'
p730
I25
tp731
a(S'financially'
p732
I25
tp733
a(S'italian'
p734
I25
tp735
a(S'main'
p736
I25
tp737
a(S'person'
p738
I25
tp739
a(S'selfless'
p740
I25
tp741
a(S'within'
p742
I25
tp743
a(S'celebrate'
p744
I24
tp745
a(S'cultural'
p746
I24
tp747
a(S'hardships'
p748
I24
tp749
a(S'knows'
p750
I24
tp751
a(S'line'
p752
I24
tp753
a(S'mentions'
p754
I24
tp755
a(S'(paragraph'
p756
I23
tp757
a(S'necessarily'
p758
I23
tp759
a(S"parent's"
p760
I23
tp761
a(S'past'
p762
I23
tp763
a(S'take'
p764
I23
tp765
a(S"that's"
p766
I23
tp767
a(S'wonderful'
p768
I23
tp769
a(S'wrote'
p770
I23
tp771
a(S'comfortable'
p772
I22
tp773
a(S'enough'
p774
I22
tp775
a(S'grateful)'
p776
I22
tp777
a(S'immigrated'
p778
I22
tp779
a(S'making'
p780
I22
tp781
a(S'mom'
p782
I22
tp783
a(S'thankfulness'
p784
I22
tp785
a(S'toward'
p786
I22
tp787
a(S'want'
p788
I22
tp789
a(S'writing'
p790
I22
tp791
a(S'along'
p792
I21
tp793
a(S'changed'
p794
I21
tp795
a(S'daughter'
p796
I21
tp797
a(S'doors'
p798
I21
tp799
a(S'kids'
p800
I21
tp801
a(S'mood.the'
p802
I21
tp803
a(S'piece'
p804
I21
tp805
a(S'pride'
p806
I21
tp807
a(S'read'
p808
I21
tp809
a(S'sacrafice'
p810
I21
tp811
a(S'alegria'
p812
I20
tp813
a(S'anything'
p814
I20
tp815
a(S'appreciates'
p816
I20
tp817
a(S'arrival'
p818
I20
tp819
a(S'eachother'
p820
I20
tp821
a(S'examples'
p822
I20
tp823
a(S'feast'
p824
I20
tp825
a(S'friendly'
p826
I20
tp827
a(S'home.the'
p828
I20
tp829
a(S'job'
p830
I20
tp831
a(S'memoir.in'
p832
I20
tp833
a(S'money'
p834
I20
tp835
a(S'newark'
p836
I20
tp837
a(S'put'
p838
I20
tp839
a(S'scent'
p840
I20
tp841
a(S'son'
p842
I20
tp843
a(S'struggle'
p844
I20
tp845
a(S'consider'
p846
I19
tp847
a(S'explaining'
p848
I19
tp849
a(S'helping'
p850
I19
tp851
a(S'humble'
p852
I19
tp853
a(S'meals'
p854
I19
tp855
a(S'mean'
p856
I19
tp857
a(S'memior'
p858
I19
tp859
a(S'old'
p860
I19
tp861
a(S'ones'
p862
I19
tp863
a(S'parts'
p864
I19
tp865
a(S'seems'
p866
I19
tp867
a(S'small'
p868
I19
tp869
a(S'talk'
p870
I19
tp871
a(S'uplifting'
p872
I19
tp873
a(S'used'
p874
I19
tp875
a(S'away'
p876
I18
tp877
a(S'brought'
p878
I18
tp879
a(S'call'
p880
I18
tp881
a(S'comfort'
p882
I18
tp883
a(S'day'
p884
I18
tp885
a(S'explained'
p886
I18
tp887
a(S'final'
p888
I18
tp889
a(S'hood'
p890
I18
tp891
a(S'paragraphs'
p892
I18
tp893
a(S'thanking'
p894
I18
tp895
a(S'uses'
p896
I18
tp897
a(S'welcome'
p898
I18
tp899
a(S'brave'
p900
I17
tp901
a(S'certain'
p902
I17
tp903
a(S'extremely'
p904
I17
tp905
a(S'feelings'
p906
I17
tp907
a(S'fun'
p908
I17
tp909
a(S'future'
p910
I17
tp911
a(S'go'
p912
I17
tp913
a(S'happyness'
p914
I17
tp915
a(S'location2'
p916
I17
tp917
a(S'next'
p918
I17
tp919
a(S'num4'
p920
I17
tp921
a(S'respect'
p922
I17
tp923
a(S'third'
p924
I17
tp925
a(S'traditions'
p926
I17
tp927
a(S'turn'
p928
I17
tp929
a(S'worked'
p930
I17
tp931
a(S'became'
p932
I16
tp933
a(S'boy'
p934
I16
tp935
a(S'building'
p936
I16
tp937
a(S'caps5'
p938
I16
tp939
a(S'change'
p940
I16
tp941
a(S'forever'
p942
I16
tp943
a(S'greatfulness'
p944
I16
tp945
a(S'lessons'
p946
I16
tp947
a(S'num3)'
p948
I16
tp949
a(S'safe'
p950
I16
tp951
a(S'started'
p952
I16
tp953
a(S'telling'
p954
I16
tp955
a(S'walls'
p956
I16
tp957
a(S"'family'"
p958
I15
tp959
a(S'almost'
p960
I15
tp961
a(S'basis'
p962
I15
tp963
a(S'birthdays'
p964
I15
tp965
a(S"don't"
p966
I15
tp967
a(S'form'
p968
I15
tp969
a(S'found'
p970
I15
tp971
a(S'generous'
p972
I15
tp973
a(S'happened'
p974
I15
tp975
a(S'happy.the'
p976
I15
tp977
a(S'knit'
p978
I15
tp979
a(S'neighbor'
p980
I15
tp981
a(S'readers'
p982
I15
tp983
a(S'right'
p984
I15
tp985
a(S'seem'
p986
I15
tp987
a(S'six'
p988
I15
tp989
a(S'thankfull'
p990
I15
tp991
a(S"weren't"
p992
I15
tp993
a(S'admires'
p994
I14
tp995
a(S'america'
p996
I14
tp997
a(S'believe'
p998
I14
tp999
a(S'called'
p1000
I14
tp1001
a(S'cheerful'
p1002
I14
tp1003
a(S'comes'
p1004
I14
tp1005
a(S'creating'
p1006
I14
tp1007
a(S'enviroment'
p1008
I14
tp1009
a(S'especially'
p1010
I14
tp1011
a(S'harsh'
p1012
I14
tp1013
a(S'inviting'
p1014
I14
tp1015
a(S'kid'
p1016
I14
tp1017
a(S'overt'
p1018
I14
tp1019
a(S'relaxed'
p1020
I14
tp1021
a(S'sweet'
p1022
I14
tp1023
a(S'takes'
p1024
I14
tp1025
a(S'teaching'
p1026
I14
tp1027
a(S'teachings'
p1028
I14
tp1029
a(S'thought'
p1030
I14
tp1031
a(S'whatever'
p1032
I14
tp1033
a(S'1961'
p1034
I13
tp1035
a(S'although'
p1036
I13
tp1037
a(S'amazing'
p1038
I13
tp1039
a(S'babysitter'
p1040
I13
tp1041
a(S'based'
p1042
I13
tp1043
a(S'basically'
p1044
I13
tp1045
a(S'bedroom'
p1046
I13
tp1047
a(S'braving'
p1048
I13
tp1049
a(S'cares'
p1050
I13
tp1051
a(S'constantly'
p1052
I13
tp1053
a(S'dad'
p1054
I13
tp1055
a(S'designer'
p1056
I13
tp1057
a(S'eat'
p1058
I13
tp1059
a(S'goes'
p1060
I13
tp1061
a(S'grateful.the'
p1062
I13
tp1063
a(S'joy'
p1064
I13
tp1065
a(S'lucky'
p1066
I13
tp1067
a(S'maria'
p1068
I13
tp1069
a(S'might'
p1070
I13
tp1071
a(S'month1'
p1072
I13
tp1073
a(S'norm'
p1074
I13
tp1075
a(S"person1's"
p1076
I13
tp1077
a(S'poor'
p1078
I13
tp1079
a(S'prevailed'
p1080
I13
tp1081
a(S'raised'
p1082
I13
tp1083
a(S'remember'
p1084
I13
tp1085
a(S'sounds'
p1086
I13
tp1087
a(S'starts'
p1088
I13
tp1089
a(S'stated'
p1090
I13
tp1091
a(S'taking'
p1092
I13
tp1093
a(S"they're"
p1094
I13
tp1095
a(S'winters'
p1096
I13
tp1097
a(S'working'
p1098
I13
tp1099
a(S'(@num1)'
p1100
I12
tp1101
a(S'1956'
p1102
I12
tp1103
a(S'beginning'
p1104
I12
tp1105
a(S"can't"
p1106
I12
tp1107
a(S'celebrated'
p1108
I12
tp1109
a(S'countless'
p1110
I12
tp1111
a(S'endure'
p1112
I12
tp1113
a(S'facing'
p1114
I12
tp1115
a(S'gets'
p1116
I12
tp1117
a(S'graced'
p1118
I12
tp1119
a(S'gratefull'
p1120
I12
tp1121
a(S'gratefullness'
p1122
I12
tp1123
a(S'greatfull'
p1124
I12
tp1125
a(S'keeps'
p1126
I12
tp1127
a(S'kindness'
p1128
I12
tp1129
a(S'life.the'
p1130
I12
tp1131
a(S'liked'
p1132
I12
tp1133
a(S'northern'
p1134
I12
tp1135
a(S'passion'
p1136
I12
tp1137
a(S'picture'
p1138
I12
tp1139
a(S'portrayed'
p1140
I12
tp1141
a(S'sadness'
p1142
I12
tp1143
a(S'short'
p1144
I12
tp1145
a(S'smell'
p1146
I12
tp1147
a(S'sometimes'
p1148
I12
tp1149
a(S'stating'
p1150
I12
tp1151
a(S'staying'
p1152
I12
tp1153
a(S'support'
p1154
I12
tp1155
a(S'touching'
p1156
I12
tp1157
a(S"wasn't"
p1158
I12
tp1159
a(S'world'
p1160
I12
tp1161
a(S'\x96'
I12
tp1162
a(S'adored'
p1163
I11
tp1164
a(S'afford'
p1165
I11
tp1166
a(S'constant'
p1167
I11
tp1168
a(S'creats'
p1169
I11
tp1170
a(S'description'
p1171
I11
tp1172
a(S'entire'
p1173
I11
tp1174
a(S'entirely'
p1175
I11
tp1176
a(S'everybody'
p1177
I11
tp1178
a(S'faith'
p1179
I11
tp1180
a(S'ful'
p1181
I11
tp1182
a(S'immagrants'
p1183
I11
tp1184
a(S'joyful'
p1185
I11
tp1186
a(S'large'
p1187
I11
tp1188
a(S'long'
p1189
I11
tp1190
a(S'look'
p1191
I11
tp1192
a(S'native'
p1193
I11
tp1194
a(S'num5'
p1195
I11
tp1196
a(S'order'
p1197
I11
tp1198
a(S'proves'
p1199
I11
tp1200
a(S'reasons'
p1201
I11
tp1202
a(S'special'
p1203
I11
tp1204
a(S'specific'
p1205
I11
tp1206
a(S'stayed'
p1207
I11
tp1208
a(S'wants'
p1209
I11
tp1210
a(S'actually'
p1211
I10
tp1212
a(S'adores'
p1213
I10
tp1214
a(S'allowed'
p1215
I10
tp1216
a(S'arrived'
p1217
I10
tp1218
a(S'background'
p1219
I10
tp1220
a(S'bad'
p1221
I10
tp1222
a(S'become'
p1223
I10
tp1224
a(S'cousins'
p1225
I10
tp1226
a(S'emotional'
p1227
I10
tp1228
a(S'explain'
p1229
I10
tp1230
a(S'family.in'
p1231
I10
tp1232
a(S'familys'
p1233
I10
tp1234
a(S'getting'
p1235
I10
tp1236
a(S'helps'
p1237
I10
tp1238
a(S'him.the'
p1239
I10
tp1240
a(S'his/her'
p1241
I10
tp1242
a(S'ment'
p1243
I10
tp1244
a(S'mentioned'
p1245
I10
tp1246
a(S'narrator'
p1247
I10
tp1248
a(S'places'
p1249
I10
tp1250
a(S'quotes'
p1251
I10
tp1252
a(S'races'
p1253
I10
tp1254
a(S'seemed'
p1255
I10
tp1256
a(S'setting'
p1257
I10
tp1258
a(S'seven'
p1259
I10
tp1260
a(S'struggles'
p1261
I10
tp1262
a(S'temporarily'
p1263
I10
tp1264
a(S'them.the'
p1265
I10
tp1266
a(S'theme'
p1267
I10
tp1268
a(S'tough'
p1269
I10
tp1270
a(S'truly'
p1271
I10
tp1272
a(S'word'
p1273
I10
tp1274
a(S"wouldn't"
p1275
I10
tp1276
a(S'(rodriguez'
p1277
I9
tp1278
a(S'(\xb6'
p1279
I9
tp1280
a(S'1970'
p1281
I9
tp1282
a(S'admired'
p1283
I9
tp1284
a(S'appreciate'
p1285
I9
tp1286
a(S'author.the'
p1287
I9
tp1288
a(S'beautiful'
p1289
I9
tp1290
a(S'brings'
p1291
I9
tp1292
a(S'chemical'
p1293
I9
tp1294
a(S'contributes'
p1295
I9
tp1296
a(S'cozy'
p1297
I9
tp1298
a(S'enjoyable'
p1299
I9
tp1300
a(S'experience'
p1301
I9
tp1302
a(S'four'
p1303
I9
tp1304
a(S'grate'
p1305
I9
tp1306
a(S'home.in'
p1307
I9
tp1308
a(S'homes'
p1309
I9
tp1310
a(S'however'
p1311
I9
tp1312
a(S'idea'
p1313
I9
tp1314
a(S'importance'
p1315
I9
tp1316
a(S'it.the'
p1317
I9
tp1318
a(S'keep'
p1319
I9
tp1320
a(S'learns'
p1321
I9
tp1322
a(S'memoirs'
p1323
I9
tp1324
a(S'modest'
p1325
I9
tp1326
a(S'narcisco'
p1327
I9
tp1328
a(S'near'
p1329
I9
tp1330
a(S'opened'
p1331
I9
tp1332
a(S"parents'"
p1333
I9
tp1334
a(S'playing'
p1335
I9
tp1336
a(S'pleasant'
p1337
I9
tp1338
a(S'point'
p1339
I9
tp1340
a(S'provided'
p1341
I9
tp1342
a(S'realizes'
p1343
I9
tp1344
a(S'respectful'
p1345
I9
tp1346
a(S"say's"
p1347
I9
tp1348
a(S'situated'
p1349
I9
tp1350
a(S'speaks'
p1351
I9
tp1352
a(S'text'
p1353
I9
tp1354
a(S'therefore'
p1355
I9
tp1356
a(S'thinks'
p1357
I9
tp1358
a(S'tropics'
p1359
I9
tp1360
a(S'two-family'
p1361
I9
tp1362
a(S'using'
p1363
I9
tp1364
a(S'warming'
p1365
I9
tp1366
a(S'written'
p1367
I9
tp1368
a(S'yearning'
p1369
I9
tp1370
a(S'yet'
p1371
I9
tp1372
a(S"aren't"
p1373
I8
tp1374
a(S'atmosphere'
p1375
I8
tp1376
a(S'bit'
p1377
I8
tp1378
a(S'calls'
p1379
I8
tp1380
a(S'caps6'
p1381
I8
tp1382
a(S'celebrating'
p1383
I8
tp1384
a(S'chance'
p1385
I8
tp1386
a(S'changes'
p1387
I8
tp1388
a(S'compassionate'
p1389
I8
tp1390
a(S'conveys'
p1391
I8
tp1392
a(S'cooks'
p1393
I8
tp1394
a(S'date1'
p1395
I8
tp1396
a(S'depressing'
p1397
I8
tp1398
a(S'deserved'
p1399
I8
tp1400
a(S'detail'
p1401
I8
tp1402
a(S'due'
p1403
I8
tp1404
a(S'education'
p1405
I8
tp1406
a(S'else'
p1407
I8
tp1408
a(S'excited'
p1409
I8
tp1410
a(S'grown'
p1411
I8
tp1412
a(S'happieness'
p1413
I8
tp1414
a(S'hes'
p1415
I8
tp1416
a(S'hope'
p1417
I8
tp1418
a(S'huge'
p1419
I8
tp1420
a(S'imigrants'
p1421
I8
tp1422
a(S'including'
p1423
I8
tp1424
a(S"isn't"
p1425
I8
tp1426
a(S'landlord'
p1427
I8
tp1428
a(S'learn'
p1429
I8
tp1430
a(S'learning'
p1431
I8
tp1432
a(S'lines'
p1433
I8
tp1434
a(S'looks'
p1435
I8
tp1436
a(S'lots'
p1437
I8
tp1438
a(S'mood.in'
p1439
I8
tp1440
a(S'opinion'
p1441
I8
tp1442
a(S'originally'
p1443
I8
tp1444
a(S'puts'
p1445
I8
tp1446
a(S'quite'
p1447
I8
tp1448
a(S'race'
p1449
I8
tp1450
a(S'relationships'
p1451
I8
tp1452
a(S'remembers'
p1453
I8
tp1454
a(S'represents'
p1455
I8
tp1456
a(S'section'
p1457
I8
tp1458
a(S"she's"
p1459
I8
tp1460
a(S'since'
p1461
I8
tp1462
a(S'soft'
p1463
I8
tp1464
a(S'surrogate'
p1465
I8
tp1466
a(S'surrounded'
p1467
I8
tp1468
a(S'ther'
p1469
I8
tp1470
a(S'thoughts'
p1471
I8
tp1472
a(S'tradition'
p1473
I8
tp1474
a(S'understand'
p1475
I8
tp1476
a(S'upbeat'
p1477
I8
tp1478
a(S'wich'
p1479
I8
tp1480
a(S'(@num3)'
p1481
I7
tp1482
a(S'(in'
p1483
I7
tp1484
a(S'accept'
p1485
I7
tp1486
a(S'accepting'
p1487
I7
tp1488
a(S'across'
p1489
I7
tp1490
a(S'adds'
p1491
I7
tp1492
a(S'aunts'
p1493
I7
tp1494
a(S'blue'
p1495
I7
tp1496
a(S'bravery'
p1497
I7
tp1498
a(S'bringing'
p1499
I7
tp1500
a(S"caps1's"
p1501
I7
tp1502
a(S'choice'
p1503
I7
tp1504
a(S'closeness'
p1505
I7
tp1506
a(S'clothing'
p1507
I7
tp1508
a(S'compassion'
p1509
I7
tp1510
a(S"couldn't"
p1511
I7
tp1512
a(S'displayed'
p1513
I7
tp1514
a(S'doesnt'
p1515
I7
tp1516
a(S'dont'
p1517
I7
tp1518
a(S'engineering'
p1519
I7
tp1520
a(S'enjoyed'
p1521
I7
tp1522
a(S'exciting'
p1523
I7
tp1524
a(S'expressing'
p1525
I7
tp1526
a(S'faced'
p1527
I7
tp1528
a(S'financial'
p1529
I7
tp1530
a(S'free'
p1531
I7
tp1532
a(S'freinds'
p1533
I7
tp1534
a(S'friends.the'
p1535
I7
tp1536
a(S'glad'
p1537
I7
tp1538
a(S'greatly'
p1539
I7
tp1540
a(S'happy.in'
p1541
I7
tp1542
a(S'hard-working'
p1543
I7
tp1544
a(S'he/she'
p1545
I7
tp1546
a(S'home."the'
p1547
I7
tp1548
a(S'homey'
p1549
I7
tp1550
a(S'household'
p1551
I7
tp1552
a(S'immigrant'
p1553
I7
tp1554
a(S'information'
p1555
I7
tp1556
a(S'is.the'
p1557
I7
tp1558
a(S'laboratory'
p1559
I7
tp1560
a(S'lead'
p1561
I7
tp1562
a(S'likes'
p1563
I7
tp1564
a(S'listening'
p1565
I7
tp1566
a(S'love.the'
p1567
I7
tp1568
a(S'man'
p1569
I7
tp1570
a(S'memory'
p1571
I7
tp1572
a(S'must'
p1573
I7
tp1574
a(S'parentheses'
p1575
I7
tp1576
a(S'perfect'
p1577
I7
tp1578
a(S'pharagraph'
p1579
I7
tp1580
a(S'portrays'
p1581
I7
tp1582
a(S'prints'
p1583
I7
tp1584
a(S'probably'
p1585
I7
tp1586
a(S'raise'
p1587
I7
tp1588
a(S'realized'
p1589
I7
tp1590
a(S'regularly'
p1591
I7
tp1592
a(S'remembering'
p1593
I7
tp1594
a(S'sence'
p1595
I7
tp1596
a(S'several'
p1597
I7
tp1598
a(S'situation'
p1599
I7
tp1600
a(S'sort'
p1601
I7
tp1602
a(S'sr'
p1603
I7
tp1604
a(S'story.in'
p1605
I7
tp1606
a(S'strongly'
p1607
I7
tp1608
a(S'stuff'
p1609
I7
tp1610
a(S"there's"
p1611
I7
tp1612
a(S'three-room'
p1613
I7
tp1614
a(S'tried'
p1615
I7
tp1616
a(S'werent'
p1617
I7
tp1618
a(S'willing'
p1619
I7
tp1620
a(S'years'
p1621
I7
tp1622
a(S"you're"
p1623
I7
tp1624
a(S'actions'
p1625
I6
tp1626
a(S'adding'
p1627
I6
tp1628
a(S'anybody'
p1629
I6
tp1630
a(S'birthday'
p1631
I6
tp1632
a(S'book'
p1633
I6
tp1634
a(S'bright'
p1635
I6
tp1636
a(S'careing'
p1637
I6
tp1638
a(S'celebration'
p1639
I6
tp1640
a(S'character'
p1641
I6
tp1642
a(S'clear'
p1643
I6
tp1644
a(S'continues'
p1645
I6
tp1646
a(S'deep'
p1647
I6
tp1648
a(S'didnt'
p1649
I6
tp1650
a(S'differences'
p1651
I6
tp1652
a(S'difficult'
p1653
I6
tp1654
a(S'discribed'
p1655
I6
tp1656
a(S'displays'
p1657
I6
tp1658
a(S'drove'
p1659
I6
tp1660
a(S'emphasized'
p1661
I6
tp1662
a(S'enjoys'
p1663
I6
tp1664
a(S'etc'
p1665
I6
tp1666
a(S'experiences'
p1667
I6
tp1668
a(S'extreme'
p1669
I6
tp1670
a(S"family's"
p1671
I6
tp1672
a(S'fashion'
p1673
I6
tp1674
a(S'feasts'
p1675
I6
tp1676
a(S'festive'
p1677
I6
tp1678
a(S'finding'
p1679
I6
tp1680
a(S'fit'
p1681
I6
tp1682
a(S'fond'
p1683
I6
tp1684
a(S'friendships'
p1685
I6
tp1686
a(S'graceful'
p1687
I6
tp1688
a(S'graditude'
p1689
I6
tp1690
a(S'hear'
p1691
I6
tp1692
a(S'him.in'
p1693
I6
tp1694
a(S"i'm"
p1695
I6
tp1696
a(S'invited'
p1697
I6
tp1698
a(S'it.in'
p1699
I6
tp1700
a(S'joined'
p1701
I6
tp1702
a(S'land'
p1703
I6
tp1704
a(S'later'
p1705
I6
tp1706
a(S'leaves'
p1707
I6
tp1708
a(S'lesson'
p1709
I6
tp1710
a(S'life.in'
p1711
I6
tp1712
a(S'lifestyle'
p1713
I6
tp1714
a(S'light'
p1715
I6
tp1716
a(S'mainly'
p1717
I6
tp1718
a(S'moments'
p1719
I6
tp1720
a(S'num4)'
p1721
I6
tp1722
a(S'obviously'
p1723
I6
tp1724
a(S'parents.the'
p1725
I6
tp1726
a(S'played'
p1727
I6
tp1728
a(S'powerful'
p1729
I6
tp1730
a(S'pretty'
p1731
I6
tp1732
a(S'prove'
p1733
I6
tp1734
a(S'rawedia'
p1735
I6
tp1736
a(S'rest'
p1737
I6
tp1738
a(S'safety'
p1739
I6
tp1740
a(S'satisfaction'
p1741
I6
tp1742
a(S'seen'
p1743
I6
tp1744
a(S'sentences'
p1745
I6
tp1746
a(S'sergio'
p1747
I6
tp1748
a(S'serious'
p1749
I6
tp1750
a(S'share'
p1751
I6
tp1752
a(S'sharing'
p1753
I6
tp1754
a(S'smells'
p1755
I6
tp1756
a(S'soothing'
p1757
I6
tp1758
a(S'sound'
p1759
I6
tp1760
a(S'space'
p1761
I6
tp1762
a(S'starting'
p1763
I6
tp1764
a(S'statement'
p1765
I6
tp1766
a(S'story.the'
p1767
I6
tp1768
a(S'studied'
p1769
I6
tp1770
a(S'supports'
p1771
I6
tp1772
a(S'thankfullness'
p1773
I6
tp1774
a(S'thay'
p1775
I6
tp1776
a(S"they've"
p1777
I6
tp1778
a(S'thinking'
p1779
I6
tp1780
a(S'togetherness'
p1781
I6
tp1782
a(S'truely'
p1783
I6
tp1784
a(S'trust'
p1785
I6
tp1786
a(S'type'
p1787
I6
tp1788
a(S'various'
p1789
I6
tp1790
a(S'year'
p1791
I6
tp1792
a(S'(@caps3'
p1793
I5
tp1794
a(S'(@num2)'
p1795
I5
tp1796
a(S'(par'
p1797
I5
tp1798
a(S'acted'
p1799
I5
tp1800
a(S'addition'
p1801
I5
tp1802
a(S'alive'
p1803
I5
tp1804
a(S'allways'
p1805
I5
tp1806
a(S'amount'
p1807
I5
tp1808
a(S'appartment'
p1809
I5
tp1810
a(S'appreciated'
p1811
I5
tp1812
a(S'arnold'
p1813
I5
tp1814
a(S'attitude'
p1815
I5
tp1816
a(S'backgrounds'
p1817
I5
tp1818
a(S'basic'
p1819
I5
tp1820
a(S'beloved'
p1821
I5
tp1822
a(S'bigger'
p1823
I5
tp1824
a(S'blond'
p1825
I5
tp1826
a(S'brick'
p1827
I5
tp1828
a(S'bring'
p1829
I5
tp1830
a(S'cannot'
p1831
I5
tp1832
a(S'caps7'
p1833
I5
tp1834
a(S'case'
p1835
I5
tp1836
a(S'cause'
p1837
I5
tp1838
a(S'chose'
p1839
I5
tp1840
a(S'consisted'
p1841
I5
tp1842
a(S'curious'
p1843
I5
tp1844
a(S'deal'
p1845
I5
tp1846
a(S'details'
p1847
I5
tp1848
a(S'distinct'
p1849
I5
tp1850
a(S'edelmira'
p1851
I5
tp1852
a(S'emotions'
p1853
I5
tp1854
a(S'emphasize'
p1855
I5
tp1856
a(S'emphasizes'
p1857
I5
tp1858
a(S'enjoy'
p1859
I5
tp1860
a(S'following'
p1861
I5
tp1862
a(S'foods'
p1863
I5
tp1864
a(S'furnished'
p1865
I5
tp1866
a(S'graciousness'
p1867
I5
tp1868
a(S'grateful.)'
p1869
I5
tp1870
a(S'greatful)'
p1871
I5
tp1872
a(S'happiness.the'
p1873
I5
tp1874
a(S'heart-warming'
p1875
I5
tp1876
a(S'heartwarming'
p1877
I5
tp1878
a(S'high'
p1879
I5
tp1880
a(S'history'
p1881
I5
tp1882
a(S'hold'
p1883
I5
tp1884
a(S'hometown'
p1885
I5
tp1886
a(S'immigrating'
p1887
I5
tp1888
a(S'impact'
p1889
I5
tp1890
a(S'instance'
p1891
I5
tp1892
a(S'ironbound'
p1893
I5
tp1894
a(S'is.in'
p1895
I5
tp1896
a(S'keeping'
p1897
I5
tp1898
a(S'kinds'
p1899
I5
tp1900
a(S'letting'
p1901
I5
tp1902
a(S'listen'
p1903
I5
tp1904
a(S'lively'
p1905
I5
tp1906
a(S'location3'
p1907
I5
tp1908
a(S'looked'
p1909
I5
tp1910
a(S'matters'
p1911
I5
tp1912
a(S'maybe'
p1913
I5
tp1914
a(S'meaningful'
p1915
I5
tp1916
a(S'memoirthe'
p1917
I5
tp1918
a(S'message'
p1919
I5
tp1920
a(S'met'
p1921
I5
tp1922
a(S'mixed'
p1923
I5
tp1924
a(S'nearby'
p1925
I5
tp1926
a(S'needs'
p1927
I5
tp1928
a(S'neiborhood'
p1929
I5
tp1930
a(S'nostalgic'
p1931
I5
tp1932
a(S'one-room'
p1933
I5
tp1934
a(S'onto'
p1935
I5
tp1936
a(S'optimistic'
p1937
I5
tp1938
a(S'paints'
p1939
I5
tp1940
a(S'parents.in'
p1941
I5
tp1942
a(S'peace'
p1943
I5
tp1944
a(S'presents'
p1945
I5
tp1946
a(S'problem'
p1947
I5
tp1948
a(S'provide'
p1949
I5
tp1950
a(S'relate'
p1951
I5
tp1952
a(S'relationship'
p1953
I5
tp1954
a(S'relaxing'
p1955
I5
tp1956
a(S'reminds'
p1957
I5
tp1958
a(S'rodriguez.the'
p1959
I5
tp1960
a(S'rosemary'
p1961
I5
tp1962
a(S'satisfied'
p1963
I5
tp1964
a(S'school'
p1965
I5
tp1966
a(S'secondly'
p1967
I5
tp1968
a(S'skill'
p1969
I5
tp1970
a(S'somewhat'
p1971
I5
tp1972
a(S'somewhere'
p1973
I5
tp1974
a(S'soon'
p1975
I5
tp1976
a(S'spend'
p1977
I5
tp1978
a(S'successful'
p1979
I5
tp1980
a(S'sure'
p1981
I5
tp1982
a(S'teach'
p1983
I5
tp1984
a(S'thoughtful'
p1985
I5
tp1986
a(S'town'
p1987
I5
tp1988
a(S'treated'
p1989
I5
tp1990
a(S'tries'
p1991
I5
tp1992
a(S'turning'
p1993
I5
tp1994
a(S'types'
p1995
I5
tp1996
a(S'understanding'
p1997
I5
tp1998
a(S'use'
p1999
I5
tp2000
a(S'voice'
p2001
I5
tp2002
a(S'(my'
p2003
I4
tp2004
a(S'(paragraf'
p2005
I4
tp2006
a(S'+'
I4
tp2007
a(S'accepted'
p2008
I4
tp2009
a(S'act'
p2010
I4
tp2011
a(S'alway'
p2012
I4
tp2013
a(S'among'
p2014
I4
tp2015
a(S'appriciative'
p2016
I4
tp2017
a(S'area'
p2018
I4
tp2019
a(S'ate'
p2020
I4
tp2021
a(S'baby'
p2022
I4
tp2023
a(S'barriers'
p2024
I4
tp2025
a(S'becomes'
p2026
I4
tp2027
a(S'belive'
p2028
I4
tp2029
a(S'benefit'
p2030
I4
tp2031
a(S'bertha'
p2032
I4
tp2033
a(S'biggest'
p2034
I4
tp2035
a(S'bond'
p2036
I4
tp2037
a(S'bonds'
p2038
I4
tp2039
a(S'career'
p2040
I4
tp2041
a(S"child's"
p2042
I4
tp2043
a(S'comunity'
p2044
I4
tp2045
a(S'cooked'
p2046
I4
tp2047
a(S"could've"
p2048
I4
tp2049
a(S'days'
p2050
I4
tp2051
a(S'delightful'
p2052
I4
tp2053
a(S'demonstrates'
p2054
I4
tp2055
a(S'descriptions'
p2056
I4
tp2057
a(S'deserve'
p2058
I4
tp2059
a(S'discribes'
p2060
I4
tp2061
a(S'easy'
p2062
I4
tp2063
a(S'eating'
p2064
I4
tp2065
a(S'ends'
p2066
I4
tp2067
a(S'enjoying'
p2068
I4
tp2069
a(S'enviorment'
p2070
I4
tp2071
a(S'enviornment'
p2072
I4
tp2073
a(S'everyday'
p2074
I4
tp2075
a(S'evidence'
p2076
I4
tp2077
a(S'explanation'
p2078
I4
tp2079
a(S"family'"
p2080
I4
tp2081
a(S'finaly'
p2082
I4
tp2083
a(S'five'
p2084
I4
tp2085
a(S'fondly'
p2086
I4
tp2087
a(S'fortunate'
p2088
I4
tp2089
a(S'friend)'
p2090
I4
tp2091
a(S'grace'
p2092
I4
tp2093
a(S'gratful'
p2094
I4
tp2095
a(S'greatful.the'
p2096
I4
tp2097
a(S'happen'
p2098
I4
tp2099
a(S'happier'
p2100
I4
tp2101
a(S'homeland'
p2102
I4
tp2103
a(S'humor'
p2104
I4
tp2105
a(S'hurt'
p2106
I4
tp2107
a(S'imagery'
p2108
I4
tp2109
a(S'imagine'
p2110
I4
tp2111
a(S'importantly'
p2112
I4
tp2113
a(S'included'
p2114
I4
tp2115
a(S'incredibly'
p2116
I4
tp2117
a(S'inside'
p2118
I4
tp2119
a(S'instead'
p2120
I4
tp2121
a(S'interested'
p2122
I4
tp2123
a(S'joyfull'
p2124
I4
tp2125
a(S'juanita'
p2126
I4
tp2127
a(S'kinda'
p2128
I4
tp2129
a(S'known'
p2130
I4
tp2131
a(S"landlord's"
p2132
I4
tp2133
a(S'landlords'
p2134
I4
tp2135
a(S'least'
p2136
I4
tp2137
a(S'looking'
p2138
I4
tp2139
a(S'loveing'
p2140
I4
tp2141
a(S"memoir's"
p2142
I4
tp2143
a(S'mind'
p2144
I4
tp2145
a(S'misses'
p2146
I4
tp2147
a(S'named'
p2148
I4
tp2149
a(S'nationality'
p2150
I4
tp2151
a(S'negative'
p2152
I4
tp2153
a(S'nostalgia'
p2154
I4
tp2155
a(S'nowhere'
p2156
I4
tp2157
a(S'older'
p2158
I4
tp2159
a(S'opportunities'
p2160
I4
tp2161
a(S'opportunity'
p2162
I4
tp2163
a(S'organization2'
p2164
I4
tp2165
a(S'overcome'
p2166
I4
tp2167
a(S'page'
p2168
I4
tp2169
a(S'parents]'
p2170
I4
tp2171
a(S'parties'
p2172
I4
tp2173
a(S'pay'
p2174
I4
tp2175
a(S'proving'
p2176
I4
tp2177
a(S'pure'
p2178
I4
tp2179
a(S'putting'
p2180
I4
tp2181
a(S'racist'
p2182
I4
tp2183
a(S'random'
p2184
I4
tp2185
a(S'read.the'
p2186
I4
tp2187
a(S'recalls'
p2188
I4
tp2189
a(S'reflect'
p2190
I4
tp2191
a(S'reflective'
p2192
I4
tp2193
a(S'reflects'
p2194
I4
tp2195
a(S'regardless'
p2196
I4
tp2197
a(S'respected'
p2198
I4
tp2199
a(S'respects'
p2200
I4
tp2201
a(S'result'
p2202
I4
tp2203
a(S'risked'
p2204
I4
tp2205
a(S'sacrafices'
p2206
I4
tp2207
a(S'sacrificing'
p2208
I4
tp2209
a(S'sake'
p2210
I4
tp2211
a(S'saw'
p2212
I4
tp2213
a(S'scene'
p2214
I4
tp2215
a(S'self'
p2216
I4
tp2217
a(S'selfish'
p2218
I4
tp2219
a(S'shelter'
p2220
I4
tp2221
a(S'speaker'
p2222
I4
tp2223
a(S'speaking'
p2224
I4
tp2225
a(S'stood'
p2226
I4
tp2227
a(S'stories'
p2228
I4
tp2229
a(S'struggling'
p2230
I4
tp2231
a(S'try'
p2232
I4
tp2233
a(S'uncles'
p2234
I4
tp2235
a(S'usually'
p2236
I4
tp2237
a(S'visit'
p2238
I4
tp2239
a(S'warms'
p2240
I4
tp2241
a(S'was.the'
p2242
I4
tp2243
a(S'works'
p2244
I4
tp2245
a(S'write'
p2246
I4
tp2247
a(S'writer'
p2248
I4
tp2249
a(S"'"
I3
tp2250
a(S'(p'
p2251
I3
tp2252
a(S'(the'
p2253
I3
tp2254
a(S'(\xb6@num1)'
p2255
I3
tp2256
a(S'-'
I3
tp2257
a(S'[...]'
p2258
I3
tp2259
a(S'[his'
p2260
I3
tp2261
a(S'[his]'
p2262
I3
tp2263
a(S'about.the'
p2264
I3
tp2265
a(S'achievement'
p2266
I3
tp2267
a(S'admiring'
p2268
I3
tp2269
a(S'allows'
p2270
I3
tp2271
a(S'alone'
p2272
I3
tp2273
a(S'amazed'
p2274
I3
tp2275
a(S'answer'
p2276
I3
tp2277
a(S'appreciating'
p2278
I3
tp2279
a(S'are.the'
p2280
I3
tp2281
a(S'artical'
p2282
I3
tp2283
a(S'aspects'
p2284
I3
tp2285
a(S'authour'
p2286
I3
tp2287
a(S'backround'
p2288
I3
tp2289
a(S'basement'
p2290
I3
tp2291
a(S'begin'
p2292
I3
tp2293
a(S'begining'
p2294
I3
tp2295
a(S'bliss'
p2296
I3
tp2297
a(S'blonde-brick'
p2298
I3
tp2299
a(S'blood-relatives'
p2300
I3
tp2301
a(S'bought'
p2302
I3
tp2303
a(S'brothers'
p2304
I3
tp2305
a(S'busy'
p2306
I3
tp2307
a(S'cant'
p2308
I3
tp2309
a(S'caps2.s'
p2310
I3
tp2311
a(S'carrers'
p2312
I3
tp2313
a(S'challenges'
p2314
I3
tp2315
a(S'childhood.in'
p2316
I3
tp2317
a(S'compationate'
p2318
I3
tp2319
a(S'complete'
p2320
I3
tp2321
a(S'conclude'
p2322
I3
tp2323
a(S'conditions'
p2324
I3
tp2325
a(S'contrary'
p2326
I3
tp2327
a(S'contributed'
p2328
I3
tp2329
a(S'conveyed'
p2330
I3
tp2331
a(S'country.the'
p2332
I3
tp2333
a(S'couple'
p2334
I3
tp2335
a(S'courages'
p2336
I3
tp2337
a(S'couragous'
p2338
I3
tp2339
a(S'cry'
p2340
I3
tp2341
a(S'culture.the'
p2342
I3
tp2343
a(S'dearly'
p2344
I3
tp2345
a(S'dedication'
p2346
I3
tp2347
a(S'definatly'
p2348
I3
tp2349
a(S'definitely'
p2350
I3
tp2351
a(S'delicious'
p2352
I3
tp2353
a(S'demonstrate'
p2354
I3
tp2355
a(S'demonstrated'
p2356
I3
tp2357
a(S'depicts'
p2358
I3
tp2359
a(S'detailed'
p2360
I3
tp2361
a(S'develops'
p2362
I3
tp2363
a(S'died'
p2364
I3
tp2365
a(S'diffrent'
p2366
I3
tp2367
a(S'dinners'
p2368
I3
tp2369
a(S'diverse'
p2370
I3
tp2371
a(S"does'nt"
p2372
I3
tp2373
a(S'dose'
p2374
I3
tp2375
a(S'dream'
p2376
I3
tp2377
a(S'drop'
p2378
I3
tp2379
a(S'easier'
p2380
I3
tp2381
a(S'ending'
p2382
I3
tp2383
a(S'endured'
p2384
I3
tp2385
a(S'ex'
p2386
I3
tp2387
a(S'exactly'
p2388
I3
tp2389
a(S'exerpt'
p2390
I3
tp2391
a(S'externally'
p2392
I3
tp2393
a(S'eyes'
p2394
I3
tp2395
a(S'family".the'
p2396
I3
tp2397
a(S'filling'
p2398
I3
tp2399
a(S'fills'
p2400
I3
tp2401
a(S'finds'
p2402
I3
tp2403
a(S'flow'
p2404
I3
tp2405
a(S'forms'
p2406
I3
tp2407
a(S'fourth'
p2408
I3
tp2409
a(S'friendliness'
p2410
I3
tp2411
a(S'friends.in'
p2412
I3
tp2413
a(S'furthermore'
p2414
I3
tp2415
a(S'fuzzy'
p2416
I3
tp2417
a(S'gather'
p2418
I3
tp2419
a(S'generations'
p2420
I3
tp2421
a(S'gentle'
p2422
I3
tp2423
a(S'gone'
p2424
I3
tp2425
a(S'good.the'
p2426
I3
tp2427
a(S'greater'
p2428
I3
tp2429
a(S'greatfullness'
p2430
I3
tp2431
a(S'hade'
p2432
I3
tp2433
a(S'half'
p2434
I3
tp2435
a(S"he'll"
p2436
I3
tp2437
a(S'healthy'
p2438
I3
tp2439
a(S'helpfulness'
p2440
I3
tp2441
a(S'home.narciso'
p2442
I3
tp2443
a(S'homethe'
p2444
I3
tp2445
a(S'honestly'
p2446
I3
tp2447
a(S'hopeful'
p2448
I3
tp2449
a(S'hospitality'
p2450
I3
tp2451
a(S'house.in'
p2452
I3
tp2453
a(S'house.the'
p2454
I3
tp2455
a(S'houses'
p2456
I3
tp2457
a(S'human'
p2458
I3
tp2459
a(S"i'd"
p2460
I3
tp2461
a(S'imagination'
p2462
I3
tp2463
a(S'imagrants'
p2464
I3
tp2465
a(S'imagrents'
p2466
I3
tp2467
a(S'import'
p2468
I3
tp2469
a(S'includes'
p2470
I3
tp2471
a(S'incredible'
p2472
I3
tp2473
a(S'indicates'
p2474
I3
tp2475
a(S'inspirring'
p2476
I3
tp2477
a(S'internationally'
p2478
I3
tp2479
a(S'invites'
p2480
I3
tp2481
a(S'involved'
p2482
I3
tp2483
a(S'istilled'
p2484
I3
tp2485
a(S'joyous'
p2486
I3
tp2487
a(S'laughter'
p2488
I3
tp2489
a(S'less'
p2490
I3
tp2491
a(S'lets'
p2492
I3
tp2493
a(S'lif'
p2494
I3
tp2495
a(S'lifes'
p2496
I3
tp2497
a(S'listened'
p2498
I3
tp2499
a(S'listens'
p2500
I3
tp2501
a(S'located'
p2502
I3
tp2503
a(S'loose'
p2504
I3
tp2505
a(S'lord'
p2506
I3
tp2507
a(S'lords'
p2508
I3
tp2509
a(S'love.in'
p2510
I3
tp2511
a(S'loved.the'
p2512
I3
tp2513
a(S'loving.the'
p2514
I3
tp2515
a(S'major'
p2516
I3
tp2517
a(S'managed'
p2518
I3
tp2519
a(S'memmoir'
p2520
I3
tp2521
a(S'memoir.another'
p2522
I3
tp2523
a(S'memoir.this'
p2524
I3
tp2525
a(S'memor'
p2526
I3
tp2527
a(S'memorys'
p2528
I3
tp2529
a(S'mental'
p2530
I3
tp2531
a(S'middle'
p2532
I3
tp2533
a(S'mood.narciso'
p2534
I3
tp2535
a(S'moods.the'
p2536
I3
tp2537
a(S'moves'
p2538
I3
tp2539
a(S'negitive'
p2540
I3
tp2541
a(S'normal'
p2542
I3
tp2543
a(S'number'
p2544
I3
tp2545
a(S'numerous'
p2546
I3
tp2547
a(S'offer'
p2548
I3
tp2549
a(S'offers'
p2550
I3
tp2551
a(S'organized'
p2552
I3
tp2553
a(S'p'
I3
tp2554
a(S'para'
p2555
I3
tp2556
a(S'parrents'
p2557
I3
tp2558
a(S'passing'
p2559
I3
tp2560
a(S'paying'
p2561
I3
tp2562
a(S'peacful'
p2563
I3
tp2564
a(S'people.in'
p2565
I3
tp2566
a(S'people.the'
p2567
I3
tp2568
a(S'period'
p2569
I3
tp2570
a(S'personal'
p2571
I3
tp2572
a(S'ph'
p2573
I3
tp2574
a(S'phrases'
p2575
I3
tp2576
a(S'picked'
p2577
I3
tp2578
a(S'plays'
p2579
I3
tp2580
a(S'pleased'
p2581
I3
tp2582
a(S'plus'
p2583
I3
tp2584
a(S'points'
p2585
I3
tp2586
a(S'portray'
p2587
I3
tp2588
a(S'poverty'
p2589
I3
tp2590
a(S'praises'
p2591
I3
tp2592
a(S'problems'
p2593
I3
tp2594
a(S'pround'
p2595
I3
tp2596
a(S'qualities'
p2597
I3
tp2598
a(S'quickly'
p2599
I3
tp2600
a(S'quot'
p2601
I3
tp2602
a(S'rarely'
p2603
I3
tp2604
a(S'reader.the'
p2605
I3
tp2606
a(S'recognized'
p2607
I3
tp2608
a(S'relations'
p2609
I3
tp2610
a(S'repay'
p2611
I3
tp2612
a(S'representing'
p2613
I3
tp2614
a(S'role'
p2615
I3
tp2616
a(S'sacraficed'
p2617
I3
tp2618
a(S'sacrifice.the'
p2619
I3
tp2620
a(S'sad.the'
p2621
I3
tp2622
a(S'selflessnes'
p2623
I3
tp2624
a(S'shaped'
p2625
I3
tp2626
a(S'ships'
p2627
I3
tp2628
a(S'side'
p2629
I3
tp2630
a(S'sister'
p2631
I3
tp2632
a(S'sisters'
p2633
I3
tp2634
a(S'slightly'
p2635
I3
tp2636
a(S'smile'
p2637
I3
tp2638
a(S'speak'
p2639
I3
tp2640
a(S'spending'
p2641
I3
tp2642
a(S'spent'
p2643
I3
tp2644
a(S'stand'
p2645
I3
tp2646
a(S'stays'
p2647
I3
tp2648
a(S'strangers'
p2649
I3
tp2650
a(S'surrounding'
p2651
I3
tp2652
a(S'suttle'
p2653
I3
tp2654
a(S'swings'
p2655
I3
tp2656
a(S'talkes'
p2657
I3
tp2658
a(S'theres'
p2659
I3
tp2660
a(S'threw'
p2661
I3
tp2662
a(S'throw'
p2663
I3
tp2664
a(S'thus'
p2665
I3
tp2666
a(S'ties'
p2667
I3
tp2668
a(S'till'
p2669
I3
tp2670
a(S'time.the'
p2671
I3
tp2672
a(S'treat'
p2673
I3
tp2674
a(S'treating'
p2675
I3
tp2676
a(S'trouble'
p2677
I3
tp2678
a(S'troubles'
p2679
I3
tp2680
a(S'truley'
p2681
I3
tp2682
a(S'understands'
p2683
I3
tp2684
a(S'understood'
p2685
I3
tp2686
a(S'unified'
p2687
I3
tp2688
a(S'unique'
p2689
I3
tp2690
a(S'untill'
p2691
I3
tp2692
a(S'upbringing'
p2693
I3
tp2694
a(S'values'
p2695
I3
tp2696
a(S'visiting'
p2697
I3
tp2698
a(S'warth'
p2699
I3
tp2700
a(S'was.in'
p2701
I3
tp2702
a(S'way.the'
p2703
I3
tp2704
a(S'well.the'
p2705
I3
tp2706
a(S'went-and'
p2707
I3
tp2708
a(S'whether'
p2709
I3
tp2710
a(S'whistful'
p2711
I3
tp2712
a(S'whoever'
p2713
I3
tp2714
a(S'wish'
p2715
I3
tp2716
a(S'witch'
p2717
I3
tp2718
a(S'wrong'
p2719
I3
tp2720
a(S"'i"
p2721
I2
tp2722
a(S'(albeit'
p2723
I2
tp2724
a(S'(as'
p2725
I2
tp2726
a(S'(his'
p2727
I2
tp2728
a(S'(of'
p2729
I2
tp2730
a(S'(para'
p2731
I2
tp2732
a(S'(s)'
p2733
I2
tp2734
a(S'-paragraph'
p2735
I2
tp2736
a(S'abot'
p2737
I2
tp2738
a(S'acceptance'
p2739
I2
tp2740
a(S'acception'
p2741
I2
tp2742
a(S'accomplished'
p2743
I2
tp2744
a(S'accomplishment'
p2745
I2
tp2746
a(S'acknowledges'
p2747
I2
tp2748
a(S'add'
p2749
I2
tp2750
a(S'added'
p2751
I2
tp2752
a(S'additionally'
p2753
I2
tp2754
a(S'admire'
p2755
I2
tp2756
a(S'adout'
p2757
I2
tp2758
a(S'adult'
p2759
I2
tp2760
a(S'advantage'
p2761
I2
tp2762
a(S'affection'
p2763
I2
tp2764
a(S'afraid'
p2765
I2
tp2766
a(S'allot'
p2767
I2
tp2768
a(S'allowing'
p2769
I2
tp2770
a(S'america.the'
p2771
I2
tp2772
a(S'amounts'
p2773
I2
tp2774
a(S'anew'
p2775
I2
tp2776
a(S'anothe'
p2777
I2
tp2778
a(S'apartment.the'
p2779
I2
tp2780
a(S'appears'
p2781
I2
tp2782
a(S'appriciation'
p2783
I2
tp2784
a(S'appritiate'
p2785
I2
tp2786
a(S'appritiation'
p2787
I2
tp2788
a(S'apratment'
p2789
I2
tp2790
a(S'apt'
p2791
I2
tp2792
a(S'aroma'
p2793
I2
tp2794
a(S'arrive'
p2795
I2
tp2796
a(S'author)'
p2797
I2
tp2798
a(S'back.the'
p2799
I2
tp2800
a(S'basicly'
p2801
I2
tp2802
a(S'bay'
p2803
I2
tp2804
a(S'beacuse'
p2805
I2
tp2806
a(S'beautifully'
p2807
I2
tp2808
a(S'becase'
p2809
I2
tp2810
a(S'becoming'
p2811
I2
tp2812
a(S'began'
p2813
I2
tp2814
a(S'beggining'
p2815
I2
tp2816
a(S'believed'
p2817
I2
tp2818
a(S'blond-brick'
p2819
I2
tp2820
a(S'blood-related'
p2821
I2
tp2822
a(S'build'
p2823
I2
tp2824
a(S'bunch'
p2825
I2
tp2826
a(S'calming'
p2827
I2
tp2828
a(S'calmness'
p2829
I2
tp2830
a(S'caps1.s.a'
p2831
I2
tp2832
a(S'captures'
p2833
I2
tp2834
a(S'carage'
p2835
I2
tp2836
a(S'care.the'
p2837
I2
tp2838
a(S'careful'
p2839
I2
tp2840
a(S'caring.in'
p2841
I2
tp2842
a(S'caring.the'
p2843
I2
tp2844
a(S'carried'
p2845
I2
tp2846
a(S'carries'
p2847
I2
tp2848
a(S'carring'
p2849
I2
tp2850
a(S'centered'
p2851
I2
tp2852
a(S'cherished'
p2853
I2
tp2854
a(S'childhood.the'
p2855
I2
tp2856
a(S'claims'
p2857
I2
tp2858
a(S'climate'
p2859
I2
tp2860
a(S'closing'
p2861
I2
tp2862
a(S'comforts'
p2863
I2
tp2864
a(S'comfy'
p2865
I2
tp2866
a(S'comming'
p2867
I2
tp2868
a(S'common'
p2869
I2
tp2870
a(S'compasion'
p2871
I2
tp2872
a(S'complimenting'
p2873
I2
tp2874
a(S'concept'
p2875
I2
tp2876
a(S'concidered'
p2877
I2
tp2878
a(S'concludes'
p2879
I2
tp2880
a(S'conflicts'
p2881
I2
tp2882
a(S'confusing'
p2883
I2
tp2884
a(S'connection'
p2885
I2
tp2886
a(S'consists'
p2887
I2
tp2888
a(S'contentment'
p2889
I2
tp2890
a(S'contribute'
p2891
I2
tp2892
a(S'contributor'
p2893
I2
tp2894
a(S'convey'
p2895
I2
tp2896
a(S'corageous'
p2897
I2
tp2898
a(S'cost'
p2899
I2
tp2900
a(S'countries'
p2901
I2
tp2902
a(S'course'
p2903
I2
tp2904
a(S'crafted'
p2905
I2
tp2906
a(S'creat'
p2907
I2
tp2908
a(S'created.in'
p2909
I2
tp2910
a(S'cuba)'
p2911
I2
tp2912
a(S'cultral'
p2913
I2
tp2914
a(S'daily'
p2915
I2
tp2916
a(S'decorated'
p2917
I2
tp2918
a(S'dedicates'
p2919
I2
tp2920
a(S'deeply'
p2921
I2
tp2922
a(S'defenition'
p2923
I2
tp2924
a(S'definetely'
p2925
I2
tp2926
a(S'determination'
p2927
I2
tp2928
a(S'determined'
p2929
I2
tp2930
a(S'did.the'
p2931
I2
tp2932
a(S'diffucult'
p2933
I2
tp2934
a(S'discusses'
p2935
I2
tp2936
a(S'diversity'
p2937
I2
tp2938
a(S'dominant'
p2939
I2
tp2940
a(S'doubt'
p2941
I2
tp2942
a(S'emotion'
p2943
I2
tp2944
a(S'encompass'
p2945
I2
tp2946
a(S'ended'
p2947
I2
tp2948
a(S'endlessly'
p2949
I2
tp2950
a(S'enthusiastic'
p2951
I2
tp2952
a(S'established'
p2953
I2
tp2954
a(S'eternaly'
p2955
I2
tp2956
a(S'ethnicity'
p2957
I2
tp2958
a(S'evan'
p2959
I2
tp2960
a(S'events'
p2961
I2
tp2962
a(S'everbody'
p2963
I2
tp2964
a(S'everynight'
p2965
I2
tp2966
a(S'everyone.the'
p2967
I2
tp2968
a(S'everything.in'
p2969
I2
tp2970
a(S'everywhere'
p2971
I2
tp2972
a(S'evident'
p2973
I2
tp2974
a(S'evry'
p2975
I2
tp2976
a(S'except'
p2977
I2
tp2978
a(S'excerpts'
p2979
I2
tp2980
a(S'exentuates'
p2981
I2
tp2982
a(S'explaination'
p2983
I2
tp2984
a(S'explaines'
p2985
I2
tp2986
a(S'exposed'
p2987
I2
tp2988
a(S'extend'
p2989
I2
tp2990
a(S'extra'
p2991
I2
tp2992
a(S'extremly'
p2993
I2
tp2994
a(S'face'
p2995
I2
tp2996
a(S'famialy'
p2997
I2
tp2998
a(S'familey'
p2999
I2
tp3000
a(S'familythe'
p3001
I2
tp3002
a(S'famliy'
p3003
I2
tp3004
a(S'famly'
p3005
I2
tp3006
a(S'famous'
p3007
I2
tp3008
a(S'far'
p3009
I2
tp3010
a(S'fathe'
p3011
I2
tp3012
a(S'feast)'
p3013
I2
tp3014
a(S'feed'
p3015
I2
tp3016
a(S'fell'
p3017
I2
tp3018
a(S'fighting'
p3019
I2
tp3020
a(S'fill'
p3021
I2
tp3022
a(S'firstly'
p3023
I2
tp3024
a(S'fixed'
p3025
I2
tp3026
a(S'flat'
p3027
I2
tp3028
a(S'flowing'
p3029
I2
tp3030
a(S'focuses'
p3031
I2
tp3032
a(S'fondness'
p3033
I2
tp3034
a(S'for.the'
p3035
I2
tp3036
a(S'foreshadowing'
p3037
I2
tp3038
a(S'forward'
p3039
I2
tp3040
a(S'frequently'
p3041
I2
tp3042
a(S'frugal'
p3043
I2
tp3044
a(S'fueled'
p3045
I2
tp3046
a(S'furniture'
p3047
I2
tp3048
a(S'gatherings'
p3049
I2
tp3050
a(S'generally'
p3051
I2
tp3052
a(S'gental'
p3053
I2
tp3054
a(S'gether'
p3055
I2
tp3056
a(S'girl'
p3057
I2
tp3058
a(S'graditude.the'
p3059
I2
tp3060
a(S'grand'
p3061
I2
tp3062
a(S'grandfather'
p3063
I2
tp3064
a(S'granted'
p3065
I2
tp3066
a(S'grateful.i'
p3067
I2
tp3068
a(S'grateful.in'
p3069
I2
tp3070
a(S'gratefull)'
p3071
I2
tp3072
a(S'gratitude."in'
p3073
I2
tp3074
a(S'gratitude.the'
p3075
I2
tp3076
a(S'grattitude'
p3077
I2
tp3078
a(S'groups'
p3079
I2
tp3080
a(S'guess'
p3081
I2
tp3082
a(S'happens'
p3083
I2
tp3084
a(S'happines'
p3085
I2
tp3086
a(S'happythe'
p3087
I2
tp3088
a(S'haratige'
p3089
I2
tp3090
a(S'hardship'
p3091
I2
tp3092
a(S'has.the'
p3093
I2
tp3094
a(S'head'
p3095
I2
tp3096
a(S'heard'
p3097
I2
tp3098
a(S'heartfelt'
p3099
I2
tp3100
a(S'hearty'
p3101
I2
tp3102
a(S'helpfull'
p3103
I2
tp3104
a(S'heratige'
p3105
I2
tp3106
a(S"here's"
p3107
I2
tp3108
a(S'him.this'
p3109
I2
tp3110
a(S'him.throughout'
p3111
I2
tp3112
a(S'himthe'
p3113
I2
tp3114
a(S'holding'
p3115
I2
tp3116
a(S'holds'
p3117
I2
tp3118
a(S'holidays'
p3119
I2
tp3120
a(S'home."for'
p3121
I2
tp3122
a(S'home."in'
p3123
I2
tp3124
a(S'home.throughout'
p3125
I2
tp3126
a(S'homely'
p3127
I2
tp3128
a(S'honored'
p3129
I2
tp3130
a(S'honors'
p3131
I2
tp3132
a(S'hopefull'
p3133
I2
tp3134
a(S'hopes'
p3135
I2
tp3136
a(S'hoping'
p3137
I2
tp3138
a(S'hous'
p3139
I2
tp3140
a(S'im'
p3141
I2
tp3142
a(S'image'
p3143
I2
tp3144
a(S'images'
p3145
I2
tp3146
a(S'imigrents'
p3147
I2
tp3148
a(S'immagrated'
p3149
I2
tp3150
a(S'immagrents'
p3151
I2
tp3152
a(S'immigrate'
p3153
I2
tp3154
a(S'implies'
p3155
I2
tp3156
a(S'impression'
p3157
I2
tp3158
a(S'in.the'
p3159
I2
tp3160
a(S'informs'
p3161
I2
tp3162
a(S'inspiration'
p3163
I2
tp3164
a(S'inspired'
p3165
I2
tp3166
a(S'inspiring'
p3167
I2
tp3168
a(S'intence'
p3169
I2
tp3170
a(S'interesting'
p3171
I2
tp3172
a(S'internally'
p3173
I2
tp3174
a(S'interpretation'
p3175
I2
tp3176
a(S'inviorment'
p3177
I2
tp3178
a(S'is.based'
p3179
I2
tp3180
a(S'jersey.the'
p3181
I2
tp3182
a(S'joyfulness'
p3183
I2
tp3184
a(S'laugh'
p3185
I2
tp3186
a(S'laughing'
p3187
I2
tp3188
a(S'leads'
p3189
I2
tp3190
a(S'lending'
p3191
I2
tp3192
a(S'life.narciso'
p3193
I2
tp3194
a(S'lifting'
p3195
I2
tp3196
a(S'likely'
p3197
I2
tp3198
a(S'likethe'
p3199
I2
tp3200
a(S'lives.the'
p3201
I2
tp3202
a(S'location1the'
p3203
I2
tp3204
a(S'lost'
p3205
I2
tp3206
a(S"lot's"
p3207
I2
tp3208
a(S"love.'"
p3209
I2
tp3210
a(S'love.narciso'
p3211
I2
tp3212
a(S'lovethe'
p3213
I2
tp3214
a(S'loving.in'
p3215
I2
tp3216
a(S'lovingly'
p3217
I2
tp3218
a(S'low'
p3219
I2
tp3220
a(S'loyalty'
p3221
I2
tp3222
a(S'makeing'
p3223
I2
tp3224
a(S'manages'
p3225
I2
tp3226
a(S'meal'
p3227
I2
tp3228
a(S'medium'
p3229
I2
tp3230
a(S'meet'
p3231
I2
tp3232
a(S'member'
p3233
I2
tp3234
a(S'memoir.based'
p3235
I2
tp3236
a(S'memoir.i'
p3237
I2
tp3238
a(S'memoir.narciso'
p3239
I2
tp3240
a(S'memorable'
p3241
I2
tp3242
a(S'memore'
p3243
I2
tp3244
a(S'memories.the'
p3245
I2
tp3246
a(S'menoir'
p3247
I2
tp3248
a(S'miss'
p3249
I2
tp3250
a(S'mixture'
p3251
I2
tp3252
a(S'mode'
p3253
I2
tp3254
a(S'moment'
p3255
I2
tp3256
a(S'mood.home'
p3257
I2
tp3258
a(S'moode'
p3259
I2
tp3260
a(S'moodthe'
p3261
I2
tp3262
a(S'multiple'
p3263
I2
tp3264
a(S'name'
p3265
I2
tp3266
a(S'names'
p3267
I2
tp3268
a(S'narcisos'
p3269
I2
tp3270
a(S'narrarator'
p3271
I2
tp3272
a(S'narrators'
p3273
I2
tp3274
a(S'nationalities'
p3275
I2
tp3276
a(S'necessary'
p3277
I2
tp3278
a(S'ness'
p3279
I2
tp3280
a(S'nobody'
p3281
I2
tp3282
a(S'none'
p3283
I2
tp3284
a(S'nonfiction'
p3285
I2
tp3286
a(S'num1.the'
p3287
I2
tp3288
a(S'num3)in'
p3289
I2
tp3290
a(S'num6'
p3291
I2
tp3292
a(S'num8'
p3293
I2
tp3294
a(S'o'
I2
tp3295
a(S'occasions'
p3296
I2
tp3297
a(S'offered'
p3298
I2
tp3299
a(S'ok'
p3300
I2
tp3301
a(S'okay'
p3302
I2
tp3303
a(S"one's"
p3304
I2
tp3305
a(S'opening'
p3306
I2
tp3307
a(S'opinions'
p3308
I2
tp3309
a(S'oppertunity'
p3310
I2
tp3311
a(S'oppurtunities'
p3312
I2
tp3313
a(S"organization1's"
p3314
I2
tp3315
a(S'organization1.the'
p3316
I2
tp3317
a(S"organization2's"
p3318
I2
tp3319
a(S'origin'
p3320
I2
tp3321
a(S'original'
p3322
I2
tp3323
a(S'other.the'
p3324
I2
tp3325
a(S'outcome'
p3326
I2
tp3327
a(S'outhor'
p3328
I2
tp3329
a(S'outlook'
p3330
I2
tp3331
a(S'overcame'
p3332
I2
tp3333
a(S'parants'
p3334
I2
tp3335
a(S'parents)'
p3336
I2
tp3337
a(S'parents.narciso'
p3338
I2
tp3339
a(S'party'
p3340
I2
tp3341
a(S'partying'
p3342
I2
tp3343
a(S'passionat'
p3344
I2
tp3345
a(S'passions'
p3346
I2
tp3347
a(S'peice'
p3348
I2
tp3349
a(S'perfectly'
p3350
I2
tp3351
a(S'perseverence'
p3352
I2
tp3353
a(S"person2's"
p3354
I2
tp3355
a(S'perspective'
p3356
I2
tp3357
a(S'physical'
p3358
I2
tp3359
a(S'portraying'
p3360
I2
tp3361
a(S'positivity'
p3362
I2
tp3363
a(S'possessed'
p3364
I2
tp3365
a(S'possible'
p3366
I2
tp3367
a(S'potrayed'
p3368
I2
tp3369
a(S'present'
p3370
I2
tp3371
a(S'protected'
p3372
I2
tp3373
a(S'proud.the'
p3374
I2
tp3375
a(S'question'
p3376
I2
tp3377
a(S'quit'
p3378
I2
tp3379
a(S'rasism'
p3380
I2
tp3381
a(S"reader's"
p3382
I2
tp3383
a(S'reading.the'
p3384
I2
tp3385
a(S'reads'
p3386
I2
tp3387
a(S'realated'
p3388
I2
tp3389
a(S'realize'
p3390
I2
tp3391
a(S'reasonable'
p3392
I2
tp3393
a(S'recalling'
p3394
I2
tp3395
a(S'recounts'
p3396
I2
tp3397
a(S'refers'
p3398
I2
tp3399
a(S'reflecting'
p3400
I2
tp3401
a(S'refugee'
p3402
I2
tp3403
a(S'regards'
p3404
I2
tp3405
a(S'relation'
p3406
I2
tp3407
a(S'releavant'
p3408
I2
tp3409
a(S'reletives'
p3410
I2
tp3411
a(S'relevant'
p3412
I2
tp3413
a(S'repeated'
p3414
I2
tp3415
a(S'repeating'
p3416
I2
tp3417
a(S'repeats'
p3418
I2
tp3419
a(S'repetition'
p3420
I2
tp3421
a(S'replace'
p3422
I2
tp3423
a(S'represent'
p3424
I2
tp3425
a(S'responsible'
p3426
I2
tp3427
a(S'resulting'
p3428
I2
tp3429
a(S'return'
p3430
I2
tp3431
a(S'risk'
p3432
I2
tp3433
a(S'rodriguez)'
p3434
I2
tp3435
a(S'roots'
p3436
I2
tp3437
a(S'run'
p3438
I2
tp3439
a(S'sacrifise'
p3440
I2
tp3441
a(S'sadiness'
p3442
I2
tp3443
a(S'saing'
p3444
I2
tp3445
a(S'sais'
p3446
I2
tp3447
a(S'scentence'
p3448
I2
tp3449
a(S'scratch'
p3450
I2
tp3451
a(S'secure'
p3452
I2
tp3453
a(S'security'
p3454
I2
tp3455
a(S'selflessness.in'
p3456
I2
tp3457
a(S'senser'
p3458
I2
tp3459
a(S'sent'
p3460
I2
tp3461
a(S'shares'
p3462
I2
tp3463
a(S'shes'
p3464
I2
tp3465
a(S'ship'
p3466
I2
tp3467
a(S'showes'
p3468
I2
tp3469
a(S'similar'
p3470
I2
tp3471
a(S'single'
p3472
I2
tp3473
a(S'size'
p3474
I2
tp3475
a(S'sneaking'
p3476
I2
tp3477
a(S'speakes'
p3478
I2
tp3479
a(S'special.the'
p3480
I2
tp3481
a(S'specifically'
p3482
I2
tp3483
a(S'spoke'
p3484
I2
tp3485
a(S'stands'
p3486
I2
tp3487
a(S'states.the'
p3488
I2
tp3489
a(S'stick'
p3490
I2
tp3491
a(S'stop'
p3492
I2
tp3493
a(S'storie'
p3494
I2
tp3495
a(S'street'
p3496
I2
tp3497
a(S'strenght'
p3498
I2
tp3499
a(S'strenth'
p3500
I2
tp3501
a(S'stress'
p3502
I2
tp3503
a(S'stronger'
p3504
I2
tp3505
a(S'stuck'
p3506
I2
tp3507
a(S'style'
p3508
I2
tp3509
a(S'sum'
p3510
I2
tp3511
a(S'sums'
p3512
I2
tp3513
a(S'surround'
p3514
I2
tp3515
a(S'surrounds'
p3516
I2
tp3517
a(S'survive'
p3518
I2
tp3519
a(S'survived'
p3520
I2
tp3521
a(S'sympathetic'
p3522
I2
tp3523
a(S'sympathy'
p3524
I2
tp3525
a(S'tables'
p3526
I2
tp3527
a(S'taken'
p3528
I2
tp3529
a(S'tall'
p3530
I2
tp3531
a(S'tels'
p3532
I2
tp3533
a(S'thankful.in'
p3534
I2
tp3535
a(S'thare'
p3536
I2
tp3537
a(S'them.in'
p3538
I2
tp3539
a(S'thes'
p3540
I2
tp3541
a(S"they'll"
p3542
I2
tp3543
a(S'thougth'
p3544
I2
tp3545
a(S'three-'
p3546
I2
tp3547
a(S'throught'
p3548
I2
tp3549
a(S'tight-knit'
p3550
I2
tp3551
a(S'time.he'
p3552
I2
tp3553
a(S'time.in'
p3554
I2
tp3555
a(S'title'
p3556
I2
tp3557
a(S'today)'
p3558
I2
tp3559
a(S'today.the'
p3560
I2
tp3561
a(S'together.the'
p3562
I2
tp3563
a(S'togethers'
p3564
I2
tp3565
a(S'ton'
p3566
I2
tp3567
a(S'tons'
p3568
I2
tp3569
a(S'too.in'
p3570
I2
tp3571
a(S'touch'
p3572
I2
tp3573
a(S'touching.the'
p3574
I2
tp3575
a(S'trade'
p3576
I2
tp3577
a(S'trails'
p3578
I2
tp3579
a(S'trait'
p3580
I2
tp3581
a(S'traits'
p3582
I2
tp3583
a(S'transitien'
p3584
I2
tp3585
a(S'trys'
p3586
I2
tp3587
a(S'turdison'
p3588
I2
tp3589
a(S'twinty'
p3590
I2
tp3591
a(S'un'
p3592
I2
tp3593
a(S'undying'
p3594
I2
tp3595
a(S'unhappy'
p3596
I2
tp3597
a(S'unite'
p3598
I2
tp3599
a(S'unselfish'
p3600
I2
tp3601
a(S'up.the'
p3602
I2
tp3603
a(S'usto'
p3604
I2
tp3605
a(S'valued'
p3606
I2
tp3607
a(S'variety'
p3608
I2
tp3609
a(S'verry'
p3610
I2
tp3611
a(S'vibe'
p3612
I2
tp3613
a(S'view'
p3614
I2
tp3615
a(S'vocabulary'
p3616
I2
tp3617
a(S'warm.the'
p3618
I2
tp3619
a(S'watch'
p3620
I2
tp3621
a(S'well-being'
p3622
I2
tp3623
a(S'well.in'
p3624
I2
tp3625
a(S'were.the'
p3626
I2
tp3627
a(S'wernt'
p3628
I2
tp3629
a(S'whan'
p3630
I2
tp3631
a(S'whe'
p3632
I2
tp3633
a(S'whenever'
p3634
I2
tp3635
a(S'whitch'
p3636
I2
tp3637
a(S'willingness'
p3638
I2
tp3639
a(S'wise'
p3640
I2
tp3641
a(S'wittingly'
p3642
I2
tp3643
a(S'wonder'
p3644
I2
tp3645
a(S'wood'
p3646
I2
tp3647
a(S'work.the'
p3648
I2
tp3649
a(S'world.the'
p3650
I2
tp3651
a(S'worth'
p3652
I2
tp3653
a(S'writting'
p3654
I2
tp3655
a(S"you'll"
p3656
I2
tp3657
a(S'you.in'
p3658
I2
tp3659
a(S'\'"family'
p3660
I1
tp3661
a(S"'@num1"
p3662
I1
tp3663
a(S"'and"
p3664
I1
tp3665
a(S"'countless"
p3666
I1
tp3667
a(S"'cuban"
p3668
I1
tp3669
a(S"'family"
p3670
I1
tp3671
a(S'\'family\'."there'
p3672
I1
tp3673
a(S"'family,'"
p3674
I1
tp3675
a(S"'family.'"
p3676
I1
tp3677
a(S"'hand"
p3678
I1
tp3679
a(S"'here"
p3680
I1
tp3681
a(S"'in"
p3682
I1
tp3683
a(S"'love"
p3684
I1
tp3685
a(S"'narciso"
p3686
I1
tp3687
a(S"'rich"
p3688
I1
tp3689
a(S"'warm'"
p3690
I1
tp3691
a(S'('
I1
tp3692
a(S'("surrogate'
p3693
I1
tp3694
a(S'(@caps2'
p3695
I1
tp3696
a(S'(@caps5'
p3697
I1
tp3698
a(S'(@num1'
p3699
I1
tp3700
a(S'(@num2'
p3701
I1
tp3702
a(S'(@num2).the'
p3703
I1
tp3704
a(S'(again)'
p3705
I1
tp3706
a(S'(and)'
p3707
I1
tp3708
a(S'(aunts'
p3709
I1
tp3710
a(S'(cuba'
p3711
I1
tp3712
a(S'(cuban'
p3713
I1
tp3714
a(S'(customs'
p3715
I1
tp3716
a(S'(even'
p3717
I1
tp3718
a(S'(family)'
p3719
I1
tp3720
a(S'(figuratively)'
p3721
I1
tp3722
a(S'(for'
p3723
I1
tp3724
a(S'(i'
p3725
I1
tp3726
a(S'(if'
p3727
I1
tp3728
a(S"(landlord's"
p3729
I1
tp3730
a(S"(narciso's)"
p3731
I1
tp3732
a(S'(narciso)'
p3733
I1
tp3734
a(S'(new'
p3735
I1
tp3736
a(S'(or'
p3737
I1
tp3738
a(S'(pg'
p3739
I1
tp3740
a(S'(ph'
p3741
I1
tp3742
a(S'(pretty'
p3743
I1
tp3744
a(S'(such'
p3745
I1
tp3746
a(S'(them)'
p3747
I1
tp3748
a(S'(they)'
p3749
I1
tp3750
a(S'(wich'
p3751
I1
tp3752
a(S'(\xb6@num1'
p3753
I1
tp3754
a(S'**'
p3755
I1
tp3756
a(S'***'
p3757
I1
tp3758
a(S'-knit'
p3759
I1
tp3760
a(S'[he]'
p3761
I1
tp3762
a(S'[her'
p3763
I1
tp3764
a(S'[him]'
p3765
I1
tp3766
a(S'[love]'
p3767
I1
tp3768
a(S'[narciso'
p3769
I1
tp3770
a(S'[narciso]'
p3771
I1
tp3772
a(S'[them]'
p3773
I1
tp3774
a(S'[they]'
p3775
I1
tp3776
a(S'abalt'
p3777
I1
tp3778
a(S'ability'
p3779
I1
tp3780
a(S'aborted'
p3781
I1
tp3782
a(S'abou'
p3783
I1
tp3784
a(S'aboult'
p3785
I1
tp3786
a(S'about;'
p3787
I1
tp3788
a(S'absolutely'
p3789
I1
tp3790
a(S'accepting.in'
p3791
I1
tp3792
a(S'accomplish.in'
p3793
I1
tp3794
a(S'according'
p3795
I1
tp3796
a(S'achieve'
p3797
I1
tp3798
a(S'acsepted'
p3799
I1
tp3800
a(S'acticulatly.this'
p3801
I1
tp3802
a(S'action'
p3803
I1
tp3804
a(S'action.he'
p3805
I1
tp3806
a(S'acts'
p3807
I1
tp3808
a(S'ad'
p3809
I1
tp3810
a(S'aditoal'
p3811
I1
tp3812
a(S'adjectives'
p3813
I1
tp3814
a(S'adjust'
p3815
I1
tp3816
a(S'adjustment'
p3817
I1
tp3818
a(S'admirable'
p3819
I1
tp3820
a(S'admirably'
p3821
I1
tp3822
a(S'admiration.there'
p3823
I1
tp3824
a(S'admiredness'
p3825
I1
tp3826
a(S'admits'
p3827
I1
tp3828
a(S'adoring'
p3829
I1
tp3830
a(S'adults'
p3831
I1
tp3832
a(S'advantages'
p3833
I1
tp3834
a(S'adventorous'
p3835
I1
tp3836
a(S'adversity'
p3837
I1
tp3838
a(S'affect'
p3839
I1
tp3840
a(S'affected'
p3841
I1
tp3842
a(S'affectionate'
p3843
I1
tp3844
a(S'afforded'
p3845
I1
tp3846
a(S'affording'
p3847
I1
tp3848
a(S'affraid'
p3849
I1
tp3850
a(S'aford'
p3851
I1
tp3852
a(S'again.according'
p3853
I1
tp3854
a(S"age'"
p3855
I1
tp3856
a(S'agian.a'
p3857
I1
tp3858
a(S'agin'
p3859
I1
tp3860
a(S'ago'
p3861
I1
tp3862
a(S'ahead'
p3863
I1
tp3864
a(S'aid'
p3865
I1
tp3866
a(S'aided'
p3867
I1
tp3868
a(S'aimed'
p3869
I1
tp3870
a(S'airy'
p3871
I1
tp3872
a(S'aknowledges'
p3873
I1
tp3874
a(S'alegra'
p3875
I1
tp3876
a(S'alegrai'
p3877
I1
tp3878
a(S'alegria-my'
p3879
I1
tp3880
a(S'alien'
p3881
I1
tp3882
a(S'alittle'
p3883
I1
tp3884
a(S'alive;'
p3885
I1
tp3886
a(S'all.a'
p3887
I1
tp3888
a(S'allots'
p3889
I1
tp3890
a(S'alo'
p3891
I1
tp3892
a(S'alond'
p3893
I1
tp3894
a(S'alowed'
p3895
I1
tp3896
a(S'alright'
p3897
I1
tp3898
a(S'als'
p3899
I1
tp3900
a(S'also,the'
p3901
I1
tp3902
a(S'also.narciso'
p3903
I1
tp3904
a(S'althroughout'
p3905
I1
tp3906
a(S'altogether'
p3907
I1
tp3908
a(S'alwase'
p3909
I1
tp3910
a(S"alway's"
p3911
I1
tp3912
a(S'amazingly'
p3913
I1
tp3914
a(S'amazment'
p3915
I1
tp3916
a(S'ambiance'
p3917
I1
tp3918
a(S'amemorie'
p3919
I1
tp3920
a(S'americain'
p3921
I1
tp3922
a(S'american'
p3923
I1
tp3924
a(S'amongst'
p3925
I1
tp3926
a(S'amusing'
p3927
I1
tp3928
a(S'andt'
p3929
I1
tp3930
a(S'angry'
p3931
I1
tp3932
a(S'another.the'
p3933
I1
tp3934
a(S'another;'
p3935
I1
tp3936
a(S'anythingin'
p3937
I1
tp3938
a(S'anyway'
p3939
I1
tp3940
a(S'anyways'
p3941
I1
tp3942
a(S'anywhat'
p3943
I1
tp3944
a(S'anywhere'
p3945
I1
tp3946
a(S'apart'
p3947
I1
tp3948
a(S'apart-ment'
p3949
I1
tp3950
a(S'apartement'
p3951
I1
tp3952
a(S'apatarme'
p3953
I1
tp3954
a(S'apparent'
p3955
I1
tp3956
a(S'apparpment'
p3957
I1
tp3958
a(S'appartment.joy'
p3959
I1
tp3960
a(S'appearance'
p3961
I1
tp3962
a(S'appeciation'
p3963
I1
tp3964
a(S'appeciative'
p3965
I1
tp3966
a(S'apperent'
p3967
I1
tp3968
a(S'appreciat'
p3969
I1
tp3970
a(S'appreciation.throughout'
p3971
I1
tp3972
a(S'appreciationinthe'
p3973
I1
tp3974
a(S'appreciationthe'
p3975
I1
tp3976
a(S'appreciative.the'
p3977
I1
tp3978
a(S'apprective.the'
p3979
I1
tp3980
a(S'appreiative'
p3981
I1
tp3982
a(S'appretaties'
p3983
I1
tp3984
a(S'appretation'
p3985
I1
tp3986
a(S'appretiation'
p3987
I1
tp3988
a(S'appriciate'
p3989
I1
tp3990
a(S'appriciates'
p3991
I1
tp3992
a(S'appricietes'
p3993
I1
tp3994
a(S'appricietive'
p3995
I1
tp3996
a(S'apreciate'
p3997
I1
tp3998
a(S'apreciates'
p3999
I1
tp4000
a(S'apreshiates'
p4001
I1
tp4002
a(S'apriciative'
p4003
I1
tp4004
a(S'aquaintances'
p4005
I1
tp4006
a(S'ar'
p4007
I1
tp4008
a(S'are."@caps2'
p4009
I1
tp4010
a(S'are.by'
p4011
I1
tp4012
a(S'are.in'
p4013
I1
tp4014
a(S'are.narciso'
p4015
I1
tp4016
a(S'areas'
p4017
I1
tp4018
a(S'arein'
p4019
I1
tp4020
a(S'arguments'
p4021
I1
tp4022
a(S'arival'
p4023
I1
tp4024
a(S'armonos'
p4025
I1
tp4026
a(S'arms.in'
p4027
I1
tp4028
a(S'aromatic'
p4029
I1
tp4030
a(S'around.the'
p4031
I1
tp4032
a(S'array'
p4033
I1
tp4034
a(S'arrives'
p4035
I1
tp4036
a(S'arriving'
p4037
I1
tp4038
a(S'art'
p4039
I1
tp4040
a(S'arthur'
p4041
I1
tp4042
a(S'article)'
p4043
I1
tp4044
a(S'arts'
p4045
I1
tp4046
a(S'asa'
p4047
I1
tp4048
a(S'aside'
p4049
I1
tp4050
a(S'assistance'
p4051
I1
tp4052
a(S'associate'
p4053
I1
tp4054
a(S'associated'
p4055
I1
tp4056
a(S'atheur'
p4057
I1
tp4058
a(S'athor'
p4059
I1
tp4060
a(S'attach'
p4061
I1
tp4062
a(S'attend'
p4063
I1
tp4064
a(S'attitudes'
p4065
I1
tp4066
a(S'aunt'
p4067
I1
tp4068
a(S'auother'
p4069
I1
tp4070
a(S'aurther'
p4071
I1
tp4072
a(S'aurthor'
p4073
I1
tp4074
a(S'authe'
p4075
I1
tp4076
a(S'autheor'
p4077
I1
tp4078
a(S"auther's"
p4079
I1
tp4080
a(S'autherin'
p4081
I1
tp4082
a(S'author.based'
p4083
I1
tp4084
a(S'author.first'
p4085
I1
tp4086
a(S'author.i'
p4087
I1
tp4088
a(S'author.in'
p4089
I1
tp4090
a(S'author.there'
p4091
I1
tp4092
a(S'author.this'
p4093
I1
tp4094
a(S'author.when'
p4095
I1
tp4096
a(S'author.within'
p4097
I1
tp4098
a(S'author?the'
p4099
I1
tp4100
a(S'authorin'
p4101
I1
tp4102
a(S'authro'
p4103
I1
tp4104
a(S'authur'
p4105
I1
tp4106
a(S'autobiography'
p4107
I1
tp4108
a(S'ave'
p4109
I1
tp4110
a(S'aware'
p4111
I1
tp4112
a(S'awsome'
p4113
I1
tp4114
a(S'b/c'
p4115
I1
tp4116
a(S'baby-sitter'
p4117
I1
tp4118
a(S'babysitting'
p4119
I1
tp4120
a(S'back.in'
p4121
I1
tp4122
a(S'backdropto'
p4123
I1
tp4124
a(S'backed'
p4125
I1
tp4126
a(S'backrounds'
p4127
I1
tp4128
a(S'backs'
p4129
I1
tp4130
a(S'bad.the'
p4131
I1
tp4132
a(S'badily'
p4133
I1
tp4134
a(S'badysitter'
p4135
I1
tp4136
a(S'baised'
p4137
I1
tp4138
a(S'barrier'
p4139
I1
tp4140
a(S'base'
p4141
I1
tp4142
a(S'bases'
p4143
I1
tp4144
a(S'basicaly'
p4145
I1
tp4146
a(S'basics'
p4147
I1
tp4148
a(S'bat'
p4149
I1
tp4150
a(S'be.the'
p4151
I1
tp4152
a(S'beacous'
p4153
I1
tp4154
a(S'bear'
p4155
I1
tp4156
a(S'beat'
p4157
I1
tp4158
a(S'beatiful'
p4159
I1
tp4160
a(S'beautifull'
p4161
I1
tp4162
a(S'becacme'
p4163
I1
tp4164
a(S'becacus'
p4165
I1
tp4166
a(S'becam'
p4167
I1
tp4168
a(S'becaus'
p4169
I1
tp4170
a(S'beccause'
p4171
I1
tp4172
a(S'becuase'
p4173
I1
tp4174
a(S'becuse'
p4175
I1
tp4176
a(S'bedrooms'
p4177
I1
tp4178
a(S'beep'
p4179
I1
tp4180
a(S'begins'
p4181
I1
tp4182
a(S'behind.the'
p4183
I1
tp4184
a(S'behing'
p4185
I1
tp4186
a(S'belief'
p4187
I1
tp4188
a(S'beliefs'
p4189
I1
tp4190
a(S'believes'
p4191
I1
tp4192
a(S'belonged'
p4193
I1
tp4194
a(S'belonging'
p4195
I1
tp4196
a(S'benefits'
p4197
I1
tp4198
a(S'benifit'
p4199
I1
tp4200
a(S'benith'
p4201
I1
tp4202
a(S'beond'
p4203
I1
tp4204
a(S'bet'
p4205
I1
tp4206
a(S'beter'
p4207
I1
tp4208
a(S'better.all'
p4209
I1
tp4210
a(S'better.i'
p4211
I1
tp4212
a(S'better.the'
p4213
I1
tp4214
a(S'betterness'
p4215
I1
tp4216
a(S'bilingual'
p4217
I1
tp4218
a(S'biography'
p4219
I1
tp4220
a(S'biological'
p4221
I1
tp4222
a(S'birthday.the'
p4223
I1
tp4224
a(S'bitter'
p4225
I1
tp4226
a(S'blab'
p4227
I1
tp4228
a(S'blend'
p4229
I1
tp4230
a(S'blended'
p4231
I1
tp4232
a(S'blessed'
p4233
I1
tp4234
a(S'blessing'
p4235
I1
tp4236
a(S'blithe'
p4237
I1
tp4238
a(S'bliuding'
p4239
I1
tp4240
a(S'blond-bricks'
p4241
I1
tp4242
a(S'blonde'
p4243
I1
tp4244
a(S'blood.in'
p4245
I1
tp4246
a(S'blown'
p4247
I1
tp4248
a(S'body'
p4249
I1
tp4250
a(S'bolth'
p4251
I1
tp4252
a(S'boosts'
p4253
I1
tp4254
a(S'bor'
p4255
I1
tp4256
a(S'boring)'
p4257
I1
tp4258
a(S'born.the'
p4259
I1
tp4260
a(S'bothe'
p4261
I1
tp4262
a(S'bottom'
p4263
I1
tp4264
a(S'bound'
p4265
I1
tp4266
a(S'bove'
p4267
I1
tp4268
a(S'boy.in'
p4269
I1
tp4270
a(S'boys'
p4271
I1
tp4272
a(S'brand'
p4273
I1
tp4274
a(S'brang'
p4275
I1
tp4276
a(S'bravely'
p4277
I1
tp4278
a(S'briefly'
p4279
I1
tp4280
a(S'brightened'
p4281
I1
tp4282
a(S'brilliant'
p4283
I1
tp4284
a(S'brinck'
p4285
I1
tp4286
a(S'broght'
p4287
I1
tp4288
a(S'brotherhood'
p4289
I1
tp4290
a(S'buckets'
p4291
I1
tp4292
a(S'built'
p4293
I1
tp4294
a(S'burn'
p4295
I1
tp4296
a(S'bus'
p4297
I1
tp4298
a(S'buts'
p4299
I1
tp4300
a(S'buy'
p4301
I1
tp4302
a(S'by.narciso'
p4303
I1
tp4304
a(S'cald'
p4305
I1
tp4306
a(S'calm.describe'
p4307
I1
tp4308
a(S'calming.the'
p4309
I1
tp4310
a(S'cam'
p4311
I1
tp4312
a(S'came...to'
p4313
I1
tp4314
a(S'cancelled'
p4315
I1
tp4316
a(S"caps1't"
p4317
I1
tp4318
a(S'caps1-@caps2'
p4319
I1
tp4320
a(S'caps1.in'
p4321
I1
tp4322
a(S'caps1.s'
p4323
I1
tp4324
a(S'caps1.when'
p4325
I1
tp4326
a(S"caps2't"
p4327
I1
tp4328
a(S'caps2.i'
p4329
I1
tp4330
a(S"caps4's"
p4331
I1
tp4332
a(S"caps5's"
p4333
I1
tp4334
a(S'caps8'
p4335
I1
tp4336
a(S'caps9'
p4337
I1
tp4338
a(S'captivate'
p4339
I1
tp4340
a(S'carange'
p4341
I1
tp4342
a(S'card'
p4343
I1
tp4344
a(S'careing.in'
p4345
I1
tp4346
a(S'careness.the'
p4347
I1
tp4348
a(S'caring.heartwarming'
p4349
I1
tp4350
a(S'caring.i'
p4351
I1
tp4352
a(S'caring;'
p4353
I1
tp4354
a(S'caringness'
p4355
I1
tp4356
a(S'carrears'
p4357
I1
tp4358
a(S'carreers'
p4359
I1
tp4360
a(S'carrer'
p4361
I1
tp4362
a(S'carring.the'
p4363
I1
tp4364
a(S'categories'
p4365
I1
tp4366
a(S'caught'
p4367
I1
tp4368
a(S'celibrations'
p4369
I1
tp4370
a(S'cenies'
p4371
I1
tp4372
a(S'central'
p4373
I1
tp4374
a(S'centuries.in'
p4375
I1
tp4376
a(S'certainly'
p4377
I1
tp4378
a(S'certian'
p4379
I1
tp4380
a(S'chair'
p4381
I1
tp4382
a(S'chances'
p4383
I1
tp4384
a(S'chane'
p4385
I1
tp4386
a(S'chapters'
p4387
I1
tp4388
a(S"character's"
p4389
I1
tp4390
a(S'characters'
p4391
I1
tp4392
a(S'charactor'
p4393
I1
tp4394
a(S'cheerful.in'
p4395
I1
tp4396
a(S'cheerfull'
p4397
I1
tp4398
a(S'cheery'
p4399
I1
tp4400
a(S'cherish'
p4401
I1
tp4402
a(S'cheriste'
p4403
I1
tp4404
a(S'chid'
p4405
I1
tp4406
a(S'child/son;'
p4407
I1
tp4408
a(S'childern'
p4409
I1
tp4410
a(S'childhood,he'
p4411
I1
tp4412
a(S'childhood.narciso'
p4413
I1
tp4414
a(S'childhood;'
p4415
I1
tp4416
a(S'children.the'
p4417
I1
tp4418
a(S'choices'
p4419
I1
tp4420
a(S'choose'
p4421
I1
tp4422
a(S'citation'
p4423
I1
tp4424
a(S'citizen'
p4425
I1
tp4426
a(S'city'
p4427
I1
tp4428
a(S'claim'
p4429
I1
tp4430
a(S'claiming'
p4431
I1
tp4432
a(S'clam'
p4433
I1
tp4434
a(S'class'
p4435
I1
tp4436
a(S'cleanest'
p4437
I1
tp4438
a(S'clear.i'
p4439
I1
tp4440
a(S'clearily'
p4441
I1
tp4442
a(S'close-'
p4443
I1
tp4444
a(S'close.in'
p4445
I1
tp4446
a(S'closed'
p4447
I1
tp4448
a(S'closely'
p4449
I1
tp4450
a(S'closely-knit'
p4451
I1
tp4452
a(S'closure.in'
p4453
I1
tp4454
a(S'clue'
p4455
I1
tp4456
a(S'clues'
p4457
I1
tp4458
a(S'coforting'
p4459
I1
tp4460
a(S'colclusion'
p4461
I1
tp4462
a(S'cold'
p4463
I1
tp4464
a(S'colorful'
p4465
I1
tp4466
a(S'coltur'
p4467
I1
tp4468
a(S'columns'
p4469
I1
tp4470
a(S'combining'
p4471
I1
tp4472
a(S'combonation'
p4473
I1
tp4474
a(S'come.the'
p4475
I1
tp4476
a(S'comers'
p4477
I1
tp4478
a(S'comfertable'
p4479
I1
tp4480
a(S'comfort.the'
p4481
I1
tp4482
a(S'comfortable.the'
p4483
I1
tp4484
a(S'comforted'
p4485
I1
tp4486
a(S'comforting.for'
p4487
I1
tp4488
a(S'comforting.narcis'
p4489
I1
tp4490
a(S'comforting?i'
p4491
I1
tp4492
a(S'comfortting'
p4493
I1
tp4494
a(S'comftorble'
p4495
I1
tp4496
a(S'comments'
p4497
I1
tp4498
a(S'commitment'
p4499
I1
tp4500
a(S'communal'
p4501
I1
tp4502
a(S'communicate'
p4503
I1
tp4504
a(S'communitie'
p4505
I1
tp4506
a(S'community"shows'
p4507
I1
tp4508
a(S"community's"
p4509
I1
tp4510
a(S'community.rodriguez'
p4511
I1
tp4512
a(S'community.those'
p4513
I1
tp4514
a(S'companyi'
p4515
I1
tp4516
a(S'compare'
p4517
I1
tp4518
a(S'comparing'
p4519
I1
tp4520
a(S'compelling'
p4521
I1
tp4522
a(S'comperashin'
p4523
I1
tp4524
a(S'complements'
p4525
I1
tp4526
a(S'completely'
p4527
I1
tp4528
a(S'completes'
p4529
I1
tp4530
a(S'composed'
p4531
I1
tp4532
a(S'composition'
p4533
I1
tp4534
a(S'comsortabur'
p4535
I1
tp4536
a(S'comterable'
p4537
I1
tp4538
a(S'comunnity'
p4539
I1
tp4540
a(S'concepts'
p4541
I1
tp4542
a(S'concider'
p4543
I1
tp4544
a(S'conciderd'
p4545
I1
tp4546
a(S'conclution'
p4547
I1
tp4548
a(S'cone'
p4549
I1
tp4550
a(S'confidence'
p4551
I1
tp4552
a(S'confortable'
p4553
I1
tp4554
a(S'connections'
p4555
I1
tp4556
a(S'connenity'
p4557
I1
tp4558
a(S'consequently'
p4559
I1
tp4560
a(S'considerd'
p4561
I1
tp4562
a(S'considering'
p4563
I1
tp4564
a(S'considers'
p4565
I1
tp4566
a(S'consistent'
p4567
I1
tp4568
a(S'consteintly'
p4569
I1
tp4570
a(S'constructs'
p4571
I1
tp4572
a(S'content'
p4573
I1
tp4574
a(S'content.community'
p4575
I1
tp4576
a(S'continuosly'
p4577
I1
tp4578
a(S'contradicting'
p4579
I1
tp4580
a(S'contradictory'
p4581
I1
tp4582
a(S'contrast'
p4583
I1
tp4584
a(S'contrey'
p4585
I1
tp4586
a(S'contry'
p4587
I1
tp4588
a(S'conversation'
p4589
I1
tp4590
a(S'cook)'
p4591
I1
tp4592
a(S'cook.in'
p4593
I1
tp4594
a(S'cooking)'
p4595
I1
tp4596
a(S'cooking.another'
p4597
I1
tp4598
a(S'cooking.in'
p4599
I1
tp4600
a(S'cookings'
p4601
I1
tp4602
a(S'corage'
p4603
I1
tp4604
a(S'costantly'
p4605
I1
tp4606
a(S'couage'
p4607
I1
tp4608
a(S'could.the'
p4609
I1
tp4610
a(S'couldn'
p4611
I1
tp4612
a(S'couldne'
p4613
I1
tp4614
a(S'couldnt'
p4615
I1
tp4616
a(S'count'
p4617
I1
tp4618
a(S'countrary'
p4619
I1
tp4620
a(S'countrie'
p4621
I1
tp4622
a(S"country's"
p4623
I1
tp4624
a(S'country.another'
p4625
I1
tp4626
a(S'country.in'
p4627
I1
tp4628
a(S'countrys'
p4629
I1
tp4630
a(S'countrythe'
p4631
I1
tp4632
a(S'county'
p4633
I1
tp4634
a(S'courag'
p4635
I1
tp4636
a(S'courage.clearly'
p4637
I1
tp4638
a(S'courage.in'
p4639
I1
tp4640
a(S'courage.the'
p4641
I1
tp4642
a(S'courageousness'
p4643
I1
tp4644
a(S'covers'
p4645
I1
tp4646
a(S'cpme'
p4647
I1
tp4648
a(S'cracker'
p4649
I1
tp4650
a(S'crammed'
p4651
I1
tp4652
a(S'crazy'
p4653
I1
tp4654
a(S'created.the'
p4655
I1
tp4656
a(S'created.there'
p4657
I1
tp4658
a(S'createpeace.the'
p4659
I1
tp4660
a(S'creation'
p4661
I1
tp4662
a(S'creations'
p4663
I1
tp4664
a(S'creatively'
p4665
I1
tp4666
a(S'creeted'
p4667
I1
tp4668
a(S"crisis'"
p4669
I1
tp4670
a(S'crowded'
p4671
I1
tp4672
a(S'cuba."my'
p4673
I1
tp4674
a(S'cuba.during'
p4675
I1
tp4676
a(S'cuba.i'
p4677
I1
tp4678
a(S'cuba.in'
p4679
I1
tp4680
a(S'cuba.the'
p4681
I1
tp4682
a(S'cubain'
p4683
I1
tp4684
a(S'cuban-music'
p4685
I1
tp4686
a(S'cuban-style'
p4687
I1
tp4688
a(S'cuban.in'
p4689
I1
tp4690
a(S'cubana'
p4691
I1
tp4692
a(S'cubian'
p4693
I1
tp4694
a(S'cubin'
p4695
I1
tp4696
a(S'culenary'
p4697
I1
tp4698
a(S'culinar'
p4699
I1
tp4700
a(S'culinory'
p4701
I1
tp4702
a(S'culitur'
p4703
I1
tp4704
a(S'culonary'
p4705
I1
tp4706
a(S'culturally'
p4707
I1
tp4708
a(S"culture's)"
p4709
I1
tp4710
a(S'culture.first'
p4711
I1
tp4712
a(S'culture.narciso'
p4713
I1
tp4714
a(S'culture/ethnicity'
p4715
I1
tp4716
a(S'curage'
p4717
I1
tp4718
a(S'current'
p4719
I1
tp4720
a(S'custom'
p4721
I1
tp4722
a(S'custums'
p4723
I1
tp4724
a(S'cuts'
p4725
I1
tp4726
a(S'cuture'
p4727
I1
tp4728
a(S'd'
I1
tp4729
a(S'dance'
p4730
I1
tp4731
a(S'dangers'
p4732
I1
tp4733
a(S'dark'
p4734
I1
tp4735
a(S'daughter)'
p4736
I1
tp4737
a(S'daughter.in'
p4738
I1
tp4739
a(S'daughter;'
p4740
I1
tp4741
a(S'day."in'
p4742
I1
tp4743
a(S'day.)"in'
p4744
I1
tp4745
a(S'dealt'
p4746
I1
tp4747
a(S'dear'
p4748
I1
tp4749
a(S'deatils'
p4750
I1
tp4751
a(S'debt'
p4752
I1
tp4753
a(S'decent'
p4754
I1
tp4755
a(S'decided'
p4756
I1
tp4757
a(S'decisded'
p4758
I1
tp4759
a(S'decision'
p4760
I1
tp4761
a(S'decision.i'
p4762
I1
tp4763
a(S'declared'
p4764
I1
tp4765
a(S'declares'
p4766
I1
tp4767
a(S'declorations'
p4768
I1
tp4769
a(S'decorating'
p4770
I1
tp4771
a(S'decorations'
p4772
I1
tp4773
a(S'decorte'
p4774
I1
tp4775
a(S'decribed'
p4776
I1
tp4777
a(S'decribing'
p4778
I1
tp4779
a(S'decribles'
p4780
I1
tp4781
a(S'dedicated'
p4782
I1
tp4783
a(S'dedicating'
p4784
I1
tp4785
a(S'deeds'
p4786
I1
tp4787
a(S'deeper'
p4788
I1
tp4789
a(S'deffinatly'
p4790
I1
tp4791
a(S'deffinetly'
p4792
I1
tp4793
a(S'deffinition'
p4794
I1
tp4795
a(S'deffinitty'
p4796
I1
tp4797
a(S'defiantly'
p4798
I1
tp4799
a(S'definatley'
p4800
I1
tp4801
a(S'definiatley'
p4802
I1
tp4803
a(S'defining'
p4804
I1
tp4805
a(S'defition'
p4806
I1
tp4807
a(S'defonition'
p4808
I1
tp4809
a(S'deisicon'
p4810
I1
tp4811
a(S'deminstrates'
p4812
I1
tp4813
a(S'deminstration'
p4814
I1
tp4815
a(S'demostraigted'
p4816
I1
tp4817
a(S'depending'
p4818
I1
tp4819
a(S'depessing'
p4820
I1
tp4821
a(S'depicted'
p4822
I1
tp4823
a(S'depicted.the'
p4824
I1
tp4825
a(S'depresing'
p4826
I1
tp4827
a(S'depression'
p4828
I1
tp4829
a(S'descent'
p4830
I1
tp4831
a(S'descent)'
p4832
I1
tp4833
a(S'descr'
p4834
I1
tp4835
a(S'descrbes'
p4836
I1
tp4837
a(S'describ'
p4838
I1
tp4839
a(S'describingwhat'
p4840
I1
tp4841
a(S'describs'
p4842
I1
tp4843
a(S'describtion'
p4844
I1
tp4845
a(S'descripes'
p4846
I1
tp4847
a(S'descriptively'
p4848
I1
tp4849
a(S'descriptron'
p4850
I1
tp4851
a(S'deserves'
p4852
I1
tp4853
a(S'designers'
p4854
I1
tp4855
a(S'desiner'
p4856
I1
tp4857
a(S'desitions'
p4858
I1
tp4859
a(S'destpite'
p4860
I1
tp4861
a(S'desurved'
p4862
I1
tp4863
a(S'determine'
p4864
I1
tp4865
a(S'developed'
p4866
I1
tp4867
a(S'devoted'
p4868
I1
tp4869
a(S'devotes'
p4870
I1
tp4871
a(S'diction'
p4872
I1
tp4873
a(S'did.in'
p4874
I1
tp4875
a(S'difcultys'
p4876
I1
tp4877
a(S'differen'
p4878
I1
tp4879
a(S'difference'
p4880
I1
tp4881
a(S'difference.i'
p4882
I1
tp4883
a(S'diffienetions'
p4884
I1
tp4885
a(S'difiniton'
p4886
I1
tp4887
a(S'dig'
p4888
I1
tp4889
a(S'dine'
p4890
I1
tp4891
a(S'dinning'
p4892
I1
tp4893
a(S'discover'
p4894
I1
tp4895
a(S'discrimination'
p4896
I1
tp4897
a(S'discussed'
p4898
I1
tp4899
a(S'dishes'
p4900
I1
tp4901
a(S'disliked'
p4902
I1
tp4903
a(S'dispite'
p4904
I1
tp4905
a(S'disspite'
p4906
I1
tp4907
a(S'distant'
p4908
I1
tp4909
a(S'distills'
p4910
I1
tp4911
a(S'docoments'
p4912
I1
tp4913
a(S'documents'
p4914
I1
tp4915
a(S'does!'
p4916
I1
tp4917
a(S'doings'
p4918
I1
tp4919
a(S'done".the'
p4920
I1
tp4921
a(S'done."the'
p4922
I1
tp4923
a(S'done..."p'
p4924
I1
tp4925
a(S'done.as'
p4926
I1
tp4927
a(S'dores'
p4928
I1
tp4929
a(S'dosent'
p4930
I1
tp4931
a(S'drama'
p4932
I1
tp4933
a(S'dreams'
p4934
I1
tp4935
a(S'drifted'
p4936
I1
tp4937
a(S'drifts'
p4938
I1
tp4939
a(S'dropped'
p4940
I1
tp4941
a(S'duration'
p4942
I1
tp4943
a(S'durring'
p4944
I1
tp4945
a(S'durty'
p4946
I1
tp4947
a(S'dwell'
p4948
I1
tp4949
a(S'dwelling'
p4950
I1
tp4951
a(S'dying'
p4952
I1
tp4953
a(S'eachothers'
p4954
I1
tp4955
a(S'earn'
p4956
I1
tp4957
a(S'earth'
p4958
I1
tp4959
a(S'easiest'
p4960
I1
tp4961
a(S'easily'
p4962
I1
tp4963
a(S'eat.this'
p4964
I1
tp4965
a(S'eather'
p4966
I1
tp4967
a(S'eats'
p4968
I1
tp4969
a(S'eavery'
p4970
I1
tp4971
a(S'ecstatic'
p4972
I1
tp4973
a(S'edication'
p4974
I1
tp4975
a(S'educated'
p4976
I1
tp4977
a(S'education.the'
p4978
I1
tp4979
a(S'educational'
p4980
I1
tp4981
a(S'edwards'
p4982
I1
tp4983
a(S'effect'
p4984
I1
tp4985
a(S'effects'
p4986
I1
tp4987
a(S'effort'
p4988
I1
tp4989
a(S'elavtes'
p4990
I1
tp4991
a(S'elder'
p4992
I1
tp4993
a(S'elese'
p4994
I1
tp4995
a(S'els'
p4996
I1
tp4997
a(S'else)'
p4998
I1
tp4999
a(S'else.the'
p5000
I1
tp5001
a(S'embraced'
p5002
I1
tp5003
a(S'emigrated'
p5004
I1
tp5005
a(S'emotion.lastly'
p5006
I1
tp5007
a(S'emotionally'
p5008
I1
tp5009
a(S'emotionally.the'
p5010
I1
tp5011
a(S'emotions.in'
p5012
I1
tp5013
a(S'empathetacly'
p5014
I1
tp5015
a(S'emphisization'
p5016
I1
tp5017
a(S'emphisized'
p5018
I1
tp5019
a(S'empression'
p5020
I1
tp5021
a(S'empty'
p5022
I1
tp5023
a(S'endearing'
p5024
I1
tp5025
a(S'endeavor'
p5026
I1
tp5027
a(S'endurance'
p5028
I1
tp5029
a(S'energy'
p5030
I1
tp5031
a(S'engines'
p5032
I1
tp5033
a(S'engish'
p5034
I1
tp5035
a(S'english'
p5036
I1
tp5037
a(S'engulfs'
p5038
I1
tp5039
a(S'enholds'
p5040
I1
tp5041
a(S'enormouse'
p5042
I1
tp5043
a(S'enriched'
p5044
I1
tp5045
a(S'enstills'
p5046
I1
tp5047
a(S'entering'
p5048
I1
tp5049
a(S'enternally'
p5050
I1
tp5051
a(S'entertaining'
p5052
I1
tp5053
a(S'enviable'
p5054
I1
tp5055
a(S'envirnorment'
p5056
I1
tp5057
a(S'enviroments'
p5058
I1
tp5059
a(S'environ'
p5060
I1
tp5061
a(S'environment.the'
p5062
I1
tp5063
a(S'enviting'
p5064
I1
tp5065
a(S'envronment'
p5066
I1
tp5067
a(S'enything'
p5068
I1
tp5069
a(S'eprssed'
p5070
I1
tp5071
a(S'equals'
p5072
I1
tp5073
a(S'esksimtes'
p5074
I1
tp5075
a(S'essence'
p5076
I1
tp5077
a(S'essentially'
p5078
I1
tp5079
a(S'essentials'
p5080
I1
tp5081
a(S'establishes'
p5082
I1
tp5083
a(S'etc...).the'
p5084
I1
tp5085
a(S'eternal'
p5086
I1
tp5087
a(S'ethinic'
p5088
I1
tp5089
a(S'eventhough'
p5090
I1
tp5091
a(S'ever-willing'
p5092
I1
tp5093
a(S'everthing'
p5094
I1
tp5095
a(S'every-thing'
p5096
I1
tp5097
a(S"everyone's"
p5098
I1
tp5099
a(S'everything.the'
p5100
I1
tp5101
a(S'everywere'
p5102
I1
tp5103
a(S'evidents'
p5104
I1
tp5105
a(S'exact'
p5106
I1
tp5107
a(S'exaessed'
p5108
I1
tp5109
a(S'excellent'
p5110
I1
tp5111
a(S'excepert'
p5112
I1
tp5113
a(S'exceptance'
p5114
I1
tp5115
a(S'excerpt.in'
p5116
I1
tp5117
a(S'excilent'
p5118
I1
tp5119
a(S'excitedthe'
p5120
I1
tp5121
a(S'excitement/happiness'
p5122
I1
tp5123
a(S'excpetially'
p5124
I1
tp5125
a(S'excurpt'
p5126
I1
tp5127
a(S'execpted'
p5128
I1
tp5129
a(S'exemplified'
p5130
I1
tp5131
a(S'exentuntes'
p5132
I1
tp5133
a(S'exernally'
p5134
I1
tp5135
a(S'exerpts'
p5136
I1
tp5137
a(S'exists'
p5138
I1
tp5139
a(S'expecting'
p5140
I1
tp5141
a(S'expenence'
p5142
I1
tp5143
a(S'expense'
p5144
I1
tp5145
a(S'expensive'
p5146
I1
tp5147
a(S'experienced'
p5148
I1
tp5149
a(S'expierences'
p5150
I1
tp5151
a(S'explainable'
p5152
I1
tp5153
a(S'explane'
p5154
I1
tp5155
a(S'explaning'
p5156
I1
tp5157
a(S'explans'
p5158
I1
tp5159
a(S'explians'
p5160
I1
tp5161
a(S'explition'
p5162
I1
tp5163
a(S'explore'
p5164
I1
tp5165
a(S'expressed.there'
p5166
I1
tp5167
a(S'expression'
p5168
I1
tp5169
a(S'exsample'
p5170
I1
tp5171
a(S'exsepting'
p5172
I1
tp5173
a(S'exsited'
p5174
I1
tp5175
a(S'extaded'
p5176
I1
tp5177
a(S'extanded'
p5178
I1
tp5179
a(S'extending'
p5180
I1
tp5181
a(S'extened'
p5182
I1
tp5183
a(S'extent'
p5184
I1
tp5185
a(S'extent.the'
p5186
I1
tp5187
a(S'extreemly'
p5188
I1
tp5189
a(S'extremley'
p5190
I1
tp5191
a(S'extrordinary'
p5192
I1
tp5193
a(S"eye's"
p5194
I1
tp5195
a(S'faces'
p5196
I1
tp5197
a(S'factor'
p5198
I1
tp5199
a(S'factors'
p5200
I1
tp5201
a(S'facts'
p5202
I1
tp5203
a(S'faded'
p5204
I1
tp5205
a(S'fades'
p5206
I1
tp5207
a(S'fairly'
p5208
I1
tp5209
a(S'famalies.the'
p5210
I1
tp5211
a(S'famaliyin'
p5212
I1
tp5213
a(S'fame'
p5214
I1
tp5215
a(S'familiarizing'
p5216
I1
tp5217
a(S'familiy'
p5218
I1
tp5219
a(S'familly'
p5220
I1
tp5221
a(S'family!i'
p5222
I1
tp5223
a(S'family"and'
p5224
I1
tp5225
a(S'family-like'
p5226
I1
tp5227
a(S'family."@caps1'
p5228
I1
tp5229
a(S'family."in'
p5230
I1
tp5231
a(S'family."narciso'
p5232
I1
tp5233
a(S'family..."@caps1'
p5234
I1
tp5235
a(S'family.another'
p5236
I1
tp5237
a(S'family.based'
p5238
I1
tp5239
a(S'family.from'
p5240
I1
tp5241
a(S'family.i'
p5242
I1
tp5243
a(S'family.so'
p5244
I1
tp5245
a(S'family.there'
p5246
I1
tp5247
a(S'family.this'
p5248
I1
tp5249
a(S'familyes'
p5250
I1
tp5251
a(S'famley'
p5252
I1
tp5253
a(S'fancy'
p5254
I1
tp5255
a(S'fantastic'
p5256
I1
tp5257
a(S'fantastic.the'
p5258
I1
tp5259
a(S'fascinating'
p5260
I1
tp5261
a(S"father's"
p5262
I1
tp5263
a(S'favor'
p5264
I1
tp5265
a(S'favorite'
p5266
I1
tp5267
a(S'fear'
p5268
I1
tp5269
a(S'feasting'
p5270
I1
tp5271
a(S'feat'
p5272
I1
tp5273
a(S'fed'
p5274
I1
tp5275
a(S"feel's"
p5276
I1
tp5277
a(S'feel.the'
p5278
I1
tp5279
a(S'feeling.the'
p5280
I1
tp5281
a(S'feelings.in'
p5282
I1
tp5283
a(S'feet.based'
p5284
I1
tp5285
a(S'feet.the'
p5286
I1
tp5287
a(S'felling'
p5288
I1
tp5289
a(S'fells'
p5290
I1
tp5291
a(S'ferget'
p5292
I1
tp5293
a(S'fermiluar'
p5294
I1
tp5295
a(S'festivity'
p5296
I1
tp5297
a(S'festivitys'
p5298
I1
tp5299
a(S'fiction'
p5300
I1
tp5301
a(S'fight'
p5302
I1
tp5303
a(S'figure'
p5304
I1
tp5305
a(S'figured'
p5306
I1
tp5307
a(S'figuretive'
p5308
I1
tp5309
a(S'fille'
p5310
I1
tp5311
a(S'filted'
p5312
I1
tp5313
a(S'finanacially'
p5314
I1
tp5315
a(S'finecially'
p5316
I1
tp5317
a(S'finish'
p5318
I1
tp5319
a(S'finnaly'
p5320
I1
tp5321
a(S'fired'
p5322
I1
tp5323
a(S'first.the'
p5324
I1
tp5325
a(S'fixing'
p5326
I1
tp5327
a(S'flesh'
p5328
I1
tp5329
a(S'flowchart'
p5330
I1
tp5331
a(S'fluctuates'
p5332
I1
tp5333
a(S'fo'
p5334
I1
tp5335
a(S'focus'
p5336
I1
tp5337
a(S'focused'
p5338
I1
tp5339
a(S'follow'
p5340
I1
tp5341
a(S'followed'
p5342
I1
tp5343
a(S'follows'
p5344
I1
tp5345
a(S'food...)'
p5346
I1
tp5347
a(S'food.based'
p5348
I1
tp5349
a(S'food.in'
p5350
I1
tp5351
a(S'food.the'
p5352
I1
tp5353
a(S'foreget'
p5354
I1
tp5355
a(S'foreign'
p5356
I1
tp5357
a(S'forever.in'
p5358
I1
tp5359
a(S'foreverly'
p5360
I1
tp5361
a(S'forget.narciso'
p5362
I1
tp5363
a(S'forgeting'
p5364
I1
tp5365
a(S'forgetthe'
p5366
I1
tp5367
a(S'formal'
p5368
I1
tp5369
a(S'fortune'
p5370
I1
tp5371
a(S'foundation'
p5372
I1
tp5373
a(S'freedom'
p5374
I1
tp5375
a(S'freindly'
p5376
I1
tp5377
a(S'freindship'
p5378
I1
tp5379
a(S'frendship'
p5380
I1
tp5381
a(S'frequent'
p5382
I1
tp5383
a(S'fresh'
p5384
I1
tp5385
a(S'friend.narciso'
p5386
I1
tp5387
a(S'friendin'
p5388
I1
tp5389
a(S'friendlyness'
p5390
I1
tp5391
a(S'friends.secondly'
p5392
I1
tp5393
a(S'friends/family'
p5394
I1
tp5395
a(S'friends;'
p5396
I1
tp5397
a(S'friendship".from'
p5398
I1
tp5399
a(S'friendship".the'
p5400
I1
tp5401
a(S'friendship."@caps1'
p5402
I1
tp5403
a(S'friendship.in'
p5404
I1
tp5405
a(S'friendship.the'
p5406
I1
tp5407
a(S'friendships/relationships'
p5408
I1
tp5409
a(S'frienship'
p5410
I1
tp5411
a(S'from.in'
p5412
I1
tp5413
a(S'from.now'
p5414
I1
tp5415
a(S'from.the'
p5416
I1
tp5417
a(S'frowned'
p5418
I1
tp5419
a(S'fully'
p5420
I1
tp5421
a(S'fulthe'
p5422
I1
tp5423
a(S'fun.@person1'
p5424
I1
tp5425
a(S'fun.there'
p5426
I1
tp5427
a(S'fur'
p5428
I1
tp5429
a(S'furthers'
p5430
I1
tp5431
a(S'futue'
p5432
I1
tp5433
a(S'future.in'
p5434
I1
tp5435
a(S'future.the'
p5436
I1
tp5437
a(S'future?'
p5438
I1
tp5439
a(S'gat'
p5440
I1
tp5441
a(S'geat'
p5442
I1
tp5443
a(S'generated'
p5444
I1
tp5445
a(S'generous.the'
p5446
I1
tp5447
a(S'generously'
p5448
I1
tp5449
a(S'gentleness'
p5450
I1
tp5451
a(S'genuine'
p5452
I1
tp5453
a(S'get.not'
p5454
I1
tp5455
a(S'geting'
p5456
I1
tp5457
a(S'ghetto'
p5458
I1
tp5459
a(S'giant'
p5460
I1
tp5461
a(S"girl's"
p5462
I1
tp5463
a(S'giveing'
p5464
I1
tp5465
a(S'givin'
p5466
I1
tp5467
a(S'glade'
p5468
I1
tp5469
a(S'glorious'
p5470
I1
tp5471
a(S'glory'
p5472
I1
tp5473
a(S'goals'
p5474
I1
tp5475
a(S'goes.in'
p5476
I1
tp5477
a(S'gold'
p5478
I1
tp5479
a(S'good.based'
p5480
I1
tp5481
a(S'goodness'
p5482
I1
tp5483
a(S'goods'
p5484
I1
tp5485
a(S'goodwell'
p5486
I1
tp5487
a(S'gotthe'
p5488
I1
tp5489
a(S'gotting'
p5490
I1
tp5491
a(S'goverment'
p5492
I1
tp5493
a(S'graciously'
p5494
I1
tp5495
a(S'graditutity'
p5496
I1
tp5497
a(S'grand-child'
p5498
I1
tp5499
a(S"grandparent's"
p5500
I1
tp5501
a(S'grandparents")'
p5502
I1
tp5503
a(S'granparents'
p5504
I1
tp5505
a(S'graph'
p5506
I1
tp5507
a(S'grasping'
p5508
I1
tp5509
a(S'grat'
p5510
I1
tp5511
a(S'grataful'
p5512
I1
tp5513
a(S'gratefu'
p5514
I1
tp5515
a(S'gratefu)'
p5516
I1
tp5517
a(S'grateful","passionte'
p5518
I1
tp5519
a(S"grateful.'"
p5520
I1
tp5521
a(S'grateful.first'
p5522
I1
tp5523
a(S'grateful.narciso'
p5524
I1
tp5525
a(S'grateful.though'
p5526
I1
tp5527
a(S'grateful.throught'
p5528
I1
tp5529
a(S'gratefull.the'
p5530
I1
tp5531
a(S'gratefulness)'
p5532
I1
tp5533
a(S'gratefulness.the'
p5534
I1
tp5535
a(S'gratefulnesswhat'
p5536
I1
tp5537
a(S'gratefulthe'
p5538
I1
tp5539
a(S'gratefun'
p5540
I1
tp5541
a(S'gratetfulness'
p5542
I1
tp5543
a(S'gratfull'
p5544
I1
tp5545
a(S'gratfulness'
p5546
I1
tp5547
a(S'gratitude.in'
p5548
I1
tp5549
a(S'gratitude.time'
p5550
I1
tp5551
a(S'gratitudein'
p5552
I1
tp5553
a(S'grave'
p5554
I1
tp5555
a(S'great-full'
p5556
I1
tp5557
a(S'greateful'
p5558
I1
tp5559
a(S'greatest'
p5560
I1
tp5561
a(S'greatful.in'
p5562
I1
tp5563
a(S'greatfull)'
p5564
I1
tp5565
a(S'greatfulness.in'
p5566
I1
tp5567
a(S'greatly.in'
p5568
I1
tp5569
a(S'greatness'
p5570
I1
tp5571
a(S'green'
p5572
I1
tp5573
a(S'group'
p5574
I1
tp5575
a(S'grows'
p5576
I1
tp5577
a(S'guest'
p5578
I1
tp5579
a(S'guests'
p5580
I1
tp5581
a(S'guiding'
p5582
I1
tp5583
a(S'guilty'
p5584
I1
tp5585
a(S'guy'
p5586
I1
tp5587
a(S'habits'
p5588
I1
tp5589
a(S"hadn't"
p5590
I1
tp5591
a(S'halfway'
p5592
I1
tp5593
a(S'hand.the'
p5594
I1
tp5595
a(S'hands'
p5596
I1
tp5597
a(S'hanging'
p5598
I1
tp5599
a(S'hapines'
p5600
I1
tp5601
a(S'happend'
p5602
I1
tp5603
a(S'happening'
p5604
I1
tp5605
a(S'happieness.the'
p5606
I1
tp5607
a(S'happiest'
p5608
I1
tp5609
a(S'happines.there'
p5610
I1
tp5611
a(S'happiness.it'
p5612
I1
tp5613
a(S'happiness.when'
p5614
I1
tp5615
a(S'happinessin'
p5616
I1
tp5617
a(S'happinessthe'
p5618
I1
tp5619
a(S'happness'
p5620
I1
tp5621
a(S'happpness'
p5622
I1
tp5623
a(S'happy-'
p5624
I1
tp5625
a(S'happy.also'
p5626
I1
tp5627
a(S'happy?'
p5628
I1
tp5629
a(S'happyness.the'
p5630
I1
tp5631
a(S'hapy'
p5632
I1
tp5633
a(S'hard.in'
p5634
I1
tp5635
a(S'hard.the'
p5636
I1
tp5637
a(S'harder'
p5638
I1
tp5639
a(S'hardest'
p5640
I1
tp5641
a(S'hardship.the'
p5642
I1
tp5643
a(S'harmony'
p5644
I1
tp5645
a(S'hart'
p5646
I1
tp5647
a(S"hasn't"
p5648
I1
tp5649
a(S'hate/racism'
p5650
I1
tp5651
a(S'hated'
p5652
I1
tp5653
a(S'have.the'
p5654
I1
tp5655
a(S'havedone'
p5656
I1
tp5657
a(S'haveing'
p5658
I1
tp5659
a(S'haven'
p5660
I1
tp5661
a(S'haw'
p5662
I1
tp5663
a(S"he's/she"
p5664
I1
tp5665
a(S'he/@caps2'
p5666
I1
tp5667
a(S'heared'
p5668
I1
tp5669
a(S'hearing'
p5670
I1
tp5671
a(S'heart-'
p5672
I1
tp5673
a(S'heart-breaking'
p5674
I1
tp5675
a(S'heart-felt'
p5676
I1
tp5677
a(S'heart-warming.the'
p5678
I1
tp5679
a(S'heart...narciso'
p5680
I1
tp5681
a(S'heart.i'
p5682
I1
tp5683
a(S'heart.in'
p5684
I1
tp5685
a(S'heart.the'
p5686
I1
tp5687
a(S'heartache'
p5688
I1
tp5689
a(S'hearth'
p5690
I1
tp5691
a(S'heartwarming.one'
p5692
I1
tp5693
a(S'heavenly.narciso'
p5694
I1
tp5695
a(S'heavily'
p5696
I1
tp5697
a(S'heis'
p5698
I1
tp5699
a(S'held'
p5700
I1
tp5701
a(S'help.in'
p5702
I1
tp5703
a(S'helped.the'
p5704
I1
tp5705
a(S'helpedthe'
p5706
I1
tp5707
a(S'helpful'
p5708
I1
tp5709
a(S'hem'
p5710
I1
tp5711
a(S'hep'
p5712
I1
tp5713
a(S'heped'
p5714
I1
tp5715
a(S'heratigei'
p5716
I1
tp5717
a(S'here.the'
p5718
I1
tp5719
a(S'heroes'
p5720
I1
tp5721
a(S'heroic'
p5722
I1
tp5723
a(S'herritage'
p5724
I1
tp5725
a(S'herthe'
p5726
I1
tp5727
a(S'highest'
p5728
I1
tp5729
a(S'him."@caps1'
p5730
I1
tp5731
a(S'him.another'
p5732
I1
tp5733
a(S'him.based'
p5734
I1
tp5735
a(S'him.by'
p5736
I1
tp5737
a(S'him.first'
p5738
I1
tp5739
a(S'him.he'
p5740
I1
tp5741
a(S'him.next'
p5742
I1
tp5743
a(S"him.they'd"
p5744
I1
tp5745
a(S'him/her'
p5746
I1
tp5747
a(S'him;'
p5748
I1
tp5749
a(S'himi'
p5750
I1
tp5751
a(S'himin'
p5752
I1
tp5753
a(S'himself.the'
p5754
I1
tp5755
a(S'hint'
p5756
I1
tp5757
a(S'hintage'
p5758
I1
tp5759
a(S'hisparentsshowinghim'
p5760
I1
tp5761
a(S'hoas'
p5762
I1
tp5763
a(S'hole'
p5764
I1
tp5765
a(S'hom".the'
p5766
I1
tp5767
a(S'home!the'
p5768
I1
tp5769
a(S'home"the'
p5770
I1
tp5771
a(S"home's"
p5772
I1
tp5773
a(S'home-sent'
p5774
I1
tp5775
a(S'home."@caps2'
p5776
I1
tp5777
a(S'home."a'
p5778
I1
tp5779
a(S'home."with'
p5780
I1
tp5781
a(S"home.'"
p5782
I1
tp5783
a(S'home...the'
p5784
I1
tp5785
a(S'home.h'
p5786
I1
tp5787
a(S'home.secondly'
p5788
I1
tp5789
a(S'home.then'
p5790
I1
tp5791
a(S'home.this'
p5792
I1
tp5793
a(S'home;'
p5794
I1
tp5795
a(S'homei'
p5796
I1
tp5797
a(S'homeless'
p5798
I1
tp5799
a(S'homethere'
p5800
I1
tp5801
a(S'homey-heart'
p5802
I1
tp5803
a(S'hones'
p5804
I1
tp5805
a(S'honesty'
p5806
I1
tp5807
a(S'honor'
p5808
I1
tp5809
a(S'honorable'
p5810
I1
tp5811
a(S'hood.the'
p5812
I1
tp5813
a(S'hopeing'
p5814
I1
tp5815
a(S'horns'
p5816
I1
tp5817
a(S'hosted'
p5818
I1
tp5819
a(S'hot'
p5820
I1
tp5821
a(S'hotel'
p5822
I1
tp5823
a(S'house.narciso'
p5824
I1
tp5825
a(S'houseinto'
p5826
I1
tp5827
a(S'howe'
p5828
I1
tp5829
a(S'hs'
p5830
I1
tp5831
a(S'humbleness'
p5832
I1
tp5833
a(S'humility'
p5834
I1
tp5835
a(S'ibing'
p5836
I1
tp5837
a(S'ideal'
p5838
I1
tp5839
a(S'ideas'
p5840
I1
tp5841
a(S'ignored'
p5842
I1
tp5843
a(S'illistrate'
p5844
I1
tp5845
a(S'illustrates'
p5846
I1
tp5847
a(S'image/atmosphere'
p5848
I1
tp5849
a(S'imagined'
p5850
I1
tp5851
a(S'imagration'
p5852
I1
tp5853
a(S'imagrints'
p5854
I1
tp5855
a(S'imarant'
p5856
I1
tp5857
a(S'ime'
p5858
I1
tp5859
a(S'imegrents'
p5860
I1
tp5861
a(S'imformationi'
p5862
I1
tp5863
a(S'imigrant'
p5864
I1
tp5865
a(S'immagrate'
p5866
I1
tp5867
a(S'immagrating'
p5868
I1
tp5869
a(S'immagrints'
p5870
I1
tp5871
a(S'immediatly'
p5872
I1
tp5873
a(S'immeditly'
p5874
I1
tp5875
a(S'immensely'
p5876
I1
tp5877
a(S'immergrants'
p5878
I1
tp5879
a(S'immgrants'
p5880
I1
tp5881
a(S'immigrante'
p5882
I1
tp5883
a(S'immigrants."@caps1'
p5884
I1
tp5885
a(S"immigrants..'"
p5886
I1
tp5887
a(S'immigraters'
p5888
I1
tp5889
a(S'immigratethe'
p5890
I1
tp5891
a(S'immigrints'
p5892
I1
tp5893
a(S'impacted'
p5894
I1
tp5895
a(S'importand'
p5896
I1
tp5897
a(S'important.narciso'
p5898
I1
tp5899
a(S'importat'
p5900
I1
tp5901
a(S'imprint'
p5902
I1
tp5903
a(S'in-depth'
p5904
I1
tp5905
a(S'in.last'
p5906
I1
tp5907
a(S'include'
p5908
I1
tp5909
a(S'included.i'
p5910
I1
tp5911
a(S'incorporate'
p5912
I1
tp5913
a(S'indacates'
p5914
I1
tp5915
a(S'indicator'
p5916
I1
tp5917
a(S'infact'
p5918
I1
tp5919
a(S'influence'
p5920
I1
tp5921
a(S'influenced'
p5922
I1
tp5923
a(S'informative'
p5924
I1
tp5925
a(S'informing'
p5926
I1
tp5927
a(S'inherited'
p5928
I1
tp5929
a(S'inheriting'
p5930
I1
tp5931
a(S'innocense'
p5932
I1
tp5933
a(S'inocence'
p5934
I1
tp5935
a(S'inoff'
p5936
I1
tp5937
a(S'inportant'
p5938
I1
tp5939
a(S'inside.home'
p5940
I1
tp5941
a(S'inside.in'
p5942
I1
tp5943
a(S'inside.secondly'
p5944
I1
tp5945
a(S'inside.this'
p5946
I1
tp5947
a(S'insight'
p5948
I1
tp5949
a(S'insightful.the'
p5950
I1
tp5951
a(S'insinuates'
p5952
I1
tp5953
a(S'insperational'
p5954
I1
tp5955
a(S'inspires'
p5956
I1
tp5957
a(S'inspiried'
p5958
I1
tp5959
a(S'instability'
p5960
I1
tp5961
a(S'installed'
p5962
I1
tp5963
a(S'instilling'
p5964
I1
tp5965
a(S'intelligent'
p5966
I1
tp5967
a(S'interacted'
p5968
I1
tp5969
a(S'interesting.the'
p5970
I1
tp5971
a(S'interests'
p5972
I1
tp5973
a(S'international'
p5974
I1
tp5975
a(S'inthe'
p5976
I1
tp5977
a(S'introducing'
p5978
I1
tp5979
a(S'invite'
p5980
I1
tp5981
a(S'inviteing'
p5982
I1
tp5983
a(S'involvement'
p5984
I1
tp5985
a(S'iron'
p5986
I1
tp5987
a(S'is.his'
p5988
I1
tp5989
a(S'isalso'
p5990
I1
tp5991
a(S'ishthe'
p5992
I1
tp5993
a(S'isnt'
p5994
I1
tp5995
a(S'istelled'
p5996
I1
tp5997
a(S'istrying'
p5998
I1
tp5999
a(S'it.firstly'
p6000
I1
tp6001
a(S'it.i'
p6002
I1
tp6003
a(S'it.narciso'
p6004
I1
tp6005
a(S'itself.the'
p6006
I1
tp6007
a(S'ive'
p6008
I1
tp6009
a(S'jersey)'
p6010
I1
tp6011
a(S'jerseyin'
p6012
I1
tp6013
a(S'jersy'
p6014
I1
tp6015
a(S'job.the'
p6016
I1
tp6017
a(S'jobs.the'
p6018
I1
tp6019
a(S'join'
p6020
I1
tp6021
a(S'joine'
p6022
I1
tp6023
a(S'joy.the'
p6024
I1
tp6025
a(S'joyful.the'
p6026
I1
tp6027
a(S'joys'
p6028
I1
tp6029
a(S'judge'
p6030
I1
tp6031
a(S'jumping'
p6032
I1
tp6033
a(S'kenship'
p6034
I1
tp6035
a(S'key'
p6036
I1
tp6037
a(S"kid's"
p6038
I1
tp6039
a(S'kide'
p6040
I1
tp6041
a(S'kin'
p6042
I1
tp6043
a(S'kind.finally'
p6044
I1
tp6045
a(S'kind.the'
p6046
I1
tp6047
a(S'kit'
p6048
I1
tp6049
a(S'kitchen."@caps1'
p6050
I1
tp6051
a(S'kitchen."the'
p6052
I1
tp6053
a(S'kitchen.in'
p6054
I1
tp6055
a(S'kitchen;'
p6056
I1
tp6057
a(S'kitchens'
p6058
I1
tp6059
a(S'kitchens.they'
p6060
I1
tp6061
a(S'kitchin'
p6062
I1
tp6063
a(S'knd'
p6064
I1
tp6065
a(S'knife'
p6066
I1
tp6067
a(S'knoledge'
p6068
I1
tp6069
a(S'knowlage'
p6070
I1
tp6071
a(S'knowlege'
p6072
I1
tp6073
a(S'labortory'
p6074
I1
tp6075
a(S'labratory'
p6076
I1
tp6077
a(S'laden'
p6078
I1
tp6079
a(S'laid'
p6080
I1
tp6081
a(S'laidback'
p6082
I1
tp6083
a(S'lament'
p6084
I1
tp6085
a(S"landloard's"
p6086
I1
tp6087
a(S'language;'
p6088
I1
tp6089
a(S'lanunguage'
p6090
I1
tp6091
a(S'larger'
p6092
I1
tp6093
a(S'lastely'
p6094
I1
tp6095
a(S'lasting'
p6096
I1
tp6097
a(S'lasts'
p6098
I1
tp6099
a(S'latin'
p6100
I1
tp6101
a(S'laungauge'
p6102
I1
tp6103
a(S'lave'
p6104
I1
tp6105
a(S'lazily'
p6106
I1
tp6107
a(S'leading'
p6108
I1
tp6109
a(S'leaes'
p6110
I1
tp6111
a(S'lean'
p6112
I1
tp6113
a(S'learnd'
p6114
I1
tp6115
a(S'leav'
p6116
I1
tp6117
a(S'led'
p6118
I1
tp6119
a(S'lef'
p6120
I1
tp6121
a(S'left.the'
p6122
I1
tp6123
a(S'lend'
p6124
I1
tp6125
a(S'lesser'
p6126
I1
tp6127
a(S'lessly'
p6128
I1
tp6129
a(S'lessness'
p6130
I1
tp6131
a(S'lessons.the'
p6132
I1
tp6133
a(S'letter."i'
p6134
I1
tp6135
a(S'level'
p6136
I1
tp6137
a(S'life!'
p6138
I1
tp6139
a(S'life."they'
p6140
I1
tp6141
a(S'life.a)'
p6142
I1
tp6143
a(S'life.first'
p6144
I1
tp6145
a(S'life.he'
p6146
I1
tp6147
a(S'life.one'
p6148
I1
tp6149
a(S'life.this'
p6150
I1
tp6151
a(S'life.what'
p6152
I1
tp6153
a(S'life/home'
p6154
I1
tp6155
a(S'lifethe'
p6156
I1
tp6157
a(S'lifetime'
p6158
I1
tp6159
a(S'lifted'
p6160
I1
tp6161
a(S'lightens'
p6162
I1
tp6163
a(S'lighter'
p6164
I1
tp6165
a(S'lik'
p6166
I1
tp6167
a(S'like-especially'
p6168
I1
tp6169
a(S'like.also'
p6170
I1
tp6171
a(S'like.in'
p6172
I1
tp6173
a(S'like.the'
p6174
I1
tp6175
a(S'line(s)'
p6176
I1
tp6177
a(S'lingers'
p6178
I1
tp6179
a(S'list'
p6180
I1
tp6181
a(S'lists'
p6182
I1
tp6183
a(S'literal'
p6184
I1
tp6185
a(S'literature'
p6186
I1
tp6187
a(S'literature.the'
p6188
I1
tp6189
a(S"live's"
p6190
I1
tp6191
a(S'live.the'
p6192
I1
tp6193
a(S'liveing'
p6194
I1
tp6195
a(S'lives",narciso'
p6196
I1
tp6197
a(S'lives".the'
p6198
I1
tp6199
a(S'lives"in'
p6200
I1
tp6201
a(S'lives."the'
p6202
I1
tp6203
a(S'lives.i'
p6204
I1
tp6205
a(S'lives.in'
p6206
I1
tp6207
a(S'lives/visits'
p6208
I1
tp6209
a(S'living)'
p6210
I1
tp6211
a(S'local'
p6212
I1
tp6213
a(S'location1.the'
p6214
I1
tp6215
a(S'location1in'
p6216
I1
tp6217
a(S"location2's"
p6218
I1
tp6219
a(S'location2.@caps3'
p6220
I1
tp6221
a(S'location4'
p6222
I1
tp6223
a(S'loses'
p6224
I1
tp6225
a(S'losing'
p6226
I1
tp6227
a(S'lovable'
p6228
I1
tp6229
a(S"love'"
p6230
I1
tp6231
a(S'love."@caps2'
p6232
I1
tp6233
a(S'love."in'
p6234
I1
tp6235
a(S'love."when'
p6236
I1
tp6237
a(S'love.@caps1'
p6238
I1
tp6239
a(S'love.i'
p6240
I1
tp6241
a(S'love.it'
p6242
I1
tp6243
a(S'love.memoirs'
p6244
I1
tp6245
a(S'love?'
p6246
I1
tp6247
a(S'loved."based'
p6248
I1
tp6249
a(S'loved.in'
p6250
I1
tp6251
a(S'lovef'
p6252
I1
tp6253
a(S'lovely'
p6254
I1
tp6255
a(S'loving.throughout'
p6256
I1
tp6257
a(S'loving/'
p6258
I1
tp6259
a(S'loving/warmth'
p6260
I1
tp6261
a(S'lovingness'
p6262
I1
tp6263
a(S'low-paying'
p6264
I1
tp6265
a(S'luck'
p6266
I1
tp6267
a(S'mad'
p6268
I1
tp6269
a(S'madeup'
p6270
I1
tp6271
a(S'maintain'
p6272
I1
tp6273
a(S'majority'
p6274
I1
tp6275
a(S'majorly'
p6276
I1
tp6277
a(S"man's"
p6278
I1
tp6279
a(S'man.in'
p6280
I1
tp6281
a(S'man.the'
p6282
I1
tp6283
a(S'manage'
p6284
I1
tp6285
a(S'manner'
p6286
I1
tp6287
a(S'manners'
p6288
I1
tp6289
a(S'mansion'
p6290
I1
tp6291
a(S'many.in'
p6292
I1
tp6293
a(S'marks'
p6294
I1
tp6295
a(S'marvilous'
p6296
I1
tp6297
a(S'materialistic'
p6298
I1
tp6299
a(S'mattered'
p6300
I1
tp6301
a(S'me."the'
p6302
I1
tp6303
a(S'meals.the'
p6304
I1
tp6305
a(S'meaning.in'
p6306
I1
tp6307
a(S'means.the'
p6308
I1
tp6309
a(S'meant.for'
p6310
I1
tp6311
a(S'measure'
p6312
I1
tp6313
a(S'mebers'
p6314
I1
tp6315
a(S'meeting'
p6316
I1
tp6317
a(S'mellow'
p6318
I1
tp6319
a(S'melting'
p6320
I1
tp6321
a(S"member's"
p6322
I1
tp6323
a(S'members;'
p6324
I1
tp6325
a(S'memeries'
p6326
I1
tp6327
a(S"memior's"
p6328
I1
tp6329
a(S'memo'
p6330
I1
tp6331
a(S'memoin'
p6332
I1
tp6333
a(S'memoir!the'
p6334
I1
tp6335
a(S'memoir.finally'
p6336
I1
tp6337
a(S'memoir.his'
p6338
I1
tp6339
a(S'memoir.if'
p6340
I1
tp6341
a(S'memoir.living'
p6342
I1
tp6343
a(S'memoir.throughout'
p6344
I1
tp6345
a(S'memoir?'
p6346
I1
tp6347
a(S'memoire'
p6348
I1
tp6349
a(S'memor.there'
p6350
I1
tp6351
a(S'memorice'
p6352
I1
tp6353
a(S'memorie'
p6354
I1
tp6355
a(S'memories.home'
p6356
I1
tp6357
a(S'memories.one'
p6358
I1
tp6359
a(S'memories/skills.in'
p6360
I1
tp6361
a(S'memoris'
p6362
I1
tp6363
a(S'memorized'
p6364
I1
tp6365
a(S'memoroir'
p6366
I1
tp6367
a(S"memory's"
p6368
I1
tp6369
a(S'mentioen'
p6370
I1
tp6371
a(S'mention'
p6372
I1
tp6373
a(S'mere'
p6374
I1
tp6375
a(S'mermoir'
p6376
I1
tp6377
a(S'migrants'
p6378
I1
tp6379
a(S'migrated'
p6380
I1
tp6381
a(S'minded'
p6382
I1
tp6383
a(S'mine'
p6384
I1
tp6385
a(S'mingaling'
p6386
I1
tp6387
a(S'minority'
p6388
I1
tp6389
a(S'miss.in'
p6390
I1
tp6391
a(S'missed'
p6392
I1
tp6393
a(S'missis'
p6394
I1
tp6395
a(S'mix'
p6396
I1
tp6397
a(S'moddest'
p6398
I1
tp6399
a(S'modevation'
p6400
I1
tp6401
a(S"mom's"
p6402
I1
tp6403
a(S'moments.the'
p6404
I1
tp6405
a(S'momoirin'
p6406
I1
tp6407
a(S'mood(s)'
p6408
I1
tp6409
a(S'mood.according'
p6410
I1
tp6411
a(S'mood.i'
p6412
I1
tp6413
a(S'mood.it'
p6414
I1
tp6415
a(S'mood.there'
p6416
I1
tp6417
a(S'mood.when'
p6418
I1
tp6419
a(S'mood;'
p6420
I1
tp6421
a(S'mood?'
p6422
I1
tp6423
a(S'mood@caps4'
p6424
I1
tp6425
a(S'moodin'
p6426
I1
tp6427
a(S'moon'
p6428
I1
tp6429
a(S'morals'
p6430
I1
tp6431
a(S'more.narciso'
p6432
I1
tp6433
a(S'more.the'
p6434
I1
tp6435
a(S'most.in'
p6436
I1
tp6437
a(S"mother's"
p6438
I1
tp6439
a(S'moud'
p6440
I1
tp6441
a(S'mounth'
p6442
I1
tp6443
a(S"move's"
p6444
I1
tp6445
a(S'moveing'
p6446
I1
tp6447
a(S'movieing'
p6448
I1
tp6449
a(S'much)'
p6450
I1
tp6451
a(S'much.there'
p6452
I1
tp6453
a(S'music.a'
p6454
I1
tp6455
a(S'music.another'
p6456
I1
tp6457
a(S'music.secondly'
p6458
I1
tp6459
a(S'music.the'
p6460
I1
tp6461
a(S'music/always'
p6462
I1
tp6463
a(S'musical'
p6464
I1
tp6465
a(S"must've"
p6466
I1
tp6467
a(S'mutule'
p6468
I1
tp6469
a(S'mybe'
p6470
I1
tp6471
a(S'n'
I1
tp6472
a(S'n****'
p6473
I1
tp6474
a(S'naciso'
p6475
I1
tp6476
a(S'naighbor'
p6477
I1
tp6478
a(S'naivors'
p6479
I1
tp6480
a(S'narator'
p6481
I1
tp6482
a(S'nariso'
p6483
I1
tp6484
a(S'narrates'
p6485
I1
tp6486
a(S"narrator's"
p6487
I1
tp6488
a(S'nastest'
p6489
I1
tp6490
a(S'nasty'
p6491
I1
tp6492
a(S'naybors'
p6493
I1
tp6494
a(S"need'"
p6495
I1
tp6496
a(S'need.";'
p6497
I1
tp6498
a(S'need.rodriguez'
p6499
I1
tp6500
a(S'needes'
p6501
I1
tp6502
a(S'needs.narciso'
p6503
I1
tp6504
a(S'negatives'
p6505
I1
tp6506
a(S'neghborhood'
p6507
I1
tp6508
a(S'neiabor'
p6509
I1
tp6510
a(S'neibhors'
p6511
I1
tp6512
a(S'neiborgs'
p6513
I1
tp6514
a(S'neicboorhood'
p6515
I1
tp6516
a(S'neigerhood'
p6517
I1
tp6518
a(S'neigh'
p6519
I1
tp6520
a(S'neighberhood'
p6521
I1
tp6522
a(S'neighbor-hood'
p6523
I1
tp6524
a(S'neighborely'
p6525
I1
tp6526
a(S'neighborey'
p6527
I1
tp6528
a(S'neighborhood,...all'
p6529
I1
tp6530
a(S'neighborhood."in'
p6531
I1
tp6532
a(S'neighborhood;'
p6533
I1
tp6534
a(S'neighborhoods'
p6535
I1
tp6536
a(S'neighborly'
p6537
I1
tp6538
a(S'neighbors)'
p6539
I1
tp6540
a(S'neighbors.the'
p6541
I1
tp6542
a(S'nesecarily'
p6543
I1
tp6544
a(S'nessecarily'
p6545
I1
tp6546
a(S'nevere'
p6547
I1
tp6548
a(S'new.the'
p6549
I1
tp6550
a(S'newfound'
p6551
I1
tp6552
a(S'nex'
p6553
I1
tp6554
a(S'nicely'
p6555
I1
tp6556
a(S'nicely.what'
p6557
I1
tp6558
a(S'niceness'
p6559
I1
tp6560
a(S'nicer'
p6561
I1
tp6562
a(S'nicest'
p6563
I1
tp6564
a(S'nieborhood'
p6565
I1
tp6566
a(S'nieghborhood'
p6567
I1
tp6568
a(S'nieghorhood'
p6569
I1
tp6570
a(S'nienborhood'
p6571
I1
tp6572
a(S'night'
p6573
I1
tp6574
a(S'nomatter'
p6575
I1
tp6576
a(S'non-'
p6577
I1
tp6578
a(S'non--fiction'
p6579
I1
tp6580
a(S'non-fictional'
p6581
I1
tp6582
a(S'non-\x96'
p6583
I1
tp6584
a(S'nonetheless'
p6585
I1
tp6586
a(S'normalli'
p6587
I1
tp6588
a(S'notch'
p6589
I1
tp6590
a(S'nothing;'
p6591
I1
tp6592
a(S'notice'
p6593
I1
tp6594
a(S'noticed'
p6595
I1
tp6596
a(S'noting'
p6597
I1
tp6598
a(S'notthing'
p6599
I1
tp6600
a(S'nowin'
p6601
I1
tp6602
a(S'num2).the'
p6603
I1
tp6604
a(S'num2-'
p6605
I1
tp6606
a(S'num2-room'
p6607
I1
tp6608
a(S'num2-year-old'
p6609
I1
tp6610
a(S'num3-@num1)'
p6611
I1
tp6612
a(S'num3-year-old'
p6613
I1
tp6614
a(S'num3.)@caps1'
p6615
I1
tp6616
a(S'num3.narciso'
p6617
I1
tp6618
a(S'num3.the'
p6619
I1
tp6620
a(S'num4).narciso'
p6621
I1
tp6622
a(S'num4.when'
p6623
I1
tp6624
a(S'num5)'
p6625
I1
tp6626
a(S'num6)'
p6627
I1
tp6628
a(S'num6.the'
p6629
I1
tp6630
a(S'num7'
p6631
I1
tp6632
a(S'num9'
p6633
I1
tp6634
a(S'obiously'
p6635
I1
tp6636
a(S'observant'
p6637
I1
tp6638
a(S'obvesoly'
p6639
I1
tp6640
a(S'obvious'
p6641
I1
tp6642
a(S'occasionally'
p6643
I1
tp6644
a(S'occurring'
p6645
I1
tp6646
a(S'odds'
p6647
I1
tp6648
a(S'of.the'
p6649
I1
tp6650
a(S'often.clearly'
p6651
I1
tp6652
a(S'old.@caps3'
p6653
I1
tp6654
a(S'olso'
p6655
I1
tp6656
a(S'olwoys'
p6657
I1
tp6658
a(S'ond'
p6659
I1
tp6660
a(S'one.and'
p6661
I1
tp6662
a(S'one.the'
p6663
I1
tp6664
a(S'onein'
p6665
I1
tp6666
a(S'oneroom'
p6667
I1
tp6668
a(S'ones.the'
p6669
I1
tp6670
a(S'onethe'
p6671
I1
tp6672
a(S'onhappy'
p6673
I1
tp6674
a(S'op'
p6675
I1
tp6676
a(S'openess'
p6677
I1
tp6678
a(S'openly.thats'
p6679
I1
tp6680
a(S'opens'
p6681
I1
tp6682
a(S'opertunities'
p6683
I1
tp6684
a(S'opertunity'
p6685
I1
tp6686
a(S'opion'
p6687
I1
tp6688
a(S'oportinitys'
p6689
I1
tp6690
a(S'oportunits'
p6691
I1
tp6692
a(S'opportunitys'
p6693
I1
tp6694
a(S'opposite'
p6695
I1
tp6696
a(S'oppurtunitys'
p6697
I1
tp6698
a(S'optimism'
p6699
I1
tp6700
a(S'options'
p6701
I1
tp6702
a(S'optomistic'
p6703
I1
tp6704
a(S'oranges'
p6705
I1
tp6706
a(S'ordiary'
p6707
I1
tp6708
a(S'organization3'
p6709
I1
tp6710
a(S'oriented'
p6711
I1
tp6712
a(S'originaly'
p6713
I1
tp6714
a(S"other's"
p6715
I1
tp6716
a(S'other.in'
p6717
I1
tp6718
a(S"others'"
p6719
I1
tp6720
a(S"others.'the"
p6721
I1
tp6722
a(S'others.the'
p6723
I1
tp6724
a(S'othrs'
p6725
I1
tp6726
a(S'ounce'
p6727
I1
tp6728
a(S'out.in'
p6729
I1
tp6730
a(S'out.narciso'
p6731
I1
tp6732
a(S'out.next'
p6733
I1
tp6734
a(S'outgoing'
p6735
I1
tp6736
a(S'outlined'
p6737
I1
tp6738
a(S'outmost'
p6739
I1
tp6740
a(S'outright'
p6741
I1
tp6742
a(S'outside'
p6743
I1
tp6744
a(S'outstanding'
p6745
I1
tp6746
a(S'overal'
p6747
I1
tp6748
a(S'overcoming'
p6749
I1
tp6750
a(S'overdid'
p6751
I1
tp6752
a(S'ovor'
p6753
I1
tp6754
a(S'own.in'
p6755
I1
tp6756
a(S'pain'
p6757
I1
tp6758
a(S'painted'
p6759
I1
tp6760
a(S'pair'
p6761
I1
tp6762
a(S'paper'
p6763
I1
tp6764
a(S'paragraph(s)'
p6765
I1
tp6766
a(S'paragraphs.the'
p6767
I1
tp6768
a(S'paragraphy'
p6769
I1
tp6770
a(S'parent)'
p6771
I1
tp6772
a(S'parenthenthese'
p6773
I1
tp6774
a(S'parenthesis'
p6775
I1
tp6776
a(S'parents..."the'
p6777
I1
tp6778
a(S'parents.he'
p6779
I1
tp6780
a(S'parents.immagrants'
p6781
I1
tp6782
a(S'parents.they'
p6783
I1
tp6784
a(S'parents.this'
p6785
I1
tp6786
a(S'parents.while'
p6787
I1
tp6788
a(S'parents/family'
p6789
I1
tp6790
a(S'parents;'
p6791
I1
tp6792
a(S'parentsin'
p6793
I1
tp6794
a(S'parentsthroughout'
p6795
I1
tp6796
a(S'parets'
p6797
I1
tp6798
a(S'parints'
p6799
I1
tp6800
a(S'parnts'
p6801
I1
tp6802
a(S'partent'
p6803
I1
tp6804
a(S'partents'
p6805
I1
tp6806
a(S'particular'
p6807
I1
tp6808
a(S'particullarly'
p6809
I1
tp6810
a(S'pasion'
p6811
I1
tp6812
a(S'pass'
p6813
I1
tp6814
a(S'passag'
p6815
I1
tp6816
a(S'passage-being'
p6817
I1
tp6818
a(S'passage.the'
p6819
I1
tp6820
a(S'passages'
p6821
I1
tp6822
a(S'passionately'
p6823
I1
tp6824
a(S'passioniate'
p6825
I1
tp6826
a(S'patience'
p6827
I1
tp6828
a(S'patrays'
p6829
I1
tp6830
a(S'pats'
p6831
I1
tp6832
a(S'pave'
p6833
I1
tp6834
a(S'peaceful.the'
p6835
I1
tp6836
a(S'peacefulness'
p6837
I1
tp6838
a(S'pearsonal'
p6839
I1
tp6840
a(S'peirod'
p6841
I1
tp6842
a(S'peope'
p6843
I1
tp6844
a(S"people's"
p6845
I1
tp6846
a(S'people.overall'
p6847
I1
tp6848
a(S'people.these'
p6849
I1
tp6850
a(S'peoples'
p6851
I1
tp6852
a(S'peorson'
p6853
I1
tp6854
a(S'perceive'
p6855
I1
tp6856
a(S'perceived'
p6857
I1
tp6858
a(S'perenthesis'
p6859
I1
tp6860
a(S'perfect.the'
p6861
I1
tp6862
a(S'perfection'
p6863
I1
tp6864
a(S'perhaps'
p6865
I1
tp6866
a(S'perks'
p6867
I1
tp6868
a(S'permanently'
p6869
I1
tp6870
a(S'permission'
p6871
I1
tp6872
a(S'perseference'
p6873
I1
tp6874
a(S'perseverance,in'
p6875
I1
tp6876
a(S'perseverance."the'
p6877
I1
tp6878
a(S'perseverance.narciso'
p6879
I1
tp6880
a(S'persevere'
p6881
I1
tp6882
a(S'persevered'
p6883
I1
tp6884
a(S'perseverence."in'
p6885
I1
tp6886
a(S"person's"
p6887
I1
tp6888
a(S'person.in'
p6889
I1
tp6890
a(S'person.narciso'
p6891
I1
tp6892
a(S"person1'"
p6893
I1
tp6894
a(S'person1.in'
p6895
I1
tp6896
a(S'person1.the'
p6897
I1
tp6898
a(S'person2,had'
p6899
I1
tp6900
a(S'person;'
p6901
I1
tp6902
a(S'personalities'
p6903
I1
tp6904
a(S'personality'
p6905
I1
tp6906
a(S'personaly'
p6907
I1
tp6908
a(S'pick'
p6909
I1
tp6910
a(S'picture.in'
p6911
I1
tp6912
a(S'piecefull'
p6913
I1
tp6914
a(S'pieces'
p6915
I1
tp6916
a(S'piles'
p6917
I1
tp6918
a(S'pity'
p6919
I1
tp6920
a(S'plained'
p6921
I1
tp6922
a(S'plaing'
p6923
I1
tp6924
a(S'plane'
p6925
I1
tp6926
a(S'plans'
p6927
I1
tp6928
a(S'play'
p6929
I1
tp6930
a(S'playful'
p6931
I1
tp6932
a(S'pleace'
p6933
I1
tp6934
a(S'pleasantly'
p6935
I1
tp6936
a(S'pleasent'
p6937
I1
tp6938
a(S'plenty'
p6939
I1
tp6940
a(S'poeple'
p6941
I1
tp6942
a(S'pointed'
p6943
I1
tp6944
a(S'pointing'
p6945
I1
tp6946
a(S'polite'
p6947
I1
tp6948
a(S'ponders'
p6949
I1
tp6950
a(S'pops'
p6951
I1
tp6952
a(S'portait'
p6953
I1
tp6954
a(S'portra'
p6955
I1
tp6956
a(S'portreyed'
p6957
I1
tp6958
a(S'posative'
p6959
I1
tp6960
a(S'positiely'
p6961
I1
tp6962
a(S'position'
p6963
I1
tp6964
a(S'positively'
p6965
I1
tp6966
a(S'positiveness'
p6967
I1
tp6968
a(S'positives'
p6969
I1
tp6970
a(S'positivities'
p6971
I1
tp6972
a(S'possiably'
p6973
I1
tp6974
a(S'possibilities'
p6975
I1
tp6976
a(S'possibly'
p6977
I1
tp6978
a(S'pot'
p6979
I1
tp6980
a(S'potential'
p6981
I1
tp6982
a(S'potrays'
p6983
I1
tp6984
a(S'pouring'
p6985
I1
tp6986
a(S'power'
p6987
I1
tp6988
a(S'practice'
p6989
I1
tp6990
a(S'practices'
p6991
I1
tp6992
a(S'praising'
p6993
I1
tp6994
a(S'precious'
p6995
I1
tp6996
a(S'prepared'
p6997
I1
tp6998
a(S'presence'
p6999
I1
tp7000
a(S'presence.furthermore'
p7001
I1
tp7002
a(S'presented'
p7003
I1
tp7004
a(S'preseverance'
p7005
I1
tp7006
a(S'pressed'
p7007
I1
tp7008
a(S'presses'
p7009
I1
tp7010
a(S'prevalent'
p7011
I1
tp7012
a(S'previous'
p7013
I1
tp7014
a(S'previously'
p7015
I1
tp7016
a(S'pride/love'
p7017
I1
tp7018
a(S'prideful'
p7019
I1
tp7020
a(S'print'
p7021
I1
tp7022
a(S'prior'
p7023
I1
tp7024
a(S'probaly'
p7025
I1
tp7026
a(S'problems.in'
p7027
I1
tp7028
a(S'procure'
p7029
I1
tp7030
a(S'prode'
p7031
I1
tp7032
a(S'profusion'
p7033
I1
tp7034
a(S'projected'
p7035
I1
tp7036
a(S'projects'
p7037
I1
tp7038
a(S'prominant'
p7039
I1
tp7040
a(S'prominantally'
p7041
I1
tp7042
a(S'promoting'
p7043
I1
tp7044
a(S'prospective'
p7045
I1
tp7046
a(S'prospective)'
p7047
I1
tp7048
a(S'prosper'
p7049
I1
tp7050
a(S'protrayed'
p7051
I1
tp7052
a(S'proudenest'
p7053
I1
tp7054
a(S'proudly;'
p7055
I1
tp7056
a(S'proudness'
p7057
I1
tp7058
a(S'prouud'
p7059
I1
tp7060
a(S'provideing'
p7061
I1
tp7062
a(S'provides'
p7063
I1
tp7064
a(S'providing'
p7065
I1
tp7066
a(S'providvedes'
p7067
I1
tp7068
a(S'provoked'
p7069
I1
tp7070
a(S'prowed'
p7071
I1
tp7072
a(S'puerto'
p7073
I1
tp7074
a(S'pull'
p7075
I1
tp7076
a(S'purely'
p7077
I1
tp7078
a(S'purfect'
p7079
I1
tp7080
a(S'pursuit'
p7081
I1
tp7082
a(S'push'
p7083
I1
tp7084
a(S'pushed'
p7085
I1
tp7086
a(S'puzzel'
p7087
I1
tp7088
a(S'quality'
p7089
I1
tp7090
a(S'quick'
p7091
I1
tp7092
a(S'quotation'
p7093
I1
tp7094
a(S'racism.the'
p7095
I1
tp7096
a(S'racism.when'
p7097
I1
tp7098
a(S'radical'
p7099
I1
tp7100
a(S'raises'
p7101
I1
tp7102
a(S'raising'
p7103
I1
tp7104
a(S'ran'
p7105
I1
tp7106
a(S'rather'
p7107
I1
tp7108
a(S're-calls'
p7109
I1
tp7110
a(S're-create'
p7111
I1
tp7112
a(S're-created'
p7113
I1
tp7114
a(S're-memmorates'
p7115
I1
tp7116
a(S'reach'
p7117
I1
tp7118
a(S'reaches'
p7119
I1
tp7120
a(S'reaching'
p7121
I1
tp7122
a(S'react'
p7123
I1
tp7124
a(S'readers.the'
p7125
I1
tp7126
a(S'ready'
p7127
I1
tp7128
a(S'realative'
p7129
I1
tp7130
a(S'realetive'
p7131
I1
tp7132
a(S'realistic'
p7133
I1
tp7134
a(S'realitive'
p7135
I1
tp7136
a(S'realitives'
p7137
I1
tp7138
a(S'realizing'
p7139
I1
tp7140
a(S'realy'
p7141
I1
tp7142
a(S'reas'
p7143
I1
tp7144
a(S'recals'
p7145
I1
tp7146
a(S'reccolection'
p7147
I1
tp7148
a(S'received'
p7149
I1
tp7150
a(S'recipes'
p7151
I1
tp7152
a(S'recognize'
p7153
I1
tp7154
a(S'recognizes'
p7155
I1
tp7156
a(S'recollecting'
p7157
I1
tp7158
a(S'reconized'
p7159
I1
tp7160
a(S'reds'
p7161
I1
tp7162
a(S'reference'
p7163
I1
tp7164
a(S'referred'
p7165
I1
tp7166
a(S'reffers'
p7167
I1
tp7168
a(S'reflection'
p7169
I1
tp7170
a(S'reflective.the'
p7171
I1
tp7172
a(S'refrences'
p7173
I1
tp7174
a(S'refreshed'
p7175
I1
tp7176
a(S'refuges'
p7177
I1
tp7178
a(S'register'
p7179
I1
tp7180
a(S'regluar'
p7181
I1
tp7182
a(S'regulary'
p7183
I1
tp7184
a(S'reinforce'
p7185
I1
tp7186
a(S'reinforced'
p7187
I1
tp7188
a(S'relaited'
p7189
I1
tp7190
a(S'related)'
p7191
I1
tp7192
a(S'related.this'
p7193
I1
tp7194
a(S'relates'
p7195
I1
tp7196
a(S'relations;'
p7197
I1
tp7198
a(S'relationship.the'
p7199
I1
tp7200
a(S"relative'"
p7201
I1
tp7202
a(S'relative."this'
p7203
I1
tp7204
a(S"relative.'"
p7205
I1
tp7206
a(S'relatives."the'
p7207
I1
tp7208
a(S'relativethe'
p7209
I1
tp7210
a(S'relax'
p7211
I1
tp7212
a(S'relaxation'
p7213
I1
tp7214
a(S'relieve'
p7215
I1
tp7216
a(S'relieved'
p7217
I1
tp7218
a(S'religion'
p7219
I1
tp7220
a(S'relitives'
p7221
I1
tp7222
a(S'relive'
p7223
I1
tp7224
a(S'relize'
p7225
I1
tp7226
a(S'rellated'
p7227
I1
tp7228
a(S'rellized'
p7229
I1
tp7230
a(S'remains'
p7231
I1
tp7232
a(S'remains.for'
p7233
I1
tp7234
a(S'remarkable'
p7235
I1
tp7236
a(S'remarks'
p7237
I1
tp7238
a(S'remembered'
p7239
I1
tp7240
a(S'remembrance'
p7241
I1
tp7242
a(S'remenber'
p7243
I1
tp7244
a(S'remind'
p7245
I1
tp7246
a(S'reminded'
p7247
I1
tp7248
a(S'reminiscing'
p7249
I1
tp7250
a(S'reminising'
p7251
I1
tp7252
a(S'repeatedly."all'
p7253
I1
tp7254
a(S'repetedly'
p7255
I1
tp7256
a(S'repitition'
p7257
I1
tp7258
a(S'replica'
p7259
I1
tp7260
a(S'represented'
p7261
I1
tp7262
a(S'resepy'
p7263
I1
tp7264
a(S'residents'
p7265
I1
tp7266
a(S'resipies.in'
p7267
I1
tp7268
a(S'respectful.the'
p7269
I1
tp7270
a(S'respectfully'
p7271
I1
tp7272
a(S'responsable'
p7273
I1
tp7274
a(S'restate'
p7275
I1
tp7276
a(S'restating'
p7277
I1
tp7278
a(S'resterrant'
p7279
I1
tp7280
a(S'retrospective'
p7281
I1
tp7282
a(S'reveal'
p7283
I1
tp7284
a(S'revelant'
p7285
I1
tp7286
a(S'revisits'
p7287
I1
tp7288
a(S'revoles'
p7289
I1
tp7290
a(S'rezon'
p7291
I1
tp7292
a(S'richest'
p7293
I1
tp7294
a(S'riesed.i'
p7295
I1
tp7296
a(S'riminder'
p7297
I1
tp7298
a(S'risking'
p7299
I1
tp7300
a(S'road'
p7301
I1
tp7302
a(S'roar'
p7303
I1
tp7304
a(S'rodriguez".the'
p7305
I1
tp7306
a(S"rodriguez'"
p7307
I1
tp7308
a(S'rodriguez."the'
p7309
I1
tp7310
a(S'rodriguez]'
p7311
I1
tp7312
a(S'rooms'
p7313
I1
tp7314
a(S'rooms;'
p7315
I1
tp7316
a(S'root'
p7317
I1
tp7318
a(S'rose'
p7319
I1
tp7320
a(S'rough'
p7321
I1
tp7322
a(S'routines'
p7323
I1
tp7324
a(S'rub'
p7325
I1
tp7326
a(S'sacafised'
p7327
I1
tp7328
a(S'sacafrice'
p7329
I1
tp7330
a(S'sacarfice'
p7331
I1
tp7332
a(S'sacerfice'
p7333
I1
tp7334
a(S'sacrafice."@caps1'
p7335
I1
tp7336
a(S'sacraficing'
p7337
I1
tp7338
a(S'sacrefice'
p7339
I1
tp7340
a(S'sacrifaced'
p7341
I1
tp7342
a(S'sacrific'
p7343
I1
tp7344
a(S'sacrifice".in'
p7345
I1
tp7346
a(S'sacrifice".the'
p7347
I1
tp7348
a(S'sacrifice";'
p7349
I1
tp7350
a(S'sacrifice."(paragraph'
p7351
I1
tp7352
a(S'sacrifice."in'
p7353
I1
tp7354
a(S'sacrifice."narciso'
p7355
I1
tp7356
a(S'sacrifice."the'
p7357
I1
tp7358
a(S"sacrifice.'"
p7359
I1
tp7360
a(S"sacrifice...'"
p7361
I1
tp7362
a(S'sacrifice.also'
p7363
I1
tp7364
a(S'sacrifice.he'
p7365
I1
tp7366
a(S"sacrificei've"
p7367
I1
tp7368
a(S'sacrificied'
p7369
I1
tp7370
a(S'sacrificies'
p7371
I1
tp7372
a(S'sacrifize'
p7373
I1
tp7374
a(S'sad/happy'
p7375
I1
tp7376
a(S'sadd'
p7377
I1
tp7378
a(S'sadder'
p7379
I1
tp7380
a(S'sade'
p7381
I1
tp7382
a(S'sadness.the'
p7383
I1
tp7384
a(S'saed'
p7385
I1
tp7386
a(S'saf'
p7387
I1
tp7388
a(S'safest'
p7389
I1
tp7390
a(S'sald'
p7391
I1
tp7392
a(S'salsa'
p7393
I1
tp7394
a(S'same;'
p7395
I1
tp7396
a(S'sanctuary'
p7397
I1
tp7398
a(S'sand'
p7399
I1
tp7400
a(S'sane'
p7401
I1
tp7402
a(S'saranade'
p7403
I1
tp7404
a(S'sarce'
p7405
I1
tp7406
a(S'saved'
p7407
I1
tp7408
a(S'say;'
p7409
I1
tp7410
a(S'saying.the'
p7411
I1
tp7412
a(S'saysin'
p7413
I1
tp7414
a(S'scaring'
p7415
I1
tp7416
a(S'sceen'
p7417
I1
tp7418
a(S'scenes'
p7419
I1
tp7420
a(S'scents'
p7421
I1
tp7422
a(S'schedules'
p7423
I1
tp7424
a(S'scientists'
p7425
I1
tp7426
a(S'sea'
p7427
I1
tp7428
a(S'sead'
p7429
I1
tp7430
a(S'seated'
p7431
I1
tp7432
a(S'secsesful'
p7433
I1
tp7434
a(S'seeing'
p7435
I1
tp7436
a(S'seening'
p7437
I1
tp7438
a(S'seens'
p7439
I1
tp7440
a(S'sees'
p7441
I1
tp7442
a(S'sefflessly'
p7443
I1
tp7444
a(S'segragation'
p7445
I1
tp7446
a(S'segrigation'
p7447
I1
tp7448
a(S'selebrate'
p7449
I1
tp7450
a(S'selection'
p7451
I1
tp7452
a(S'self-less'
p7453
I1
tp7454
a(S'selfessness'
p7455
I1
tp7456
a(S'selflesness'
p7457
I1
tp7458
a(S'selfless.and'
p7459
I1
tp7460
a(S'sellflly'
p7461
I1
tp7462
a(S'selves'
p7463
I1
tp7464
a(S'sends'
p7465
I1
tp7466
a(S'sensation'
p7467
I1
tp7468
a(S'sensing'
p7469
I1
tp7470
a(S'sensory'
p7471
I1
tp7472
a(S'sentimental'
p7473
I1
tp7474
a(S'serouseit'
p7475
I1
tp7476
a(S'serousness'
p7477
I1
tp7478
a(S'serves'
p7479
I1
tp7480
a(S'set!the'
p7481
I1
tp7482
a(S'setted'
p7483
I1
tp7484
a(S'setthe'
p7485
I1
tp7486
a(S'setting.in'
p7487
I1
tp7488
a(S'setting.the'
p7489
I1
tp7490
a(S'settle'
p7491
I1
tp7492
a(S'settles'
p7493
I1
tp7494
a(S'seven)'
p7495
I1
tp7496
a(S'seven.the'
p7497
I1
tp7498
a(S'sevenin'
p7499
I1
tp7500
a(S'shape'
p7501
I1
tp7502
a(S'shard'
p7503
I1
tp7504
a(S'she/he'
p7505
I1
tp7506
a(S'shines'
p7507
I1
tp7508
a(S'shoed'
p7509
I1
tp7510
a(S'shoes'
p7511
I1
tp7512
a(S'shot'
p7513
I1
tp7514
a(S'shoulder'
p7515
I1
tp7516
a(S'show.@person1'
p7517
I1
tp7518
a(S'shown.the'
p7519
I1
tp7520
a(S'showned'
p7521
I1
tp7522
a(S'shure'
p7523
I1
tp7524
a(S'siblings'
p7525
I1
tp7526
a(S'signaled'
p7527
I1
tp7528
a(S'significance'
p7529
I1
tp7530
a(S'signs'
p7531
I1
tp7532
a(S'simpe'
p7533
I1
tp7534
a(S'simplicity'
p7535
I1
tp7536
a(S'simply'
p7537
I1
tp7538
a(S'singer'
p7539
I1
tp7540
a(S'sitter'
p7541
I1
tp7542
a(S'sitting'
p7543
I1
tp7544
a(S'situations'
p7545
I1
tp7546
a(S'situations.the'
p7547
I1
tp7548
a(S'sixth'
p7549
I1
tp7550
a(S'siys'
p7551
I1
tp7552
a(S'skilled'
p7553
I1
tp7554
a(S"skills'"
p7555
I1
tp7556
a(S'sky'
p7557
I1
tp7558
a(S'sleep'
p7559
I1
tp7560
a(S'slefliss'
p7561
I1
tp7562
a(S'slowed'
p7563
I1
tp7564
a(S'slowly'
p7565
I1
tp7566
a(S'slums'
p7567
I1
tp7568
a(S'smelled'
p7569
I1
tp7570
a(S'smelling'
p7571
I1
tp7572
a(S'smiling'
p7573
I1
tp7574
a(S'smoke'
p7575
I1
tp7576
a(S'smooth'
p7577
I1
tp7578
a(S'sneek'
p7579
I1
tp7580
a(S'snippet'
p7581
I1
tp7582
a(S'snuck'
p7583
I1
tp7584
a(S'social'
p7585
I1
tp7586
a(S'sofly'
p7587
I1
tp7588
a(S'soidarity'
p7589
I1
tp7590
a(S'soldarity'
p7591
I1
tp7592
a(S'solemn'
p7593
I1
tp7594
a(S'solidarity.the'
p7595
I1
tp7596
a(S'solidary'
p7597
I1
tp7598
a(S'solitary'
p7599
I1
tp7600
a(S'someone.the'
p7601
I1
tp7602
a(S'somes'
p7603
I1
tp7604
a(S'sometime'
p7605
I1
tp7606
a(S'somone'
p7607
I1
tp7608
a(S'somting.i'
p7609
I1
tp7610
a(S'somwhere'
p7611
I1
tp7612
a(S"son's"
p7613
I1
tp7614
a(S'son.in'
p7615
I1
tp7616
a(S'son.the'
p7617
I1
tp7618
a(S'sorrow'
p7619
I1
tp7620
a(S'sorta'
p7621
I1
tp7622
a(S'sorts'
p7623
I1
tp7624
a(S'soud'
p7625
I1
tp7626
a(S'souls'
p7627
I1
tp7628
a(S'sounded'
p7629
I1
tp7630
a(S'sounding'
p7631
I1
tp7632
a(S'source'
p7633
I1
tp7634
a(S'specic'
p7635
I1
tp7636
a(S'spectacular'
p7637
I1
tp7638
a(S'speech'
p7639
I1
tp7640
a(S'spesific'
p7641
I1
tp7642
a(S'spices'
p7643
I1
tp7644
a(S'spint'
p7645
I1
tp7646
a(S'spirits'
p7647
I1
tp7648
a(S'spoken'
p7649
I1
tp7650
a(S'sports'
p7651
I1
tp7652
a(S'squeezed'
p7653
I1
tp7654
a(S'srprised'
p7655
I1
tp7656
a(S'stairs'
p7657
I1
tp7658
a(S'standing'
p7659
I1
tp7660
a(S'start.in'
p7661
I1
tp7662
a(S'startover.the'
p7663
I1
tp7664
a(S'state'
p7665
I1
tp7666
a(S'statements'
p7667
I1
tp7668
a(S'statments'
p7669
I1
tp7670
a(S'stay.finally'
p7671
I1
tp7672
a(S'step'
p7673
I1
tp7674
a(S'steping'
p7675
I1
tp7676
a(S'stilled'
p7677
I1
tp7678
a(S'stoping'
p7679
I1
tp7680
a(S'storry'
p7681
I1
tp7682
a(S'story!in'
p7683
I1
tp7684
a(S"story's"
p7685
I1
tp7686
a(S'story."the'
p7687
I1
tp7688
a(S'story.based'
p7689
I1
tp7690
a(S'story.home'
p7691
I1
tp7692
a(S'story.narciso'
p7693
I1
tp7694
a(S'story.when'
p7695
I1
tp7696
a(S'stove'
p7697
I1
tp7698
a(S'strange'
p7699
I1
tp7700
a(S'strengthens'
p7701
I1
tp7702
a(S'stressed'
p7703
I1
tp7704
a(S'stresses'
p7705
I1
tp7706
a(S'stressing'
p7707
I1
tp7708
a(S'strife'
p7709
I1
tp7710
a(S'striving'
p7711
I1
tp7712
a(S'stronglythe'
p7713
I1
tp7714
a(S'structured'
p7715
I1
tp7716
a(S'struggleing'
p7717
I1
tp7718
a(S'studed'
p7719
I1
tp7720
a(S'studying'
p7721
I1
tp7722
a(S'stying'
p7723
I1
tp7724
a(S'subdivisions'
p7725
I1
tp7726
a(S'subject'
p7727
I1
tp7728
a(S'succedy'
p7729
I1
tp7730
a(S'succeeb'
p7731
I1
tp7732
a(S'succeed'
p7733
I1
tp7734
a(S'succesful'
p7735
I1
tp7736
a(S'success'
p7737
I1
tp7738
a(S'such;'
p7739
I1
tp7740
a(S'sucked'
p7741
I1
tp7742
a(S'sucsess.one'
p7743
I1
tp7744
a(S'suitable'
p7745
I1
tp7746
a(S'suits'
p7747
I1
tp7748
a(S'sunny'
p7749
I1
tp7750
a(S'supper'
p7751
I1
tp7752
a(S'supplanted'
p7753
I1
tp7754
a(S'supported'
p7755
I1
tp7756
a(S'supporting'
p7757
I1
tp7758
a(S'supportive'
p7759
I1
tp7760
a(S'suppose'
p7761
I1
tp7762
a(S'suppost'
p7763
I1
tp7764
a(S'suprised'
p7765
I1
tp7766
a(S'suprizing'
p7767
I1
tp7768
a(S'surely'
p7769
I1
tp7770
a(S'surouded'
p7771
I1
tp7772
a(S'surprised'
p7773
I1
tp7774
a(S'surrogated'
p7775
I1
tp7776
a(S'surronded'
p7777
I1
tp7778
a(S'suspense'
p7779
I1
tp7780
a(S'sweet.the'
p7781
I1
tp7782
a(S'swifts'
p7783
I1
tp7784
a(S'swing'
p7785
I1
tp7786
a(S'symbolizes'
p7787
I1
tp7788
a(S'sympathetic.in'
p7789
I1
tp7790
a(S'synonym'
p7791
I1
tp7792
a(S'tackes'
p7793
I1
tp7794
a(S"talk's"
p7795
I1
tp7796
a(S'taste'
p7797
I1
tp7798
a(S'tastes'
p7799
I1
tp7800
a(S'taugh'
p7801
I1
tp7802
a(S'teaches'
p7803
I1
tp7804
a(S'tears'
p7805
I1
tp7806
a(S'technically'
p7807
I1
tp7808
a(S'teens'
p7809
I1
tp7810
a(S"tell's"
p7811
I1
tp7812
a(S'tellme'
p7813
I1
tp7814
a(S'temperally'
p7815
I1
tp7816
a(S'temporaily'
p7817
I1
tp7818
a(S'temporarly'
p7819
I1
tp7820
a(S'temporolly'
p7821
I1
tp7822
a(S'tempory'
p7823
I1
tp7824
a(S'ten'
p7825
I1
tp7826
a(S'terrific'
p7827
I1
tp7828
a(S'textual'
p7829
I1
tp7830
a(S'th'
p7831
I1
tp7832
a(S'tha'
p7833
I1
tp7834
a(S'thae'
p7835
I1
tp7836
a(S'thair'
p7837
I1
tp7838
a(S'thair/always'
p7839
I1
tp7840
a(S'thanfullness'
p7841
I1
tp7842
a(S'thankful)'
p7843
I1
tp7844
a(S'thankful.i'
p7845
I1
tp7846
a(S'thankful.the'
p7847
I1
tp7848
a(S'thankful/grateful'
p7849
I1
tp7850
a(S'thankfulness.the'
p7851
I1
tp7852
a(S'thanksful'
p7853
I1
tp7854
a(S'that.in'
p7855
I1
tp7856
a(S'that.the'
p7857
I1
tp7858
a(S'thatthe'
p7859
I1
tp7860
a(S'thecape'
p7861
I1
tp7862
a(S'their;'
p7863
I1
tp7864
a(S'theire'
p7865
I1
tp7866
a(S'theirselves'
p7867
I1
tp7868
a(S'them."i'
p7869
I1
tp7870
a(S'them.by'
p7871
I1
tp7872
a(S'them.there'
p7873
I1
tp7874
a(S'them.these'
p7875
I1
tp7876
a(S'them.while'
p7877
I1
tp7878
a(S'them;'
p7879
I1
tp7880
a(S'themes'
p7881
I1
tp7882
a(S'themnarciso'
p7883
I1
tp7884
a(S'themselfs.in'
p7885
I1
tp7886
a(S'themselves.another'
p7887
I1
tp7888
a(S'themthe'
p7889
I1
tp7890
a(S'thengs'
p7891
I1
tp7892
a(S'thenthe'
p7893
I1
tp7894
a(S'therefor'
p7895
I1
tp7896
a(S"they'd"
p7897
I1
tp7898
a(S'they-came'
p7899
I1
tp7900
a(S'thin'
p7901
I1
tp7902
a(S"thing's"
p7903
I1
tp7904
a(S'thing.the'
p7905
I1
tp7906
a(S'thing;'
p7907
I1
tp7908
a(S'things-the'
p7909
I1
tp7910
a(S'things.the'
p7911
I1
tp7912
a(S'think.another'
p7913
I1
tp7914
a(S'thir'
p7915
I1
tp7916
a(S'thirdly'
p7917
I1
tp7918
a(S'tho'
p7919
I1
tp7920
a(S'thoes'
p7921
I1
tp7922
a(S'thogh'
p7923
I1
tp7924
a(S'though"(thier)'
p7925
I1
tp7926
a(S'thoughful'
p7927
I1
tp7928
a(S'thoughfull'
p7929
I1
tp7930
a(S'thoughs'
p7931
I1
tp7932
a(S'thoughtfully'
p7933
I1
tp7934
a(S'three-bedroom'
p7935
I1
tp7936
a(S'thrilled'
p7937
I1
tp7938
a(S'throghout'
p7939
I1
tp7940
a(S'through.in'
p7941
I1
tp7942
a(S'through.the'
p7943
I1
tp7944
a(S'thrown'
p7945
I1
tp7946
a(S'tier'
p7947
I1
tp7948
a(S'tight'
p7949
I1
tp7950
a(S'tightly-knit'
p7951
I1
tp7952
a(S'tim'
p7953
I1
tp7954
a(S'time1'
p7955
I1
tp7956
a(S'times."as'
p7957
I1
tp7958
a(S'times.the'
p7959
I1
tp7960
a(S'tine'
p7961
I1
tp7962
a(S'tiny'
p7963
I1
tp7964
a(S'togather'
p7965
I1
tp7966
a(S'together.as'
p7967
I1
tp7968
a(S'together.narciso'
p7969
I1
tp7970
a(S'togetherin'
p7971
I1
tp7972
a(S'togetherness.the'
p7973
I1
tp7974
a(S'toghether'
p7975
I1
tp7976
a(S'togive'
p7977
I1
tp7978
a(S'toiled'
p7979
I1
tp7980
a(S'tone)'
p7981
I1
tp7982
a(S'tone.in'
p7983
I1
tp7984
a(S'tone.the'
p7985
I1
tp7986
a(S'tone.to'
p7987
I1
tp7988
a(S'tones'
p7989
I1
tp7990
a(S'too.before'
p7991
I1
tp7992
a(S'too.he'
p7993
I1
tp7994
a(S'too.the'
p7995
I1
tp7996
a(S'too;'
p7997
I1
tp7998
a(S'took.the'
p7999
I1
tp8000
a(S'topic'
p8001
I1
tp8002
a(S'topics'
p8003
I1
tp8004
a(S'topics.the'
p8005
I1
tp8006
a(S'torwards'
p8007
I1
tp8008
a(S'tory'
p8009
I1
tp8010
a(S'totally'
p8011
I1
tp8012
a(S'touched'
p8013
I1
tp8014
a(S'touches'
p8015
I1
tp8016
a(S'tougher'
p8017
I1
tp8018
a(S'tradishon'
p8019
I1
tp8020
a(S'traditional-cuban'
p8021
I1
tp8022
a(S'traditionally'
p8023
I1
tp8024
a(S'tragedies'
p8025
I1
tp8026
a(S'traits.this'
p8027
I1
tp8028
a(S'tranquil'
p8029
I1
tp8030
a(S'transferred'
p8031
I1
tp8032
a(S'translate'
p8033
I1
tp8034
a(S'translated'
p8035
I1
tp8036
a(S'translates'
p8037
I1
tp8038
a(S'transpires'
p8039
I1
tp8040
a(S'transportation'
p8041
I1
tp8042
a(S'traveled'
p8043
I1
tp8044
a(S'treasured'
p8045
I1
tp8046
a(S'treats'
p8047
I1
tp8048
a(S'treditiens'
p8049
I1
tp8050
a(S'tremendous'
p8051
I1
tp8052
a(S'tribute'
p8053
I1
tp8054
a(S'triditional'
p8055
I1
tp8056
a(S'triing'
p8057
I1
tp8058
a(S'trip.as'
p8059
I1
tp8060
a(S'troublesome'
p8061
I1
tp8062
a(S'truffle.in'
p8063
I1
tp8064
a(S'tune'
p8065
I1
tp8066
a(S'turns'
p8067
I1
tp8068
a(S'twent-seven'
p8069
I1
tp8070
a(S'twenty-one-year-old'
p8071
I1
tp8072
a(S'twenty-seven'
p8073
I1
tp8074
a(S'twenty-seven-year-old'
p8075
I1
tp8076
a(S'u'
I1
tp8077
a(S'unamed'
p8078
I1
tp8079
a(S'undergo'
p8080
I1
tp8081
a(S'underlying'
p8082
I1
tp8083
a(S'understandable'
p8084
I1
tp8085
a(S'understandings'
p8086
I1
tp8087
a(S'undoubtably'
p8088
I1
tp8089
a(S'uneek'
p8090
I1
tp8091
a(S'unexplainable'
p8092
I1
tp8093
a(S'unhappiness'
p8094
I1
tp8095
a(S'unided'
p8096
I1
tp8097
a(S'unison'
p8098
I1
tp8099
a(S'unit'
p8100
I1
tp8101
a(S'unknowingly'
p8102
I1
tp8103
a(S'unknown'
p8104
I1
tp8105
a(S'unlucky'
p8106
I1
tp8107
a(S'unofficial'
p8108
I1
tp8109
a(S'unorganized'
p8110
I1
tp8111
a(S'unpleasnt'
p8112
I1
tp8113
a(S'unsatisfying'
p8114
I1
tp8115
a(S'unselfish.the'
p8116
I1
tp8117
a(S'unselflessly'
p8118
I1
tp8119
a(S'unstanding'
p8120
I1
tp8121
a(S'unwillingly'
p8122
I1
tp8123
a(S'unwitting'
p8124
I1
tp8125
a(S'up!the'
p8126
I1
tp8127
a(S'up.another'
p8128
I1
tp8129
a(S'uplifting.in'
p8130
I1
tp8131
a(S'upon.the'
p8132
I1
tp8133
a(S'upsetting'
p8134
I1
tp8135
a(S'upstairs'
p8136
I1
tp8137
a(S'upto'
p8138
I1
tp8139
a(S'us."@caps1'
p8140
I1
tp8141
a(S'us."in'
p8142
I1
tp8143
a(S'us."people'
p8144
I1
tp8145
a(S'us."the'
p8146
I1
tp8147
a(S'us."when'
p8148
I1
tp8149
a(S'us.the'
p8150
I1
tp8151
a(S'usally'
p8152
I1
tp8153
a(S'uselfish'
p8154
I1
tp8155
a(S'ust'
p8156
I1
tp8157
a(S'usual'
p8158
I1
tp8159
a(S'usualy'
p8160
I1
tp8161
a(S'usuely'
p8162
I1
tp8163
a(S'valuable'
p8164
I1
tp8165
a(S'varies'
p8166
I1
tp8167
a(S'verey'
p8168
I1
tp8169
a(S'vibrant'
p8170
I1
tp8171
a(S'victims'
p8172
I1
tp8173
a(S'violence'
p8174
I1
tp8175
a(S'visitors'
p8176
I1
tp8177
a(S'visits'
p8178
I1
tp8179
a(S'visualize'
p8180
I1
tp8181
a(S'vivid'
p8182
I1
tp8183
a(S'vividly'
p8184
I1
tp8185
a(S'w/'
p8186
I1
tp8187
a(S'wait'
p8188
I1
tp8189
a(S'walk'
p8190
I1
tp8191
a(S'wall'
p8192
I1
tp8193
a(S'wantes'
p8194
I1
tp8195
a(S'warm-hearted'
p8196
I1
tp8197
a(S'warmanother'
p8198
I1
tp8199
a(S'warmly'
p8200
I1
tp8201
a(S'warmthe'
p8202
I1
tp8203
a(S'warre'
p8204
I1
tp8205
a(S'was.i'
p8206
I1
tp8207
a(S'washes'
p8208
I1
tp8209
a(S'wass'
p8210
I1
tp8211
a(S'wat'
p8212
I1
tp8213
a(S'watched'
p8214
I1
tp8215
a(S'water'
p8216
I1
tp8217
a(S'waters'
p8218
I1
tp8219
a(S"way's"
p8220
I1
tp8221
a(S'ways.in'
p8222
I1
tp8223
a(S"we're"
p8224
I1
tp8225
a(S'weather'
p8226
I1
tp8227
a(S'weave'
p8228
I1
tp8229
a(S'welcaming.narcisos'
p8230
I1
tp8231
a(S'welcomeness'
p8232
I1
tp8233
a(S'welcomes'
p8234
I1
tp8235
a(S'welcoming.the'
p8236
I1
tp8237
a(S'well-told'
p8238
I1
tp8239
a(S'well-written'
p8240
I1
tp8241
a(S'well.when'
p8242
I1
tp8243
a(S'welthy'
p8244
I1
tp8245
a(S'wen'
p8246
I1
tp8247
a(S'went-'
p8248
I1
tp8249
a(S"went.'"
p8250
I1
tp8251
a(S'were.in'
p8252
I1
tp8253
a(S'werer'
p8254
I1
tp8255
a(S'wether'
p8256
I1
tp8257
a(S'whas'
p8258
I1
tp8259
a(S'whats'
p8260
I1
tp8261
a(S'whent'
p8262
I1
tp8263
a(S'whent-and'
p8264
I1
tp8265
a(S'whenyou'
p8266
I1
tp8267
a(S'which-'
p8268
I1
tp8269
a(S'whistfulness'
p8270
I1
tp8271
a(S'whites'
p8272
I1
tp8273
a(S'whith'
p8274
I1
tp8275
a(S'wide'
p8276
I1
tp8277
a(S'wild'
p8278
I1
tp8279
a(S'willpower'
p8280
I1
tp8281
a(S'window'
p8282
I1
tp8283
a(S'wished'
p8284
I1
tp8285
a(S'wishes'
p8286
I1
tp8287
a(S'with.the'
p8288
I1
tp8289
a(S'wither'
p8290
I1
tp8291
a(S'withthe'
p8292
I1
tp8293
a(S"won't"
p8294
I1
tp8295
a(S'wonderful.in'
p8296
I1
tp8297
a(S'wonderfull'
p8298
I1
tp8299
a(S'wonders'
p8300
I1
tp8301
a(S'wont'
p8302
I1
tp8303
a(S'woods'
p8304
I1
tp8305
a(S'working.i'
p8306
I1
tp8307
a(S'world,the'
p8308
I1
tp8309
a(S"would've"
p8310
I1
tp8311
a(S'wouldve'
p8312
I1
tp8313
a(S'wow'
p8314
I1
tp8315
a(S'wrap'
p8316
I1
tp8317
a(S'writers'
p8318
I1
tp8319
a(S'writes..."my'
p8320
I1
tp8321
a(S'yea'
p8322
I1
tp8323
a(S'yearns'
p8324
I1
tp8325
a(S'yelling'
p8326
I1
tp8327
a(S'yellows'
p8328
I1
tp8329
a(S'yes'
p8330
I1
tp8331
a(S'yes.in'
p8332
I1
tp8333
a(S'yet)'
p8334
I1
tp8335
a(S"you.@person1's"
p8336
I1
tp8337
a(S'you.family'
p8338
I1
tp8339
a(S'you.the'
p8340
I1
tp8341
a(S'youare'
p8342
I1
tp8343
a(S'younge'
p8344
I1
tp8345
a(S'younger'
p8346
I1
tp8347
a(S'youngest'
p8348
I1
tp8349
a(S'youth'
p8350
I1
tp8351
a(S'yu'
p8352
I1
tp8353
a.