(lp1
(S'mood'
p2
I1822
tp3
a(S'parents'
p4
I1571
tp5
a(S'family'
p6
I1372
tp7
a(S'memoir'
p8
I1152
tp9
a(S'author'
p10
I1130
tp11
a(S'narciso'
p12
I838
tp13
a(S'home'
p14
I799
tp15
a(S'love'
p16
I772
tp17
a(S'created'
p18
I637
tp19
a(S'happy'
p20
I621
tp21
a(S'caps1'
p22
I617
tp23
a(S'grateful'
p24
I586
tp25
a(S'life'
p26
I585
tp27
a(S'rodriguez'
p28
I533
tp29
a(S'house'
p30
I511
tp31
a(S'also'
p32
I472
tp33
a(S'always'
p34
I466
tp35
a(S'paragraph'
p36
I404
tp37
a(S'says'
p38
I371
tp39
a(S'people'
p40
I369
tp41
a(S'friends'
p42
I357
tp43
a(S'cuban'
p44
I346
tp45
a(S'many'
p46
I329
tp47
a(S'shows'
p48
I307
tp49
a(S'came'
p50
I275
tp51
a(S'better'
p52
I258
tp53
a(S'would'
p54
I247
tp55
a(S'story'
p56
I238
tp57
a(S'great'
p58
I236
tp59
a(S'like'
p60
I229
tp61
a(S'loving'
p62
I227
tp63
a(S'one'
p64
I227
tp65
a(S'num1'
p66
I219
tp67
a(S'sacrifice'
p68
I216
tp69
a(S'never'
p70
I215
tp71
a(S'warm'
p72
I205
tp73
a(S'happiness'
p74
I203
tp75
a(S'music'
p76
I201
tp77
a(S'talks'
p78
I199
tp79
a(S'neighborhood'
p80
I196
tp81
a(S'think'
p82
I195
tp83
a(S'lives'
p84
I194
tp85
a(S'creates'
p86
I193
tp87
a(S'could'
p88
I188
tp89
a(S'simple'
p90
I185
tp91
a(S'cooking'
p92
I182
tp93
a(S'give'
p94
I182
tp95
a(S'good'
p96
I180
tp97
a(S'states'
p98
I180
tp99
a(S'much'
p100
I175
tp101
a(S'forget'
p102
I173
tp103
a(S'location1'
p104
I173
tp105
a(S'made'
p106
I169
tp107
a(S'even'
p108
I167
tp109
a(S'caps2'
p110
I164
tp111
a(S'cuba'
p112
I164
tp113
a(S'together'
p114
I161
tp115
a(S'way'
p116
I161
tp117
a(S'example'
p118
I158
tp119
a(S'thankful'
p120
I155
tp121
a(S'loved'
p122
I152
tp123
a(S'country'
p124
I149
tp125
a(S'person1'
p126
I148
tp127
a(S'children'
p128
I141
tp129
a(S'learned'
p130
I140
tp131
a(S'us'
p132
I140
tp133
a(S'describes'
p134
I139
tp135
a(S'kitchen'
p136
I139
tp137
a(S'things'
p138
I136
tp139
a(S'culture'
p140
I135
tp141
a(S'greatful'
p142
I135
tp143
a(S'open'
p144
I132
tp145
a(S'first'
p146
I131
tp147
a(S'turned'
p148
I129
tp149
a(S'still'
p150
I128
tp151
a(S'childhood'
p152
I126
tp153
a(S'feel'
p154
I120
tp155
a(S'filled'
p156
I120
tp157
a(S'immigrants'
p158
I119
tp159
a(S'feeling'
p160
I116
tp161
a(S'blood'
p162
I114
tp163
a(S'another'
p164
I110
tp165
a(S'community'
p166
I110
tp167
a(S'though'
p168
I110
tp169
a(S'moods'
p170
I108
tp171
a(S'caring'
p172
I106
tp173
a(S'arms'
p174
I105
tp175
a(S'everyone'
p176
I104
tp177
a(S'new'
p178
I104
tp179
a(S'blueprints'
p180
I103
tp181
a(S'throughout'
p182
I102
tp183
a(S'explains'
p184
I101
tp185
a(S'sense'
p186
I101
tp187
a(S'everything'
p188
I100
tp189
a(S'kept'
p190
I100
tp191
a(S'thing'
p192
I100
tp193
a(S'friendship'
p194
I98
tp195
a(S'really'
p196
I98
tp197
a(S'said'
p198
I98
tp199
a(S'time'
p200
I98
tp201
a(S'often'
p202
I96
tp203
a(S'come'
p204
I95
tp205
a(S'num2'
p206
I95
tp207
a(S'door'
p208
I94
tp209
a(S'air'
p210
I93
tp211
a(S'back'
p212
I93
tp213
a(S'get'
p214
I93
tp215
a(S'gratitude'
p216
I93
tp217
a(S'different'
p218
I92
tp219
a(S'live'
p220
I92
tp221
a(S'nothing'
p222
I92
tp223
a(S'quote'
p224
I92
tp225
a(S'united'
p226
I91
tp227
a(S'growing'
p228
I90
tp229
a(S"narciso's"
p230
I89
tp231
a(S'lived'
p232
I87
tp233
a(S'times'
p234
I87
tp235
a(S'hard'
p236
I86
tp237
a(S'make'
p238
I86
tp239
a(S'sad'
p240
I86
tp241
a(S'skills'
p242
I85
tp243
a(S'behind'
p244
I84
tp245
a(S'considered'
p246
I84
tp247
a(S'gave'
p248
I84
tp249
a(S'told'
p250
I84
tp251
a(S'memories'
p252
I83
tp253
a(S'tells'
p254
I83
tp255
a(S'celebrations'
p256
I82
tp257
a(S'culinary'
p258
I81
tp259
a(S'cultures'
p260
I80
tp261
a(S'help'
p262
I80
tp263
a(S'loves'
p264
I79
tp265
a(S'passionate'
p266
I79
tp267
a(S'whole'
p268
I79
tp269
a(S'families'
p270
I78
tp271
a(S'last'
p272
I78
tp273
a(S'selflessly'
p274
I77
tp275
a(S'kind'
p276
I76
tp277
a(S'leaving'
p278
I76
tp279
a(S'definition'
p280
I74
tp281
a(S'rich'
p282
I74
tp283
a(S'know'
p284
I73
tp285
a(S'real'
p286
I73
tp287
a(S'courage'
p288
I72
tp289
a(S'done'
p290
I72
tp291
a(S'nice'
p292
I72
tp293
a(S'passed'
p294
I72
tp295
a(S'saying'
p296
I72
tp297
a(S'today'
p298
I70
tp299
a(S'knowing'
p300
I69
tp301
a(S'reader'
p302
I69
tp303
a(S'endless'
p304
I68
tp305
a(S"i've"
p306
I68
tp307
a(S'lot'
p308
I68
tp309
a(S'gives'
p310
I67
tp311
a(S'makes'
p312
I67
tp313
a(S'relative'
p314
I67
tp315
a(S'place'
p316
I66
tp317
a(S'showed'
p318
I66
tp319
a(S'congregation'
p320
I64
tp321
a(S'mother'
p322
I64
tp323
a(S'need'
p324
I64
tp325
a(S'solidarity'
p326
I64
tp327
a(S'writes'
p328
I64
tp329
a(S'backdrop'
p330
I63
tp331
a(S'eternally'
p332
I63
tp333
a(S'important'
p334
I63
tp335
a(S'traditional'
p336
I63
tp337
a(S'caps3'
p338
I62
tp339
a(S'warmth'
p340
I62
tp341
a(S'apartment'
p342
I61
tp343
a(S'reason'
p344
I61
tp345
a(S'talking'
p346
I61
tp347
a(S'ever'
p348
I60
tp349
a(S'got'
p350
I60
tp351
a(S'jobs'
p352
I60
tp353
a(S'admiration'
p354
I58
tp355
a(S"author's"
p356
I58
tp357
a(S"it's"
p358
I58
tp359
a(S'meant'
p360
I58
tp361
a(S'proud'
p362
I58
tp363
a(S'unity'
p364
I58
tp365
a(S'close'
p366
I57
tp367
a(S'grew'
p368
I56
tp369
a(S'innocence'
p370
I56
tp371
a(S'overall'
p372
I56
tp373
a(S'set'
p374
I56
tp375
a(S'able'
p376
I55
tp377
a(S'described'
p378
I55
tp379
a(S'father'
p380
I55
tp381
a(S'formed'
p382
I55
tp383
a(S'gracious'
p384
I55
tp385
a(S'gratefulness'
p386
I55
tp387
a(S'heart'
p388
I55
tp389
a(S'moved'
p390
I55
tp391
a(S'careers'
p392
I54
tp393
a(S'language'
p394
I54
tp395
a(S'living'
p396
I54
tp397
a(S'positive'
p398
I54
tp399
a(S'calm'
p400
I53
tp401
a(S'generosity'
p402
I53
tp403
a(S'memoir.the'
p404
I53
tp405
a(S'num3'
p406
I53
tp407
a(S'shared'
p408
I53
tp409
a(S'article'
p410
I52
tp411
a(S'environment'
p412
I52
tp413
a(S'strength'
p414
I52
tp415
a(S'born'
p416
I51
tp417
a(S'encompassed'
p418
I50
tp419
a(S'extended'
p420
I50
tp421
a(S'care'
p422
I49
tp423
a(S'food'
p424
I49
tp425
a(S'left'
p426
I49
tp427
a(S'towards'
p428
I49
tp429
a(S'without'
p430
I49
tp431
a(S'aromas'
p432
I48
tp433
a(S'excerpt'
p434
I48
tp435
a(S'feet'
p436
I48
tp437
a(S'instilled'
p438
I48
tp439
a(S'show'
p440
I48
tp441
a(S'taught'
p442
I48
tp443
a(S'child'
p444
I47
tp445
a(S'express'
p446
I47
tp447
a(S''
I46
tp448
a(S'create'
p449
I46
tp450
a(S'perseverance'
p451
I46
tp452
a(S'start'
p453
I46
tp454
a(S'thanks'
p455
I46
tp456
a(S'feels'
p457
I45
tp458
a(S'parent'
p459
I45
tp460
a(S'two'
p461
I45
tp462
a(S'well'
p463
I45
tp464
a(S'words'
p465
I45
tp466
a(S'felt'
p467
I44
tp468
a(S'means'
p469
I44
tp470
a(S'courageous'
p471
I43
tp472
a(S'neighbors'
p473
I43
tp474
a(S'say'
p475
I43
tp476
a(S'sets'
p477
I43
tp478
a(S'work'
p479
I43
tp480
a(S'duties'
p481
I42
tp482
a(S'see'
p483
I42
tp484
a(S'(and'
p485
I41
tp486
a(S'conclusion'
p487
I41
tp488
a(S'mostly'
p489
I41
tp490
a(S'stay'
p491
I41
tp492
a(S'unwittingly'
p493
I41
tp494
a(S'welcoming'
p495
I41
tp496
a(S'young'
p497
I41
tp498
a(S'&'
I40
tp499
a(S'heritage'
p500
I40
tp501
a(S'members'
p502
I40
tp503
a(S'went'
p504
I40
tp505
a(S'jersey'
p506
I39
tp507
a(S'move'
p508
I39
tp509
a(S'racism'
p510
I39
tp511
a(S"rodriguez's"
p512
I39
tp513
a(S'showing'
p514
I39
tp515
a(S'someone'
p516
I39
tp517
a(S'ways'
p518
I39
tp519
a(S'auther'
p520
I38
tp521
a(S'authors'
p522
I38
tp523
a(S'coming'
p524
I38
tp525
a(S'despite'
p526
I38
tp527
a(S'helped'
p528
I38
tp529
a(S'sentence'
p530
I38
tp531
a(S'anyone'
p532
I37
tp533
a(S'cook'
p534
I37
tp535
a(S'end'
p536
I37
tp537
a(S'giving'
p538
I37
tp539
a(S'leave'
p540
I37
tp541
a(S'mixing'
p542
I37
tp543
a(S'table'
p544
I37
tp545
a(S'thanked'
p546
I37
tp547
a(S'full'
p548
I36
tp549
a(S'knowledge'
p550
I36
tp551
a(S'around'
p552
I35
tp553
a(S'spanish'
p554
I35
tp555
a(S'dinner'
p556
I34
tp557
a(S'going'
p558
I34
tp559
a(S'let'
p560
I34
tp561
a(S'needed'
p562
I34
tp563
a(S'num1)'
p564
I34
tp565
a(S'repeatedly'
p566
I34
tp567
a(S'shown'
p568
I34
tp569
a(S'talked'
p570
I34
tp571
a(S'big'
p572
I33
tp573
a(S'every'
p574
I33
tp575
a(S'find'
p576
I33
tp577
a(S'humble'
p578
I33
tp579
a(S'others'
p580
I33
tp581
a(S'peaceful'
p582
I33
tp583
a(S'wanted'
p584
I33
tp585
a(S'spirit'
p586
I32
tp587
a(S'tell'
p588
I32
tp589
a(S'cared'
p590
I31
tp591
a(S"didn't"
p592
I31
tp593
a(S'explaining'
p594
I31
tp595
a(S'friend'
p596
I31
tp597
a(S'italian'
p598
I31
tp599
a(S'lastly'
p600
I31
tp601
a(S'matter'
p602
I31
tp603
a(S'moving'
p604
I31
tp605
a(S'part'
p606
I31
tp607
a(S'room'
p608
I31
tp609
a(S'telling'
p610
I31
tp611
a(S'thier'
p612
I31
tp613
a(S'three'
p614
I31
tp615
a(S'wonderful'
p616
I31
tp617
a(S'(which'
p618
I30
tp619
a(S'clearly'
p620
I30
tp621
a(S'comforting'
p622
I30
tp623
a(S'friendly'
p624
I30
tp625
a(S'fun'
p626
I30
tp627
a(S'reading'
p628
I30
tp629
a(S'related'
p630
I30
tp631
a(S'sacrificed'
p632
I30
tp633
a(S'selflessness'
p634
I30
tp635
a(S'something'
p636
I30
tp637
a(S'tone'
p638
I30
tp639
a(S'within'
p640
I30
tp641
a(S'adore'
p642
I29
tp643
a(S'along'
p644
I29
tp645
a(S'customs'
p646
I29
tp647
a(S'expresses'
p648
I29
tp649
a(S'finally'
p650
I29
tp651
a(S'go'
p652
I29
tp653
a(S'grateful)'
p654
I29
tp655
a(S'hardships'
p656
I29
tp657
a(S'hardworking'
p658
I29
tp659
a(S'little'
p660
I29
tp661
a(S'main'
p662
I29
tp663
a(S'meaning'
p664
I29
tp665
a(S'passage'
p666
I29
tp667
a(S'second'
p668
I29
tp669
a(S'thank'
p670
I29
tp671
a(S'true'
p672
I29
tp673
a(S'trying'
p674
I29
tp675
a(S'close-knit'
p676
I28
tp677
a(S'feast'
p678
I28
tp679
a(S'hand'
p680
I28
tp681
a(S'honest'
p682
I28
tp683
a(S'line'
p684
I28
tp685
a(S'person2'
p686
I28
tp687
a(S'strong'
p688
I28
tp689
a(S'thats'
p690
I28
tp691
a(S'upon'
p692
I28
tp693
a(S'given'
p694
I27
tp695
a(S'grandparents'
p696
I27
tp697
a(S'grow'
p698
I27
tp699
a(S'hood'
p700
I27
tp701
a(S'impressed'
p702
I27
tp703
a(S'selfless'
p704
I27
tp705
a(S'setting'
p706
I27
tp707
a(S'(@caps1'
p708
I26
tp709
a(S'greatfulness'
p710
I26
tp711
a(S"he's"
p712
I26
tp713
a(S'mentions'
p714
I26
tp715
a(S'put'
p716
I26
tp717
a(S'read'
p718
I26
tp719
a(S'welcomed'
p720
I26
tp721
a(S'(paragraph'
p722
I25
tp723
a(S'age'
p724
I25
tp725
a(S'alot'
p726
I25
tp727
a(S'describe'
p728
I25
tp729
a(S'elsewhere'
p730
I25
tp731
a(S'feelings'
p732
I25
tp733
a(S'refugees'
p734
I25
tp735
a(S'relatives'
p736
I25
tp737
a(S'best'
p738
I24
tp739
a(S'brought'
p740
I24
tp741
a(S'cultural'
p742
I24
tp743
a(S'joy'
p744
I24
tp745
a(S'memior'
p746
I24
tp747
a(S'segregation'
p748
I24
tp749
a(S'son'
p750
I24
tp751
a(S'appreciation'
p752
I23
tp753
a(S'day)'
p754
I23
tp755
a(S"don't"
p756
I23
tp757
a(S'early'
p758
I23
tp759
a(S'home.the'
p760
I23
tp761
a(S'num2)'
p762
I23
tp763
a(S'reality'
p764
I23
tp765
a(S'scent'
p766
I23
tp767
a(S'staying'
p768
I23
tp769
a(S'uses'
p770
I23
tp771
a(S'anything'
p772
I22
tp773
a(S'became'
p774
I22
tp775
a(S'celebrate'
p776
I22
tp777
a(S'comfort'
p778
I22
tp779
a(S'describing'
p780
I22
tp781
a(S"doesn't"
p782
I22
tp783
a(S'doors'
p784
I22
tp785
a(S'extremely'
p786
I22
tp787
a(S'happyness'
p788
I22
tp789
a(S'knew'
p790
I22
tp791
a(S'mom'
p792
I22
tp793
a(S'mood.the'
p794
I22
tp795
a(S'newark'
p796
I22
tp797
a(S'struggled'
p798
I22
tp799
a(S'talk'
p800
I22
tp801
a(S'took'
p802
I22
tp803
a(S'writing'
p804
I22
tp805
a(S'examples'
p806
I21
tp807
a(S'family.the'
p808
I21
tp809
a(S'location2'
p810
I21
tp811
a(S'old'
p812
I21
tp813
a(S'organization1'
p814
I21
tp815
a(S'sacrifices'
p816
I21
tp817
a(S'basis'
p818
I20
tp819
a(S'comfortable'
p820
I20
tp821
a(S'day'
p822
I20
tp823
a(S'demonstration'
p824
I20
tp825
a(S'greatfull'
p826
I20
tp827
a(S'next'
p828
I20
tp829
a(S'seems'
p830
I20
tp831
a(S'turn'
p832
I20
tp833
a(S'uplifting'
p834
I20
tp835
a(S'1961'
p836
I19
tp837
a(S'beginning'
p838
I19
tp839
a(S'countless'
p840
I19
tp841
a(S'eachother'
p842
I19
tp843
a(S'explained'
p844
I19
tp845
a(S'final'
p846
I19
tp847
a(S'financially'
p848
I19
tp849
a(S'gratefull'
p850
I19
tp851
a(S'hope'
p852
I19
tp853
a(S'inviting'
p854
I19
tp855
a(S'job'
p856
I19
tp857
a(S'kindness'
p858
I19
tp859
a(S'memoir.in'
p860
I19
tp861
a(S'neighbor'
p862
I19
tp863
a(S'personally'
p864
I19
tp865
a(S'readers'
p866
I19
tp867
a(S'want'
p868
I19
tp869
a(S'appreciative'
p870
I18
tp871
a(S'building'
p872
I18
tp873
a(S'caps4'
p874
I18
tp875
a(S'goes'
p876
I18
tp877
a(S'mean'
p878
I18
tp879
a(S'might'
p880
I18
tp881
a(S'necessarily'
p882
I18
tp883
a(S'past'
p884
I18
tp885
a(S'piece'
p886
I18
tp887
a(S'small'
p888
I18
tp889
a(S'take'
p890
I18
tp891
a(S"that's"
p892
I18
tp893
a(S'worked'
p894
I18
tp895
a(S'wrote'
p896
I18
tp897
a(S'almost'
p898
I17
tp899
a(S'america'
p900
I17
tp901
a(S'arrival'
p902
I17
tp903
a(S'believe'
p904
I17
tp905
a(S'birthdays'
p906
I17
tp907
a(S'changed'
p908
I17
tp909
a(S'consider'
p910
I17
tp911
a(S'cozy'
p912
I17
tp913
a(S'found'
p914
I17
tp915
a(S'joyful'
p916
I17
tp917
a(S'pride'
p918
I17
tp919
a(S'raised'
p920
I17
tp921
a(S'third'
p922
I17
tp923
a(S'thought'
p924
I17
tp925
a(S'toward'
p926
I17
tp927
a(S'used'
p928
I17
tp929
a(S'call'
p930
I16
tp931
a(S'creating'
p932
I16
tp933
a(S'enough'
p934
I16
tp935
a(S'expressed'
p936
I16
tp937
a(S'kids'
p938
I16
tp939
a(S'lessons'
p940
I16
tp941
a(S'meals'
p942
I16
tp943
a(S'person'
p944
I16
tp945
a(S'poor'
p946
I16
tp947
a(S'respect'
p948
I16
tp949
a(S'several'
p950
I16
tp951
a(S'started'
p952
I16
tp953
a(S'support'
p954
I16
tp955
a(S'teachings'
p956
I16
tp957
a(S'text'
p958
I16
tp959
a(S'thankfulness'
p960
I16
tp961
a(S'walls'
p962
I16
tp963
a(S'although'
p964
I15
tp965
a(S'boy'
p966
I15
tp967
a(S'brave'
p968
I15
tp969
a(S'dad'
p970
I15
tp971
a(S'especially'
p972
I15
tp973
a(S'harsh'
p974
I15
tp975
a(S'immigrated'
p976
I15
tp977
a(S'making'
p978
I15
tp979
a(S'mentioned'
p980
I15
tp981
a(S'narrator'
p982
I15
tp983
a(S"parent's"
p984
I15
tp985
a(S'passion'
p986
I15
tp987
a(S'seem'
p988
I15
tp989
a(S'temporarily'
p990
I15
tp991
a(S"they're"
p992
I15
tp993
a(S'written'
p994
I15
tp995
a(S'background'
p996
I14
tp997
a(S'basically'
p998
I14
tp999
a(S'brings'
p1000
I14
tp1001
a(S'caps5'
p1002
I14
tp1003
a(S'celebrated'
p1004
I14
tp1005
a(S'certain'
p1006
I14
tp1007
a(S'education'
p1008
I14
tp1009
a(S'explain'
p1010
I14
tp1011
a(S'form'
p1012
I14
tp1013
a(S'helping'
p1014
I14
tp1015
a(S'him.the'
p1016
I14
tp1017
a(S'keep'
p1018
I14
tp1019
a(S'look'
p1020
I14
tp1021
a(S'money'
p1022
I14
tp1023
a(S'ones'
p1024
I14
tp1025
a(S'opened'
p1026
I14
tp1027
a(S'parts'
p1028
I14
tp1029
a(S'reasons'
p1030
I14
tp1031
a(S'relaxed'
p1032
I14
tp1033
a(S'sacrafice'
p1034
I14
tp1035
a(S'specific'
p1036
I14
tp1037
a(S'starts'
p1038
I14
tp1039
a(S'struggle'
p1040
I14
tp1041
a(S'thanking'
p1042
I14
tp1043
a(S'traditions'
p1044
I14
tp1045
a(S'word'
p1046
I14
tp1047
a(S'(\xb6'
p1048
I13
tp1049
a(S'+'
I13
tp1050
a(S'alegria'
p1051
I13
tp1052
a(S'arrived'
p1053
I13
tp1054
a(S'change'
p1055
I13
tp1056
a(S'cheerful'
p1057
I13
tp1058
a(S'daughter'
p1059
I13
tp1060
a(S'eat'
p1061
I13
tp1062
a(S'enviroment'
p1063
I13
tp1064
a(S'evidence'
p1065
I13
tp1066
a(S'fact'
p1067
I13
tp1068
a(S"family's"
p1069
I13
tp1070
a(S'home.in'
p1071
I13
tp1072
a(S'kid'
p1073
I13
tp1074
a(S'large'
p1075
I13
tp1076
a(S'learn'
p1077
I13
tp1078
a(S'liked'
p1079
I13
tp1080
a(S'num3)'
p1081
I13
tp1082
a(S'parentheses'
p1083
I13
tp1084
a(S'puts'
p1085
I13
tp1086
a(S'since'
p1087
I13
tp1088
a(S'sometimes'
p1089
I13
tp1090
a(S'thankfull'
p1091
I13
tp1092
a(S"wasn't"
p1093
I13
tp1094
a(S'whatever'
p1095
I13
tp1096
a(S'winters'
p1097
I13
tp1098
a(S'1956'
p1099
I12
tp1100
a(S'admires'
p1101
I12
tp1102
a(S'amazing'
p1103
I12
tp1104
a(S'atmosphere'
p1105
I12
tp1106
a(S'aunts'
p1107
I12
tp1108
a(S'babysitter'
p1109
I12
tp1110
a(S'bad'
p1111
I12
tp1112
a(S'become'
p1113
I12
tp1114
a(S'constantly'
p1115
I12
tp1116
a(S'cousins'
p1117
I12
tp1118
a(S'getting'
p1119
I12
tp1120
a(S'graced'
p1121
I12
tp1122
a(S'however'
p1123
I12
tp1124
a(S'it.the'
p1125
I12
tp1126
a(S'knows'
p1127
I12
tp1128
a(S'life.the'
p1129
I12
tp1130
a(S'love.the'
p1131
I12
tp1132
a(S'num4'
p1133
I12
tp1134
a(S"person1's"
p1135
I12
tp1136
a(S'portrays'
p1137
I12
tp1138
a(S'six'
p1139
I12
tp1140
a(S'sounds'
p1141
I12
tp1142
a(S'thinks'
p1143
I12
tp1144
a(S'wants'
p1145
I12
tp1146
a(S'welcome'
p1147
I12
tp1148
a(S'1970'
p1149
I11
tp1150
a(S'admired'
p1151
I11
tp1152
a(S'afford'
p1153
I11
tp1154
a(S'appreciates'
p1155
I11
tp1156
a(S'character'
p1157
I11
tp1158
a(S'comes'
p1159
I11
tp1160
a(S'designer'
p1161
I11
tp1162
a(S'entirely'
p1163
I11
tp1164
a(S'facing'
p1165
I11
tp1166
a(S'friendships'
p1167
I11
tp1168
a(S'generous'
p1169
I11
tp1170
a(S'importance'
p1171
I11
tp1172
a(S'native'
p1173
I11
tp1174
a(S'opinion'
p1175
I11
tp1176
a(S'picture'
p1177
I11
tp1178
a(S'playing'
p1179
I11
tp1180
a(S'quotes'
p1181
I11
tp1182
a(S'special'
p1183
I11
tp1184
a(S'stated'
p1185
I11
tp1186
a(S'takes'
p1187
I11
tp1188
a(S'taking'
p1189
I11
tp1190
a(S'togetherness'
p1191
I11
tp1192
a(S'tough'
p1193
I11
tp1194
a(S'truly'
p1195
I11
tp1196
a(S'understand'
p1197
I11
tp1198
a(S'working'
p1199
I11
tp1200
a(S'year'
p1201
I11
tp1202
a(S'(@num1)'
p1203
I10
tp1204
a(S'(rodriguez'
p1205
I10
tp1206
a(S'adored'
p1207
I10
tp1208
a(S'appreciate'
p1209
I10
tp1210
a(S'author.the'
p1211
I10
tp1212
a(S'away'
p1213
I10
tp1214
a(S'baby'
p1215
I10
tp1216
a(S'birthday'
p1217
I10
tp1218
a(S'braving'
p1219
I10
tp1220
a(S'careing'
p1221
I10
tp1222
a(S'cooked'
p1223
I10
tp1224
a(S'depressing'
p1225
I10
tp1226
a(S'description'
p1227
I10
tp1228
a(S'endure'
p1229
I10
tp1230
a(S'faced'
p1231
I10
tp1232
a(S'family.in'
p1233
I10
tp1234
a(S'four'
p1235
I10
tp1236
a(S'gets'
p1237
I10
tp1238
a(S'happy.the'
p1239
I10
tp1240
a(S'helps'
p1241
I10
tp1242
a(S'immagrants'
p1243
I10
tp1244
a(S'looks'
p1245
I10
tp1246
a(S'maria'
p1247
I10
tp1248
a(S'memoirs'
p1249
I10
tp1250
a(S'memory'
p1251
I10
tp1252
a(S'mind'
p1253
I10
tp1254
a(S'month1'
p1255
I10
tp1256
a(S'northern'
p1257
I10
tp1258
a(S'overt'
p1259
I10
tp1260
a(S'paragraphs'
p1261
I10
tp1262
a(S'quite'
p1263
I10
tp1264
a(S'relationship'
p1265
I10
tp1266
a(S'remembering'
p1267
I10
tp1268
a(S'right'
p1269
I10
tp1270
a(S'safe'
p1271
I10
tp1272
a(S'seemed'
p1273
I10
tp1274
a(S'situated'
p1275
I10
tp1276
a(S'situation'
p1277
I10
tp1278
a(S'sort'
p1279
I10
tp1280
a(S'stating'
p1281
I10
tp1282
a(S'theme'
p1283
I10
tp1284
a(S'therefore'
p1285
I10
tp1286
a(S'touching'
p1287
I10
tp1288
a(S'adores'
p1289
I9
tp1290
a(S'allowed'
p1291
I9
tp1292
a(S'based'
p1293
I9
tp1294
a(S'bit'
p1295
I9
tp1296
a(S'called'
p1297
I9
tp1298
a(S"can't"
p1299
I9
tp1300
a(S'caps6'
p1301
I9
tp1302
a(S'celebrating'
p1303
I9
tp1304
a(S'date1'
p1305
I9
tp1306
a(S'dont'
p1307
I9
tp1308
a(S'entire'
p1309
I9
tp1310
a(S'everybody'
p1311
I9
tp1312
a(S'excited'
p1313
I9
tp1314
a(S'experience'
p1315
I9
tp1316
a(S'faith'
p1317
I9
tp1318
a(S'future'
p1319
I9
tp1320
a(S'grateful.the'
p1321
I9
tp1322
a(S'gratefullness'
p1323
I9
tp1324
a(S'happieness'
p1325
I9
tp1326
a(S'his/her'
p1327
I9
tp1328
a(S'immigrant'
p1329
I9
tp1330
a(S'information'
p1331
I9
tp1332
a(S'is.the'
p1333
I9
tp1334
a(S"isn't"
p1335
I9
tp1336
a(S'keeps'
p1337
I9
tp1338
a(S'learning'
p1339
I9
tp1340
a(S'least'
p1341
I9
tp1342
a(S'lines'
p1343
I9
tp1344
a(S'long'
p1345
I9
tp1346
a(S'lucky'
p1347
I9
tp1348
a(S'modest'
p1349
I9
tp1350
a(S'needs'
p1351
I9
tp1352
a(S'originally'
p1353
I9
tp1354
a(S'provided'
p1355
I9
tp1356
a(S'race'
p1357
I9
tp1358
a(S'rest'
p1359
I9
tp1360
a(S'sadness'
p1361
I9
tp1362
a(S'section'
p1363
I9
tp1364
a(S'serious'
p1365
I9
tp1366
a(S'seven'
p1367
I9
tp1368
a(S'sharing'
p1369
I9
tp1370
a(S'smell'
p1371
I9
tp1372
a(S'story.the'
p1373
I9
tp1374
a(S'tries'
p1375
I9
tp1376
a(S'tropics'
p1377
I9
tp1378
a(S'two-family'
p1379
I9
tp1380
a(S"wouldn't"
p1381
I9
tp1382
a(S'yearning'
p1383
I9
tp1384
a(S'\x96'
I9
tp1385
a(S'(@num2)'
p1386
I8
tp1387
a(S'addition'
p1388
I8
tp1389
a(S'alway'
p1390
I8
tp1391
a(S'cares'
p1392
I8
tp1393
a(S'celebration'
p1394
I8
tp1395
a(S'chemical'
p1396
I8
tp1397
a(S'choice'
p1398
I8
tp1399
a(S'clear'
p1400
I8
tp1401
a(S"couldn't"
p1402
I8
tp1403
a(S'deserved'
p1404
I8
tp1405
a(S'details'
p1406
I8
tp1407
a(S'enjoyable'
p1408
I8
tp1409
a(S'exciting'
p1410
I8
tp1411
a(S'fond'
p1412
I8
tp1413
a(S'head'
p1414
I8
tp1415
a(S'hear'
p1416
I8
tp1417
a(S'hes'
p1418
I8
tp1419
a(S'household'
p1420
I8
tp1421
a(S'imigrants'
p1422
I8
tp1423
a(S'knit'
p1424
I8
tp1425
a(S'laboratory'
p1426
I8
tp1427
a(S'lead'
p1428
I8
tp1429
a(S'likes'
p1430
I8
tp1431
a(S'mainly'
p1432
I8
tp1433
a(S'must'
p1434
I8
tp1435
a(S'norm'
p1436
I8
tp1437
a(S'order'
p1438
I8
tp1439
a(S"parents'"
p1440
I8
tp1441
a(S'parents.the'
p1442
I8
tp1443
a(S'pleasant'
p1444
I8
tp1445
a(S'point'
p1446
I8
tp1447
a(S'powerful'
p1448
I8
tp1449
a(S'prevailed'
p1450
I8
tp1451
a(S'provide'
p1452
I8
tp1453
a(S'remember'
p1454
I8
tp1455
a(S'share'
p1456
I8
tp1457
a(S'speaks'
p1458
I8
tp1459
a(S'starting'
p1460
I8
tp1461
a(S'stayed'
p1462
I8
tp1463
a(S'struggles'
p1464
I8
tp1465
a(S'stuff'
p1466
I8
tp1467
a(S'surrounded'
p1468
I8
tp1469
a(S'teach'
p1470
I8
tp1471
a(S'teaching'
p1472
I8
tp1473
a(S'treat'
p1474
I8
tp1475
a(S'tried'
p1476
I8
tp1477
a(S'turning'
p1478
I8
tp1479
a(S'types'
p1480
I8
tp1481
a(S'use'
p1482
I8
tp1483
a(S"weren't"
p1484
I8
tp1485
a(S'willing'
p1486
I8
tp1487
a(S'yet'
p1488
I8
tp1489
a(S"you're"
p1490
I8
tp1491
a(S"'family'"
p1492
I7
tp1493
a(S'accept'
p1494
I7
tp1495
a(S'anybody'
p1496
I7
tp1497
a(S'ate'
p1498
I7
tp1499
a(S'barriers'
p1500
I7
tp1501
a(S'bravery'
p1502
I7
tp1503
a(S"caps1's"
p1504
I7
tp1505
a(S'case'
p1506
I7
tp1507
a(S'chance'
p1508
I7
tp1509
a(S'chose'
p1510
I7
tp1511
a(S'compassion'
p1512
I7
tp1513
a(S'constant'
p1514
I7
tp1515
a(S'detail'
p1516
I7
tp1517
a(S'didnt'
p1518
I7
tp1519
a(S'discribed'
p1520
I7
tp1521
a(S'due'
p1522
I7
tp1523
a(S'else'
p1524
I7
tp1525
a(S'emotion'
p1526
I7
tp1527
a(S'engineering'
p1528
I7
tp1529
a(S'enjoyed'
p1530
I7
tp1531
a(S'experiences'
p1532
I7
tp1533
a(S'fashion'
p1534
I7
tp1535
a(S'forever'
p1536
I7
tp1537
a(S'free'
p1538
I7
tp1539
a(S'ful'
p1540
I7
tp1541
a(S'happened'
p1542
I7
tp1543
a(S'happier'
p1544
I7
tp1545
a(S'heartwarming'
p1546
I7
tp1547
a(S'homes'
p1548
I7
tp1549
a(S'homey'
p1550
I7
tp1551
a(S'idea'
p1552
I7
tp1553
a(S'image'
p1554
I7
tp1555
a(S'imagine'
p1556
I7
tp1557
a(S'inside'
p1558
I7
tp1559
a(S'instance'
p1560
I7
tp1561
a(S'ironbound'
p1562
I7
tp1563
a(S'land'
p1564
I7
tp1565
a(S'landlord'
p1566
I7
tp1567
a(S'letting'
p1568
I7
tp1569
a(S'light'
p1570
I7
tp1571
a(S'lots'
p1572
I7
tp1573
a(S'ment'
p1574
I7
tp1575
a(S'mood.in'
p1576
I7
tp1577
a(S'parties'
p1578
I7
tp1579
a(S'peace'
p1580
I7
tp1581
a(S'personal'
p1582
I7
tp1583
a(S'played'
p1584
I7
tp1585
a(S'rawedia'
p1586
I7
tp1587
a(S'remembers'
p1588
I7
tp1589
a(S'reminds'
p1590
I7
tp1591
a(S'safety'
p1592
I7
tp1593
a(S"say's"
p1594
I7
tp1595
a(S'sergio'
p1596
I7
tp1597
a(S'shares'
p1598
I7
tp1599
a(S'skill'
p1600
I7
tp1601
a(S'space'
p1602
I7
tp1603
a(S'studied'
p1604
I7
tp1605
a(S'successful'
p1606
I7
tp1607
a(S'surrogate'
p1608
I7
tp1609
a(S'sweet'
p1610
I7
tp1611
a(S'three-room'
p1612
I7
tp1613
a(S'treated'
p1614
I7
tp1615
a(S'try'
p1616
I7
tp1617
a(S'world'
p1618
I7
tp1619
a(S'years'
p1620
I7
tp1621
a(S'across'
p1622
I6
tp1623
a(S'adds'
p1624
I6
tp1625
a(S'bond'
p1626
I6
tp1627
a(S'book'
p1628
I6
tp1629
a(S'bringing'
p1630
I6
tp1631
a(S'calls'
p1632
I6
tp1633
a(S'career'
p1634
I6
tp1635
a(S'changes'
p1636
I6
tp1637
a(S'creats'
p1638
I6
tp1639
a(S'displays'
p1640
I6
tp1641
a(S'emotions'
p1642
I6
tp1643
a(S'emphasizes'
p1644
I6
tp1645
a(S'ends'
p1646
I6
tp1647
a(S'enjoy'
p1648
I6
tp1649
a(S'enjoying'
p1650
I6
tp1651
a(S'enviornment'
p1652
I6
tp1653
a(S'etc'
p1654
I6
tp1655
a(S'familys'
p1656
I6
tp1657
a(S'freinds'
p1658
I6
tp1659
a(S'glad'
p1660
I6
tp1661
a(S'gratful'
p1662
I6
tp1663
a(S'greatfullness'
p1664
I6
tp1665
a(S'grown'
p1666
I6
tp1667
a(S'happiness.the'
p1668
I6
tp1669
a(S'him.in'
p1670
I6
tp1671
a(S'including'
p1672
I6
tp1673
a(S'invited'
p1674
I6
tp1675
a(S'life.in'
p1676
I6
tp1677
a(S'looking'
p1678
I6
tp1679
a(S'loveing'
p1680
I6
tp1681
a(S'loving.in'
p1682
I6
tp1683
a(S'meal'
p1684
I6
tp1685
a(S'meet'
p1686
I6
tp1687
a(S'mixed'
p1688
I6
tp1689
a(S'narcisco'
p1690
I6
tp1691
a(S'nostalgic'
p1692
I6
tp1693
a(S'num4)'
p1694
I6
tp1695
a(S'onto'
p1696
I6
tp1697
a(S'passing'
p1698
I6
tp1699
a(S'ph'
p1700
I6
tp1701
a(S'phrases'
p1702
I6
tp1703
a(S'portrayed'
p1704
I6
tp1705
a(S'pretty'
p1706
I6
tp1707
a(S'prints'
p1708
I6
tp1709
a(S'probably'
p1710
I6
tp1711
a(S'proves'
p1712
I6
tp1713
a(S'recalls'
p1714
I6
tp1715
a(S'relate'
p1716
I6
tp1717
a(S'relationships'
p1718
I6
tp1719
a(S'seen'
p1720
I6
tp1721
a(S'selfish'
p1722
I6
tp1723
a(S'sence'
p1724
I6
tp1725
a(S"she's"
p1726
I6
tp1727
a(S'short'
p1728
I6
tp1729
a(S'supported'
p1730
I6
tp1731
a(S'thinking'
p1732
I6
tp1733
a(S'trouble'
p1734
I6
tp1735
a(S'untill'
p1736
I6
tp1737
a(S'usually'
p1738
I6
tp1739
a(S'went-and'
p1740
I6
tp1741
a(S'(@num3)'
p1742
I5
tp1743
a(S'actions'
p1744
I5
tp1745
a(S'actually'
p1746
I5
tp1747
a(S'adding'
p1748
I5
tp1749
a(S'allways'
p1750
I5
tp1751
a(S'appartment'
p1752
I5
tp1753
a(S'attitude'
p1754
I5
tp1755
a(S'basement'
p1756
I5
tp1757
a(S'begins'
p1758
I5
tp1759
a(S'beloved'
p1760
I5
tp1761
a(S'benefit'
p1762
I5
tp1763
a(S'bigger'
p1764
I5
tp1765
a(S'biggest'
p1766
I5
tp1767
a(S'blond'
p1768
I5
tp1769
a(S'bonds'
p1770
I5
tp1771
a(S'brick'
p1772
I5
tp1773
a(S'bring'
p1774
I5
tp1775
a(S'carrers'
p1776
I5
tp1777
a(S'clothing'
p1778
I5
tp1779
a(S'continues'
p1780
I5
tp1781
a(S'contributes'
p1782
I5
tp1783
a(S'cooks'
p1784
I5
tp1785
a(S"could've"
p1786
I5
tp1787
a(S'deep'
p1788
I5
tp1789
a(S'differences'
p1790
I5
tp1791
a(S'diffrent'
p1792
I5
tp1793
a(S'dinners'
p1794
I5
tp1795
a(S'drove'
p1796
I5
tp1797
a(S'easily'
p1798
I5
tp1799
a(S'enjoys'
p1800
I5
tp1801
a(S'explanation'
p1802
I5
tp1803
a(S'fighting'
p1804
I5
tp1805
a(S'finding'
p1806
I5
tp1807
a(S'following'
p1808
I5
tp1809
a(S'friends.the'
p1810
I5
tp1811
a(S'furnished'
p1812
I5
tp1813
a(S'grateful.in'
p1814
I5
tp1815
a(S'happen'
p1816
I5
tp1817
a(S'hardship'
p1818
I5
tp1819
a(S'history'
p1820
I5
tp1821
a(S'home."the'
p1822
I5
tp1823
a(S'hospitality'
p1824
I5
tp1825
a(S'house.the'
p1826
I5
tp1827
a(S'huge'
p1828
I5
tp1829
a(S"i'm"
p1830
I5
tp1831
a(S'immigrating'
p1832
I5
tp1833
a(S'incredible'
p1834
I5
tp1835
a(S'informal'
p1836
I5
tp1837
a(S'instead'
p1838
I5
tp1839
a(S'it.in'
p1840
I5
tp1841
a(S'joined'
p1842
I5
tp1843
a(S'later'
p1844
I5
tp1845
a(S'lifestyle'
p1846
I5
tp1847
a(S'listen'
p1848
I5
tp1849
a(S'listening'
p1850
I5
tp1851
a(S'location3'
p1852
I5
tp1853
a(S'memmoir'
p1854
I5
tp1855
a(S"memoir's"
p1856
I5
tp1857
a(S'message'
p1858
I5
tp1859
a(S'middle'
p1860
I5
tp1861
a(S'moment'
p1862
I5
tp1863
a(S'named'
p1864
I5
tp1865
a(S'near'
p1866
I5
tp1867
a(S'negative'
p1868
I5
tp1869
a(S'prove'
p1870
I5
tp1871
a(S'putting'
p1872
I5
tp1873
a(S'races'
p1874
I5
tp1875
a(S'racist'
p1876
I5
tp1877
a(S'ready'
p1878
I5
tp1879
a(S'realizes'
p1880
I5
tp1881
a(S'reflects'
p1882
I5
tp1883
a(S'relaxing'
p1884
I5
tp1885
a(S'result'
p1886
I5
tp1887
a(S'rodriguez.the'
p1888
I5
tp1889
a(S'sacrificing'
p1890
I5
tp1891
a(S'satisfaction'
p1892
I5
tp1893
a(S'selection'
p1894
I5
tp1895
a(S'self'
p1896
I5
tp1897
a(S'smile'
p1898
I5
tp1899
a(S'somewhat'
p1900
I5
tp1901
a(S'soon'
p1902
I5
tp1903
a(S'sr'
p1904
I5
tp1905
a(S'statement'
p1906
I5
tp1907
a(S'stories'
p1908
I5
tp1909
a(S'supports'
p1910
I5
tp1911
a(S'ther'
p1912
I5
tp1913
a(S'theres'
p1914
I5
tp1915
a(S'thoughtful'
p1916
I5
tp1917
a(S'trust'
p1918
I5
tp1919
a(S'type'
p1920
I5
tp1921
a(S'understands'
p1922
I5
tp1923
a(S'upbeat'
p1924
I5
tp1925
a(S'using'
p1926
I5
tp1927
a(S'warming'
p1928
I5
tp1929
a(S'was.the'
p1930
I5
tp1931
a(S'werent'
p1932
I5
tp1933
a(S'wide'
p1934
I5
tp1935
a(S'writer'
p1936
I5
tp1937
a(S'(albeit'
p1938
I4
tp1939
a(S'(paragraf'
p1940
I4
tp1941
a(S'(the'
p1942
I4
tp1943
a(S'-'
I4
tp1944
a(S'accepting'
p1945
I4
tp1946
a(S'according'
p1947
I4
tp1948
a(S'acts'
p1949
I4
tp1950
a(S'amount'
p1951
I4
tp1952
a(S'appreciated'
p1953
I4
tp1954
a(S'appriciative'
p1955
I4
tp1956
a(S'arnold'
p1957
I4
tp1958
a(S'basicly'
p1959
I4
tp1960
a(S'beautiful'
p1961
I4
tp1962
a(S'becomes'
p1963
I4
tp1964
a(S'bedroom'
p1965
I4
tp1966
a(S'blond-brick'
p1967
I4
tp1968
a(S'body'
p1969
I4
tp1970
a(S'bright'
p1971
I4
tp1972
a(S'brothers'
p1973
I4
tp1974
a(S'cause'
p1975
I4
tp1976
a(S'childrens'
p1977
I4
tp1978
a(S'closer'
p1979
I4
tp1980
a(S'complete'
p1981
I4
tp1982
a(S'consisted'
p1983
I4
tp1984
a(S'couple'
p1985
I4
tp1986
a(S'days'
p1987
I4
tp1988
a(S'decision'
p1989
I4
tp1990
a(S'demonstrate'
p1991
I4
tp1992
a(S'demonstrates'
p1993
I4
tp1994
a(S'descriptions'
p1995
I4
tp1996
a(S'develops'
p1997
I4
tp1998
a(S'difficult'
p1999
I4
tp2000
a(S'displayed'
p2001
I4
tp2002
a(S'distinct'
p2003
I4
tp2004
a(S'easy'
p2005
I4
tp2006
a(S'eating'
p2007
I4
tp2008
a(S'edelmira'
p2009
I4
tp2010
a(S'emphasized'
p2011
I4
tp2012
a(S'endured'
p2013
I4
tp2014
a(S'enviorment'
p2015
I4
tp2016
a(S'everywhere'
p2017
I4
tp2018
a(S'evident'
p2019
I4
tp2020
a(S'face'
p2021
I4
tp2022
a(S'facts'
p2023
I4
tp2024
a(S'family".the'
p2025
I4
tp2026
a(S'feasts'
p2027
I4
tp2028
a(S'festive'
p2029
I4
tp2030
a(S'fills'
p2031
I4
tp2032
a(S'financial'
p2033
I4
tp2034
a(S'five'
p2035
I4
tp2036
a(S'fondly'
p2037
I4
tp2038
a(S'fondness'
p2039
I4
tp2040
a(S'foods'
p2041
I4
tp2042
a(S'formal'
p2043
I4
tp2044
a(S'frugal'
p2045
I4
tp2046
a(S'general'
p2047
I4
tp2048
a(S'graciousness'
p2049
I4
tp2050
a(S'greatful)'
p2051
I4
tp2052
a(S'greatly'
p2053
I4
tp2054
a(S'group'
p2055
I4
tp2056
a(S'hade'
p2057
I4
tp2058
a(S'happens'
p2059
I4
tp2060
a(S'heart-warming'
p2061
I4
tp2062
a(S'high'
p2063
I4
tp2064
a(S'homely'
p2065
I4
tp2066
a(S'hometown'
p2067
I4
tp2068
a(S'humor'
p2069
I4
tp2070
a(S'ideas'
p2071
I4
tp2072
a(S'included'
p2073
I4
tp2074
a(S'interesting'
p2075
I4
tp2076
a(S'invites'
p2077
I4
tp2078
a(S'kinds'
p2079
I4
tp2080
a(S'leaves'
p2081
I4
tp2082
a(S'less'
p2083
I4
tp2084
a(S'lifting'
p2085
I4
tp2086
a(S'listened'
p2087
I4
tp2088
a(S'lively'
p2089
I4
tp2090
a(S'looked'
p2091
I4
tp2092
a(S'love.in'
p2093
I4
tp2094
a(S'loved.the'
p2095
I4
tp2096
a(S'mad'
p2097
I4
tp2098
a(S'man'
p2099
I4
tp2100
a(S'matters'
p2101
I4
tp2102
a(S'meaningful'
p2103
I4
tp2104
a(S'mellow'
p2105
I4
tp2106
a(S'member'
p2107
I4
tp2108
a(S'met'
p2109
I4
tp2110
a(S"narrator's"
p2111
I4
tp2112
a(S'nationality'
p2113
I4
tp2114
a(S'num5'
p2115
I4
tp2116
a(S'obviously'
p2117
I4
tp2118
a(S'one-room'
p2119
I4
tp2120
a(S'opportunity'
p2121
I4
tp2122
a(S'overcome'
p2123
I4
tp2124
a(S'parenthesis'
p2125
I4
tp2126
a(S'places'
p2127
I4
tp2128
a(S'poverty'
p2129
I4
tp2130
a(S'presents'
p2131
I4
tp2132
a(S'problem'
p2133
I4
tp2134
a(S'qualities'
p2135
I4
tp2136
a(S'racial'
p2137
I4
tp2138
a(S'raise'
p2139
I4
tp2140
a(S'reads'
p2141
I4
tp2142
a(S'regularly'
p2143
I4
tp2144
a(S'respected'
p2145
I4
tp2146
a(S'respectful'
p2147
I4
tp2148
a(S'respects'
p2149
I4
tp2150
a(S'reveals'
p2151
I4
tp2152
a(S'risked'
p2153
I4
tp2154
a(S'rodriguez.in'
p2155
I4
tp2156
a(S'roots'
p2157
I4
tp2158
a(S'sacraficed'
p2159
I4
tp2160
a(S'school'
p2161
I4
tp2162
a(S'secondly'
p2163
I4
tp2164
a(S'sentences'
p2165
I4
tp2166
a(S'shelter'
p2167
I4
tp2168
a(S'siblings'
p2169
I4
tp2170
a(S'sister'
p2171
I4
tp2172
a(S'slightly'
p2173
I4
tp2174
a(S'smells'
p2175
I4
tp2176
a(S'soft'
p2177
I4
tp2178
a(S'solidary'
p2179
I4
tp2180
a(S'somewhere'
p2181
I4
tp2182
a(S'spend'
p2183
I4
tp2184
a(S'spoke'
p2185
I4
tp2186
a(S'state'
p2187
I4
tp2188
a(S'strongly'
p2189
I4
tp2190
a(S'struggling'
p2191
I4
tp2192
a(S'sure'
p2193
I4
tp2194
a(S'them.in'
p2195
I4
tp2196
a(S'themself'
p2197
I4
tp2198
a(S"there's"
p2199
I4
tp2200
a(S"they've"
p2201
I4
tp2202
a(S'thoughts'
p2203
I4
tp2204
a(S'throught'
p2205
I4
tp2206
a(S'together.the'
p2207
I4
tp2208
a(S'town'
p2209
I4
tp2210
a(S'truely'
p2211
I4
tp2212
a(S'uncles'
p2213
I4
tp2214
a(S'understanding'
p2215
I4
tp2216
a(S'variety'
p2217
I4
tp2218
a(S'verry'
p2219
I4
tp2220
a(S'visit'
p2221
I4
tp2222
a(S'vivid'
p2223
I4
tp2224
a(S'wanting'
p2225
I4
tp2226
a(S'whoever'
p2227
I4
tp2228
a(S'wich'
p2229
I4
tp2230
a(S'works'
p2231
I4
tp2232
a(S'worry'
p2233
I4
tp2234
a(S"'narciso"
p2235
I3
tp2236
a(S'(@caps3'
p2237
I3
tp2238
a(S'(my'
p2239
I3
tp2240
a(S'[his]'
p2241
I3
tp2242
a(S'accomplished'
p2243
I3
tp2244
a(S'accomplishment'
p2245
I3
tp2246
a(S'act'
p2247
I3
tp2248
a(S'acted'
p2249
I3
tp2250
a(S'added'
p2251
I3
tp2252
a(S'advantage'
p2253
I3
tp2254
a(S'affect'
p2255
I3
tp2256
a(S'afraid'
p2257
I3
tp2258
a(S'american'
p2259
I3
tp2260
a(S'among'
p2261
I3
tp2262
a(S'area'
p2263
I3
tp2264
a(S"aren't"
p2265
I3
tp2266
a(S'attitudes'
p2267
I3
tp2268
a(S'author.in'
p2269
I3
tp2270
a(S'backgrounds'
p2271
I3
tp2272
a(S'begin'
p2273
I3
tp2274
a(S'bertha'
p2275
I3
tp2276
a(S'blonde-brick'
p2277
I3
tp2278
a(S'blood-related'
p2279
I3
tp2280
a(S'blue'
p2281
I3
tp2282
a(S'bought'
p2283
I3
tp2284
a(S'busy'
p2285
I3
tp2286
a(S'calming'
p2287
I3
tp2288
a(S'cannot'
p2289
I3
tp2290
a(S'caps1.s.a'
p2291
I3
tp2292
a(S'careful'
p2293
I3
tp2294
a(S'challenges'
p2295
I3
tp2296
a(S"child's"
p2297
I3
tp2298
a(S'closeness'
p2299
I3
tp2300
a(S'colorful'
p2301
I3
tp2302
a(S'completely'
p2303
I3
tp2304
a(S'concludes'
p2305
I3
tp2306
a(S'conditions'
p2307
I3
tp2308
a(S'contrary'
p2309
I3
tp2310
a(S'conveyed'
p2311
I3
tp2312
a(S'conveys'
p2313
I3
tp2314
a(S'countries'
p2315
I3
tp2316
a(S'cultra'
p2317
I3
tp2318
a(S'deal'
p2319
I3
tp2320
a(S'deserve'
p2321
I3
tp2322
a(S'detailed'
p2323
I3
tp2324
a(S'determination'
p2325
I3
tp2326
a(S'determined'
p2327
I3
tp2328
a(S'discribes'
p2329
I3
tp2330
a(S'diverse'
p2331
I3
tp2332
a(S'dream'
p2333
I3
tp2334
a(S'earth'
p2335
I3
tp2336
a(S'easier'
p2337
I3
tp2338
a(S'effect'
p2339
I3
tp2340
a(S'either'
p2341
I3
tp2342
a(S'emotional'
p2343
I3
tp2344
a(S'emphasize'
p2345
I3
tp2346
a(S'ended'
p2347
I3
tp2348
a(S'established'
p2349
I3
tp2350
a(S'eternaly'
p2351
I3
tp2352
a(S'events'
p2353
I3
tp2354
a(S'expressing'
p2355
I3
tp2356
a(S'extend'
p2357
I3
tp2358
a(S'eyes'
p2359
I3
tp2360
a(S'faimly'
p2361
I3
tp2362
a(S'far'
p2363
I3
tp2364
a(S'feast)'
p2365
I3
tp2366
a(S'feed'
p2367
I3
tp2368
a(S'fell'
p2369
I3
tp2370
a(S'filling'
p2371
I3
tp2372
a(S'focus'
p2373
I3
tp2374
a(S'focuses'
p2375
I3
tp2376
a(S'forms'
p2377
I3
tp2378
a(S'friend)'
p2379
I3
tp2380
a(S'friendliness'
p2381
I3
tp2382
a(S'furthermore'
p2383
I3
tp2384
a(S'gather'
p2385
I3
tp2386
a(S'gatherings'
p2387
I3
tp2388
a(S'generally'
p2389
I3
tp2390
a(S'gone'
p2391
I3
tp2392
a(S'grace'
p2393
I3
tp2394
a(S'graditude'
p2395
I3
tp2396
a(S'grand'
p2397
I3
tp2398
a(S'grandfather'
p2399
I3
tp2400
a(S'grate'
p2401
I3
tp2402
a(S'grateful.)'
p2403
I3
tp2404
a(S'greatful.in'
p2405
I3
tp2406
a(S'greatful.the'
p2407
I3
tp2408
a(S'hapiness'
p2409
I3
tp2410
a(S'happend'
p2411
I3
tp2412
a(S'happily'
p2413
I3
tp2414
a(S'happy.in'
p2415
I3
tp2416
a(S'hard-working'
p2417
I3
tp2418
a(S'he/she'
p2419
I3
tp2420
a(S'him/her'
p2421
I3
tp2422
a(S'hold'
p2423
I3
tp2424
a(S'home".the'
p2425
I3
tp2426
a(S'honor'
p2427
I3
tp2428
a(S'houses'
p2429
I3
tp2430
a(S'human'
p2431
I3
tp2432
a(S'imagery'
p2433
I3
tp2434
a(S'imagrents'
p2435
I3
tp2436
a(S'immagrant'
p2437
I3
tp2438
a(S'immigrate'
p2439
I3
tp2440
a(S'impact'
p2441
I3
tp2442
a(S'importantly'
p2443
I3
tp2444
a(S'impression'
p2445
I3
tp2446
a(S'in.the'
p2447
I3
tp2448
a(S'includes'
p2449
I3
tp2450
a(S'influence'
p2451
I3
tp2452
a(S'inspired'
p2453
I3
tp2454
a(S'inspiring.the'
p2455
I3
tp2456
a(S'inspirring'
p2457
I3
tp2458
a(S'interested'
p2459
I3
tp2460
a(S'is.in'
p2461
I3
tp2462
a(S'isnt'
p2463
I3
tp2464
a(S'join'
p2465
I3
tp2466
a(S'joyfull'
p2467
I3
tp2468
a(S'joyous'
p2469
I3
tp2470
a(S'keeping'
p2471
I3
tp2472
a(S"landlord's"
p2473
I3
tp2474
a(S'laughing'
p2475
I3
tp2476
a(S'laughter'
p2477
I3
tp2478
a(S'lif'
p2479
I3
tp2480
a(S'lifes'
p2481
I3
tp2482
a(S'light-hearted'
p2483
I3
tp2484
a(S'likely'
p2485
I3
tp2486
a(S'located'
p2487
I3
tp2488
a(S'maybe'
p2489
I3
tp2490
a(S'memoir.i'
p2491
I3
tp2492
a(S'memoir.narciso'
p2493
I3
tp2494
a(S'memoir.this'
p2495
I3
tp2496
a(S'memoire'
p2497
I3
tp2498
a(S'memor'
p2499
I3
tp2500
a(S'mix'
p2501
I3
tp2502
a(S'moments'
p2503
I3
tp2504
a(S'moodthe'
p2505
I3
tp2506
a(S'nearby'
p2507
I3
tp2508
a(S'negitive'
p2509
I3
tp2510
a(S'none'
p2511
I3
tp2512
a(S'normal'
p2513
I3
tp2514
a(S'now.the'
p2515
I3
tp2516
a(S'number'
p2517
I3
tp2518
a(S'oppertunities'
p2519
I3
tp2520
a(S'opportunities'
p2521
I3
tp2522
a(S"organization1's"
p2523
I3
tp2524
a(S'organization2'
p2525
I3
tp2526
a(S'p'
I3
tp2527
a(S'paradise'
p2528
I3
tp2529
a(S'parents.in'
p2530
I3
tp2531
a(S'particular'
p2532
I3
tp2533
a(S'paying'
p2534
I3
tp2535
a(S'perents'
p2536
I3
tp2537
a(S'perfect'
p2538
I3
tp2539
a(S'pick'
p2540
I3
tp2541
a(S'picked'
p2542
I3
tp2543
a(S'pleased'
p2544
I3
tp2545
a(S'plus'
p2546
I3
tp2547
a(S'points'
p2548
I3
tp2549
a(S'portray'
p2550
I3
tp2551
a(S'possible'
p2552
I3
tp2553
a(S'praises'
p2554
I3
tp2555
a(S'present'
p2556
I3
tp2557
a(S'problems'
p2558
I3
tp2559
a(S'proud.the'
p2560
I3
tp2561
a(S'quit'
p2562
I3
tp2563
a(S'quotation'
p2564
I3
tp2565
a(S'random'
p2566
I3
tp2567
a(S"reader's"
p2568
I3
tp2569
a(S'reader.the'
p2570
I3
tp2571
a(S'realative'
p2572
I3
tp2573
a(S'realize'
p2574
I3
tp2575
a(S'realy'
p2576
I3
tp2577
a(S'recognizes'
p2578
I3
tp2579
a(S'reflect'
p2580
I3
tp2581
a(S'refuges'
p2582
I3
tp2583
a(S'relations'
p2584
I3
tp2585
a(S'rely'
p2586
I3
tp2587
a(S'repetition'
p2588
I3
tp2589
a(S'represent'
p2590
I3
tp2591
a(S'represents'
p2592
I3
tp2593
a(S'return'
p2594
I3
tp2595
a(S'rodriguez)'
p2596
I3
tp2597
a(S'rosemary'
p2598
I3
tp2599
a(S'sacrafices'
p2600
I3
tp2601
a(S'sake'
p2602
I3
tp2603
a(S'satisfied'
p2604
I3
tp2605
a(S'saw'
p2606
I3
tp2607
a(S'security'
p2608
I3
tp2609
a(S'segragation'
p2610
I3
tp2611
a(S'sisters'
p2612
I3
tp2613
a(S'sleep'
p2614
I3
tp2615
a(S'sound'
p2616
I3
tp2617
a(S'speak'
p2618
I3
tp2619
a(S'speaking'
p2620
I3
tp2621
a(S'specifically'
p2622
I3
tp2623
a(S'stand'
p2624
I3
tp2625
a(S'statements'
p2626
I3
tp2627
a(S'stays'
p2628
I3
tp2629
a(S'stick'
p2630
I3
tp2631
a(S'stood'
p2632
I3
tp2633
a(S'story.in'
p2634
I3
tp2635
a(S'success'
p2636
I3
tp2637
a(S'surroundings'
p2638
I3
tp2639
a(S'survive'
p2640
I3
tp2641
a(S'survived'
p2642
I3
tp2643
a(S'teaches'
p2644
I3
tp2645
a(S'textual'
p2646
I3
tp2647
a(S'tha'
p2648
I3
tp2649
a(S'thankful.the'
p2650
I3
tp2651
a(S'time.the'
p2652
I3
tp2653
a(S'touch'
p2654
I3
tp2655
a(S'touched'
p2656
I3
tp2657
a(S'touches'
p2658
I3
tp2659
a(S'tradition'
p2660
I3
tp2661
a(S'tring'
p2662
I3
tp2663
a(S'undefind'
p2664
I3
tp2665
a(S'unified'
p2666
I3
tp2667
a(S'unselfish'
p2668
I3
tp2669
a(S'up.the'
p2670
I3
tp2671
a(S'us."the'
p2672
I3
tp2673
a(S'values'
p2674
I3
tp2675
a(S'view'
p2676
I3
tp2677
a(S'visitors'
p2678
I3
tp2679
a(S'vividly'
p2680
I3
tp2681
a(S'warms'
p2682
I3
tp2683
a(S'wealthy'
p2684
I3
tp2685
a(S'wen'
p2686
I3
tp2687
a(S'willingness'
p2688
I3
tp2689
a(S'wished'
p2690
I3
tp2691
a(S'wonder'
p2692
I3
tp2693
a(S'wondering'
p2694
I3
tp2695
a(S'worryless'
p2696
I3
tp2697
a(S'worth'
p2698
I3
tp2699
a(S'write'
p2700
I3
tp2701
a(S'you.the'
p2702
I3
tp2703
a(S'(@caps2'
p2704
I2
tp2705
a(S'(@num2'
p2706
I2
tp2707
a(S'(cuban'
p2708
I2
tp2709
a(S'(for'
p2710
I2
tp2711
a(S'(in'
p2712
I2
tp2713
a(S'(narciso'
p2714
I2
tp2715
a(S'(p'
p2716
I2
tp2717
a(S'(they)'
p2718
I2
tp2719
a(S'--'
p2720
I2
tp2721
a(S'-paragraph'
p2722
I2
tp2723
a(S'[pg'
p2724
I2
tp2725
a(S'abot'
p2726
I2
tp2727
a(S'absolute'
p2728
I2
tp2729
a(S'action'
p2730
I2
tp2731
a(S'adjust'
p2732
I2
tp2733
a(S'admiration.the'
p2734
I2
tp2735
a(S'admire'
p2736
I2
tp2737
a(S'admiring'
p2738
I2
tp2739
a(S'adults'
p2740
I2
tp2741
a(S'affection'
p2742
I2
tp2743
a(S'affects'
p2744
I2
tp2745
a(S'alittle'
p2746
I2
tp2747
a(S'alive'
p2748
I2
tp2749
a(S'alone'
p2750
I2
tp2751
a(S'alwase'
p2752
I2
tp2753
a(S'amazed'
p2754
I2
tp2755
a(S'amounts'
p2756
I2
tp2757
a(S'and/or'
p2758
I2
tp2759
a(S'anew'
p2760
I2
tp2761
a(S"anyone's"
p2762
I2
tp2763
a(S'anyways'
p2764
I2
tp2765
a(S'anywhere'
p2766
I2
tp2767
a(S'apreciated'
p2768
I2
tp2769
a(S'arent'
p2770
I2
tp2771
a(S'artical'
p2772
I2
tp2773
a(S'arts'
p2774
I2
tp2775
a(S'aside'
p2776
I2
tp2777
a(S'aspects'
p2778
I2
tp2779
a(S'ather'
p2780
I2
tp2781
a(S'athor'
p2782
I2
tp2783
a(S'aunt'
p2784
I2
tp2785
a(S'auother'
p2786
I2
tp2787
a(S'author)'
p2788
I2
tp2789
a(S'author.i'
p2790
I2
tp2791
a(S'authour'
p2792
I2
tp2793
a(S'backround'
p2794
I2
tp2795
a(S'backs'
p2796
I2
tp2797
a(S'base'
p2798
I2
tp2799
a(S'bat'
p2800
I2
tp2801
a(S'becase'
p2802
I2
tp2803
a(S'beggining'
p2804
I2
tp2805
a(S'believes'
p2806
I2
tp2807
a(S'belive'
p2808
I2
tp2809
a(S'belonging'
p2810
I2
tp2811
a(S'better.the'
p2812
I2
tp2813
a(S'birth'
p2814
I2
tp2815
a(S'blanket'
p2816
I2
tp2817
a(S'blood-relatives'
p2818
I2
tp2819
a(S'bottom'
p2820
I2
tp2821
a(S'build'
p2822
I2
tp2823
a(S'builds'
p2824
I2
tp2825
a(S'bunch'
p2826
I2
tp2827
a(S'buy'
p2828
I2
tp2829
a(S'cant'
p2830
I2
tp2831
a(S'caps1.the'
p2832
I2
tp2833
a(S'caps2.s'
p2834
I2
tp2835
a(S'caps7'
p2836
I2
tp2837
a(S'care.the'
p2838
I2
tp2839
a(S'carreers'
p2840
I2
tp2841
a(S'carried'
p2842
I2
tp2843
a(S'certainly'
p2844
I2
tp2845
a(S"character's"
p2846
I2
tp2847
a(S'cheerfull'
p2848
I2
tp2849
a(S'cheerfullness'
p2850
I2
tp2851
a(S'child.the'
p2852
I2
tp2853
a(S'claims'
p2854
I2
tp2855
a(S'clue'
p2856
I2
tp2857
a(S'cold'
p2858
I2
tp2859
a(S'colors'
p2860
I2
tp2861
a(S'combined'
p2862
I2
tp2863
a(S'comfortting'
p2864
I2
tp2865
a(S'common'
p2866
I2
tp2867
a(S'compasion'
p2868
I2
tp2869
a(S'complements'
p2870
I2
tp2871
a(S'concidered'
p2872
I2
tp2873
a(S'confusing'
p2874
I2
tp2875
a(S'connection'
p2876
I2
tp2877
a(S'considerate'
p2878
I2
tp2879
a(S'content'
p2880
I2
tp2881
a(S'contentment'
p2882
I2
tp2883
a(S'contributed'
p2884
I2
tp2885
a(S'convey'
p2886
I2
tp2887
a(S'corageous'
p2888
I2
tp2889
a(S'cost'
p2890
I2
tp2891
a(S'cosy'
p2892
I2
tp2893
a(S'couage'
p2894
I2
tp2895
a(S'couragous'
p2896
I2
tp2897
a(S'creat'
p2898
I2
tp2899
a(S'created.in'
p2900
I2
tp2901
a(S'cubic'
p2902
I2
tp2903
a(S"cultra's"
p2904
I2
tp2905
a(S'cultral'
p2906
I2
tp2907
a(S'culture.the'
p2908
I2
tp2909
a(S'culturethe'
p2910
I2
tp2911
a(S'curious'
p2912
I2
tp2913
a(S'dancing'
p2914
I2
tp2915
a(S'dearly'
p2916
I2
tp2917
a(S'decided'
p2918
I2
tp2919
a(S'decorated'
p2920
I2
tp2921
a(S'dedicated'
p2922
I2
tp2923
a(S'deeply'
p2924
I2
tp2925
a(S'defenition'
p2926
I2
tp2927
a(S'definatly'
p2928
I2
tp2929
a(S'definitely'
p2930
I2
tp2931
a(S'delicious'
p2932
I2
tp2933
a(S'depicts'
p2934
I2
tp2935
a(S'descent'
p2936
I2
tp2937
a(S'design'
p2938
I2
tp2939
a(S'diction'
p2940
I2
tp2941
a(S'died'
p2942
I2
tp2943
a(S'diffucult'
p2944
I2
tp2945
a(S'discribing'
p2946
I2
tp2947
a(S'discusses'
p2948
I2
tp2949
a(S'diversity'
p2950
I2
tp2951
a(S'doesnt'
p2952
I2
tp2953
a(S'dreams'
p2954
I2
tp2955
a(S'educational'
p2956
I2
tp2957
a(S'emotionally'
p2958
I2
tp2959
a(S'encompass'
p2960
I2
tp2961
a(S'entertaining'
p2962
I2
tp2963
a(S'environment.the'
p2964
I2
tp2965
a(S'ethnicity'
p2966
I2
tp2967
a(S'event'
p2968
I2
tp2969
a(S'everyday'
p2970
I2
tp2971
a(S'everyone.the'
p2972
I2
tp2973
a(S'evry'
p2974
I2
tp2975
a(S'ex'
p2976
I2
tp2977
a(S'example;'
p2978
I2
tp2979
a(S'excellent'
p2980
I2
tp2981
a(S'externally'
p2982
I2
tp2983
a(S'extra'
p2984
I2
tp2985
a(S'extreme'
p2986
I2
tp2987
a(S'fairly'
p2988
I2
tp2989
a(S'famialy'
p2990
I2
tp2991
a(S'familey'
p2992
I2
tp2993
a(S'familly'
p2994
I2
tp2995
a(S'family.he'
p2996
I2
tp2997
a(S'family.narciso'
p2998
I2
tp2999
a(S'famous'
p3000
I2
tp3001
a(S'fancy'
p3002
I2
tp3003
a(S'felted'
p3004
I2
tp3005
a(S'fights'
p3006
I2
tp3007
a(S'fill'
p3008
I2
tp3009
a(S'fit'
p3010
I2
tp3011
a(S'fixed'
p3012
I2
tp3013
a(S'flow'
p3014
I2
tp3015
a(S'flowing'
p3016
I2
tp3017
a(S'focused'
p3018
I2
tp3019
a(S'followed'
p3020
I2
tp3021
a(S'for.the'
p3022
I2
tp3023
a(S'foreign'
p3024
I2
tp3025
a(S'foreshadowing'
p3026
I2
tp3027
a(S'forget.the'
p3028
I2
tp3029
a(S'forgot'
p3030
I2
tp3031
a(S'fortunate'
p3032
I2
tp3033
a(S'forward'
p3034
I2
tp3035
a(S'fullness'
p3036
I2
tp3037
a(S'gathering'
p3038
I2
tp3039
a(S'genuinely'
p3040
I2
tp3041
a(S'golden'
p3042
I2
tp3043
a(S'good.the'
p3044
I2
tp3045
a(S'graditude.the'
p3046
I2
tp3047
a(S'gratitude.the'
p3048
I2
tp3049
a(S'great.in'
p3050
I2
tp3051
a(S'greatest'
p3052
I2
tp3053
a(S'guests'
p3054
I2
tp3055
a(S'guy'
p3056
I2
tp3057
a(S"hadn't"
p3058
I2
tp3059
a(S'hands'
p3060
I2
tp3061
a(S'hapeness'
p3062
I2
tp3063
a(S'happines'
p3064
I2
tp3065
a(S'happiness.in'
p3066
I2
tp3067
a(S'have.the'
p3068
I2
tp3069
a(S"he'll"
p3070
I2
tp3071
a(S'healthy'
p3072
I2
tp3073
a(S'heard'
p3074
I2
tp3075
a(S'hearted'
p3076
I2
tp3077
a(S'hearts'
p3078
I2
tp3079
a(S'hearty'
p3080
I2
tp3081
a(S'helpfull'
p3082
I2
tp3083
a(S"here's"
p3084
I2
tp3085
a(S'highly'
p3086
I2
tp3087
a(S'him;'
p3088
I2
tp3089
a(S'himthe'
p3090
I2
tp3091
a(S'holding'
p3092
I2
tp3093
a(S'holds'
p3094
I2
tp3095
a(S'holidays'
p3096
I2
tp3097
a(S'hom'
p3098
I2
tp3099
a(S'home."for'
p3100
I2
tp3101
a(S'home."in'
p3102
I2
tp3103
a(S'homeland'
p3104
I2
tp3105
a(S'homethe'
p3106
I2
tp3107
a(S'honesty'
p3108
I2
tp3109
a(S'honors'
p3110
I2
tp3111
a(S'hopeful'
p3112
I2
tp3113
a(S'hopefull'
p3114
I2
tp3115
a(S'hurt'
p3116
I2
tp3117
a(S"i'd"
p3118
I2
tp3119
a(S'im'
p3120
I2
tp3121
a(S'imagination'
p3122
I2
tp3123
a(S'imigrents'
p3124
I2
tp3125
a(S'impacted'
p3126
I2
tp3127
a(S'import'
p3128
I2
tp3129
a(S'inspiration'
p3130
I2
tp3131
a(S'inspirational'
p3132
I2
tp3133
a(S'inspiring'
p3134
I2
tp3135
a(S'internally'
p3136
I2
tp3137
a(S'intresting'
p3138
I2
tp3139
a(S'invite'
p3140
I2
tp3141
a(S'inviting.the'
p3142
I2
tp3143
a(S'involved'
p3144
I2
tp3145
a(S'involvement'
p3146
I2
tp3147
a(S'ive'
p3148
I2
tp3149
a(S'joyfulness'
p3150
I2
tp3151
a(S'juanita'
p3152
I2
tp3153
a(S'key'
p3154
I2
tp3155
a(S'kinda'
p3156
I2
tp3157
a(S'kitchen;'
p3158
I2
tp3159
a(S'landlords'
p3160
I2
tp3161
a(S'larger'
p3162
I2
tp3163
a(S'laugh'
p3164
I2
tp3165
a(S'leads'
p3166
I2
tp3167
a(S'learne'
p3168
I2
tp3169
a(S'learns'
p3170
I2
tp3171
a(S'lend'
p3172
I2
tp3173
a(S'lesson'
p3174
I2
tp3175
a(S'level'
p3176
I2
tp3177
a(S'life.narciso'
p3178
I2
tp3179
a(S'like.the'
p3180
I2
tp3181
a(S'list'
p3182
I2
tp3183
a(S'lords'
p3184
I2
tp3185
a(S"lot's"
p3186
I2
tp3187
a(S"love.'"
p3188
I2
tp3189
a(S'loving.the'
p3190
I2
tp3191
a(S'lovingly'
p3192
I2
tp3193
a(S'lovingness'
p3194
I2
tp3195
a(S'loyalty'
p3196
I2
tp3197
a(S'luck'
p3198
I2
tp3199
a(S'makeing'
p3200
I2
tp3201
a(S'manner'
p3202
I2
tp3203
a(S'material'
p3204
I2
tp3205
a(S'matters.the'
p3206
I2
tp3207
a(S'mellowish'
p3208
I2
tp3209
a(S'memoir.another'
p3210
I2
tp3211
a(S'memoir.one'
p3212
I2
tp3213
a(S'memoirin'
p3214
I2
tp3215
a(S'memorable'
p3216
I2
tp3217
a(S'memore'
p3218
I2
tp3219
a(S'memorys'
p3220
I2
tp3221
a(S'mental'
p3222
I2
tp3223
a(S'mentioning'
p3224
I2
tp3225
a(S'misses'
p3226
I2
tp3227
a(S'modesty'
p3228
I2
tp3229
a(S'mood.narciso'
p3230
I2
tp3231
a(S'moodin'
p3232
I2
tp3233
a(S'more.in'
p3234
I2
tp3235
a(S'motivative'
p3236
I2
tp3237
a(S'moves'
p3238
I2
tp3239
a(S'musical'
p3240
I2
tp3241
a(S'name'
p3242
I2
tp3243
a(S'narrarator'
p3244
I2
tp3245
a(S'nationalities'
p3246
I2
tp3247
a(S'neiborhood'
p3248
I2
tp3249
a(S'neigh'
p3250
I2
tp3251
a(S'neighborhood.the'
p3252
I2
tp3253
a(S'neighborly'
p3254
I2
tp3255
a(S'neighbors.the'
p3256
I2
tp3257
a(S'ness'
p3258
I2
tp3259
a(S'night'
p3260
I2
tp3261
a(S'non'
p3262
I2
tp3263
a(S'non-\x96'
p3264
I2
tp3265
a(S'now.in'
p3266
I2
tp3267
a(S'num1-room'
p3268
I2
tp3269
a(S'num1.in'
p3270
I2
tp3271
a(S'num2-year-old'
p3272
I2
tp3273
a(S'numerous'
p3274
I2
tp3275
a(S'occasions'
p3276
I2
tp3277
a(S'offer'
p3278
I2
tp3279
a(S'okay'
p3280
I2
tp3281
a(S'older'
p3282
I2
tp3283
a(S"one's"
p3284
I2
tp3285
a(S'one.the'
p3286
I2
tp3287
a(S'opinon'
p3288
I2
tp3289
a(S'oppertunity'
p3290
I2
tp3291
a(S'oppurtunities'
p3292
I2
tp3293
a(S'optimistic'
p3294
I2
tp3295
a(S"organization2's"
p3296
I2
tp3297
a(S'oriented'
p3298
I2
tp3299
a(S'other.in'
p3300
I2
tp3301
a(S'other.the'
p3302
I2
tp3303
a(S'outlook'
p3304
I2
tp3305
a(S'overcame'
p3306
I2
tp3307
a(S'painted'
p3308
I2
tp3309
a(S'para'
p3310
I2
tp3311
a(S'parants'
p3312
I2
tp3313
a(S'parents.narciso'
p3314
I2
tp3315
a(S'parents;'
p3316
I2
tp3317
a(S'parrents'
p3318
I2
tp3319
a(S'party'
p3320
I2
tp3321
a(S'partys'
p3322
I2
tp3323
a(S'pass'
p3324
I2
tp3325
a(S'passions'
p3326
I2
tp3327
a(S'pay'
p3328
I2
tp3329
a(S'peaceful.the'
p3330
I2
tp3331
a(S'peacful'
p3332
I2
tp3333
a(S'people.in'
p3334
I2
tp3335
a(S'persevere'
p3336
I2
tp3337
a(S'persevered'
p3338
I2
tp3339
a(S'person.the'
p3340
I2
tp3341
a(S"person1'"
p3342
I2
tp3343
a(S'pharagraph'
p3344
I2
tp3345
a(S'physical'
p3346
I2
tp3347
a(S'pieces'
p3348
I2
tp3349
a(S'play'
p3350
I2
tp3351
a(S'playful'
p3352
I2
tp3353
a(S'plenty'
p3354
I2
tp3355
a(S'poem'
p3356
I2
tp3357
a(S'portrait'
p3358
I2
tp3359
a(S'possessed'
p3360
I2
tp3361
a(S'praise'
p3362
I2
tp3363
a(S'praising'
p3364
I2
tp3365
a(S'precious'
p3366
I2
tp3367
a(S'presented'
p3368
I2
tp3369
a(S'print'
p3370
I2
tp3371
a(S'progresses'
p3372
I2
tp3373
a(S'protected'
p3374
I2
tp3375
a(S'protrayed'
p3376
I2
tp3377
a(S'proudness'
p3378
I2
tp3379
a(S'pround'
p3380
I2
tp3381
a(S'provides'
p3382
I2
tp3383
a(S'pure'
p3384
I2
tp3385
a(S'purpose'
p3386
I2
tp3387
a(S'pursuit'
p3388
I2
tp3389
a(S'question'
p3390
I2
tp3391
a(S'raising'
p3392
I2
tp3393
a(S'rarely'
p3394
I2
tp3395
a(S'read.the'
p3396
I2
tp3397
a(S'realized'
p3398
I2
tp3399
a(S'received'
p3400
I2
tp3401
a(S'recognized'
p3402
I2
tp3403
a(S'recreates'
p3404
I2
tp3405
a(S'refugee'
p3406
I2
tp3407
a(S'regardless'
p3408
I2
tp3409
a(S'regular'
p3410
I2
tp3411
a(S'relates'
p3412
I2
tp3413
a(S'relation'
p3414
I2
tp3415
a(S'relaxes'
p3416
I2
tp3417
a(S'releavant'
p3418
I2
tp3419
a(S'relevant'
p3420
I2
tp3421
a(S'religion'
p3422
I2
tp3423
a(S'relitives'
p3424
I2
tp3425
a(S'repeated'
p3426
I2
tp3427
a(S'repeats'
p3428
I2
tp3429
a(S'responsible'
p3430
I2
tp3431
a(S'risk'
p3432
I2
tp3433
a(S"rodriguez'"
p3434
I2
tp3435
a(S'role'
p3436
I2
tp3437
a(S'rooms'
p3438
I2
tp3439
a(S'sacrifice."the'
p3440
I2
tp3441
a(S'sacrifise'
p3442
I2
tp3443
a(S'sad.in'
p3444
I2
tp3445
a(S'sad.the'
p3446
I2
tp3447
a(S'sadiness'
p3448
I2
tp3449
a(S'saing'
p3450
I2
tp3451
a(S'scene'
p3452
I2
tp3453
a(S'scentence'
p3454
I2
tp3455
a(S'scratch'
p3456
I2
tp3457
a(S'secure'
p3458
I2
tp3459
a(S'seeing'
p3460
I2
tp3461
a(S'sees'
p3462
I2
tp3463
a(S'segrigation'
p3464
I2
tp3465
a(S'sends'
p3466
I2
tp3467
a(S'senser'
p3468
I2
tp3469
a(S'sent'
p3470
I2
tp3471
a(S'sentimental'
p3472
I2
tp3473
a(S'serene'
p3474
I2
tp3475
a(S'shaped'
p3476
I2
tp3477
a(S'shoes'
p3478
I2
tp3479
a(S"shouldn't"
p3480
I2
tp3481
a(S'side'
p3482
I2
tp3483
a(S'similar'
p3484
I2
tp3485
a(S'sitting'
p3486
I2
tp3487
a(S'situations'
p3488
I2
tp3489
a(S'size'
p3490
I2
tp3491
a(S'skilled'
p3492
I2
tp3493
a(S"skills'"
p3494
I2
tp3495
a(S'smooth'
p3496
I2
tp3497
a(S'social'
p3498
I2
tp3499
a(S'sorrow'
p3500
I2
tp3501
a(S'sotheir'
p3502
I2
tp3503
a(S'speakes'
p3504
I2
tp3505
a(S'spending'
p3506
I2
tp3507
a(S'spent'
p3508
I2
tp3509
a(S'step'
p3510
I2
tp3511
a(S'stilled'
p3512
I2
tp3513
a(S'stop'
p3514
I2
tp3515
a(S'strenght'
p3516
I2
tp3517
a(S'stressed'
p3518
I2
tp3519
a(S'strongest'
p3520
I2
tp3521
a(S'style'
p3522
I2
tp3523
a(S'succesful'
p3524
I2
tp3525
a(S'suggests'
p3526
I2
tp3527
a(S'sums'
p3528
I2
tp3529
a(S'supporting'
p3530
I2
tp3531
a(S'supportive'
p3532
I2
tp3533
a(S'supposed'
p3534
I2
tp3535
a(S'surround'
p3536
I2
tp3537
a(S'surrounds'
p3538
I2
tp3539
a(S'talent'
p3540
I2
tp3541
a(S"talk's"
p3542
I2
tp3543
a(S'tall'
p3544
I2
tp3545
a(S'terms'
p3546
I2
tp3547
a(S'thankful)'
p3548
I2
tp3549
a(S'thankfullness'
p3550
I2
tp3551
a(S'thare'
p3552
I2
tp3553
a(S'that.in'
p3554
I2
tp3555
a(S'thay'
p3556
I2
tp3557
a(S'them.the'
p3558
I2
tp3559
a(S'themes'
p3560
I2
tp3561
a(S'themthe'
p3562
I2
tp3563
a(S'thes'
p3564
I2
tp3565
a(S"they'd"
p3566
I2
tp3567
a(S'thogh'
p3568
I2
tp3569
a(S'through.the'
p3570
I2
tp3571
a(S'throw'
p3572
I2
tp3573
a(S'till'
p3574
I2
tp3575
a(S'times.the'
p3576
I2
tp3577
a(S'tingling'
p3578
I2
tp3579
a(S'tiny'
p3580
I2
tp3581
a(S'title'
p3582
I2
tp3583
a(S'today.the'
p3584
I2
tp3585
a(S'together.another'
p3586
I2
tp3587
a(S'tone.the'
p3588
I2
tp3589
a(S'too.in'
p3590
I2
tp3591
a(S'topic'
p3592
I2
tp3593
a(S'tought'
p3594
I2
tp3595
a(S'transitions'
p3596
I2
tp3597
a(S'treats'
p3598
I2
tp3599
a(S'troubles'
p3600
I2
tp3601
a(S'truley'
p3602
I2
tp3603
a(S'tward'
p3604
I2
tp3605
a(S'twenty'
p3606
I2
tp3607
a(S'two)'
p3608
I2
tp3609
a(S'underlying'
p3610
I2
tp3611
a(S'unexplainable'
p3612
I2
tp3613
a(S'unhappy'
p3614
I2
tp3615
a(S'unique'
p3616
I2
tp3617
a(S'unselfishness'
p3618
I2
tp3619
a(S'unwillingly'
p3620
I2
tp3621
a(S'unwitting'
p3622
I2
tp3623
a(S'up.another'
p3624
I2
tp3625
a(S'upstairs'
p3626
I2
tp3627
a(S'usto'
p3628
I2
tp3629
a(S'valuable'
p3630
I2
tp3631
a(S'value'
p3632
I2
tp3633
a(S'various'
p3634
I2
tp3635
a(S'vibe'
p3636
I2
tp3637
a(S'vibrant'
p3638
I2
tp3639
a(S'violence'
p3640
I2
tp3641
a(S'w/'
p3642
I2
tp3643
a(S'way.the'
p3644
I2
tp3645
a(S'ways.in'
p3646
I2
tp3647
a(S'welcomeing'
p3648
I2
tp3649
a(S'welcomes'
p3650
I2
tp3651
a(S'went-'
p3652
I2
tp3653
a(S'whenever'
p3654
I2
tp3655
a(S'whether'
p3656
I2
tp3657
a(S'witch'
p3658
I2
tp3659
a(S'worse'
p3660
I2
tp3661
a(S'wrong'
p3662
I2
tp3663
a(S'yelling'
p3664
I2
tp3665
a(S"you'll"
p3666
I2
tp3667
a(S"'"
I1
tp3668
a(S"'@num1"
p3669
I1
tp3670
a(S"'and"
p3671
I1
tp3672
a(S"'family.'"
p3673
I1
tp3674
a(S"'hand"
p3675
I1
tp3676
a(S"'here"
p3677
I1
tp3678
a(S"'home.'in"
p3679
I1
tp3680
a(S"'i"
p3681
I1
tp3682
a(S"'in"
p3683
I1
tp3684
a(S"'love"
p3685
I1
tp3686
a(S"'rich"
p3687
I1
tp3688
a(S"'warm'"
p3689
I1
tp3690
a(S'('
I1
tp3691
a(S'("surrogate'
p3692
I1
tp3693
a(S'(@caps1).in'
p3694
I1
tp3695
a(S'(@num1'
p3696
I1
tp3697
a(S'(@num2).the'
p3698
I1
tp3699
a(S'(@num4)'
p3700
I1
tp3701
a(S'(also'
p3702
I1
tp3703
a(S'(and)'
p3704
I1
tp3705
a(S'(as'
p3706
I1
tp3707
a(S'(baby'
p3708
I1
tp3709
a(S'(but)'
p3710
I1
tp3711
a(S'(cuba'
p3712
I1
tp3713
a(S'(customs'
p3714
I1
tp3715
a(S'(due'
p3716
I1
tp3717
a(S'(family)'
p3718
I1
tp3719
a(S'(figuratively)'
p3720
I1
tp3721
a(S'(grateful)'
p3722
I1
tp3723
a(S'(happiness)'
p3724
I1
tp3725
a(S'(happy'
p3726
I1
tp3727
a(S'(his'
p3728
I1
tp3729
a(S'(i'
p3730
I1
tp3731
a(S"(landlord's"
p3732
I1
tp3733
a(S'(main'
p3734
I1
tp3735
a(S'(materialistically)'
p3736
I1
tp3737
a(S'(mostly'
p3738
I1
tp3739
a(S'(moving'
p3740
I1
tp3741
a(S'(multiple'
p3742
I1
tp3743
a(S'(new'
p3744
I1
tp3745
a(S'(or'
p3746
I1
tp3747
a(S'(p.@num1-13)'
p3748
I1
tp3749
a(S'(para'
p3750
I1
tp3751
a(S'(parents)'
p3752
I1
tp3753
a(S'(pg'
p3754
I1
tp3755
a(S'(readers)'
p3756
I1
tp3757
a(S'(seemed)'
p3758
I1
tp3759
a(S'(such'
p3760
I1
tp3761
a(S'(who'
p3762
I1
tp3763
a(S'(wich'
p3764
I1
tp3765
a(S'(with)'
p3766
I1
tp3767
a(S'(\xb6@num1'
p3768
I1
tp3769
a(S'***'
p3770
I1
tp3771
a(S'*****'
p3772
I1
tp3773
a(S'-knit'
p3774
I1
tp3775
a(S'2.@num1-5)'
p3776
I1
tp3777
a(S'[he]'
p3778
I1
tp3779
a(S'[her'
p3780
I1
tp3781
a(S'[him]'
p3782
I1
tp3783
a(S'[in'
p3784
I1
tp3785
a(S'[living]'
p3786
I1
tp3787
a(S'[narciso]'
p3788
I1
tp3789
a(S'[that'
p3790
I1
tp3791
a(S'[them]'
p3792
I1
tp3793
a(S'[they]'
p3794
I1
tp3795
a(S'abalt'
p3796
I1
tp3797
a(S'abandoned'
p3798
I1
tp3799
a(S'ability'
p3800
I1
tp3801
a(S'aborted'
p3802
I1
tp3803
a(S'abou'
p3804
I1
tp3805
a(S'abought'
p3806
I1
tp3807
a(S'about.based'
p3808
I1
tp3809
a(S'about.in'
p3810
I1
tp3811
a(S'about.the'
p3812
I1
tp3813
a(S'about;'
p3814
I1
tp3815
a(S'absolutely'
p3816
I1
tp3817
a(S'accepted'
p3818
I1
tp3819
a(S'accepting.in'
p3820
I1
tp3821
a(S'accomplish'
p3822
I1
tp3823
a(S'activities'
p3824
I1
tp3825
a(S'activity'
p3826
I1
tp3827
a(S'add'
p3828
I1
tp3829
a(S'additionally'
p3830
I1
tp3831
a(S'adjectives'
p3832
I1
tp3833
a(S'admirable'
p3834
I1
tp3835
a(S'admirably'
p3836
I1
tp3837
a(S'admiredness'
p3838
I1
tp3839
a(S'admits'
p3840
I1
tp3841
a(S'adores)'
p3842
I1
tp3843
a(S'adult'
p3844
I1
tp3845
a(S'advantages'
p3846
I1
tp3847
a(S'adversity'
p3848
I1
tp3849
a(S'afeeling'
p3850
I1
tp3851
a(S'affraid'
p3852
I1
tp3853
a(S'aford'
p3854
I1
tp3855
a(S'aformentioned'
p3856
I1
tp3857
a(S'again.the'
p3858
I1
tp3859
a(S'age.in'
p3860
I1
tp3861
a(S'agin'
p3862
I1
tp3863
a(S'ago'
p3864
I1
tp3865
a(S'ahead'
p3866
I1
tp3867
a(S'aid'
p3868
I1
tp3869
a(S'aimed'
p3870
I1
tp3871
a(S'aiming'
p3872
I1
tp3873
a(S'air/'
p3874
I1
tp3875
a(S'airanother'
p3876
I1
tp3877
a(S'airy'
p3878
I1
tp3879
a(S'al'
p3880
I1
tp3881
a(S'alegra'
p3882
I1
tp3883
a(S'alegrai'
p3884
I1
tp3885
a(S'alegria;'
p3886
I1
tp3887
a(S'alike'
p3888
I1
tp3889
a(S'alive;'
p3890
I1
tp3891
a(S'allmost'
p3892
I1
tp3893
a(S'allowing'
p3894
I1
tp3895
a(S'allows'
p3896
I1
tp3897
a(S'allthough'
p3898
I1
tp3899
a(S'alowed'
p3900
I1
tp3901
a(S'alright'
p3902
I1
tp3903
a(S'also,the'
p3904
I1
tp3905
a(S'alsome'
p3906
I1
tp3907
a(S'alsomeness'
p3908
I1
tp3909
a(S'althroughout'
p3910
I1
tp3911
a(S'altogether'
p3912
I1
tp3913
a(S'alwaysed'
p3914
I1
tp3915
a(S'ambiance'
p3916
I1
tp3917
a(S'america.i'
p3918
I1
tp3919
a(S'amongst'
p3920
I1
tp3921
a(S'amusing'
p3922
I1
tp3923
a(S'andt'
p3924
I1
tp3925
a(S'andyour'
p3926
I1
tp3927
a(S'ane'
p3928
I1
tp3929
a(S'aneighborhood'
p3930
I1
tp3931
a(S'another.as'
p3932
I1
tp3933
a(S'another.in'
p3934
I1
tp3935
a(S'anybody,i'
p3936
I1
tp3937
a(S'anymore'
p3938
I1
tp3939
a(S'anyone.the'
p3940
I1
tp3941
a(S'anythin'
p3942
I1
tp3943
a(S'anyway)'
p3944
I1
tp3945
a(S'anywhat'
p3946
I1
tp3947
a(S'aour'
p3948
I1
tp3949
a(S'aparment'
p3950
I1
tp3951
a(S'apart-ment'
p3952
I1
tp3953
a(S'apartment.narciso'
p3954
I1
tp3955
a(S'apartment.the'
p3956
I1
tp3957
a(S'aperson'
p3958
I1
tp3959
a(S'apparent'
p3960
I1
tp3961
a(S'apparpment'
p3962
I1
tp3963
a(S'appartment.joy'
p3964
I1
tp3965
a(S'appealing'
p3966
I1
tp3967
a(S'appearance'
p3968
I1
tp3969
a(S'appears'
p3970
I1
tp3971
a(S'appeciation'
p3972
I1
tp3973
a(S'apperciation'
p3974
I1
tp3975
a(S'appericates'
p3976
I1
tp3977
a(S'appreciating'
p3978
I1
tp3979
a(S'appreciationthe'
p3980
I1
tp3981
a(S'apprecitive'
p3982
I1
tp3983
a(S'apprective.the'
p3984
I1
tp3985
a(S'appreiative'
p3986
I1
tp3987
a(S'appreicative'
p3988
I1
tp3989
a(S'appresiates'
p3990
I1
tp3991
a(S'appretiation'
p3992
I1
tp3993
a(S'appricietes'
p3994
I1
tp3995
a(S'appricietive'
p3996
I1
tp3997
a(S'apratment'
p3998
I1
tp3999
a(S'apreciate'
p4000
I1
tp4001
a(S'apreciates'
p4002
I1
tp4003
a(S'apreciation'
p4004
I1
tp4005
a(S'apreciative'
p4006
I1
tp4007
a(S'apreshiates'
p4008
I1
tp4009
a(S'apriciative'
p4010
I1
tp4011
a(S'apt'
p4012
I1
tp4013
a(S'ar'
p4014
I1
tp4015
a(S'are.by'
p4016
I1
tp4017
a(S'areas'
p4018
I1
tp4019
a(S'arei'
p4020
I1
tp4021
a(S'argue'
p4022
I1
tp4023
a(S'arguments'
p4024
I1
tp4025
a(S'arival'
p4026
I1
tp4027
a(S'arm'
p4028
I1
tp4029
a(S'aroma'
p4030
I1
tp4031
a(S'aromatic'
p4032
I1
tp4033
a(S'aroud'
p4034
I1
tp4035
a(S'array'
p4036
I1
tp4037
a(S'arrive'
p4038
I1
tp4039
a(S'arrives'
p4040
I1
tp4041
a(S'arriving'
p4042
I1
tp4043
a(S'art'
p4044
I1
tp4045
a(S'arther'
p4046
I1
tp4047
a(S'arthur'
p4048
I1
tp4049
a(S'article.the'
p4050
I1
tp4051
a(S'articlein'
p4052
I1
tp4053
a(S'as.the'
p4054
I1
tp4055
a(S'asa'
p4056
I1
tp4057
a(S'ashamed'
p4058
I1
tp4059
a(S'ask'
p4060
I1
tp4061
a(S'asked'
p4062
I1
tp4063
a(S'assistance'
p4064
I1
tp4065
a(S'associate'
p4066
I1
tp4067
a(S'associated'
p4068
I1
tp4069
a(S'associates'
p4070
I1
tp4071
a(S'atl'
p4072
I1
tp4073
a(S'atmospher'
p4074
I1
tp4075
a(S'atmosphire'
p4076
I1
tp4077
a(S'atone'
p4078
I1
tp4079
a(S'atsmothsphere'
p4080
I1
tp4081
a(S'attends'
p4082
I1
tp4083
a(S'attitudenarciso'
p4084
I1
tp4085
a(S'audience'
p4086
I1
tp4087
a(S'aurther'
p4088
I1
tp4089
a(S'aurthor'
p4090
I1
tp4091
a(S'authar'
p4092
I1
tp4093
a(S'authe'
p4094
I1
tp4095
a(S'authers'
p4096
I1
tp4097
a(S'autherthere'
p4098
I1
tp4099
a(S'author.first'
p4100
I1
tp4101
a(S'author.this'
p4102
I1
tp4103
a(S'author.when'
p4104
I1
tp4105
a(S'author?the'
p4106
I1
tp4107
a(S'authro'
p4108
I1
tp4109
a(S'authur'
p4110
I1
tp4111
a(S'autor'
p4112
I1
tp4113
a(S'available'
p4114
I1
tp4115
a(S'avereage'
p4116
I1
tp4117
a(S'aware'
p4118
I1
tp4119
a(S'baby-sitter'
p4120
I1
tp4121
a(S'back.in'
p4122
I1
tp4123
a(S'back.narciso'
p4124
I1
tp4125
a(S'backrounds'
p4126
I1
tp4127
a(S'badly'
p4128
I1
tp4129
a(S'badysitter'
p4130
I1
tp4131
a(S'balance'
p4132
I1
tp4133
a(S'barrier'
p4134
I1
tp4135
a(S'basic'
p4136
I1
tp4137
a(S'basicaly'
p4138
I1
tp4139
a(S'bay'
p4140
I1
tp4141
a(S'be.the'
p4142
I1
tp4143
a(S'beacous'
p4144
I1
tp4145
a(S'bead'
p4146
I1
tp4147
a(S'beat'
p4148
I1
tp4149
a(S'beautifull'
p4150
I1
tp4151
a(S'beautifully'
p4152
I1
tp4153
a(S'becaause'
p4154
I1
tp4155
a(S'becacme'
p4156
I1
tp4157
a(S'becausein'
p4158
I1
tp4159
a(S'becom'
p4160
I1
tp4161
a(S'becoming'
p4162
I1
tp4163
a(S'becuase'
p4164
I1
tp4165
a(S'becus'
p4166
I1
tp4167
a(S'becuse'
p4168
I1
tp4169
a(S'bed'
p4170
I1
tp4171
a(S'bedrooms'
p4172
I1
tp4173
a(S'begain'
p4174
I1
tp4175
a(S'began'
p4176
I1
tp4177
a(S'begging'
p4178
I1
tp4179
a(S'begginning'
p4180
I1
tp4181
a(S'behavior'
p4182
I1
tp4183
a(S'behind.in'
p4184
I1
tp4185
a(S'beliefs'
p4186
I1
tp4187
a(S'believed'
p4188
I1
tp4189
a(S'belonged'
p4190
I1
tp4191
a(S'belongs'
p4192
I1
tp4193
a(S'benefits'
p4194
I1
tp4195
a(S'benith'
p4196
I1
tp4197
a(S'beond'
p4198
I1
tp4199
a(S'beproud'
p4200
I1
tp4201
a(S'bestowed'
p4202
I1
tp4203
a(S'bet'
p4204
I1
tp4205
a(S'bethe'
p4206
I1
tp4207
a(S'better.all'
p4208
I1
tp4209
a(S'betterness'
p4210
I1
tp4211
a(S'betterthe'
p4212
I1
tp4213
a(S'bilingual'
p4214
I1
tp4215
a(S'biography'
p4216
I1
tp4217
a(S'birthday.in'
p4218
I1
tp4219
a(S'bitter'
p4220
I1
tp4221
a(S'bittersweet'
p4222
I1
tp4223
a(S'blended'
p4224
I1
tp4225
a(S'blends'
p4226
I1
tp4227
a(S'blessing'
p4228
I1
tp4229
a(S'blond-bricks'
p4230
I1
tp4231
a(S'blonde'
p4232
I1
tp4233
a(S'blooded'
p4234
I1
tp4235
a(S'blueprint'
p4236
I1
tp4237
a(S'blunt'
p4238
I1
tp4239
a(S'bolth'
p4240
I1
tp4241
a(S'boosts'
p4242
I1
tp4243
a(S'bor'
p4244
I1
tp4245
a(S'border'
p4246
I1
tp4247
a(S'borhood'
p4248
I1
tp4249
a(S'boring)'
p4250
I1
tp4251
a(S'borned'
p4252
I1
tp4253
a(S'bot'
p4254
I1
tp4255
a(S'bothe'
p4256
I1
tp4257
a(S'bound'
p4258
I1
tp4259
a(S"boy's"
p4260
I1
tp4261
a(S'boy.the'
p4262
I1
tp4263
a(S'boys'
p4264
I1
tp4265
a(S'brand'
p4266
I1
tp4267
a(S'brang'
p4268
I1
tp4269
a(S'bravely'
p4270
I1
tp4271
a(S'briefly'
p4272
I1
tp4273
a(S'brightened'
p4274
I1
tp4275
a(S'brinck'
p4276
I1
tp4277
a(S'brother'
p4278
I1
tp4279
a(S'brotherhood'
p4280
I1
tp4281
a(S'brown'
p4282
I1
tp4283
a(S'built'
p4284
I1
tp4285
a(S'buring'
p4286
I1
tp4287
a(S'bye'
p4288
I1
tp4289
a(S'calling'
p4290
I1
tp4291
a(S'calm.in'
p4292
I1
tp4293
a(S'calm.the'
p4294
I1
tp4295
a(S'calmness'
p4296
I1
tp4297
a(S'camethey'
p4298
I1
tp4299
a(S'campfire'
p4300
I1
tp4301
a(S'cancelled'
p4302
I1
tp4303
a(S"caps1'll"
p4304
I1
tp4305
a(S"caps1't"
p4306
I1
tp4307
a(S'caps1-@caps2'
p4308
I1
tp4309
a(S'caps1.i'
p4310
I1
tp4311
a(S'caps1.s'
p4312
I1
tp4313
a(S'caps1.there'
p4314
I1
tp4315
a(S'caps10'
p4316
I1
tp4317
a(S'caps11'
p4318
I1
tp4319
a(S"caps2't"
p4320
I1
tp4321
a(S'caps2-out'
p4322
I1
tp4323
a(S'caps2.one'
p4324
I1
tp4325
a(S'caps2/heaven'
p4326
I1
tp4327
a(S'caps4)'
p4328
I1
tp4329
a(S'caps6)'
p4330
I1
tp4331
a(S'caps6.the'
p4332
I1
tp4333
a(S'caps8'
p4334
I1
tp4335
a(S'carage'
p4336
I1
tp4337
a(S'carange'
p4338
I1
tp4339
a(S'card'
p4340
I1
tp4341
a(S'careers,"said'
p4342
I1
tp4343
a(S'carefree'
p4344
I1
tp4345
a(S'careing.in'
p4346
I1
tp4347
a(S'caring.the'
p4348
I1
tp4349
a(S'caringness'
p4350
I1
tp4351
a(S'carring.the'
p4352
I1
tp4353
a(S'carry'
p4354
I1
tp4355
a(S'carryinging'
p4356
I1
tp4357
a(S'catalogue'
p4358
I1
tp4359
a(S'caught'
p4360
I1
tp4361
a(S'caused'
p4362
I1
tp4363
a(S'causes'
p4364
I1
tp4365
a(S'celibrations'
p4366
I1
tp4367
a(S'centered'
p4368
I1
tp4369
a(S'central'
p4370
I1
tp4371
a(S'centuries.the'
p4372
I1
tp4373
a(S'certian'
p4374
I1
tp4375
a(S'certin'
p4376
I1
tp4377
a(S'chances'
p4378
I1
tp4379
a(S'chapter'
p4380
I1
tp4381
a(S'character)'
p4382
I1
tp4383
a(S'characteristics'
p4384
I1
tp4385
a(S'charector'
p4386
I1
tp4387
a(S'chareters'
p4388
I1
tp4389
a(S'cheerful.the'
p4390
I1
tp4391
a(S'cheery'
p4392
I1
tp4393
a(S'chemichal'
p4394
I1
tp4395
a(S'cheriste'
p4396
I1
tp4397
a(S'childhood.i'
p4398
I1
tp4399
a(S'childhood.the'
p4400
I1
tp4401
a(S'childhood;'
p4402
I1
tp4403
a(S'childre'
p4404
I1
tp4405
a(S'choices'
p4406
I1
tp4407
a(S'choose'
p4408
I1
tp4409
a(S'chunk'
p4410
I1
tp4411
a(S'citizen'
p4412
I1
tp4413
a(S'city'
p4414
I1
tp4415
a(S'claiming'
p4416
I1
tp4417
a(S'clam'
p4418
I1
tp4419
a(S'clean'
p4420
I1
tp4421
a(S'cleanest'
p4422
I1
tp4423
a(S'clear.based'
p4424
I1
tp4425
a(S'clearily'
p4426
I1
tp4427
a(S'climate'
p4428
I1
tp4429
a(S'climates'
p4430
I1
tp4431
a(S'closely'
p4432
I1
tp4433
a(S'closely-knit'
p4434
I1
tp4435
a(S'closing'
p4436
I1
tp4437
a(S'clothes'
p4438
I1
tp4439
a(S'clues'
p4440
I1
tp4441
a(S'coaster'
p4442
I1
tp4443
a(S'coforting'
p4444
I1
tp4445
a(S'color'
p4446
I1
tp4447
a(S'columns'
p4448
I1
tp4449
a(S'combining'
p4450
I1
tp4451
a(S'comers'
p4452
I1
tp4453
a(S'comforting.for'
p4454
I1
tp4455
a(S'comfy'
p4456
I1
tp4457
a(S'comments'
p4458
I1
tp4459
a(S'comming'
p4460
I1
tp4461
a(S'communal'
p4462
I1
tp4463
a(S'communicate'
p4464
I1
tp4465
a(S'communicating'
p4466
I1
tp4467
a(S'community.in'
p4468
I1
tp4469
a(S'community.rodriguez'
p4470
I1
tp4471
a(S'community.several'
p4472
I1
tp4473
a(S'community.the'
p4474
I1
tp4475
a(S'community.those'
p4476
I1
tp4477
a(S'compared'
p4478
I1
tp4479
a(S'comparing'
p4480
I1
tp4481
a(S'compassion.the'
p4482
I1
tp4483
a(S'compassionate'
p4484
I1
tp4485
a(S'compationate'
p4486
I1
tp4487
a(S'comperashin'
p4488
I1
tp4489
a(S'completed'
p4490
I1
tp4491
a(S'completes'
p4492
I1
tp4493
a(S'complimenting'
p4494
I1
tp4495
a(S'component'
p4496
I1
tp4497
a(S'composed'
p4498
I1
tp4499
a(S'composition'
p4500
I1
tp4501
a(S'comprehend'
p4502
I1
tp4503
a(S'comterable'
p4504
I1
tp4505
a(S'concept'
p4506
I1
tp4507
a(S'concepts'
p4508
I1
tp4509
a(S'conclude'
p4510
I1
tp4511
a(S'conection'
p4512
I1
tp4513
a(S'confidence'
p4514
I1
tp4515
a(S'conflict'
p4516
I1
tp4517
a(S'conflicts'
p4518
I1
tp4519
a(S'confortible'
p4520
I1
tp4521
a(S'congregations'
p4522
I1
tp4523
a(S'congregration'
p4524
I1
tp4525
a(S'connenity'
p4526
I1
tp4527
a(S'conrageous'
p4528
I1
tp4529
a(S'consequently'
p4530
I1
tp4531
a(S'consideration'
p4532
I1
tp4533
a(S'considerd'
p4534
I1
tp4535
a(S'considering'
p4536
I1
tp4537
a(S'considers'
p4538
I1
tp4539
a(S'consired'
p4540
I1
tp4541
a(S'constiders'
p4542
I1
tp4543
a(S'constructs'
p4544
I1
tp4545
a(S'consumes'
p4546
I1
tp4547
a(S'contained'
p4548
I1
tp4549
a(S'containing'
p4550
I1
tp4551
a(S'content.community'
p4552
I1
tp4553
a(S'contentness'
p4554
I1
tp4555
a(S'continually'
p4556
I1
tp4557
a(S'continuosly'
p4558
I1
tp4559
a(S'contradictory'
p4560
I1
tp4561
a(S'contrast'
p4562
I1
tp4563
a(S'contribute'
p4564
I1
tp4565
a(S'contributor'
p4566
I1
tp4567
a(S'contry'
p4568
I1
tp4569
a(S'cook)'
p4570
I1
tp4571
a(S'cook.the'
p4572
I1
tp4573
a(S'cooking)'
p4574
I1
tp4575
a(S'cooking."when'
p4576
I1
tp4577
a(S'cooking....passionate'
p4578
I1
tp4579
a(S'cool'
p4580
I1
tp4581
a(S'corage'
p4582
I1
tp4583
a(S'correct'
p4584
I1
tp4585
a(S'costums'
p4586
I1
tp4587
a(S'count'
p4588
I1
tp4589
a(S'countrary'
p4590
I1
tp4591
a(S'countrie'
p4592
I1
tp4593
a(S'country.another'
p4594
I1
tp4595
a(S'country.i'
p4596
I1
tp4597
a(S'country.the'
p4598
I1
tp4599
a(S'countrys'
p4600
I1
tp4601
a(S'county'
p4602
I1
tp4603
a(S'couples'
p4604
I1
tp4605
a(S'courag'
p4606
I1
tp4607
a(S'courage.in'
p4608
I1
tp4609
a(S'courage.the'
p4610
I1
tp4611
a(S'courageousness'
p4612
I1
tp4613
a(S'courages'
p4614
I1
tp4615
a(S'courageus'
p4616
I1
tp4617
a(S'covers'
p4618
I1
tp4619
a(S'coziness'
p4620
I1
tp4621
a(S'cozzy'
p4622
I1
tp4623
a(S'cpme'
p4624
I1
tp4625
a(S'crafted'
p4626
I1
tp4627
a(S'crammed'
p4628
I1
tp4629
a(S'crazy'
p4630
I1
tp4631
a(S'crea'
p4632
I1
tp4633
a(S'creatd'
p4634
I1
tp4635
a(S'created.first'
p4636
I1
tp4637
a(S'created.one'
p4638
I1
tp4639
a(S'created.the'
p4640
I1
tp4641
a(S'createdthe'
p4642
I1
tp4643
a(S'creationin'
p4644
I1
tp4645
a(S'creations'
p4646
I1
tp4647
a(S'creatively'
p4648
I1
tp4649
a(S'credits'
p4650
I1
tp4651
a(S"crisis'"
p4652
I1
tp4653
a(S'crossed'
p4654
I1
tp4655
a(S'cruddy'
p4656
I1
tp4657
a(S'crummy'
p4658
I1
tp4659
a(S'cuba)'
p4660
I1
tp4661
a(S'cuba."my'
p4662
I1
tp4663
a(S'cuba."the'
p4664
I1
tp4665
a(S'cuba.an'
p4666
I1
tp4667
a(S'cuba.in'
p4668
I1
tp4669
a(S'cuba.the'
p4670
I1
tp4671
a(S'cuba.this'
p4672
I1
tp4673
a(S'cubain'
p4674
I1
tp4675
a(S"cuban's"
p4676
I1
tp4677
a(S'cuban-@caps1'
p4678
I1
tp4679
a(S'cuban-music'
p4680
I1
tp4681
a(S'cuban-style'
p4682
I1
tp4683
a(S'cube'
p4684
I1
tp4685
a(S'cubian'
p4686
I1
tp4687
a(S'cubin'
p4688
I1
tp4689
a(S'cuisine'
p4690
I1
tp4691
a(S'culenary'
p4692
I1
tp4693
a(S'culinar'
p4694
I1
tp4695
a(S'cultra.the'
p4696
I1
tp4697
a(S'cultre'
p4698
I1
tp4699
a(S"culture's"
p4700
I1
tp4701
a(S"culture's)"
p4702
I1
tp4703
a(S'cultures.the'
p4704
I1
tp4705
a(S'culunary'
p4706
I1
tp4707
a(S'custom'
p4708
I1
tp4709
a(S'cutrarl'
p4710
I1
tp4711
a(S'dance'
p4712
I1
tp4713
a(S'dangers'
p4714
I1
tp4715
a(S'dark'
p4716
I1
tp4717
a(S'daughter)'
p4718
I1
tp4719
a(S'daughter;'
p4720
I1
tp4721
a(S'day."the'
p4722
I1
tp4723
a(S'day.)"in'
p4724
I1
tp4725
a(S'day.the'
p4726
I1
tp4727
a(S'dealt'
p4728
I1
tp4729
a(S'dear'
p4730
I1
tp4731
a(S'deatils'
p4732
I1
tp4733
a(S'deciede'
p4734
I1
tp4735
a(S'decieds'
p4736
I1
tp4737
a(S'decision.i'
p4738
I1
tp4739
a(S'decorating'
p4740
I1
tp4741
a(S'decorte'
p4742
I1
tp4743
a(S'decribe'
p4744
I1
tp4745
a(S'decribed'
p4746
I1
tp4747
a(S'decribing'
p4748
I1
tp4749
a(S'dedicates'
p4750
I1
tp4751
a(S'deeds'
p4752
I1
tp4753
a(S'deeper'
p4754
I1
tp4755
a(S'deffinitely'
p4756
I1
tp4757
a(S'deffinition'
p4758
I1
tp4759
a(S'defination'
p4760
I1
tp4761
a(S'defined'
p4762
I1
tp4763
a(S'defines'
p4764
I1
tp4765
a(S'definetely'
p4766
I1
tp4767
a(S'definiatley'
p4768
I1
tp4769
a(S'defining'
p4770
I1
tp4771
a(S'definite'
p4772
I1
tp4773
a(S'definitily'
p4774
I1
tp4775
a(S'definitly'
p4776
I1
tp4777
a(S'demenstrates'
p4778
I1
tp4779
a(S'deminstrates'
p4780
I1
tp4781
a(S'deminstration'
p4782
I1
tp4783
a(S'demonstrated'
p4784
I1
tp4785
a(S'depend'
p4786
I1
tp4787
a(S'depending'
p4788
I1
tp4789
a(S'depened'
p4790
I1
tp4791
a(S'depessing'
p4792
I1
tp4793
a(S'depicted'
p4794
I1
tp4795
a(S'deppressed'
p4796
I1
tp4797
a(S'deppressing'
p4798
I1
tp4799
a(S'depresed'
p4800
I1
tp4801
a(S'depresing'
p4802
I1
tp4803
a(S'depressed'
p4804
I1
tp4805
a(S'depression'
p4806
I1
tp4807
a(S'dertha'
p4808
I1
tp4809
a(S'descibtion'
p4810
I1
tp4811
a(S'descr'
p4812
I1
tp4813
a(S'descrbes'
p4814
I1
tp4815
a(S'describs'
p4816
I1
tp4817
a(S'descripes'
p4818
I1
tp4819
a(S'descriptive'
p4820
I1
tp4821
a(S'descriptron'
p4822
I1
tp4823
a(S'deserve.so'
p4824
I1
tp4825
a(S'designers'
p4826
I1
tp4827
a(S'designorhis'
p4828
I1
tp4829
a(S'desiner'
p4830
I1
tp4831
a(S'desition.in'
p4832
I1
tp4833
a(S'desitions'
p4834
I1
tp4835
a(S'destined'
p4836
I1
tp4837
a(S'details.the'
p4838
I1
tp4839
a(S'determind'
p4840
I1
tp4841
a(S'detirmenation'
p4842
I1
tp4843
a(S'did.they'
p4844
I1
tp4845
a(S'did/does'
p4846
I1
tp4847
a(S'dies'
p4848
I1
tp4849
a(S'difcultys'
p4850
I1
tp4851
a(S'differen'
p4852
I1
tp4853
a(S'difference.the'
p4854
I1
tp4855
a(S'differend'
p4856
I1
tp4857
a(S'differet'
p4858
I1
tp4859
a(S'difficulties'
p4860
I1
tp4861
a(S'difficulty'
p4862
I1
tp4863
a(S'diffienetions'
p4864
I1
tp4865
a(S'difinition'
p4866
I1
tp4867
a(S'difiniton'
p4868
I1
tp4869
a(S'dine'
p4870
I1
tp4871
a(S'diner'
p4872
I1
tp4873
a(S'dining'
p4874
I1
tp4875
a(S'direct'
p4876
I1
tp4877
a(S'discouraged'
p4878
I1
tp4879
a(S'discover'
p4880
I1
tp4881
a(S'discrimination'
p4882
I1
tp4883
a(S'discuss'
p4884
I1
tp4885
a(S'discussed'
p4886
I1
tp4887
a(S'dishes'
p4888
I1
tp4889
a(S'disision'
p4890
I1
tp4891
a(S'dispite'
p4892
I1
tp4893
a(S'display'
p4894
I1
tp4895
a(S'displaying'
p4896
I1
tp4897
a(S'distant'
p4898
I1
tp4899
a(S'distills'
p4900
I1
tp4901
a(S'docoments'
p4902
I1
tp4903
a(S'documents'
p4904
I1
tp4905
a(S'does!'
p4906
I1
tp4907
a(S'doings'
p4908
I1
tp4909
a(S'dominant'
p4910
I1
tp4911
a(S'done".the'
p4912
I1
tp4913
a(S'done."in'
p4914
I1
tp4915
a(S'done."the'
p4916
I1
tp4917
a(S'done.as'
p4918
I1
tp4919
a(S'donefor'
p4920
I1
tp4921
a(S'donin'
p4922
I1
tp4923
a(S'dore'
p4924
I1
tp4925
a(S'dores'
p4926
I1
tp4927
a(S'dose'
p4928
I1
tp4929
a(S"dosn't"
p4930
I1
tp4931
a(S'doubt'
p4932
I1
tp4933
a(S'dove'
p4934
I1
tp4935
a(S'dowin'
p4936
I1
tp4937
a(S'down-to-earth'
p4938
I1
tp4939
a(S'down.as'
p4940
I1
tp4941
a(S'drama'
p4942
I1
tp4943
a(S'draw'
p4944
I1
tp4945
a(S'drop'
p4946
I1
tp4947
a(S'dropped'
p4948
I1
tp4949
a(S'duration'
p4950
I1
tp4951
a(S'durty'
p4952
I1
tp4953
a(S'dwell'
p4954
I1
tp4955
a(S'dying'
p4956
I1
tp4957
a(S'eachothernarciso'
p4958
I1
tp4959
a(S'eachothor'
p4960
I1
tp4961
a(S'earn'
p4962
I1
tp4963
a(S'ease'
p4964
I1
tp4965
a(S'easiest'
p4966
I1
tp4967
a(S'eather'
p4968
I1
tp4969
a(S'eats'
p4970
I1
tp4971
a(S'econimic'
p4972
I1
tp4973
a(S'ect.)'
p4974
I1
tp4975
a(S'ect.in'
p4976
I1
tp4977
a(S'edelmira;'
p4978
I1
tp4979
a(S'edication.the'
p4980
I1
tp4981
a(S'education.the'
p4982
I1
tp4983
a(S'edwards'
p4984
I1
tp4985
a(S'effective'
p4986
I1
tp4987
a(S'effects'
p4988
I1
tp4989
a(S'effort'
p4990
I1
tp4991
a(S'egknowloge'
p4992
I1
tp4993
a(S'elaberated'
p4994
I1
tp4995
a(S'elated'
p4996
I1
tp4997
a(S'elder'
p4998
I1
tp4999
a(S'else.the'
p5000
I1
tp5001
a(S'embraced'
p5002
I1
tp5003
a(S'emmigrated)'
p5004
I1
tp5005
a(S'emphasis'
p5006
I1
tp5007
a(S'emphesized'
p5008
I1
tp5009
a(S'emphisization'
p5010
I1
tp5011
a(S'emphisized'
p5012
I1
tp5013
a(S'encommpassed'
p5014
I1
tp5015
a(S'endearing'
p5016
I1
tp5017
a(S'endeavor'
p5018
I1
tp5019
a(S'endure.i'
p5020
I1
tp5021
a(S'engaged.the'
p5022
I1
tp5023
a(S'enginerring'
p5024
I1
tp5025
a(S'engish'
p5026
I1
tp5027
a(S'english'
p5028
I1
tp5029
a(S'enhance'
p5030
I1
tp5031
a(S'enhances'
p5032
I1
tp5033
a(S'enholds'
p5034
I1
tp5035
a(S'enormouse'
p5036
I1
tp5037
a(S'enspioring'
p5038
I1
tp5039
a(S'enstills'
p5040
I1
tp5041
a(S'ensure'
p5042
I1
tp5043
a(S'entering'
p5044
I1
tp5045
a(S'entertaining.based'
p5046
I1
tp5047
a(S'enthusiastic'
p5048
I1
tp5049
a(S'entirerly'
p5050
I1
tp5051
a(S'envionment'
p5052
I1
tp5053
a(S'envirement'
p5054
I1
tp5055
a(S'environments'
p5056
I1
tp5057
a(S'envirorment'
p5058
I1
tp5059
a(S'enviting'
p5060
I1
tp5061
a(S'envronment'
p5062
I1
tp5063
a(S'ephrasses'
p5064
I1
tp5065
a(S'eprssed'
p5066
I1
tp5067
a(S'equality.in'
p5068
I1
tp5069
a(S'eser'
p5070
I1
tp5071
a(S'essence'
p5072
I1
tp5073
a(S'essentially'
p5074
I1
tp5075
a(S'essentials'
p5076
I1
tp5077
a(S'established."my'
p5078
I1
tp5079
a(S'establishes'
p5080
I1
tp5081
a(S'establishing'
p5082
I1
tp5083
a(S'eternal'
p5084
I1
tp5085
a(S'ethicitys'
p5086
I1
tp5087
a(S'ethinic'
p5088
I1
tp5089
a(S'evan'
p5090
I1
tp5091
a(S'eventually'
p5092
I1
tp5093
a(S'every-thing'
p5094
I1
tp5095
a(S'everynight'
p5096
I1
tp5097
a(S'everyone.@person1'
p5098
I1
tp5099
a(S'everyone.in'
p5100
I1
tp5101
a(S'everything.in'
p5102
I1
tp5103
a(S'everytime'
p5104
I1
tp5105
a(S'everywere'
p5106
I1
tp5107
a(S'everywherethe'
p5108
I1
tp5109
a(S'evidences'
p5110
I1
tp5111
a(S'evidents'
p5112
I1
tp5113
a(S'exactly'
p5114
I1
tp5115
a(S'exaessed'
p5116
I1
tp5117
a(S'exagerate'
p5118
I1
tp5119
a(S'excepert'
p5120
I1
tp5121
a(S'except'
p5122
I1
tp5123
a(S'excerpt.in'
p5124
I1
tp5125
a(S'excerpt.the'
p5126
I1
tp5127
a(S'excerpt;'
p5128
I1
tp5129
a(S'excilent'
p5130
I1
tp5131
a(S'excitedthe'
p5132
I1
tp5133
a(S'excitement'
p5134
I1
tp5135
a(S'excitiing'
p5136
I1
tp5137
a(S'excpetially'
p5138
I1
tp5139
a(S'exemplified'
p5140
I1
tp5141
a(S'exernally'
p5142
I1
tp5143
a(S'exerpt'
p5144
I1
tp5145
a(S'exhibits'
p5146
I1
tp5147
a(S'exists'
p5148
I1
tp5149
a(S'exiting'
p5150
I1
tp5151
a(S'exotic'
p5152
I1
tp5153
a(S'expecting'
p5154
I1
tp5155
a(S'expense'
p5156
I1
tp5157
a(S'expensive'
p5158
I1
tp5159
a(S'experienced'
p5160
I1
tp5161
a(S'experiencing'
p5162
I1
tp5163
a(S'expirienced'
p5164
I1
tp5165
a(S'explainable'
p5166
I1
tp5167
a(S'explainng'
p5168
I1
tp5169
a(S'explainsthat'
p5170
I1
tp5171
a(S'explane'
p5172
I1
tp5173
a(S'explans'
p5174
I1
tp5175
a(S'explians'
p5176
I1
tp5177
a(S'explination'
p5178
I1
tp5179
a(S'explinations'
p5180
I1
tp5181
a(S'explition'
p5182
I1
tp5183
a(S'explore'
p5184
I1
tp5185
a(S'exposing'
p5186
I1
tp5187
a(S'exsepting'
p5188
I1
tp5189
a(S'exsited'
p5190
I1
tp5191
a(S'exsplains'
p5192
I1
tp5193
a(S'extaded'
p5194
I1
tp5195
a(S'extanded'
p5196
I1
tp5197
a(S'extending'
p5198
I1
tp5199
a(S'extened'
p5200
I1
tp5201
a(S'extent'
p5202
I1
tp5203
a(S'extent.the'
p5204
I1
tp5205
a(S'externaly'
p5206
I1
tp5207
a(S'extreemly'
p5208
I1
tp5209
a(S'extremley'
p5210
I1
tp5211
a(S'exudes'
p5212
I1
tp5213
a(S'factor'
p5214
I1
tp5215
a(S'factors'
p5216
I1
tp5217
a(S'factual'
p5218
I1
tp5219
a(S'facy'
p5220
I1
tp5221
a(S'fairley'
p5222
I1
tp5223
a(S'famalies.the'
p5224
I1
tp5225
a(S'famaliythe'
p5226
I1
tp5227
a(S'familes'
p5228
I1
tp5229
a(S'familial'
p5230
I1
tp5231
a(S'familiy'
p5232
I1
tp5233
a(S'family!'
p5234
I1
tp5235
a(S'family".in'
p5236
I1
tp5237
a(S'family".last'
p5238
I1
tp5239
a(S'family"and'
p5240
I1
tp5241
a(S'family"based'
p5242
I1
tp5243
a(S"family'"
p5244
I1
tp5245
a(S'family)'
p5246
I1
tp5247
a(S'family-friends'
p5248
I1
tp5249
a(S'family-like'
p5250
I1
tp5251
a(S'family."@caps1'
p5252
I1
tp5253
a(S'family."the'
p5254
I1
tp5255
a(S"family.'"
p5256
I1
tp5257
a(S'family.first'
p5258
I1
tp5259
a(S'family.home'
p5260
I1
tp5261
a(S'family.i'
p5262
I1
tp5263
a(S'family.rodriguez'
p5264
I1
tp5265
a(S'family.so'
p5266
I1
tp5267
a(S'familythe'
p5268
I1
tp5269
a(S'famley'
p5270
I1
tp5271
a(S'famly'
p5272
I1
tp5273
a(S'faster'
p5274
I1
tp5275
a(S'fathe'
p5276
I1
tp5277
a(S"father's"
p5278
I1
tp5279
a(S'favor'
p5280
I1
tp5281
a(S'favorite'
p5282
I1
tp5283
a(S'fear'
p5284
I1
tp5285
a(S'feas'
p5286
I1
tp5287
a(S'feas)'
p5288
I1
tp5289
a(S'feats'
p5290
I1
tp5291
a(S'feeling.in'
p5292
I1
tp5293
a(S'feeling.to'
p5294
I1
tp5295
a(S'feelings.in'
p5296
I1
tp5297
a(S'feet."@caps1'
p5298
I1
tp5299
a(S'felt.in'
p5300
I1
tp5301
a(S'ferget'
p5302
I1
tp5303
a(S'fermiluar'
p5304
I1
tp5305
a(S'festivity'
p5306
I1
tp5307
a(S'festivitys'
p5308
I1
tp5309
a(S'fiction'
p5310
I1
tp5311
a(S'fiest'
p5312
I1
tp5313
a(S'fight'
p5314
I1
tp5315
a(S'figure'
p5316
I1
tp5317
a(S'finaly'
p5318
I1
tp5319
a(S'finances'
p5320
I1
tp5321
a(S'financially...the'
p5322
I1
tp5323
a(S'finds'
p5324
I1
tp5325
a(S'fine'
p5326
I1
tp5327
a(S'finnaly'
p5328
I1
tp5329
a(S'fire'
p5330
I1
tp5331
a(S'fired'
p5332
I1
tp5333
a(S'firends'
p5334
I1
tp5335
a(S'first.in'
p5336
I1
tp5337
a(S'firstly'
p5338
I1
tp5339
a(S'firstmoved'
p5340
I1
tp5341
a(S'firsty'
p5342
I1
tp5343
a(S'flowchart'
p5344
I1
tp5345
a(S'flowed'
p5346
I1
tp5347
a(S'flows'
p5348
I1
tp5349
a(S'fo'
p5350
I1
tp5351
a(S'focusing'
p5352
I1
tp5353
a(S'foget'
p5354
I1
tp5355
a(S'follow'
p5356
I1
tp5357
a(S'follows'
p5358
I1
tp5359
a(S'fong'
p5360
I1
tp5361
a(S'food)'
p5362
I1
tp5363
a(S'food...)'
p5364
I1
tp5365
a(S'food.the'
p5366
I1
tp5367
a(S'food.throughout'
p5368
I1
tp5369
a(S'for.nacisco'
p5370
I1
tp5371
a(S'forced'
p5372
I1
tp5373
a(S'fore'
p5374
I1
tp5375
a(S'forgeting'
p5376
I1
tp5377
a(S'forgetthe'
p5378
I1
tp5379
a(S'forgetting'
p5380
I1
tp5381
a(S'forgiveness'
p5382
I1
tp5383
a(S'fortunite'
p5384
I1
tp5385
a(S'foundation'
p5386
I1
tp5387
a(S'fourth'
p5388
I1
tp5389
a(S'freedom'
p5390
I1
tp5391
a(S'freiends'
p5392
I1
tp5393
a(S'freind'
p5394
I1
tp5395
a(S'freindly'
p5396
I1
tp5397
a(S'frends'
p5398
I1
tp5399
a(S'frendship'
p5400
I1
tp5401
a(S'frequently'
p5402
I1
tp5403
a(S'fresh'
p5404
I1
tp5405
a(S'friend.narciso'
p5406
I1
tp5407
a(S'friendlyness'
p5408
I1
tp5409
a(S'friends.in'
p5410
I1
tp5411
a(S'friends.mood'
p5412
I1
tp5413
a(S'friendship.".the'
p5414
I1
tp5415
a(S'friendship."@caps1'
p5416
I1
tp5417
a(S'friendship.another'
p5418
I1
tp5419
a(S'friendship.the'
p5420
I1
tp5421
a(S'friendship.this'
p5422
I1
tp5423
a(S'friendships/relationships'
p5424
I1
tp5425
a(S'friendsthe'
p5426
I1
tp5427
a(S'frineds'
p5428
I1
tp5429
a(S'frist'
p5430
I1
tp5431
a(S'from.as'
p5432
I1
tp5433
a(S'from.now'
p5434
I1
tp5435
a(S'frome'
p5436
I1
tp5437
a(S'frowned'
p5438
I1
tp5439
a(S'fueled'
p5440
I1
tp5441
a(S'fulfilled'
p5442
I1
tp5443
a(S'fun.in'
p5444
I1
tp5445
a(S'fun.narciso'
p5446
I1
tp5447
a(S'funky'
p5448
I1
tp5449
a(S'furniture'
p5450
I1
tp5451
a(S'furnshed'
p5452
I1
tp5453
a(S'furthers'
p5454
I1
tp5455
a(S'furtiure'
p5456
I1
tp5457
a(S'futue'
p5458
I1
tp5459
a(S'future.in'
p5460
I1
tp5461
a(S'fuzzy'
p5462
I1
tp5463
a(S'gained'
p5464
I1
tp5465
a(S'gatered'
p5466
I1
tp5467
a(S'gathered'
p5468
I1
tp5469
a(S'gave.in'
p5470
I1
tp5471
a(S'gaveup'
p5472
I1
tp5473
a(S'geateful'
p5474
I1
tp5475
a(S'generas'
p5476
I1
tp5477
a(S'generated'
p5478
I1
tp5479
a(S'generates'
p5480
I1
tp5481
a(S'generations'
p5482
I1
tp5483
a(S'generosity.first'
p5484
I1
tp5485
a(S'generosity.in'
p5486
I1
tp5487
a(S'generosity.the'
p5488
I1
tp5489
a(S'generous.the'
p5490
I1
tp5491
a(S'generousity'
p5492
I1
tp5493
a(S'genorosity'
p5494
I1
tp5495
a(S'genorosity.next'
p5496
I1
tp5497
a(S'genorous'
p5498
I1
tp5499
a(S'gentle'
p5500
I1
tp5501
a(S'get.not'
p5502
I1
tp5503
a(S'gether'
p5504
I1
tp5505
a(S'geting'
p5506
I1
tp5507
a(S'ghetto'
p5508
I1
tp5509
a(S'giddy'
p5510
I1
tp5511
a(S'gift'
p5512
I1
tp5513
a(S'girl'
p5514
I1
tp5515
a(S"girl's"
p5516
I1
tp5517
a(S'goies'
p5518
I1
tp5519
a(S'gonna'
p5520
I1
tp5521
a(S'good-smelling'
p5522
I1
tp5523
a(S'good-times'
p5524
I1
tp5525
a(S'good."in'
p5526
I1
tp5527
a(S'good.in'
p5528
I1
tp5529
a(S'goodness'
p5530
I1
tp5531
a(S'goodthe'
p5532
I1
tp5533
a(S'gotting'
p5534
I1
tp5535
a(S'goverment'
p5536
I1
tp5537
a(S'graceful'
p5538
I1
tp5539
a(S'graditutity'
p5540
I1
tp5541
a(S'grandmother'
p5542
I1
tp5543
a(S'grandpareats'
p5544
I1
tp5545
a(S"grandparent's"
p5546
I1
tp5547
a(S'grandparents")'
p5548
I1
tp5549
a(S'granparents'
p5550
I1
tp5551
a(S'grantit'
p5552
I1
tp5553
a(S'grasp'
p5554
I1
tp5555
a(S'grat'
p5556
I1
tp5557
a(S'gratefal'
p5558
I1
tp5559
a(S'grateful","passionte'
p5560
I1
tp5561
a(S"grateful.'"
p5562
I1
tp5563
a(S'grateful.)"the'
p5564
I1
tp5565
a(S'grateful.lastly'
p5566
I1
tp5567
a(S'grateful.narciso'
p5568
I1
tp5569
a(S'grateful.throught'
p5570
I1
tp5571
a(S'grateful.warmth'
p5572
I1
tp5573
a(S'gratefull)'
p5574
I1
tp5575
a(S'gratefull.in'
p5576
I1
tp5577
a(S'gratefull.next'
p5578
I1
tp5579
a(S'gratefulness.in'
p5580
I1
tp5581
a(S'gratefulness.there'
p5582
I1
tp5583
a(S'gratefulthe'
p5584
I1
tp5585
a(S'gratfull'
p5586
I1
tp5587
a(S'gratitude."there'
p5588
I1
tp5589
a(S'gratitude.@caps4'
p5590
I1
tp5591
a(S'gratitude.i'
p5592
I1
tp5593
a(S'grattitude'
p5594
I1
tp5595
a(S'great-full'
p5596
I1
tp5597
a(S'great.he'
p5598
I1
tp5599
a(S'great.the'
p5600
I1
tp5601
a(S'greate'
p5602
I1
tp5603
a(S'greateful'
p5604
I1
tp5605
a(S'greater'
p5606
I1
tp5607
a(S'greatfull)'
p5608
I1
tp5609
a(S'greatfull.the'
p5610
I1
tp5611
a(S'greatfullness.thorought'
p5612
I1
tp5613
a(S'greatfulnes'
p5614
I1
tp5615
a(S'greatfulness.the'
p5616
I1
tp5617
a(S'greatfulness.throughout'
p5618
I1
tp5619
a(S'greatul'
p5620
I1
tp5621
a(S'green'
p5622
I1
tp5623
a(S'groups'
p5624
I1
tp5625
a(S'guess'
p5626
I1
tp5627
a(S'guiding'
p5628
I1
tp5629
a(S'guilt'
p5630
I1
tp5631
a(S'guilty'
p5632
I1
tp5633
a(S'guy.i'
p5634
I1
tp5635
a(S'h'
I1
tp5636
a(S'habits'
p5637
I1
tp5638
a(S'had.in'
p5639
I1
tp5640
a(S'half'
p5641
I1
tp5642
a(S'halfway'
p5643
I1
tp5644
a(S'handed'
p5645
I1
tp5646
a(S'hang'
p5647
I1
tp5648
a(S'hanging'
p5649
I1
tp5650
a(S'happ'
p5651
I1
tp5652
a(S'happeness'
p5653
I1
tp5654
a(S'happening'
p5655
I1
tp5656
a(S'happenings'
p5657
I1
tp5658
a(S'happieness.in'
p5659
I1
tp5660
a(S'happiest'
p5661
I1
tp5662
a(S'happines.there'
p5663
I1
tp5664
a(S'happiness.when'
p5665
I1
tp5666
a(S'happinessin'
p5667
I1
tp5668
a(S'happinessthe'
p5669
I1
tp5670
a(S'happy,the'
p5671
I1
tp5672
a(S'happy-'
p5673
I1
tp5674
a(S'happy...nice'
p5675
I1
tp5676
a(S'happy.also'
p5677
I1
tp5678
a(S'happy.narciso'
p5679
I1
tp5680
a(S'happy/sad.the'
p5681
I1
tp5682
a(S'happy?'
p5683
I1
tp5684
a(S'happyness.the'
p5685
I1
tp5686
a(S'happythe'
p5687
I1
tp5688
a(S'harder'
p5689
I1
tp5690
a(S'hardest'
p5691
I1
tp5692
a(S'hardships.however'
p5693
I1
tp5694
a(S'hardshipsin'
p5695
I1
tp5696
a(S'hardthe'
p5697
I1
tp5698
a(S'hardwork.narciso'
p5699
I1
tp5700
a(S'harmony'
p5701
I1
tp5702
a(S'has.in'
p5703
I1
tp5704
a(S'has.narciso'
p5705
I1
tp5706
a(S'hate'
p5707
I1
tp5708
a(S'havedone'
p5709
I1
tp5710
a(S'haveing'
p5711
I1
tp5712
a(S'haven'
p5713
I1
tp5714
a(S'haver'
p5715
I1
tp5716
a(S'haves'
p5717
I1
tp5718
a(S'havin'
p5719
I1
tp5720
a(S'having.the'
p5721
I1
tp5722
a(S"he'd"
p5723
I1
tp5724
a(S'he/or'
p5725
I1
tp5726
a(S'he]'
p5727
I1
tp5728
a(S'heared'
p5729
I1
tp5730
a(S'heart)'
p5731
I1
tp5732
a(S'heart-'
p5733
I1
tp5734
a(S'heart-breaking'
p5735
I1
tp5736
a(S'heart...narciso'
p5737
I1
tp5738
a(S'heart.the'
p5739
I1
tp5740
a(S'hearth'
p5741
I1
tp5742
a(S'heartwarming.this'
p5743
I1
tp5744
a(S'heaven'
p5745
I1
tp5746
a(S'heavily'
p5747
I1
tp5748
a(S'heis'
p5749
I1
tp5750
a(S'held'
p5751
I1
tp5752
a(S'help)'
p5753
I1
tp5754
a(S'help.the'
p5755
I1
tp5756
a(S'helped.in'
p5757
I1
tp5758
a(S'helpedin'
p5759
I1
tp5760
a(S'helpful'
p5761
I1
tp5762
a(S'heped'
p5763
I1
tp5764
a(S'heratige'
p5765
I1
tp5766
a(S'heritage.in'
p5767
I1
tp5768
a(S'heritages'
p5769
I1
tp5770
a(S'heroic'
p5771
I1
tp5772
a(S'herthe'
p5773
I1
tp5774
a(S'highlighted'
p5775
I1
tp5776
a(S'him."@caps1'
p5777
I1
tp5778
a(S'him.by'
p5779
I1
tp5780
a(S'him.heartwarming'
p5781
I1
tp5782
a(S'him.next'
p5783
I1
tp5784
a(S'himin'
p5785
I1
tp5786
a(S'hint'
p5787
I1
tp5788
a(S'hintage'
p5789
I1
tp5790
a(S'his/@caps1'
p5791
I1
tp5792
a(S'hisparents'
p5793
I1
tp5794
a(S'hole'
p5795
I1
tp5796
a(S'holidays.second'
p5797
I1
tp5798
a(S'home!based'
p5799
I1
tp5800
a(S'home!the'
p5801
I1
tp5802
a(S'home".in'
p5803
I1
tp5804
a(S'home"the'
p5805
I1
tp5806
a(S'home"this'
p5807
I1
tp5808
a(S"home's"
p5809
I1
tp5810
a(S'home-'
p5811
I1
tp5812
a(S'home."@caps2'
p5813
I1
tp5814
a(S'home."a'
p5815
I1
tp5816
a(S'home."narciso'
p5817
I1
tp5818
a(S'home."rodriguez'
p5819
I1
tp5820
a(S'home."with'
p5821
I1
tp5822
a(S"home.'"
p5823
I1
tp5824
a(S'home...the'
p5825
I1
tp5826
a(S'home.after'
p5827
I1
tp5828
a(S'home.home'
p5829
I1
tp5830
a(S'home.i'
p5831
I1
tp5832
a(S'home.then'
p5833
I1
tp5834
a(S'home.throughout'
p5835
I1
tp5836
a(S'home:the'
p5837
I1
tp5838
a(S'home;'
p5839
I1
tp5840
a(S'homenarciso'
p5841
I1
tp5842
a(S'homesick'
p5843
I1
tp5844
a(S'honestly'
p5845
I1
tp5846
a(S'honorable'
p5847
I1
tp5848
a(S'honored'
p5849
I1
tp5850
a(S'hood.narciso'
p5851
I1
tp5852
a(S'hood.the'
p5853
I1
tp5854
a(S'hopefully'
p5855
I1
tp5856
a(S'hopeing'
p5857
I1
tp5858
a(S'hopes'
p5859
I1
tp5860
a(S'hoping'
p5861
I1
tp5862
a(S'horrible'
p5863
I1
tp5864
a(S'hospitable'
p5865
I1
tp5866
a(S'hospital'
p5867
I1
tp5868
a(S'host'
p5869
I1
tp5870
a(S'hot'
p5871
I1
tp5872
a(S'hotel'
p5873
I1
tp5874
a(S'hous'
p5875
I1
tp5876
a(S'house.\'"the'
p5877
I1
tp5878
a(S'house.at'
p5879
I1
tp5880
a(S'house.in'
p5881
I1
tp5882
a(S'house.there'
p5883
I1
tp5884
a(S'houseinto'
p5885
I1
tp5886
a(S'housing'
p5887
I1
tp5888
a(S'howe'
p5889
I1
tp5890
a(S'humbleness'
p5891
I1
tp5892
a(S'humbleness.one'
p5893
I1
tp5894
a(S'humility'
p5895
I1
tp5896
a(S'hunger'
p5897
I1
tp5898
a(S'ibing'
p5899
I1
tp5900
a(S'ideal'
p5901
I1
tp5902
a(S'ignored'
p5903
I1
tp5904
a(S'ill'
p5905
I1
tp5906
a(S'illistrate'
p5907
I1
tp5908
a(S'illustrate'
p5909
I1
tp5910
a(S'illustrates'
p5911
I1
tp5912
a(S'image/atmosphere'
p5913
I1
tp5914
a(S'imagery;'
p5915
I1
tp5916
a(S'imagined'
p5917
I1
tp5918
a(S'imagrants'
p5919
I1
tp5920
a(S'imarant'
p5921
I1
tp5922
a(S'imegrents'
p5923
I1
tp5924
a(S'imigrant'
p5925
I1
tp5926
a(S'imigrated'
p5927
I1
tp5928
a(S'imigrating'
p5929
I1
tp5930
a(S'immagrants)'
p5931
I1
tp5932
a(S'immagrate'
p5933
I1
tp5934
a(S'immagrated'
p5935
I1
tp5936
a(S'immagrents'
p5937
I1
tp5938
a(S'immaigrant'
p5939
I1
tp5940
a(S'immediately'
p5941
I1
tp5942
a(S'immediatly'
p5943
I1
tp5944
a(S'immeditly'
p5945
I1
tp5946
a(S'immegrants'
p5947
I1
tp5948
a(S'immensely'
p5949
I1
tp5950
a(S'immgrants'
p5951
I1
tp5952
a(S'immigants'
p5953
I1
tp5954
a(S"immigrant's"
p5955
I1
tp5956
a(S'immigranted'
p5957
I1
tp5958
a(S'immigrants)'
p5959
I1
tp5960
a(S"immigrants..'"
p5961
I1
tp5962
a(S'immigratein'
p5963
I1
tp5964
a(S'immportant'
p5965
I1
tp5966
a(S'implies'
p5967
I1
tp5968
a(S'importand'
p5969
I1
tp5970
a(S'importat'
p5971
I1
tp5972
a(S'improved'
p5973
I1
tp5974
a(S'in.in'
p5975
I1
tp5976
a(S'in.last'
p5977
I1
tp5978
a(S'include'
p5979
I1
tp5980
a(S'included.the'
p5981
I1
tp5982
a(S'incorperated'
p5983
I1
tp5984
a(S'incorporate'
p5985
I1
tp5986
a(S'incorporated'
p5987
I1
tp5988
a(S'incredibly'
p5989
I1
tp5990
a(S'indacates'
p5991
I1
tp5992
a(S'indeed'
p5993
I1
tp5994
a(S'indicator'
p5995
I1
tp5996
a(S'infer'
p5997
I1
tp5998
a(S'influenced'
p5999
I1
tp6000
a(S'informative'
p6001
I1
tp6002
a(S'informs'
p6003
I1
tp6004
a(S'inheritance'
p6005
I1
tp6006
a(S'inheriting'
p6007
I1
tp6008
a(S'innocent'
p6009
I1
tp6010
a(S'inocence'
p6011
I1
tp6012
a(S'inside.home'
p6013
I1
tp6014
a(S'inside.in'
p6015
I1
tp6016
a(S'inside.the'
p6017
I1
tp6018
a(S'inside.this'
p6019
I1
tp6020
a(S'insides'
p6021
I1
tp6022
a(S'insightful.i'
p6023
I1
tp6024
a(S'instability'
p6025
I1
tp6026
a(S'instanters'
p6027
I1
tp6028
a(S'instilling'
p6029
I1
tp6030
a(S'intence'
p6031
I1
tp6032
a(S'interacted'
p6033
I1
tp6034
a(S'interests'
p6035
I1
tp6036
a(S'internationally'
p6037
I1
tp6038
a(S'interpretation'
p6039
I1
tp6040
a(S'interpreted'
p6041
I1
tp6042
a(S'interviewed'
p6043
I1
tp6044
a(S'introduced'
p6045
I1
tp6046
a(S'introducing'
p6047
I1
tp6048
a(S'inviorment'
p6049
I1
tp6050
a(S'invoke'
p6051
I1
tp6052
a(S'is.love'
p6053
I1
tp6054
a(S'is.there'
p6055
I1
tp6056
a(S'isalso'
p6057
I1
tp6058
a(S'isthat'
p6059
I1
tp6060
a(S'istheir'
p6061
I1
tp6062
a(S'istrying'
p6063
I1
tp6064
a(S'it.memoirs'
p6065
I1
tp6066
a(S'it.narciso'
p6067
I1
tp6068
a(S'it.there'
p6069
I1
tp6070
a(S'it.they'
p6071
I1
tp6072
a(S'jersey)'
p6073
I1
tp6074
a(S'jersey.in'
p6075
I1
tp6076
a(S'jersey.the'
p6077
I1
tp6078
a(S'jersy'
p6079
I1
tp6080
a(S'job.this'
p6081
I1
tp6082
a(S'jobs.the'
p6083
I1
tp6084
a(S'jod'
p6085
I1
tp6086
a(S'joining'
p6087
I1
tp6088
a(S'joyful.narciso'
p6089
I1
tp6090
a(S'joyful.the'
p6091
I1
tp6092
a(S'joyous.in'
p6093
I1
tp6094
a(S'joys'
p6095
I1
tp6096
a(S'juanita;'
p6097
I1
tp6098
a(S'judge'
p6099
I1
tp6100
a(S'jut'
p6101
I1
tp6102
a(S'keyword'
p6103
I1
tp6104
a(S"kid's"
p6105
I1
tp6106
a(S'kid.in'
p6107
I1
tp6108
a(S'kide'
p6109
I1
tp6110
a(S'kind.finally'
p6111
I1
tp6112
a(S'kindness.because'
p6113
I1
tp6114
a(S'kitchen."the'
p6115
I1
tp6116
a(S'kitchen.in'
p6117
I1
tp6118
a(S'kitchen.this'
p6119
I1
tp6120
a(S'kitchens.the'
p6121
I1
tp6122
a(S'kitchin'
p6123
I1
tp6124
a(S'knowlage'
p6125
I1
tp6126
a(S'knowlege'
p6127
I1
tp6128
a(S'known'
p6129
I1
tp6130
a(S'labor'
p6131
I1
tp6132
a(S'labratory'
p6133
I1
tp6134
a(S'laden'
p6135
I1
tp6136
a(S'laid-back'
p6137
I1
tp6138
a(S"landloard's"
p6139
I1
tp6140
a(S'language;'
p6141
I1
tp6142
a(S'lastely'
p6143
I1
tp6144
a(S'late'
p6145
I1
tp6146
a(S'latin'
p6147
I1
tp6148
a(S'layed'
p6149
I1
tp6150
a(S'laying'
p6151
I1
tp6152
a(S'leading'
p6153
I1
tp6154
a(S'lean'
p6155
I1
tp6156
a(S'leared'
p6157
I1
tp6158
a(S'learned.)'
p6159
I1
tp6160
a(S'learned.the'
p6161
I1
tp6162
a(S'leav'
p6163
I1
tp6164
a(S'led'
p6165
I1
tp6166
a(S'left.narciso'
p6167
I1
tp6168
a(S'legal'
p6169
I1
tp6170
a(S'lest'
p6171
I1
tp6172
a(S'lets'
p6173
I1
tp6174
a(S'letter."i'
p6175
I1
tp6176
a(S'levels'
p6177
I1
tp6178
a(S"life's"
p6179
I1
tp6180
a(S'life-changing'
p6181
I1
tp6182
a(S'life."-'
p6183
I1
tp6184
a(S'life."they'
p6185
I1
tp6186
a(S'life.another'
p6187
I1
tp6188
a(S'life.he'
p6189
I1
tp6190
a(S'life.my'
p6191
I1
tp6192
a(S'life.over'
p6193
I1
tp6194
a(S'life.this'
p6195
I1
tp6196
a(S'lifethe'
p6197
I1
tp6198
a(S'lifetime'
p6199
I1
tp6200
a(S'lifetimes'
p6201
I1
tp6202
a(S'lightens'
p6203
I1
tp6204
a(S'lighthearted'
p6205
I1
tp6206
a(S'like.also'
p6207
I1
tp6208
a(S'like.narciso'
p6209
I1
tp6210
a(S'likein'
p6211
I1
tp6212
a(S'likethe'
p6213
I1
tp6214
a(S'liking'
p6215
I1
tp6216
a(S'lines/phrases'
p6217
I1
tp6218
a(S'listed'
p6219
I1
tp6220
a(S'listens'
p6221
I1
tp6222
a(S'lists'
p6223
I1
tp6224
a(S'literally'
p6225
I1
tp6226
a(S'literature'
p6227
I1
tp6228
a(S'literature.in'
p6229
I1
tp6230
a(S"live's"
p6231
I1
tp6232
a(S'live.in'
p6233
I1
tp6234
a(S'live.the'
p6235
I1
tp6236
a(S'lived.inthe'
p6237
I1
tp6238
a(S'liveing'
p6239
I1
tp6240
a(S'lives",narciso'
p6241
I1
tp6242
a(S'lives".the'
p6243
I1
tp6244
a(S'lives"the'
p6245
I1
tp6246
a(S'lives."this'
p6247
I1
tp6248
a(S'lives.i'
p6249
I1
tp6250
a(S'lives.in'
p6251
I1
tp6252
a(S'lives.narciso'
p6253
I1
tp6254
a(S'living)'
p6255
I1
tp6256
a(S'living.in'
p6257
I1
tp6258
a(S'livving'
p6259
I1
tp6260
a(S'located).the'
p6261
I1
tp6262
a(S'location'
p6263
I1
tp6264
a(S'location.the'
p6265
I1
tp6266
a(S'location1.in'
p6267
I1
tp6268
a(S'location1.the'
p6269
I1
tp6270
a(S'location1based'
p6271
I1
tp6272
a(S'location1within'
p6273
I1
tp6274
a(S"location3's"
p6275
I1
tp6276
a(S'location4'
p6277
I1
tp6278
a(S'lonely'
p6279
I1
tp6280
a(S'longer'
p6281
I1
tp6282
a(S'loosing'
p6283
I1
tp6284
a(S'lord'
p6285
I1
tp6286
a(S'losing'
p6287
I1
tp6288
a(S'lost'
p6289
I1
tp6290
a(S'loud'
p6291
I1
tp6292
a(S'love!"in'
p6293
I1
tp6294
a(S"love'"
p6295
I1
tp6296
a(S'love."in'
p6297
I1
tp6298
a(S'love."when'
p6299
I1
tp6300
a(S'love.@caps1'
p6301
I1
tp6302
a(S'love.a'
p6303
I1
tp6304
a(S'love.ii'
p6305
I1
tp6306
a(S'love.narciso'
p6307
I1
tp6308
a(S'love?'
p6309
I1
tp6310
a(S'loved"rodriguez'
p6311
I1
tp6312
a(S'loved."that'
p6313
I1
tp6314
a(S'lovef'
p6315
I1
tp6316
a(S'loveing.what'
p6317
I1
tp6318
a(S'loving.from'
p6319
I1
tp6320
a(S'loving/'
p6321
I1
tp6322
a(S'lovses'
p6323
I1
tp6324
a(S'low'
p6325
I1
tp6326
a(S'low-paying'
p6327
I1
tp6328
a(S'lurking'
p6329
I1
tp6330
a(S'luves'
p6331
I1
tp6332
a(S'maintains'
p6333
I1
tp6334
a(S'manage'
p6335
I1
tp6336
a(S'managed'
p6337
I1
tp6338
a(S'many.in'
p6339
I1
tp6340
a(S'marks'
p6341
I1
tp6342
a(S'masterpiece'
p6343
I1
tp6344
a(S'match'
p6345
I1
tp6346
a(S'materialistic'
p6347
I1
tp6348
a(S'meain'
p6349
I1
tp6350
a(S'meals.this'
p6351
I1
tp6352
a(S'meaningful.i'
p6353
I1
tp6354
a(S'meanings.the'
p6355
I1
tp6356
a(S'means.in'
p6357
I1
tp6358
a(S'measure'
p6359
I1
tp6360
a(S'mebers'
p6361
I1
tp6362
a(S'melting'
p6363
I1
tp6364
a(S'memeior'
p6365
I1
tp6366
a(S'memioar'
p6367
I1
tp6368
a(S"memior's...the"
p6369
I1
tp6370
a(S'memior.what'
p6371
I1
tp6372
a(S'memiour.the'
p6373
I1
tp6374
a(S'memo'
p6375
I1
tp6376
a(S'memoie'
p6377
I1
tp6378
a(S'memoin'
p6379
I1
tp6380
a(S"memoir.@person1's"
p6381
I1
tp6382
a(S'memoir.according'
p6383
I1
tp6384
a(S'memoir.author'
p6385
I1
tp6386
a(S'memoir.describe'
p6387
I1
tp6388
a(S'memoir.his'
p6389
I1
tp6390
a(S'memoir.it'
p6391
I1
tp6392
a(S'memoir.living'
p6393
I1
tp6394
a(S'memoir.my'
p6395
I1
tp6396
a(S'memoir.there'
p6397
I1
tp6398
a(S'memoir.to'
p6399
I1
tp6400
a(S'memoir.when'
p6401
I1
tp6402
a(S'memoir.within'
p6403
I1
tp6404
a(S'memoir;'
p6405
I1
tp6406
a(S'memoir?'
p6407
I1
tp6408
a(S'memoiri'
p6409
I1
tp6410
a(S'memoirthe'
p6411
I1
tp6412
a(S'memor.the'
p6413
I1
tp6414
a(S'memories)'
p6415
I1
tp6416
a(S'memories.this'
p6417
I1
tp6418
a(S'memoris'
p6419
I1
tp6420
a(S'memorized'
p6421
I1
tp6422
a(S'memoroir'
p6423
I1
tp6424
a(S"memory's"
p6425
I1
tp6426
a(S'memory.the'
p6427
I1
tp6428
a(S'menchened'
p6429
I1
tp6430
a(S'menoir'
p6431
I1
tp6432
a(S'mentioen'
p6433
I1
tp6434
a(S'mention'
p6435
I1
tp6436
a(S'merchendise'
p6437
I1
tp6438
a(S'metiond'
p6439
I1
tp6440
a(S'mexican'
p6441
I1
tp6442
a(S'millions'
p6443
I1
tp6444
a(S'minded'
p6445
I1
tp6446
a(S'minute'
p6447
I1
tp6448
a(S'misic'
p6449
I1
tp6450
a(S'miss'
p6451
I1
tp6452
a(S'miss.in'
p6453
I1
tp6454
a(S'mixes'
p6455
I1
tp6456
a(S'mixture'
p6457
I1
tp6458
a(S'moddest'
p6459
I1
tp6460
a(S'mode'
p6461
I1
tp6462
a(S"mom's"
p6463
I1
tp6464
a(S'mom)'
p6465
I1
tp6466
a(S'moments.based'
p6467
I1
tp6468
a(S'momoirthe'
p6469
I1
tp6470
a(S'monumentous'
p6471
I1
tp6472
a(S'moobs'
p6473
I1
tp6474
a(S'mood(s)'
p6475
I1
tp6476
a(S'mood.a'
p6477
I1
tp6478
a(S'mood.after'
p6479
I1
tp6480
a(S'mood.another'
p6481
I1
tp6482
a(S'mood.based'
p6483
I1
tp6484
a(S'mood.i'
p6485
I1
tp6486
a(S"mood.i've"
p6487
I1
tp6488
a(S'mood.lastly'
p6489
I1
tp6490
a(S'mood.next'
p6491
I1
tp6492
a(S'mood.there'
p6493
I1
tp6494
a(S'mood/@caps8narciso'
p6495
I1
tp6496
a(S'mood;'
p6497
I1
tp6498
a(S'mood?'
p6499
I1
tp6500
a(S'moode'
p6501
I1
tp6502
a(S'moodis'
p6503
I1
tp6504
a(S'moods.the'
p6505
I1
tp6506
a(S'more.the'
p6507
I1
tp6508
a(S'most.the'
p6509
I1
tp6510
a(S'mostely'
p6511
I1
tp6512
a(S'mostley'
p6513
I1
tp6514
a(S'motch'
p6515
I1
tp6516
a(S"mother's"
p6517
I1
tp6518
a(S'motoevation'
p6519
I1
tp6520
a(S'mounth'
p6521
I1
tp6522
a(S'movedfrom'
p6523
I1
tp6524
a(S'movie'
p6525
I1
tp6526
a(S'movieing'
p6527
I1
tp6528
a(S'movies'
p6529
I1
tp6530
a(S'much.the'
p6531
I1
tp6532
a(S'multiple'
p6533
I1
tp6534
a(S'musci'
p6535
I1
tp6536
a(S'music...filled'
p6537
I1
tp6538
a(S'music...mixing'
p6539
I1
tp6540
a(S'music.another'
p6541
I1
tp6542
a(S'music.the'
p6543
I1
tp6544
a(S'music/always'
p6545
I1
tp6546
a(S'musics'
p6547
I1
tp6548
a(S"must've"
p6549
I1
tp6550
a(S'mybe'
p6551
I1
tp6552
a(S'mysterious'
p6553
I1
tp6554
a(S'nabiorhood'
p6555
I1
tp6556
a(S'nacessidies'
p6557
I1
tp6558
a(S'naighbor'
p6559
I1
tp6560
a(S'narator'
p6561
I1
tp6562
a(S'narcisoc'
p6563
I1
tp6564
a(S'narcisos'
p6565
I1
tp6566
a(S'narisco'
p6567
I1
tp6568
a(S'nariso'
p6569
I1
tp6570
a(S'narrates'
p6571
I1
tp6572
a(S'narrator)'
p6573
I1
tp6574
a(S'narsico'
p6575
I1
tp6576
a(S'nastest'
p6577
I1
tp6578
a(S'nasty'
p6579
I1
tp6580
a(S'nation'
p6581
I1
tp6582
a(S"nation's"
p6583
I1
tp6584
a(S'nationnalityin'
p6585
I1
tp6586
a(S'nature'
p6587
I1
tp6588
a(S'nearby.the'
p6589
I1
tp6590
a(S'necesary'
p6591
I1
tp6592
a(S'necessary'
p6593
I1
tp6594
a(S"need'"
p6595
I1
tp6596
a(S'need.rodriguez'
p6597
I1
tp6598
a(S'neer'
p6599
I1
tp6600
a(S'negatives'
p6601
I1
tp6602
a(S'neghborhood'
p6603
I1
tp6604
a(S'neiabor'
p6605
I1
tp6606
a(S'neigborhood'
p6607
I1
tp6608
a(S'neigerhood'
p6609
I1
tp6610
a(S'neighberhood'
p6611
I1
tp6612
a(S'neighborely'
p6613
I1
tp6614
a(S'neighborey'
p6615
I1
tp6616
a(S'neighborhood,...all'
p6617
I1
tp6618
a(S'neighborhood.in'
p6619
I1
tp6620
a(S'neighborhoods'
p6621
I1
tp6622
a(S'neighbors)'
p6623
I1
tp6624
a(S'neighbors;'
p6625
I1
tp6626
a(S'neighbrhds'
p6627
I1
tp6628
a(S'neighbrhood'
p6629
I1
tp6630
a(S'neither'
p6631
I1
tp6632
a(S'nessecarily'
p6633
I1
tp6634
a(S'newborn'
p6635
I1
tp6636
a(S'nicely'
p6637
I1
tp6638
a(S'nicely.the'
p6639
I1
tp6640
a(S'nicer'
p6641
I1
tp6642
a(S'nicest'
p6643
I1
tp6644
a(S'nieghborhood'
p6645
I1
tp6646
a(S'nieghbors'
p6647
I1
tp6648
a(S'nienborhood'
p6649
I1
tp6650
a(S'nobody'
p6651
I1
tp6652
a(S'non-american'
p6653
I1
tp6654
a(S'non-fiction'
p6655
I1
tp6656
a(S'non-fictional'
p6657
I1
tp6658
a(S'nonetheless'
p6659
I1
tp6660
a(S'nonfiction'
p6661
I1
tp6662
a(S'normally'
p6663
I1
tp6664
a(S'notch'
p6665
I1
tp6666
a(S'notes'
p6667
I1
tp6668
a(S'nothing;'
p6669
I1
tp6670
a(S'notice'
p6671
I1
tp6672
a(S'noticed'
p6673
I1
tp6674
a(S'noting'
p6675
I1
tp6676
a(S'notthing'
p6677
I1
tp6678
a(S'nowhere'
p6679
I1
tp6680
a(S'num1.)'
p6681
I1
tp6682
a(S'num1.care'
p6683
I1
tp6684
a(S'num1.the'
p6685
I1
tp6686
a(S'num1]'
p6687
I1
tp6688
a(S'num2).with'
p6689
I1
tp6690
a(S'num2)these'
p6691
I1
tp6692
a(S'num2-'
p6693
I1
tp6694
a(S'num2-room'
p6695
I1
tp6696
a(S'num2.faith'
p6697
I1
tp6698
a(S'num3).the'
p6699
I1
tp6700
a(S'num3)the'
p6701
I1
tp6702
a(S'num3-@num1)'
p6703
I1
tp6704
a(S'num3-year-old'
p6705
I1
tp6706
a(S'num3.)@caps1'
p6707
I1
tp6708
a(S'num3.narciso'
p6709
I1
tp6710
a(S'num3.the'
p6711
I1
tp6712
a(S'num3]'
p6713
I1
tp6714
a(S'num4).the'
p6715
I1
tp6716
a(S'num4.when'
p6717
I1
tp6718
a(S'num5)'
p6719
I1
tp6720
a(S'num5.)'
p6721
I1
tp6722
a(S'num6'
p6723
I1
tp6724
a(S'num6)'
p6725
I1
tp6726
a(S'num6.)'
p6727
I1
tp6728
a(S'num6.the'
p6729
I1
tp6730
a(S'num7'
p6731
I1
tp6732
a(S'observant'
p6733
I1
tp6734
a(S'obstancles'
p6735
I1
tp6736
a(S'obtain'
p6737
I1
tp6738
a(S'obvesoly'
p6739
I1
tp6740
a(S'occasionally'
p6741
I1
tp6742
a(S'occurring'
p6743
I1
tp6744
a(S'odds'
p6745
I1
tp6746
a(S'offered'
p6747
I1
tp6748
a(S'offers'
p6749
I1
tp6750
a(S'oftem'
p6751
I1
tp6752
a(S'oils'
p6753
I1
tp6754
a(S'ok'
p6755
I1
tp6756
a(S'ok!'
p6757
I1
tp6758
a(S'olwoys'
p6759
I1
tp6760
a(S'once.the'
p6761
I1
tp6762
a(S'ond'
p6763
I1
tp6764
a(S'one.in'
p6765
I1
tp6766
a(S'oneper'
p6767
I1
tp6768
a(S'oneroom'
p6769
I1
tp6770
a(S'ones.the'
p6771
I1
tp6772
a(S'onethe'
p6773
I1
tp6774
a(S'onhappy'
p6775
I1
tp6776
a(S'onions'
p6777
I1
tp6778
a(S'op'
p6779
I1
tp6780
a(S'open-ness'
p6781
I1
tp6782
a(S'opening'
p6783
I1
tp6784
a(S'opens'
p6785
I1
tp6786
a(S'opentothe'
p6787
I1
tp6788
a(S'opertunities'
p6789
I1
tp6790
a(S'opertunties'
p6791
I1
tp6792
a(S'opinion-i'
p6793
I1
tp6794
a(S'opion'
p6795
I1
tp6796
a(S'oportunits'
p6797
I1
tp6798
a(S'oppertunitie'
p6799
I1
tp6800
a(S'opportunitys'
p6801
I1
tp6802
a(S'opportunty'
p6803
I1
tp6804
a(S'opposed'
p6805
I1
tp6806
a(S'optemistic'
p6807
I1
tp6808
a(S'options'
p6809
I1
tp6810
a(S'orange'
p6811
I1
tp6812
a(S'organization1.narciso'
p6813
I1
tp6814
a(S'organization1.the'
p6815
I1
tp6816
a(S'organization3'
p6817
I1
tp6818
a(S'organized'
p6819
I1
tp6820
a(S'oriented.the'
p6821
I1
tp6822
a(S'original'
p6823
I1
tp6824
a(S"other's"
p6825
I1
tp6826
a(S"others'"
p6827
I1
tp6828
a(S"others.'the"
p6829
I1
tp6830
a(S'others.the'
p6831
I1
tp6832
a(S'othrs'
p6833
I1
tp6834
a(S'out.narciso'
p6835
I1
tp6836
a(S'out.next'
p6837
I1
tp6838
a(S'outcome'
p6839
I1
tp6840
a(S'outhor'
p6841
I1
tp6842
a(S'outlined'
p6843
I1
tp6844
a(S'outmost'
p6845
I1
tp6846
a(S'outside'
p6847
I1
tp6848
a(S'outstanding'
p6849
I1
tp6850
a(S'overcomed'
p6851
I1
tp6852
a(S'overcoming'
p6853
I1
tp6854
a(S'overdid'
p6855
I1
tp6856
a(S'overjoyed'
p6857
I1
tp6858
a(S'ovor'
p6859
I1
tp6860
a(S'page'
p6861
I1
tp6862
a(S'paint'
p6863
I1
tp6864
a(S'painting'
p6865
I1
tp6866
a(S'pakd'
p6867
I1
tp6868
a(S'paper'
p6869
I1
tp6870
a(S'paragraph.as'
p6871
I1
tp6872
a(S'paragraphs.in'
p6873
I1
tp6874
a(S'paranthesis'
p6875
I1
tp6876
a(S'parenths'
p6877
I1
tp6878
a(S'parents)'
p6879
I1
tp6880
a(S'parents.based'
p6881
I1
tp6882
a(S'parents.first'
p6883
I1
tp6884
a(S'parents.growing'
p6885
I1
tp6886
a(S'parents.no'
p6887
I1
tp6888
a(S'parents.one'
p6889
I1
tp6890
a(S'parents.these'
p6891
I1
tp6892
a(S'parents]'
p6893
I1
tp6894
a(S'parentshe/she'
p6895
I1
tp6896
a(S'parentsthe'
p6897
I1
tp6898
a(S'parints'
p6899
I1
tp6900
a(S'parnts'
p6901
I1
tp6902
a(S'paroents'
p6903
I1
tp6904
a(S'particullarly'
p6905
I1
tp6906
a(S'partying'
p6907
I1
tp6908
a(S'pasionate'
p6909
I1
tp6910
a(S'passage.the'
p6911
I1
tp6912
a(S'passages'
p6913
I1
tp6914
a(S'passagethe'
p6915
I1
tp6916
a(S'passionat'
p6917
I1
tp6918
a(S'passionate.the'
p6919
I1
tp6920
a(S'passionately'
p6921
I1
tp6922
a(S'path'
p6923
I1
tp6924
a(S'pats'
p6925
I1
tp6926
a(S'pave'
p6927
I1
tp6928
a(S'peacefull'
p6929
I1
tp6930
a(S'pease'
p6931
I1
tp6932
a(S'peice.the'
p6933
I1
tp6934
a(S'peirod'
p6935
I1
tp6936
a(S'peope'
p6937
I1
tp6938
a(S'people-many'
p6939
I1
tp6940
a(S'people.from'
p6941
I1
tp6942
a(S'people.narciso'
p6943
I1
tp6944
a(S'people.the'
p6945
I1
tp6946
a(S'peorson'
p6947
I1
tp6948
a(S'peppers'
p6949
I1
tp6950
a(S"perent's"
p6951
I1
tp6952
a(S'perfect.in'
p6953
I1
tp6954
a(S'perfectly'
p6955
I1
tp6956
a(S'perhaps'
p6957
I1
tp6958
a(S'period'
p6959
I1
tp6960
a(S'perks'
p6961
I1
tp6962
a(S'permanently'
p6963
I1
tp6964
a(S'persaverence'
p6965
I1
tp6966
a(S'perserverance'
p6967
I1
tp6968
a(S'perservirence'
p6969
I1
tp6970
a(S'perseverance."in'
p6971
I1
tp6972
a(S'perseverance.as'
p6973
I1
tp6974
a(S'perseverence."the'
p6975
I1
tp6976
a(S'persistent'
p6977
I1
tp6978
a(S'person.and'
p6979
I1
tp6980
a(S'person1.the'
p6981
I1
tp6982
a(S'person2,had'
p6983
I1
tp6984
a(S"person3's"
p6985
I1
tp6986
a(S'personalities'
p6987
I1
tp6988
a(S'personaly'
p6989
I1
tp6990
a(S'perverance'
p6991
I1
tp6992
a(S'phase'
p6993
I1
tp6994
a(S'phisically'
p6995
I1
tp6996
a(S'phrase'
p6997
I1
tp6998
a(S'piecefull'
p6999
I1
tp7000
a(S'pin-points'
p7001
I1
tp7002
a(S'pity'
p7003
I1
tp7004
a(S'placein'
p7005
I1
tp7006
a(S'places.in'
p7007
I1
tp7008
a(S'plained'
p7009
I1
tp7010
a(S'plane'
p7011
I1
tp7012
a(S'plans'
p7013
I1
tp7014
a(S'plays'
p7015
I1
tp7016
a(S'pleasing'
p7017
I1
tp7018
a(S'pointed'
p7019
I1
tp7020
a(S'poopy'
p7021
I1
tp7022
a(S'popped'
p7023
I1
tp7024
a(S'pops'
p7025
I1
tp7026
a(S'portait'
p7027
I1
tp7028
a(S'portraits'
p7029
I1
tp7030
a(S'portraying'
p7031
I1
tp7032
a(S'portreyed'
p7033
I1
tp7034
a(S'posative'
p7035
I1
tp7036
a(S'positie'
p7037
I1
tp7038
a(S'positively'
p7039
I1
tp7040
a(S'positives'
p7041
I1
tp7042
a(S'positivity'
p7043
I1
tp7044
a(S'positve'
p7045
I1
tp7046
a(S'pot'
p7047
I1
tp7048
a(S'potential'
p7049
I1
tp7050
a(S'potrays.in'
p7051
I1
tp7052
a(S'pouring'
p7053
I1
tp7054
a(S'prents'
p7055
I1
tp7056
a(S'prepared'
p7057
I1
tp7058
a(S'preserverance'
p7059
I1
tp7060
a(S'preseverance'
p7061
I1
tp7062
a(S'presses'
p7063
I1
tp7064
a(S'prevail'
p7065
I1
tp7066
a(S'prevalent'
p7067
I1
tp7068
a(S'previous'
p7069
I1
tp7070
a(S'previously'
p7071
I1
tp7072
a(S'priceless'
p7073
I1
tp7074
a(S'prid'
p7075
I1
tp7076
a(S'pridethe'
p7077
I1
tp7078
a(S'probaly'
p7079
I1
tp7080
a(S'problems.the'
p7081
I1
tp7082
a(S'process'
p7083
I1
tp7084
a(S'prode'
p7085
I1
tp7086
a(S'prominant'
p7087
I1
tp7088
a(S'promising'
p7089
I1
tp7090
a(S'promoting'
p7091
I1
tp7092
a(S'prosperous'
p7093
I1
tp7094
a(S'protect'
p7095
I1
tp7096
a(S'protest'
p7097
I1
tp7098
a(S'proudenest'
p7099
I1
tp7100
a(S'proudly'
p7101
I1
tp7102
a(S'prouud'
p7103
I1
tp7104
a(S'proved'
p7105
I1
tp7106
a(S'provideing'
p7107
I1
tp7108
a(S'providvedes'
p7109
I1
tp7110
a(S'prowed'
p7111
I1
tp7112
a(S'pull'
p7113
I1
tp7114
a(S'pulling'
p7115
I1
tp7116
a(S'purely'
p7117
I1
tp7118
a(S'purposes'
p7119
I1
tp7120
a(S'purposfully'
p7121
I1
tp7122
a(S'pushed'
p7123
I1
tp7124
a(S'quality'
p7125
I1
tp7126
a(S'quant'
p7127
I1
tp7128
a(S'quarters'
p7129
I1
tp7130
a(S'quick'
p7131
I1
tp7132
a(S'quickly'
p7133
I1
tp7134
a(S'quiet'
p7135
I1
tp7136
a(S'quotein'
p7137
I1
tp7138
a(S'quthor'
p7139
I1
tp7140
a(S'racism.the'
p7141
I1
tp7142
a(S'racismn'
p7143
I1
tp7144
a(S'racistism'
p7145
I1
tp7146
a(S'racking'
p7147
I1
tp7148
a(S'radical'
p7149
I1
tp7150
a(S'raised.thats'
p7151
I1
tp7152
a(S'rascism'
p7153
I1
tp7154
a(S'rasict'
p7155
I1
tp7156
a(S'rasism'
p7157
I1
tp7158
a(S'rather'
p7159
I1
tp7160
a(S'reach'
p7161
I1
tp7162
a(S'reaches'
p7163
I1
tp7164
a(S'react'
p7165
I1
tp7166
a(S'reader."the'
p7167
I1
tp7168
a(S'realative;'
p7169
I1
tp7170
a(S'realatives'
p7171
I1
tp7172
a(S'realetive'
p7173
I1
tp7174
a(S'reality]'
p7175
I1
tp7176
a(S'reallty'
p7177
I1
tp7178
a(S'reallyall'
p7179
I1
tp7180
a(S'reasonable'
p7181
I1
tp7182
a(S'recalled'
p7183
I1
tp7184
a(S'reccolection'
p7185
I1
tp7186
a(S'recipes'
p7187
I1
tp7188
a(S'recism'
p7189
I1
tp7190
a(S'recognizable'
p7191
I1
tp7192
a(S'recollection'
p7193
I1
tp7194
a(S'reconized'
p7195
I1
tp7196
a(S'recounts'
p7197
I1
tp7198
a(S'red'
p7199
I1
tp7200
a(S'reference'
p7201
I1
tp7202
a(S'referred'
p7203
I1
tp7204
a(S'referring'
p7205
I1
tp7206
a(S'refers'
p7207
I1
tp7208
a(S'reflected'
p7209
I1
tp7210
a(S'reflective'
p7211
I1
tp7212
a(S'reflectiveness'
p7213
I1
tp7214
a(S'refug'
p7215
I1
tp7216
a(S'register'
p7217
I1
tp7218
a(S'reigion'
p7219
I1
tp7220
a(S'reinforce'
p7221
I1
tp7222
a(S'relaited'
p7223
I1
tp7224
a(S'relatable'
p7225
I1
tp7226
a(S'related.the'
p7227
I1
tp7228
a(S'relating'
p7229
I1
tp7230
a(S'relations;'
p7231
I1
tp7232
a(S'relationship.the'
p7233
I1
tp7234
a(S"relative'"
p7235
I1
tp7236
a(S'relative."in'
p7237
I1
tp7238
a(S'relativethe'
p7239
I1
tp7240
a(S'relats'
p7241
I1
tp7242
a(S'relax'
p7243
I1
tp7244
a(S'relaxation'
p7245
I1
tp7246
a(S'relay'
p7247
I1
tp7248
a(S'reletives'
p7249
I1
tp7250
a(S'relieved'
p7251
I1
tp7252
a(S'relize'
p7253
I1
tp7254
a(S'relized'
p7255
I1
tp7256
a(S'rellated'
p7257
I1
tp7258
a(S'rellized'
p7259
I1
tp7260
a(S'remains'
p7261
I1
tp7262
a(S'remarkable'
p7263
I1
tp7264
a(S'rember'
p7265
I1
tp7266
a(S'remembered'
p7267
I1
tp7268
a(S'remembers.in'
p7269
I1
tp7270
a(S'remembrence'
p7271
I1
tp7272
a(S'remind'
p7273
I1
tp7274
a(S'reminded'
p7275
I1
tp7276
a(S'reminicing'
p7277
I1
tp7278
a(S'reminisant'
p7279
I1
tp7280
a(S'reminisant/wistful'
p7281
I1
tp7282
a(S'reminising'
p7283
I1
tp7284
a(S'repeadtly'
p7285
I1
tp7286
a(S'repeatedly."the'
p7287
I1
tp7288
a(S'repeating'
p7289
I1
tp7290
a(S'repedatedly'
p7291
I1
tp7292
a(S'repetedly'
p7293
I1
tp7294
a(S'repitition'
p7295
I1
tp7296
a(S'repititon'
p7297
I1
tp7298
a(S'replace'
p7299
I1
tp7300
a(S'replica'
p7301
I1
tp7302
a(S'represented'
p7303
I1
tp7304
a(S'residents'
p7305
I1
tp7306
a(S'responcible'
p7307
I1
tp7308
a(S'responsable'
p7309
I1
tp7310
a(S'restart'
p7311
I1
tp7312
a(S'restating'
p7313
I1
tp7314
a(S'resterrant'
p7315
I1
tp7316
a(S'retrospective'
p7317
I1
tp7318
a(S'returned'
p7319
I1
tp7320
a(S'reunited'
p7321
I1
tp7322
a(S'reveal'
p7323
I1
tp7324
a(S'revelant'
p7325
I1
tp7326
a(S'revisits'
p7327
I1
tp7328
a(S'revolved'
p7329
I1
tp7330
a(S'rezon'
p7331
I1
tp7332
a(S'richest'
p7333
I1
tp7334
a(S'risking'
p7335
I1
tp7336
a(S'risks'
p7337
I1
tp7338
a(S'road'
p7339
I1
tp7340
a(S'rodriguez".in'
p7341
I1
tp7342
a(S'rodriguez".the'
p7343
I1
tp7344
a(S"rodriguez,'"
p7345
I1
tp7346
a(S'roller'
p7347
I1
tp7348
a(S'roof'
p7349
I1
tp7350
a(S'room.the'
p7351
I1
tp7352
a(S'rooms;'
p7353
I1
tp7354
a(S'root'
p7355
I1
tp7356
a(S'rosemary;'
p7357
I1
tp7358
a(S'rough'
p7359
I1
tp7360
a(S'round'
p7361
I1
tp7362
a(S'rreates.in'
p7363
I1
tp7364
a(S'rude'
p7365
I1
tp7366
a(S'ruff'
p7367
I1
tp7368
a(S'run'
p7369
I1
tp7370
a(S'runs'
p7371
I1
tp7372
a(S'sa'
p7373
I1
tp7374
a(S'sacafised'
p7375
I1
tp7376
a(S'sacarfice'
p7377
I1
tp7378
a(S'sacrafice."i'
p7379
I1
tp7380
a(S'sacrefice'
p7381
I1
tp7382
a(S'sacrific'
p7383
I1
tp7384
a(S'sacrifice".the'
p7385
I1
tp7386
a(S'sacrifice";'
p7387
I1
tp7388
a(S'sacrifice."in'
p7389
I1
tp7390
a(S'sacrifice."narciso'
p7391
I1
tp7392
a(S"sacrifice...'"
p7393
I1
tp7394
a(S'sacrifice.also'
p7395
I1
tp7396
a(S'sacrifice.he'
p7397
I1
tp7398
a(S'sacrifice.the'
p7399
I1
tp7400
a(S'sacrificed.and'
p7401
I1
tp7402
a(S'sacrificein'
p7403
I1
tp7404
a(S'sacrificied'
p7405
I1
tp7406
a(S'sacrifised'
p7407
I1
tp7408
a(S'sacrsfice'
p7409
I1
tp7410
a(S'sad/happy'
p7411
I1
tp7412
a(S'sadd'
p7413
I1
tp7414
a(S'sade'
p7415
I1
tp7416
a(S'sadness.the'
p7417
I1
tp7418
a(S'saed'
p7419
I1
tp7420
a(S'saf'
p7421
I1
tp7422
a(S'safeness'
p7423
I1
tp7424
a(S'safest'
p7425
I1
tp7426
a(S'sald'
p7427
I1
tp7428
a(S'samething'
p7429
I1
tp7430
a(S'sane'
p7431
I1
tp7432
a(S'santurary.in'
p7433
I1
tp7434
a(S'sarrifice'
p7435
I1
tp7436
a(S'saticfied'
p7437
I1
tp7438
a(S'satisfiyed'
p7439
I1
tp7440
a(S'saviors'
p7441
I1
tp7442
a(S'say;'
p7443
I1
tp7444
a(S'sayes'
p7445
I1
tp7446
a(S'sayin'
p7447
I1
tp7448
a(S'saysin'
p7449
I1
tp7450
a(S'scaring'
p7451
I1
tp7452
a(S'scattered'
p7453
I1
tp7454
a(S'scenery'
p7455
I1
tp7456
a(S'scenes'
p7457
I1
tp7458
a(S'scents'
p7459
I1
tp7460
a(S'scientists'
p7461
I1
tp7462
a(S'scrifice'
p7463
I1
tp7464
a(S'sea'
p7465
I1
tp7466
a(S'sead'
p7467
I1
tp7468
a(S'seams'
p7469
I1
tp7470
a(S'seconed'
p7471
I1
tp7472
a(S'secrifice'
p7473
I1
tp7474
a(S'secsesful'
p7475
I1
tp7476
a(S'sectional'
p7477
I1
tp7478
a(S'sections.first'
p7479
I1
tp7480
a(S'sed'
p7481
I1
tp7482
a(S'seening'
p7483
I1
tp7484
a(S'segration'
p7485
I1
tp7486
a(S'selectian'
p7487
I1
tp7488
a(S'self-less'
p7489
I1
tp7490
a(S'selfishness'
p7491
I1
tp7492
a(S'selflesness'
p7493
I1
tp7494
a(S'selfless.and'
p7495
I1
tp7496
a(S'selflessely'
p7497
I1
tp7498
a(S'selflessly...to'
p7499
I1
tp7500
a(S'selflessnes'
p7501
I1
tp7502
a(S'selflessness.according'
p7503
I1
tp7504
a(S'selflessness.the'
p7505
I1
tp7506
a(S'selfnassless'
p7507
I1
tp7508
a(S'sellflly'
p7509
I1
tp7510
a(S'sensation'
p7511
I1
tp7512
a(S'senseof'
p7513
I1
tp7514
a(S'sensory'
p7515
I1
tp7516
a(S'sentence.he'
p7517
I1
tp7518
a(S'sentence.the'
p7519
I1
tp7520
a(S'sentenee'
p7521
I1
tp7522
a(S'serves'
p7523
I1
tp7524
a(S'set.the'
p7525
I1
tp7526
a(S'setted'
p7527
I1
tp7528
a(S'setting.in'
p7529
I1
tp7530
a(S'setting.the'
p7531
I1
tp7532
a(S'settings'
p7533
I1
tp7534
a(S'settled'
p7535
I1
tp7536
a(S'settles'
p7537
I1
tp7538
a(S'shaky'
p7539
I1
tp7540
a(S'shape'
p7541
I1
tp7542
a(S'shard'
p7543
I1
tp7544
a(S'shes'
p7545
I1
tp7546
a(S'shines'
p7547
I1
tp7548
a(S'shining'
p7549
I1
tp7550
a(S'ship'
p7551
I1
tp7552
a(S"shoe's"
p7553
I1
tp7554
a(S'shortage'
p7555
I1
tp7556
a(S'shot'
p7557
I1
tp7558
a(S"show'd"
p7559
I1
tp7560
a(S'show.the'
p7561
I1
tp7562
a(S'showe'
p7563
I1
tp7564
a(S'showes'
p7565
I1
tp7566
a(S'shown.the'
p7567
I1
tp7568
a(S'showned'
p7569
I1
tp7570
a(S'shure'
p7571
I1
tp7572
a(S'signaled'
p7573
I1
tp7574
a(S'silent'
p7575
I1
tp7576
a(S'simaler'
p7577
I1
tp7578
a(S'simallar'
p7579
I1
tp7580
a(S'simpe'
p7581
I1
tp7582
a(S'simply'
p7583
I1
tp7584
a(S'singing'
p7585
I1
tp7586
a(S'sits'
p7587
I1
tp7588
a(S'sitter'
p7589
I1
tp7590
a(S'sitter)'
p7591
I1
tp7592
a(S'situations.the'
p7593
I1
tp7594
a(S'six)'
p7595
I1
tp7596
a(S'sixth'
p7597
I1
tp7598
a(S'siys'
p7599
I1
tp7600
a(S'skills....a'
p7601
I1
tp7602
a(S'skillsin'
p7603
I1
tp7604
a(S'skillsthe'
p7605
I1
tp7606
a(S'slefliss'
p7607
I1
tp7608
a(S'slow'
p7609
I1
tp7610
a(S'smelled'
p7611
I1
tp7612
a(S'sneaking'
p7613
I1
tp7614
a(S'sneek'
p7615
I1
tp7616
a(S'snippet'
p7617
I1
tp7618
a(S'snowing'
p7619
I1
tp7620
a(S'snuck'
p7621
I1
tp7622
a(S'soe'
p7623
I1
tp7624
a(S'soldarity'
p7625
I1
tp7626
a(S'solemn'
p7627
I1
tp7628
a(S'solidarily'
p7629
I1
tp7630
a(S'solidarity".in'
p7631
I1
tp7632
a(S'solidarity.there'
p7633
I1
tp7634
a(S'soliderity'
p7635
I1
tp7636
a(S'solidority'
p7637
I1
tp7638
a(S'solitary'
p7639
I1
tp7640
a(S'someon'
p7641
I1
tp7642
a(S"someone's"
p7643
I1
tp7644
a(S'someone.in'
p7645
I1
tp7646
a(S'sometime'
p7647
I1
tp7648
a(S'somthing'
p7649
I1
tp7650
a(S"son's"
p7651
I1
tp7652
a(S'son.in'
p7653
I1
tp7654
a(S'son.the'
p7655
I1
tp7656
a(S'sons'
p7657
I1
tp7658
a(S'soomthly'
p7659
I1
tp7660
a(S'soothing'
p7661
I1
tp7662
a(S'sorta'
p7663
I1
tp7664
a(S'sorts'
p7665
I1
tp7666
a(S'souls'
p7667
I1
tp7668
a(S'sounded'
p7669
I1
tp7670
a(S'sounding'
p7671
I1
tp7672
a(S'space.the'
p7673
I1
tp7674
a(S'spacethe'
p7675
I1
tp7676
a(S'spanish.i'
p7677
I1
tp7678
a(S'speaker'
p7679
I1
tp7680
a(S'speakers'
p7681
I1
tp7682
a(S'special.in'
p7683
I1
tp7684
a(S'spesific'
p7685
I1
tp7686
a(S'spicecfic'
p7687
I1
tp7688
a(S'spine'
p7689
I1
tp7690
a(S'spint'
p7691
I1
tp7692
a(S'spirited'
p7693
I1
tp7694
a(S'spirits'
p7695
I1
tp7696
a(S'spoken'
p7697
I1
tp7698
a(S'sports'
p7699
I1
tp7700
a(S'spread'
p7701
I1
tp7702
a(S'squeezed'
p7703
I1
tp7704
a(S'srprised'
p7705
I1
tp7706
a(S'stage'
p7707
I1
tp7708
a(S'stairs'
p7709
I1
tp7710
a(S'stands'
p7711
I1
tp7712
a(S'starters'
p7713
I1
tp7714
a(S'startes'
p7715
I1
tp7716
a(S'startover.in'
p7717
I1
tp7718
a(S'starve'
p7719
I1
tp7720
a(S'states"i'
p7721
I1
tp7722
a(S'states.i'
p7723
I1
tp7724
a(S'states.in'
p7725
I1
tp7726
a(S'states.narciso'
p7727
I1
tp7728
a(S'states.the'
p7729
I1
tp7730
a(S'stateted'
p7731
I1
tp7732
a(S'stay.finally'
p7733
I1
tp7734
a(S'steping'
p7735
I1
tp7736
a(S'sticked'
p7737
I1
tp7738
a(S'stile'
p7739
I1
tp7740
a(S'stoped'
p7741
I1
tp7742
a(S'stoping'
p7743
I1
tp7744
a(S'stopped'
p7745
I1
tp7746
a(S'storie'
p7747
I1
tp7748
a(S'story.his'
p7749
I1
tp7750
a(S'story.i'
p7751
I1
tp7752
a(S'story.one'
p7753
I1
tp7754
a(S'story.well'
p7755
I1
tp7756
a(S'storythe'
p7757
I1
tp7758
a(S'strag'
p7759
I1
tp7760
a(S'stranger'
p7761
I1
tp7762
a(S'strangers'
p7763
I1
tp7764
a(S'street'
p7765
I1
tp7766
a(S'strengthened'
p7767
I1
tp7768
a(S'strengthens'
p7769
I1
tp7770
a(S'strenth'
p7771
I1
tp7772
a(S'stressing'
p7773
I1
tp7774
a(S'stretches'
p7775
I1
tp7776
a(S'strict'
p7777
I1
tp7778
a(S'stride'
p7779
I1
tp7780
a(S'strife'
p7781
I1
tp7782
a(S'stronger'
p7783
I1
tp7784
a(S'struggled.the'
p7785
I1
tp7786
a(S'struggleing'
p7787
I1
tp7788
a(S'students'
p7789
I1
tp7790
a(S'stunning'
p7791
I1
tp7792
a(S'style;'
p7793
I1
tp7794
a(S'subdued'
p7795
I1
tp7796
a(S'subtle'
p7797
I1
tp7798
a(S'succedy'
p7799
I1
tp7800
a(S'successfull'
p7801
I1
tp7802
a(S'such;'
p7803
I1
tp7804
a(S'suddenly'
p7805
I1
tp7806
a(S'suits'
p7807
I1
tp7808
a(S'sum'
p7809
I1
tp7810
a(S'summary'
p7811
I1
tp7812
a(S'summertime'
p7813
I1
tp7814
a(S'sunlight'
p7815
I1
tp7816
a(S'sunny'
p7817
I1
tp7818
a(S'supoorted'
p7819
I1
tp7820
a(S'suppost'
p7821
I1
tp7822
a(S'suprised'
p7823
I1
tp7824
a(S'suprizing'
p7825
I1
tp7826
a(S'surrogated'
p7827
I1
tp7828
a(S'surrounding'
p7829
I1
tp7830
a(S'surten'
p7831
I1
tp7832
a(S'sweet.the'
p7833
I1
tp7834
a(S'swifts'
p7835
I1
tp7836
a(S'symbolizes'
p7837
I1
tp7838
a(S'synonym'
p7839
I1
tp7840
a(S'table.in'
p7841
I1
tp7842
a(S'tackes'
p7843
I1
tp7844
a(S'takeing'
p7845
I1
tp7846
a(S'talkes'
p7847
I1
tp7848
a(S'tastes'
p7849
I1
tp7850
a(S'tasty'
p7851
I1
tp7852
a(S'teaaching'
p7853
I1
tp7854
a(S'teached'
p7855
I1
tp7856
a(S'technically'
p7857
I1
tp7858
a(S'ted'
p7859
I1
tp7860
a(S'temperally'
p7861
I1
tp7862
a(S'temporaily'
p7863
I1
tp7864
a(S'temporarly'
p7865
I1
tp7866
a(S'temporilily'
p7867
I1
tp7868
a(S'tempory'
p7869
I1
tp7870
a(S'ten'
p7871
I1
tp7872
a(S'tense'
p7873
I1
tp7874
a(S'tension'
p7875
I1
tp7876
a(S'text.in'
p7877
I1
tp7878
a(S'textthe'
p7879
I1
tp7880
a(S'tey'
p7881
I1
tp7882
a(S'thair'
p7883
I1
tp7884
a(S'thair/always'
p7885
I1
tp7886
a(S'thanked.the'
p7887
I1
tp7888
a(S'thankfulness.the'
p7889
I1
tp7890
a(S'thanksful'
p7891
I1
tp7892
a(S'that.the'
p7893
I1
tp7894
a(S'thatthe'
p7895
I1
tp7896
a(S'thecape'
p7897
I1
tp7898
a(S'theire'
p7899
I1
tp7900
a(S'them.i'
p7901
I1
tp7902
a(S'themnarciso'
p7903
I1
tp7904
a(S'themselfs.the'
p7905
I1
tp7906
a(S'thenthe'
p7907
I1
tp7908
a(S'there.the'
p7909
I1
tp7910
a(S'therefor'
p7911
I1
tp7912
a(S'thereh'
p7913
I1
tp7914
a(S'therethe'
p7915
I1
tp7916
a(S'thesis'
p7917
I1
tp7918
a(S'theworld'
p7919
I1
tp7920
a(S"they'll"
p7921
I1
tp7922
a(S'they-came'
p7923
I1
tp7924
a(S'theywould'
p7925
I1
tp7926
a(S'thin'
p7927
I1
tp7928
a(S"thing's"
p7929
I1
tp7930
a(S'things.in'
p7931
I1
tp7932
a(S'think.the'
p7933
I1
tp7934
a(S'thir'
p7935
I1
tp7936
a(S'thirdly'
p7937
I1
tp7938
a(S'thirs'
p7939
I1
tp7940
a(S'tho'
p7941
I1
tp7942
a(S'thoes'
p7943
I1
tp7944
a(S'thorought'
p7945
I1
tp7946
a(S'thoughful'
p7947
I1
tp7948
a(S'thoughfull'
p7949
I1
tp7950
a(S'thoughs'
p7951
I1
tp7952
a(S'thoughtfully'
p7953
I1
tp7954
a(S'thoughtfulness'
p7955
I1
tp7956
a(S'thouw'
p7957
I1
tp7958
a(S'three-'
p7959
I1
tp7960
a(S'three-bedroom'
p7961
I1
tp7962
a(S'thrilled'
p7963
I1
tp7964
a(S'thrived'
p7965
I1
tp7966
a(S'thro-ugh'
p7967
I1
tp7968
a(S'throghout'
p7969
I1
tp7970
a(S'ties'
p7971
I1
tp7972
a(S'tight'
p7973
I1
tp7974
a(S'tight-knit'
p7975
I1
tp7976
a(S'tightknit'
p7977
I1
tp7978
a(S"time's"
p7979
I1
tp7980
a(S'time.in'
p7981
I1
tp7982
a(S'time1'
p7983
I1
tp7984
a(S'times)'
p7985
I1
tp7986
a(S'times."in'
p7987
I1
tp7988
a(S'times.happy'
p7989
I1
tp7990
a(S'tital'
p7991
I1
tp7992
a(S'today"the'
p7993
I1
tp7994
a(S"today's"
p7995
I1
tp7996
a(S'today)'
p7997
I1
tp7998
a(S'today.narciso'
p7999
I1
tp8000
a(S'today.towards'
p8001
I1
tp8002
a(S'togather'
p8003
I1
tp8004
a(S'together.as'
p8005
I1
tp8006
a(S'together.in'
p8007
I1
tp8008
a(S'togetherness.in'
p8009
I1
tp8010
a(S'togetherness.the'
p8011
I1
tp8012
a(S'toghether'
p8013
I1
tp8014
a(S'toiled'
p8015
I1
tp8016
a(S'tones'
p8017
I1
tp8018
a(S'too.he'
p8019
I1
tp8020
a(S'too.the'
p8021
I1
tp8022
a(S'top'
p8023
I1
tp8024
a(S'topics'
p8025
I1
tp8026
a(S'tortillas'
p8027
I1
tp8028
a(S'totally'
p8029
I1
tp8030
a(S'tothe'
p8031
I1
tp8032
a(S'touching.in'
p8033
I1
tp8034
a(S'tougher'
p8035
I1
tp8036
a(S'town.the'
p8037
I1
tp8038
a(S'towns'
p8039
I1
tp8040
a(S'toworrds'
p8041
I1
tp8042
a(S'trade'
p8043
I1
tp8044
a(S'traditional-cuban'
p8045
I1
tp8046
a(S'traditionally'
p8047
I1
tp8048
a(S'tragedies'
p8049
I1
tp8050
a(S'tranquil'
p8051
I1
tp8052
a(S'transferred'
p8053
I1
tp8054
a(S'translate'
p8055
I1
tp8056
a(S'translated'
p8057
I1
tp8058
a(S'transpires'
p8059
I1
tp8060
a(S'traveled'
p8061
I1
tp8062
a(S'treasured'
p8063
I1
tp8064
a(S'treating'
p8065
I1
tp8066
a(S'triditions'
p8067
I1
tp8068
a(S'truning'
p8069
I1
tp8070
a(S'turened'
p8071
I1
tp8072
a(S'turns'
p8073
I1
tp8074
a(S'twent-seven'
p8075
I1
tp8076
a(S'twenty-one-year-old'
p8077
I1
tp8078
a(S'twenty-sevem-year-old'
p8079
I1
tp8080
a(S'twenty-seven-year-old'
p8081
I1
tp8082
a(S'twist'
p8083
I1
tp8084
a(S'tword'
p8085
I1
tp8086
a(S'typesof'
p8087
I1
tp8088
a(S'typical'
p8089
I1
tp8090
a(S'un'
p8091
I1
tp8092
a(S'unbelievably'
p8093
I1
tp8094
a(S'uncany'
p8095
I1
tp8096
a(S'uncle.home'
p8097
I1
tp8098
a(S'unconditional'
p8099
I1
tp8100
a(S'undefind.the'
p8101
I1
tp8102
a(S'undeniable'
p8103
I1
tp8104
a(S'underneath'
p8105
I1
tp8106
a(S'understandable'
p8107
I1
tp8108
a(S'understandings'
p8109
I1
tp8110
a(S'understood'
p8111
I1
tp8112
a(S'undoubtably'
p8113
I1
tp8114
a(S'uneek'
p8115
I1
tp8116
a(S'unexpected'
p8117
I1
tp8118
a(S'unfadeable'
p8119
I1
tp8120
a(S'unintense'
p8121
I1
tp8122
a(S'uniting'
p8123
I1
tp8124
a(S'unity.this'
p8125
I1
tp8126
a(S'unknowingly'
p8127
I1
tp8128
a(S'unknown'
p8129
I1
tp8130
a(S'unlike'
p8131
I1
tp8132
a(S'unlucky'
p8133
I1
tp8134
a(S'unofficial'
p8135
I1
tp8136
a(S'unsatisfying'
p8137
I1
tp8138
a(S'unselfish.the'
p8139
I1
tp8140
a(S'unserious.the'
p8141
I1
tp8142
a(S'unstanding'
p8143
I1
tp8144
a(S'unstead'
p8145
I1
tp8146
a(S'up!it'
p8147
I1
tp8148
a(S'up-beat'
p8149
I1
tp8150
a(S'up.also'
p8151
I1
tp8152
a(S'upin'
p8153
I1
tp8154
a(S'uplifting.the'
p8155
I1
tp8156
a(S'upon.the'
p8157
I1
tp8158
a(S'upto'
p8159
I1
tp8160
a(S'us)'
p8161
I1
tp8162
a(S'us."@caps1'
p8163
I1
tp8164
a(S'us."@caps2'
p8165
I1
tp8166
a(S'us."when'
p8167
I1
tp8168
a(S'us.those'
p8169
I1
tp8170
a(S'usally'
p8171
I1
tp8172
a(S'usual'
p8173
I1
tp8174
a(S'utter'
p8175
I1
tp8176
a(S'valued'
p8177
I1
tp8178
a(S'victims'
p8179
I1
tp8180
a(S'views'
p8181
I1
tp8182
a(S'village'
p8183
I1
tp8184
a(S'visited'
p8185
I1
tp8186
a(S'visiting'
p8187
I1
tp8188
a(S'visits'
p8189
I1
tp8190
a(S'vocabulary'
p8191
I1
tp8192
a(S'voice'
p8193
I1
tp8194
a(S'wa'
p8195
I1
tp8196
a(S'wait'
p8197
I1
tp8198
a(S'wards'
p8199
I1
tp8200
a(S'warm-hearted'
p8201
I1
tp8202
a(S'warm.in'
p8203
I1
tp8204
a(S'warmer'
p8205
I1
tp8206
a(S'warming!)in'
p8207
I1
tp8208
a(S'warmth.the'
p8209
I1
tp8210
a(S'warmthness'
p8211
I1
tp8212
a(S'warth'
p8213
I1
tp8214
a(S'washes'
p8215
I1
tp8216
a(S'wass'
p8217
I1
tp8218
a(S'ways.one'
p8219
I1
tp8220
a(S"we're"
p8221
I1
tp8222
a(S'wealth'
p8223
I1
tp8224
a(S'weather'
p8225
I1
tp8226
a(S'weave'
p8227
I1
tp8228
a(S'weird'
p8229
I1
tp8230
a(S'welcamed'
p8231
I1
tp8232
a(S'well-being'
p8233
I1
tp8234
a(S'well-told'
p8235
I1
tp8236
a(S'well-written'
p8237
I1
tp8238
a(S'well.i'
p8239
I1
tp8240
a(S'well.the'
p8241
I1
tp8242
a(S'well.when'
p8243
I1
tp8244
a(S'went--'
p8245
I1
tp8246
a(S'went...my'
p8247
I1
tp8248
a(S'wer'
p8249
I1
tp8250
a(S'were.he'
p8251
I1
tp8252
a(S'were.in'
p8253
I1
tp8254
a(S'were.the'
p8255
I1
tp8256
a(S'werestruggling'
p8257
I1
tp8258
a(S'wether'
p8259
I1
tp8260
a(S'wha'
p8261
I1
tp8262
a(S'whas'
p8263
I1
tp8264
a(S"what's"
p8265
I1
tp8266
a(S'whenhis'
p8267
I1
tp8268
a(S'whent-and'
p8269
I1
tp8270
a(S'whenthey'
p8271
I1
tp8272
a(S'white'
p8273
I1
tp8274
a(S'whites'
p8275
I1
tp8276
a(S'whith'
p8277
I1
tp8278
a(S'whos'
p8279
I1
tp8280
a(S'whose'
p8281
I1
tp8282
a(S'whoyouare'
p8283
I1
tp8284
a(S"why.they'd"
p8285
I1
tp8286
a(S'willpower'
p8287
I1
tp8288
a(S'window'
p8289
I1
tp8290
a(S'with.narciso'
p8291
I1
tp8292
a(S'with.the'
p8293
I1
tp8294
a(S'withthe'
p8295
I1
tp8296
a(S'wittingly'
p8297
I1
tp8298
a(S"woldn't"
p8299
I1
tp8300
a(S"won't"
p8301
I1
tp8302
a(S'wonderful.the'
p8303
I1
tp8304
a(S'wonders'
p8305
I1
tp8306
a(S'wondrous'
p8307
I1
tp8308
a(S'wont'
p8309
I1
tp8310
a(S'wonts'
p8311
I1
tp8312
a(S'worded'
p8313
I1
tp8314
a(S'work.lastly'
p8315
I1
tp8316
a(S'work.the'
p8317
I1
tp8318
a(S'working.in'
p8319
I1
tp8320
a(S'world.@organization1'
p8321
I1
tp8322
a(S'worried'
p8323
I1
tp8324
a(S'worthy'
p8325
I1
tp8326
a(S"would've"
p8327
I1
tp8328
a(S'wound'
p8329
I1
tp8330
a(S'wounderful'
p8331
I1
tp8332
a(S'writen'
p8333
I1
tp8334
a(S'writers'
p8335
I1
tp8336
a(S'yard'
p8337
I1
tp8338
a(S'yea'
p8339
I1
tp8340
a(S'yellow'
p8341
I1
tp8342
a(S'you.in'
p8343
I1
tp8344
a(S'younger'
p8345
I1
tp8346
a.