(lp1
(S'cyclist'
p2
I1713
tp3
a(S'water'
p4
I1139
tp5
a(S'setting'
p6
I1113
tp7
a(S'features'
p8
I563
tp9
a(S'road'
p10
I466
tp11
a(S'affect'
p12
I420
tp13
a(S'affected'
p14
I397
tp15
a(S'story'
p16
I388
tp17
a(S'hot'
p18
I369
tp19
a(S'also'
p20
I356
tp21
a(S'would'
p22
I356
tp23
a(S'hills'
p24
I303
tp25
a(S'desert'
p26
I295
tp27
a(S'get'
p28
I290
tp29
a(S'could'
p30
I289
tp31
a(S'going'
p32
I283
tp33
a(S'heat'
p34
I275
tp35
a(S'speed'
p36
I259
tp37
a(S'one'
p38
I257
tp39
a(S'terrain'
p40
I218
tp41
a(S'like'
p42
I213
tp43
a(S'many'
p44
I213
tp45
a(S'old'
p46
I212
tp47
a(S'posted'
p48
I211
tp49
a(S'made'
p50
I210
tp51
a(S'exceed'
p52
I209
tp53
a(S'first'
p54
I208
tp55
a(S'town'
p56
I193
tp57
a(S'california'
p58
I192
tp59
a(S'way'
p60
I189
tp61
a(S'ride'
p62
I185
tp63
a(S'dehydrated'
p64
I181
tp65
a(S'example'
p66
I171
tp67
a(S'rough'
p68
I166
tp69
a(S'make'
p70
I162
tp71
a(S'bike'
p72
I159
tp73
a(S'affects'
p74
I157
tp75
a(S'rolling'
p76
I157
tp77
a(S'author'
p78
I153
tp79
a(S'riding'
p80
I150
tp81
a(S'short'
p82
I149
tp83
a(S'says'
p84
I143
tp85
a(S'ahead'
p86
I138
tp87
a(S'another'
p88
I132
tp89
a(S'caps1'
p90
I131
tp91
a(S'essay'
p92
I131
tp93
a(S'even'
p94
I129
tp95
a(S'really'
p96
I129
tp97
a(S'journey'
p98
I127
tp99
a(S'ways'
p100
I127
tp101
a(S'lack'
p102
I125
tp103
a(S'around'
p104
I123
tp105
a(S'go'
p106
I123
tp107
a(S'hard'
p108
I122
tp109
a(S'june'
p110
I121
tp111
a(S'long'
p112
I121
tp113
a(S'got'
p114
I120
tp115
a(S'much'
p116
I120
tp117
a(S'yosemite'
p118
I120
tp119
a(S'energy'
p120
I118
tp121
a(S'sun'
p122
I114
tp123
a(S'\x93rough'
p124
I113
tp125
a(S'deserts'
p126
I112
tp127
a(S'die'
p128
I111
tp129
a(S'place'
p130
I111
tp131
a(S'makes'
p132
I109
tp133
a(S'snake'
p134
I109
tp135
a(S'roads'
p136
I107
tp137
a(S'said'
p138
I107
tp139
a(S'time'
p140
I105
tp141
a(S'directions'
p142
I104
tp143
a(S'flat'
p144
I100
tp145
a(S'keep'
p146
I100
tp147
a(S'limit\x94'
p148
I100
tp149
a(S'men'
p150
I99
tp151
a(S'people'
p152
I98
tp153
a(S'building'
p154
I97
tp155
a(S'harder'
p156
I97
tp157
a(S'high'
p158
I96
tp159
a(S'dry'
p160
I94
tp161
a(S'lot'
p162
I94
tp163
a(S'miles'
p164
I93
tp165
a(S'\x93i'
p166
I92
tp167
a(S'hope'
p168
I91
tp169
a(S'came'
p170
I89
tp171
a(S'weather'
p172
I89
tp173
a(S'tired'
p174
I88
tp175
a(S'things'
p176
I87
tp177
a(S'thirsty'
p178
I87
tp179
a(S'making'
p180
I86
tp181
a(S'next'
p182
I86
tp183
a(S'think'
p184
I86
tp185
a(S'help'
p186
I85
tp187
a(S'day'
p188
I84
tp189
a(S'feel'
p190
I84
tp191
a(S'bad'
p192
I82
tp193
a(S'juice'
p194
I82
tp195
a(S'know'
p196
I82
tp197
a(S'replaced'
p198
I81
tp199
a(S'getting'
p200
I80
tp201
a(S'joe'
p202
I80
tp203
a(S'supply'
p204
I80
tp205
a(S'abandoned'
p206
I78
tp207
a(S'feature'
p208
I78
tp209
a(S'kurmaskie'
p210
I78
tp211
a(S'dehydration'
p212
I77
tp213
a(S'factory'
p214
I77
tp215
a(S'greatly'
p216
I77
tp217
a(S'since'
p218
I77
tp219
a(S'trip'
p220
I77
tp221
a(S'left'
p222
I76
tp223
a(S'\x93do'
p224
I76
tp225
a(S'\x93the'
p226
I76
tp227
a(S'drink'
p228
I75
tp229
a(S'num1'
p230
I75
tp231
a(S'shows'
p232
I75
tp233
a(S'didn\x92t'
p234
I74
tp235
a(S'sight'
p236
I74
tp237
a(S'limit'
p238
I72
tp239
a(S'thought'
p240
I72
tp241
a(S'good'
p242
I71
tp243
a(S'towns'
p244
I71
tp245
a(S'advice'
p246
I69
tp247
a(S'ghost'
p248
I69
tp249
a(S'large'
p250
I69
tp251
a(S'finally'
p252
I68
tp253
a(S'little'
p254
I68
tp255
a(S'man'
p256
I67
tp257
a(S'park'
p258
I66
tp259
a(S'find'
p260
I65
tp261
a(S'running'
p262
I65
tp263
a(S'effect'
p264
I64
tp265
a(S'drop'
p266
I62
tp267
a(S'settings'
p268
I62
tp269
a(S'two'
p270
I62
tp271
a(S'cool'
p272
I60
tp273
a(S'point'
p274
I60
tp275
a(S'pump'
p276
I60
tp277
a(S'still'
p278
I60
tp279
a(S'found'
p280
I59
tp281
a(S'lost'
p282
I59
tp283
a(S'conditions'
p284
I58
tp285
a(S'hill'
p286
I58
tp287
a(S'almost'
p288
I57
tp289
a(S'difficult'
p290
I57
tp291
a(S'sign'
p292
I57
tp293
a(S'started'
p294
I57
tp295
a(S'take'
p296
I57
tp297
a(S'traveling'
p298
I57
tp299
a(S'&'
I56
tp300
a(S'path'
p301
I56
tp302
a(S'sweat'
p303
I56
tp304
a(S'caused'
p305
I55
tp306
a(S'change'
p307
I55
tp308
a(S'need'
p309
I55
tp310
a(S'quote'
p311
I55
tp312
a(S'see'
p313
I55
tp314
a(S'end'
p315
I54
tp316
a(S'national'
p317
I54
tp318
a(S'never'
p319
I54
tp320
a(S'\x93'
I52
tp321
a(S'began'
p322
I51
tp323
a(S'deserted'
p324
I51
tp325
a(S'different'
p326
I51
tp327
a(S'gets'
p328
I51
tp329
a(S'last'
p330
I51
tp331
a(S'trying'
p332
I51
tp333
a(S'area'
p334
I50
tp335
a(S'battery'
p336
I50
tp337
a(S'determination'
p338
I50
tp339
a(S'thirst'
p340
I50
tp341
a(S'went'
p342
I50
tp343
a(S'comes'
p344
I49
tp345
a(S'feeling'
p346
I49
tp347
a(S'nothing'
p348
I49
tp349
a(S'thing'
p350
I49
tp351
a(S'beginning'
p352
I48
tp353
a(S'cyclist.the'
p354
I48
tp355
a(S'fact'
p356
I48
tp357
a(S'life'
p358
I48
tp359
a(S'middle'
p360
I48
tp361
a(S'snakes'
p362
I48
tp363
a(S'summer'
p364
I48
tp365
a(S'mood'
p366
I47
tp367
a(S'sees'
p368
I47
tp369
a(S'text'
p370
I47
tp371
a(S'big'
p372
I46
tp373
a(S'bottles'
p374
I46
tp375
a(S'body'
p376
I45
tp377
a(S'saw'
p378
I45
tp379
a(S'several'
p380
I45
tp381
a(S'along'
p382
I44
tp383
a(S'bait'
p384
I44
tp385
a(S'states'
p386
I44
tp387
a(S'across'
p388
I43
tp389
a(S'buildings'
p390
I43
tp391
a(S'gave'
p392
I43
tp393
a(S'land'
p394
I43
tp395
a(S'might'
p396
I43
tp397
a(S'rusty'
p398
I43
tp399
a(S'without'
p400
I43
tp401
a(S'cause'
p402
I42
tp403
a(S'changed'
p404
I42
tp405
a(S'felt'
p406
I42
tp407
a(S'num1)'
p408
I42
tp409
a(S'changes'
p410
I41
tp411
a(S'don\x92t'
p412
I41
tp413
a(S'heatstroke'
p414
I41
tp415
a(S'mind'
p416
I41
tp417
a(S'use'
p418
I41
tp419
a(S'\x93flat'
p420
I41
tp421
a(S'become'
p422
I40
tp423
a(S'cyclists'
p424
I40
tp425
a(S'give'
p426
I40
tp427
a(S'noticed'
p428
I40
tp429
a(S'say'
p430
I40
tp431
a(S'want'
p432
I40
tp433
a(S'well'
p434
I40
tp435
a(S'became'
p436
I39
tp437
a(S'come'
p438
I39
tp439
a(S'condition'
p440
I39
tp441
a(S'problem'
p442
I39
tp443
a(S'ran'
p444
I39
tp445
a(S'starts'
p446
I39
tp447
a(S'state'
p448
I39
tp449
a(S'stop'
p450
I39
tp451
a(S'wasn\x92t'
p452
I39
tp453
a(S'confidence'
p454
I38
tp455
a(S'crossed'
p456
I38
tp457
a(S'limit,\x94'
p458
I38
tp459
a(S'tumbleweeds'
p460
I38
tp461
a(S'able'
p462
I37
tp463
a(S'acid'
p464
I37
tp465
a(S'feels'
p466
I37
tp467
a(S'finds'
p468
I37
tp469
a(S'low'
p470
I37
tp471
a(S'needed'
p472
I37
tp473
a(S'biking'
p474
I36
tp475
a(S'car'
p476
I36
tp477
a(S'changing'
p478
I36
tp479
a(S'conclusion'
p480
I36
tp481
a(S'determined'
p482
I36
tp483
a(S'effected'
p484
I36
tp485
a(S'enough'
p486
I36
tp487
a(S'grape'
p488
I36
tp489
a(S'it\x92s'
p490
I36
tp491
a(S'lose'
p492
I36
tp493
a(S'problems'
p494
I36
tp495
a(S'kept'
p496
I35
tp497
a(S'main'
p498
I35
tp499
a(S'probably'
p500
I35
tp501
a(S'took'
p502
I35
tp503
a(S'travel'
p504
I35
tp505
a(S'travelling'
p506
I35
tp507
a(S'worse'
p508
I35
tp509
a(S'???'
p510
I34
tp511
a(S'balance'
p512
I34
tp513
a(S'camp'
p514
I34
tp515
a(S'effects'
p516
I34
tp517
a(S'faced'
p518
I34
tp519
a(S'fish'
p520
I34
tp521
a(S'june.\x94'
p522
I34
tp523
a(S'store'
p524
I34
tp525
a(S'work'
p526
I34
tp527
a(S'alone'
p528
I33
tp529
a(S'couldn\x92t'
p530
I33
tp531
a(S'doesn\x92t'
p532
I33
tp533
a(S'great'
p534
I33
tp535
a(S'means'
p536
I33
tp537
a(S'needs'
p538
I33
tp539
a(S'pretty'
p540
I33
tp541
a(S'told'
p542
I33
tp543
a(S'wouldn\x92t'
p544
I33
tp545
a(S'caps2'
p546
I32
tp547
a(S'anything'
p548
I31
tp549
a(S'back'
p550
I31
tp551
a(S'bumpy'
p552
I31
tp553
a(S'cycling'
p554
I31
tp555
a(S'drinking'
p556
I31
tp557
a(S'he\x92s'
p558
I31
tp559
a(S'must'
p560
I31
tp561
a(S'past'
p562
I31
tp563
a(S'physically'
p564
I31
tp565
a(S'pines'
p566
I31
tp567
a(S'pumps'
p568
I31
tp569
a(S'seems'
p570
I31
tp571
a(S'takes'
p572
I31
tp573
a(S'taking'
p574
I31
tp575
a(S'(kurmaskie'
p576
I30
tp577
a(S'biker'
p578
I30
tp579
a(S'character'
p580
I30
tp581
a(S'climate'
p582
I30
tp583
a(S'dangerous'
p584
I30
tp585
a(S'drank'
p586
I30
tp587
a(S'extremely'
p588
I30
tp589
a(S'later'
p590
I30
tp591
a(S'part'
p592
I30
tp593
a(S'run'
p594
I30
tp595
a(S'shed'
p596
I30
tp597
a(S'wrong'
p598
I30
tp599
a(S''
I29
tp600
a(S'beat'
p601
I29
tp602
a(S'causes'
p603
I29
tp604
a(S'goes'
p605
I29
tp606
a(S'look'
p607
I29
tp608
a(S'map'
p609
I29
tp610
a(S'mph'
p611
I29
tp612
a(S'pavement'
p613
I29
tp614
a(S'seeing'
p615
I29
tp616
a(S'shop'
p617
I29
tp618
a(S'temperature'
p619
I29
tp620
a(S'though'
p621
I29
tp622
a(S'\x93a'
p623
I29
tp624
a(S'cyclist\x92s'
p625
I28
tp626
a(S'hills.\x94'
p627
I28
tp628
a(S'knew'
p629
I28
tp630
a(S'mouth'
p631
I28
tp632
a(S'pedal'
p633
I28
tp634
a(S'put'
p635
I28
tp636
a(S'soon'
p637
I28
tp638
a(S'structure'
p639
I28
tp640
a(S'better'
p641
I27
tp642
a(S'birds'
p643
I27
tp644
a(S'deal'
p645
I27
tp646
a(S'direction'
p647
I27
tp648
a(S'hes'
p649
I27
tp650
a(S'longer'
p651
I27
tp652
a(S'picture'
p653
I27
tp654
a(S'ridiculously'
p655
I27
tp656
a(S'strength'
p657
I27
tp658
a(S'stroke'
p659
I27
tp660
a(S'tried'
p661
I27
tp662
a(S'affecting'
p663
I26
tp664
a(S'beating'
p665
I26
tp666
a(S'becomes'
p667
I26
tp668
a(S'due'
p669
I26
tp670
a(S'growing'
p671
I26
tp672
a(S'hopeless'
p673
I26
tp674
a(S'mentally'
p675
I26
tp676
a(S'month1'
p677
I26
tp678
a(S'read'
p679
I26
tp680
a(S'reader'
p681
I26
tp682
a(S'rode'
p683
I26
tp684
a(S'carter'
p685
I25
tp686
a(S'continue'
p687
I25
tp688
a(S'degrees'
p689
I25
tp690
a(S'destination'
p691
I25
tp692
a(S'face'
p693
I25
tp694
a(S'gorgeous'
p695
I25
tp696
a(S'however'
p697
I25
tp698
a(S'information'
p699
I25
tp700
a(S'reached'
p701
I25
tp702
a(S'rivers'
p703
I25
tp704
a(S'always'
p705
I24
tp706
a(S'boy'
p707
I24
tp708
a(S'dessert'
p709
I24
tp710
a(S'easy'
p711
I24
tp712
a(S'everything'
p713
I24
tp714
a(S'front'
p715
I24
tp716
a(S'less'
p717
I24
tp718
a(S'majority'
p719
I24
tp720
a(S'obstacles'
p721
I24
tp722
a(S'person'
p723
I24
tp724
a(S'something'
p725
I24
tp726
a(S'used'
p727
I24
tp728
a(S'working'
p729
I24
tp730
a(S'12'
p731
I23
tp732
a(S'??'
p733
I23
tp734
a(S'alot'
p735
I23
tp736
a(S'animals'
p737
I23
tp738
a(S'becoming'
p739
I23
tp740
a(S'begins'
p741
I23
tp742
a(S'contained'
p743
I23
tp744
a(S'followed'
p745
I23
tp746
a(S'gives'
p747
I23
tp748
a(S'kind'
p749
I23
tp750
a(S'matter'
p751
I23
tp752
a(S'realization'
p753
I23
tp754
a(S'rider'
p755
I23
tp756
a(S'saying'
p757
I23
tp758
a(S'shortcut'
p759
I23
tp760
a(S'sure'
p761
I23
tp762
a(S'tasted'
p763
I23
tp764
a(S'yet'
p765
I23
tp766
a(S'\x94'
I23
tp767
a(S'already'
p768
I22
tp769
a(S'away'
p770
I22
tp771
a(S'barely'
p772
I22
tp773
a(S'civilization'
p774
I22
tp775
a(S'crippling'
p776
I22
tp777
a(S'negative'
p778
I22
tp779
a(S'pick'
p780
I22
tp781
a(S'porches'
p782
I22
tp783
a(S'reason'
p784
I22
tp785
a(S'seem'
p786
I22
tp787
a(S'somewhere'
p788
I22
tp789
a(S'strong'
p790
I22
tp791
a(S'surroundings'
p792
I22
tp793
a(S'tell'
p794
I22
tp795
a(S'therefore'
p796
I22
tp797
a(S'throughout'
p798
I22
tp799
a(S'trouble'
p800
I22
tp801
a(S'\x93it'
p802
I22
tp803
a(S'believe'
p804
I21
tp805
a(S'best'
p806
I21
tp807
a(S'describes'
p808
I21
tp809
a(S'environment'
p810
I21
tp811
a(S'every'
p812
I21
tp813
a(S'extreme'
p814
I21
tp815
a(S'guy'
p816
I21
tp817
a(S'happy'
p818
I21
tp819
a(S'hills\x94'
p820
I21
tp821
a(S'hilly'
p822
I21
tp823
a(S'hundred'
p824
I21
tp825
a(S'important'
p826
I21
tp827
a(S'june\x94'
p828
I21
tp829
a(S'limited'
p830
I21
tp831
a(S'listened'
p832
I21
tp833
a(S'outside'
p834
I21
tp835
a(S'pedaling'
p836
I21
tp837
a(S'physical'
p838
I21
tp839
a(S'reaches'
p840
I21
tp841
a(S'rushing'
p842
I21
tp843
a(S'set'
p844
I21
tp845
a(S'start'
p846
I21
tp847
a(S'tantalizing'
p848
I21
tp849
a(S'thinks'
p850
I21
tp851
a(S'tough'
p852
I21
tp853
a(S'attitude'
p854
I20
tp855
a(S'bottle'
p856
I20
tp857
a(S'confident'
p858
I20
tp859
a(S'eventually'
p860
I20
tp861
a(S'fast'
p862
I20
tp863
a(S'haven\x92t'
p864
I20
tp865
a(S'knows'
p866
I20
tp867
a(S'lastly'
p868
I20
tp869
a(S'limit.\x94'
p870
I20
tp871
a(S'mental'
p872
I20
tp873
a(S'older'
p874
I20
tp875
a(S'porch'
p876
I20
tp877
a(S'reach'
p878
I20
tp879
a(S'right'
p880
I20
tp881
a(S'survive'
p882
I20
tp883
a(S'amount'
p884
I19
tp885
a(S'bit'
p886
I19
tp887
a(S'blocked'
p888
I19
tp889
a(S'circled'
p890
I19
tp891
a(S'described'
p892
I19
tp893
a(S'died'
p894
I19
tp895
a(S'hold'
p896
I19
tp897
a(S'morning'
p898
I19
tp899
a(S'nowhere'
p900
I19
tp901
a(S'paragraph'
p902
I19
tp903
a(S'positive'
p904
I19
tp905
a(S'quickly'
p906
I19
tp907
a(S'relieved'
p908
I19
tp909
a(S'sense'
p910
I19
tp911
a(S'substance'
p912
I19
tp913
a(S'thinking'
p914
I19
tp915
a(S'welch\x92s'
p916
I19
tp917
a(S'worried'
p918
I19
tp919
a(S'written'
p920
I19
tp921
a(S'asked'
p922
I18
tp923
a(S'bathroom'
p924
I18
tp925
a(S'causing'
p926
I18
tp927
a(S'challenge'
p928
I18
tp929
a(S'continues'
p930
I18
tp931
a(S'distance'
p932
I18
tp933
a(S'easily'
p934
I18
tp935
a(S'empty'
p936
I18
tp937
a(S'especially'
p938
I18
tp939
a(S'head'
p940
I18
tp941
a(S'hitting'
p942
I18
tp943
a(S'instead'
p944
I18
tp945
a(S'legs'
p946
I18
tp947
a(S'narrator'
p948
I18
tp949
a(S'overcome'
p950
I18
tp951
a(S'refreshing'
p952
I18
tp953
a(S'rings'
p954
I18
tp955
a(S'situation'
p956
I18
tp957
a(S'someone'
p958
I18
tp959
a(S'tells'
p960
I18
tp961
a(S'that\x92s'
p962
I18
tp963
a(S'try'
p964
I18
tp965
a(S'corral'
p966
I17
tp967
a(S'either'
p968
I17
tp969
a(S'explains'
p970
I17
tp971
a(S'faster'
p972
I17
tp973
a(S'fear'
p974
I17
tp975
a(S'huge'
p976
I17
tp977
a(S'name'
p978
I17
tp979
a(S'nature'
p980
I17
tp981
a(S'rocks'
p982
I17
tp983
a(S'seen'
p984
I17
tp985
a(S'show'
p986
I17
tp987
a(S'stones'
p988
I17
tp989
a(S'young'
p990
I17
tp991
a(S'\x93ghost'
p992
I17
tp993
a(S'55'
p994
I16
tp995
a(S'ahead\x94'
p996
I16
tp997
a(S'anyone'
p998
I16
tp999
a(S'anywhere'
p1000
I16
tp1001
a(S'arrived'
p1002
I16
tp1003
a(S'conserve'
p1004
I16
tp1005
a(S'eased'
p1006
I16
tp1007
a(S'ever'
p1008
I16
tp1009
a(S'examples'
p1010
I16
tp1011
a(S'given'
p1012
I16
tp1013
a(S'guys'
p1014
I16
tp1015
a(S'helps'
p1016
I16
tp1017
a(S'major'
p1018
I16
tp1019
a(S'pass'
p1020
I16
tp1021
a(S'pebbles'
p1022
I16
tp1023
a(S'plenty'
p1024
I16
tp1025
a(S'ramshackle'
p1026
I16
tp1027
a(S'reasons'
p1028
I16
tp1029
a(S'relief'
p1030
I16
tp1031
a(S'rest'
p1032
I16
tp1033
a(S'runs'
p1034
I16
tp1035
a(S'sad'
p1036
I16
tp1037
a(S'second'
p1038
I16
tp1039
a(S'shirt'
p1040
I16
tp1041
a(S'slow'
p1042
I16
tp1043
a(S'slowed'
p1044
I16
tp1045
a(S'upon'
p1046
I16
tp1047
a(S'\x93there'
p1048
I16
tp1049
a(S'\x93town\x94'
p1050
I16
tp1051
a(S'adventure'
p1052
I15
tp1053
a(S'cars'
p1054
I15
tp1055
a(S'confines'
p1056
I15
tp1057
a(S'cruel'
p1058
I15
tp1059
a(S'cyclist.in'
p1060
I15
tp1061
a(S'date1'
p1062
I15
tp1063
a(S'dried'
p1064
I15
tp1065
a(S'factor'
p1066
I15
tp1067
a(S'far'
p1068
I15
tp1069
a(S'fine'
p1070
I15
tp1071
a(S'hadn\x92t'
p1072
I15
tp1073
a(S'handle'
p1074
I15
tp1075
a(S'happen'
p1076
I15
tp1077
a(S'harsh'
p1078
I15
tp1079
a(S'hit'
p1080
I15
tp1081
a(S'hotter'
p1082
I15
tp1083
a(S'looked'
p1084
I15
tp1085
a(S'looking'
p1086
I15
tp1087
a(S'losing'
p1088
I15
tp1089
a(S'near'
p1090
I15
tp1091
a(S'neighborhood'
p1092
I15
tp1093
a(S'num2'
p1094
I15
tp1095
a(S'passed'
p1096
I15
tp1097
a(S'person1'
p1098
I15
tp1099
a(S'places'
p1100
I15
tp1101
a(S'reading'
p1102
I15
tp1103
a(S'regularly'
p1104
I15
tp1105
a(S'rusted'
p1106
I15
tp1107
a(S'scared'
p1108
I15
tp1109
a(S'sink'
p1110
I15
tp1111
a(S'stay'
p1112
I15
tp1113
a(S'times'
p1114
I15
tp1115
a(S'town\x94'
p1116
I15
tp1117
a(S'water.the'
p1118
I15
tp1119
a(S'weeds'
p1120
I15
tp1121
a(S'\x93this'
p1122
I15
tp1123
a(S'ask'
p1124
I14
tp1125
a(S'cold'
p1126
I14
tp1127
a(S'dehydrate'
p1128
I14
tp1129
a(S'depleting'
p1130
I14
tp1131
a(S'despair'
p1132
I14
tp1133
a(S'eyes'
p1134
I14
tp1135
a(S'finding'
p1136
I14
tp1137
a(S'flavor'
p1138
I14
tp1139
a(S'glass'
p1140
I14
tp1141
a(S'gone'
p1142
I14
tp1143
a(S'keeps'
p1144
I14
tp1145
a(S'landscape'
p1146
I14
tp1147
a(S'led'
p1148
I14
tp1149
a(S'maybe'
p1150
I14
tp1151
a(S'push'
p1152
I14
tp1153
a(S'real'
p1154
I14
tp1155
a(S'sips'
p1156
I14
tp1157
a(S'smooth'
p1158
I14
tp1159
a(S'spot'
p1160
I14
tp1161
a(S'sucking'
p1162
I14
tp1163
a(S'sweating'
p1164
I14
tp1165
a(S'thriving'
p1166
I14
tp1167
a(S'timers'
p1168
I14
tp1169
a(S'trees'
p1170
I14
tp1171
a(S'whole'
p1172
I14
tp1173
a(S'brackish'
p1174
I13
tp1175
a(S'death'
p1176
I13
tp1177
a(S'desperate'
p1178
I13
tp1179
a(S'diamond'
p1180
I13
tp1181
a(S'drinks'
p1182
I13
tp1183
a(S'effort'
p1184
I13
tp1185
a(S'encounters'
p1186
I13
tp1187
a(S'experience'
p1188
I13
tp1189
a(S'fit'
p1190
I13
tp1191
a(S'food'
p1192
I13
tp1193
a(S'hurt'
p1194
I13
tp1195
a(S'knowing'
p1196
I13
tp1197
a(S'lamest'
p1198
I13
tp1199
a(S'laugh'
p1200
I13
tp1201
a(S'let'
p1202
I13
tp1203
a(S'move'
p1204
I13
tp1205
a(S'new'
p1206
I13
tp1207
a(S'passage'
p1208
I13
tp1209
a(S'poisonous'
p1210
I13
tp1211
a(S'proves'
p1212
I13
tp1213
a(S'reaching'
p1214
I13
tp1215
a(S'realizes'
p1216
I13
tp1217
a(S'rides'
p1218
I13
tp1219
a(S'route'
p1220
I13
tp1221
a(S'seemed'
p1222
I13
tp1223
a(S'shade'
p1224
I13
tp1225
a(S'showing'
p1226
I13
tp1227
a(S'surrounding'
p1228
I13
tp1229
a(S'survival'
p1230
I13
tp1231
a(S'taken'
p1232
I13
tp1233
a(S'talking'
p1234
I13
tp1235
a(S'telling'
p1236
I13
tp1237
a(S'thats'
p1238
I13
tp1239
a(S'towards'
p1240
I13
tp1241
a(S'troubles'
p1242
I13
tp1243
a(S'troubling'
p1244
I13
tp1245
a(S'turned'
p1246
I13
tp1247
a(S'turns'
p1248
I13
tp1249
a(S'\x93one'
p1250
I13
tp1251
a(S'accept'
p1252
I12
tp1253
a(S'arrives'
p1254
I12
tp1255
a(S'barren'
p1256
I12
tp1257
a(S'coming'
p1258
I12
tp1259
a(S'completely'
p1260
I12
tp1261
a(S'conflict'
p1262
I12
tp1263
a(S'doubt'
p1264
I12
tp1265
a(S'excited'
p1266
I12
tp1267
a(S'forty'
p1268
I12
tp1269
a(S'giving'
p1270
I12
tp1271
a(S'ground'
p1272
I12
tp1273
a(S'horrible'
p1274
I12
tp1275
a(S'instance'
p1276
I12
tp1277
a(S'location1'
p1278
I12
tp1279
a(S'looks'
p1280
I12
tp1281
a(S'modern'
p1282
I12
tp1283
a(S'mule'
p1284
I12
tp1285
a(S'nice'
p1286
I12
tp1287
a(S'starting'
p1288
I12
tp1289
a(S'tumble'
p1290
I12
tp1291
a(S'us'
p1292
I12
tp1293
a(S'wanted'
p1294
I12
tp1295
a(S'wants'
p1296
I12
tp1297
a(S'worst'
p1298
I12
tp1299
a(S'\x93short'
p1300
I12
tp1301
a(S'can\x92t'
p1302
I11
tp1303
a(S'collection'
p1304
I11
tp1305
a(S'couple'
p1306
I11
tp1307
a(S'cross'
p1308
I11
tp1309
a(S'early'
p1310
I11
tp1311
a(S'ended'
p1312
I11
tp1313
a(S'exhausted'
p1314
I11
tp1315
a(S'final'
p1316
I11
tp1317
a(S'gary'
p1318
I11
tp1319
a(S'gentlemen'
p1320
I11
tp1321
a(S'hydrated'
p1322
I11
tp1323
a(S'isn\x92t'
p1324
I11
tp1325
a(S'listen'
p1326
I11
tp1327
a(S'loss'
p1328
I11
tp1329
a(S'lots'
p1330
I11
tp1331
a(S'moved'
p1332
I11
tp1333
a(S'negatively'
p1334
I11
tp1335
a(S'old-timers'
p1336
I11
tp1337
a(S'oozed'
p1338
I11
tp1339
a(S'passes'
p1340
I11
tp1341
a(S'plays'
p1342
I11
tp1343
a(S'pumped'
p1344
I11
tp1345
a(S'rocky'
p1346
I11
tp1347
a(S'role'
p1348
I11
tp1349
a(S'section'
p1350
I11
tp1351
a(S'sometimes'
p1352
I11
tp1353
a(S'spirits'
p1354
I11
tp1355
a(S'warm'
p1356
I11
tp1357
a(S'wilber\x92s'
p1358
I11
tp1359
a(S'wiped'
p1360
I11
tp1361
a(S'writes'
p1362
I11
tp1363
a(S'\x93over'
p1364
I11
tp1365
a(S'\x96'
I11
tp1366
a(S'air'
p1367
I10
tp1368
a(S'although'
p1369
I10
tp1370
a(S'begin'
p1371
I10
tp1372
a(S'break'
p1373
I10
tp1374
a(S'bring'
p1375
I10
tp1376
a(S'case'
p1377
I10
tp1378
a(S'checked'
p1379
I10
tp1380
a(S'clean.\x94'
p1381
I10
tp1382
a(S'considering'
p1383
I10
tp1384
a(S'cut'
p1385
I10
tp1386
a(S'definition'
p1387
I10
tp1388
a(S'description'
p1389
I10
tp1390
a(S'didnt'
p1391
I10
tp1392
a(S'easier'
p1393
I10
tp1394
a(S'fork'
p1395
I10
tp1396
a(S'fresh'
p1397
I10
tp1398
a(S'group'
p1399
I10
tp1400
a(S'lead'
p1401
I10
tp1402
a(S'learned'
p1403
I10
tp1404
a(S'listening'
p1405
I10
tp1406
a(S'obstacle'
p1407
I10
tp1408
a(S'pouring'
p1409
I10
tp1410
a(S'realized'
p1411
I10
tp1412
a(S'sand'
p1413
I10
tp1414
a(S'side'
p1415
I10
tp1416
a(S'signs'
p1417
I10
tp1418
a(S'simply'
p1419
I10
tp1420
a(S'sips.\x94'
p1421
I10
tp1422
a(S'sorry'
p1423
I10
tp1424
a(S'speaker'
p1425
I10
tp1426
a(S'straight'
p1427
I10
tp1428
a(S'stuck'
p1429
I10
tp1430
a(S'toll'
p1431
I10
tp1432
a(S'traditional'
p1433
I10
tp1434
a(S'travels'
p1435
I10
tp1436
a(S'turn'
p1437
I10
tp1438
a(S'weak'
p1439
I10
tp1440
a(S'words'
p1441
I10
tp1442
a(S'years'
p1443
I10
tp1444
a(S'\x93high'
p1445
I10
tp1446
a(S'\x93not'
p1447
I10
tp1448
a(S'alive'
p1449
I9
tp1450
a(S'anymore'
p1451
I9
tp1452
a(S'authors'
p1453
I9
tp1454
a(S'behind'
p1455
I9
tp1456
a(S'bicycle'
p1457
I9
tp1458
a(S'biggest'
p1459
I9
tp1460
a(S'cooler'
p1461
I9
tp1462
a(S'date'
p1463
I9
tp1464
a(S'describing'
p1465
I9
tp1466
a(S'drive'
p1467
I9
tp1468
a(S'faces'
p1469
I9
tp1470
a(S'fishing'
p1471
I9
tp1472
a(S'follow'
p1473
I9
tp1474
a(S'gotten'
p1475
I9
tp1476
a(S'greeted'
p1477
I9
tp1478
a(S'hands'
p1479
I9
tp1480
a(S'happened'
p1481
I9
tp1482
a(S'helped'
p1483
I9
tp1484
a(S'hills,\x94'
p1485
I9
tp1486
a(S'him.the'
p1487
I9
tp1488
a(S'intense'
p1489
I9
tp1490
a(S'i\x92d'
p1491
I9
tp1492
a(S'journey.the'
p1493
I9
tp1494
a(S'killed'
p1495
I9
tp1496
a(S'l'
I9
tp1497
a(S'likely'
p1498
I9
tp1499
a(S'lodi'
p1500
I9
tp1501
a(S'meaning'
p1502
I9
tp1503
a(S'moves'
p1504
I9
tp1505
a(S'nearly'
p1506
I9
tp1507
a(S'nobody'
p1508
I9
tp1509
a(S'office.\x94'
p1510
I9
tp1511
a(S'order'
p1512
I9
tp1513
a(S'played'
p1514
I9
tp1515
a(S'possibly'
p1516
I9
tp1517
a(S'prepared'
p1518
I9
tp1519
a(S'puts'
p1520
I9
tp1521
a(S'rather'
p1522
I9
tp1523
a(S'ready'
p1524
I9
tp1525
a(S'realize'
p1526
I9
tp1527
a(S'safe'
p1528
I9
tp1529
a(S'scenery'
p1530
I9
tp1531
a(S'self'
p1532
I9
tp1533
a(S'sentence'
p1534
I9
tp1535
a(S'shape'
p1536
I9
tp1537
a(S'shouldn\x92t'
p1538
I9
tp1539
a(S'small'
p1540
I9
tp1541
a(S'smile'
p1542
I9
tp1543
a(S'state.\x94'
p1544
I9
tp1545
a(S'struggle'
p1546
I9
tp1547
a(S'troubled'
p1548
I9
tp1549
a(S'uses'
p1550
I9
tp1551
a(S'water.in'
p1552
I9
tp1553
a(S'world'
p1554
I9
tp1555
a(S'(kurmaskie)'
p1556
I8
tp1557
a(S'actually'
p1558
I8
tp1559
a(S'ahead;'
p1560
I8
tp1561
a(S'basically'
p1562
I8
tp1563
a(S'believed'
p1564
I8
tp1565
a(S'bottling'
p1566
I8
tp1567
a(S'burst'
p1568
I8
tp1569
a(S'calm'
p1570
I8
tp1571
a(S'challenging'
p1572
I8
tp1573
a(S'clearly'
p1574
I8
tp1575
a(S'close'
p1576
I8
tp1577
a(S'continued'
p1578
I8
tp1579
a(S'cycleist'
p1580
I8
tp1581
a(S'danger'
p1582
I8
tp1583
a(S'decades'
p1584
I8
tp1585
a(S'decided'
p1586
I8
tp1587
a(S'degree'
p1588
I8
tp1589
a(S'dehydrating'
p1590
I8
tp1591
a(S'desperation'
p1592
I8
tp1593
a(S'difficulty'
p1594
I8
tp1595
a(S'ends'
p1596
I8
tp1597
a(S'fall'
p1598
I8
tp1599
a(S'he/she'
p1600
I8
tp1601
a(S'he\x92d'
p1602
I8
tp1603
a(S'he\x92ll'
p1604
I8
tp1605
a(S'hopelessness'
p1606
I8
tp1607
a(S'hopes'
p1608
I8
tp1609
a(S'hours'
p1610
I8
tp1611
a(S'impact'
p1612
I8
tp1613
a(S'leaving'
p1614
I8
tp1615
a(S'lesson'
p1616
I8
tp1617
a(S'location2'
p1618
I8
tp1619
a(S'mean'
p1620
I8
tp1621
a(S'mirage'
p1622
I8
tp1623
a(S'notices'
p1624
I8
tp1625
a(S'num2)'
p1626
I8
tp1627
a(S'office'
p1628
I8
tp1629
a(S'often'
p1630
I8
tp1631
a(S'passing'
p1632
I8
tp1633
a(S'refill'
p1634
I8
tp1635
a(S'river'
p1636
I8
tp1637
a(S'save'
p1638
I8
tp1639
a(S'sets'
p1640
I8
tp1641
a(S'setting.the'
p1642
I8
tp1643
a(S'slowly'
p1644
I8
tp1645
a(S'source'
p1646
I8
tp1647
a(S'stopped'
p1648
I8
tp1649
a(S'story.the'
p1650
I8
tp1651
a(S'strongly'
p1652
I8
tp1653
a(S'town.\x94'
p1654
I8
tp1655
a(S'traveled'
p1656
I8
tp1657
a(S'using'
p1658
I8
tp1659
a(S'usually'
p1660
I8
tp1661
a(S'view'
p1662
I8
tp1663
a(S"wasn't"
p1664
I8
tp1665
a(S'weren\x92t'
p1666
I8
tp1667
a(S'\x93and'
p1668
I8
tp1669
a(S'\x93at'
p1670
I8
tp1671
a(S'\x93gary'
p1672
I8
tp1673
a(S'\x93traveling'
p1674
I8
tp1675
a(S'\x93wide'
p1676
I8
tp1677
a(S'(@num1)'
p1678
I7
tp1679
a(S'ability'
p1680
I7
tp1681
a(S'according'
p1682
I7
tp1683
a(S'acid.\x94'
p1684
I7
tp1685
a(S'adding'
p1686
I7
tp1687
a(S'addition'
p1688
I7
tp1689
a(S'bend'
p1690
I7
tp1691
a(S'bumps'
p1692
I7
tp1693
a(S'caps3'
p1694
I7
tp1695
a(S'carry'
p1696
I7
tp1697
a(S'certain'
p1698
I7
tp1699
a(S'city'
p1700
I7
tp1701
a(S'clean'
p1702
I7
tp1703
a(S'clear'
p1704
I7
tp1705
a(S'cycle'
p1706
I7
tp1707
a(S'cyclsit'
p1708
I7
tp1709
a(S'dirt'
p1710
I7
tp1711
a(S'disappointed'
p1712
I7
tp1713
a(S'down\x94'
p1714
I7
tp1715
a(S'dying'
p1716
I7
tp1717
a(S'else'
p1718
I7
tp1719
a(S'exhaustion'
p1720
I7
tp1721
a(S'experienced'
p1722
I7
tp1723
a(S'factors'
p1724
I7
tp1725
a(S'filled'
p1726
I7
tp1727
a(S'finish'
p1728
I7
tp1729
a(S'forest'
p1730
I7
tp1731
a(S'frustrated'
p1732
I7
tp1733
a(S'horizon'
p1734
I7
tp1735
a(S'humid'
p1736
I7
tp1737
a(S'hung'
p1738
I7
tp1739
a(S'idea'
p1740
I7
tp1741
a(S'increased'
p1742
I7
tp1743
a(S'kind.\x94'
p1744
I7
tp1745
a(S'knees'
p1746
I7
tp1747
a(S'kurmaskie\x92s'
p1748
I7
tp1749
a(S'least'
p1750
I7
tp1751
a(S'live'
p1752
I7
tp1753
a(S'living'
p1754
I7
tp1755
a(S'mad'
p1756
I7
tp1757
a(S'mention'
p1758
I7
tp1759
a(S'met'
p1760
I7
tp1761
a(S'mirages'
p1762
I7
tp1763
a(S'month'
p1764
I7
tp1765
a(S'moving'
p1766
I7
tp1767
a(S'overall'
p1768
I7
tp1769
a(S'pain'
p1770
I7
tp1771
a(S'rougher'
p1772
I7
tp1773
a(S'showed'
p1774
I7
tp1775
a(S'sitting'
p1776
I7
tp1777
a(S'sounds'
p1778
I7
tp1779
a(S'spirit'
p1780
I7
tp1781
a(S'stated'
p1782
I7
tp1783
a(S'stick'
p1784
I7
tp1785
a(S'strain'
p1786
I7
tp1787
a(S'suffer'
p1788
I7
tp1789
a(S'sunny'
p1790
I7
tp1791
a(S'supplies'
p1792
I7
tp1793
a(S'tall'
p1794
I7
tp1795
a(S'tarlike'
p1796
I7
tp1797
a(S'tasting'
p1798
I7
tp1799
a(S'third'
p1800
I7
tp1801
a(S'threw'
p1802
I7
tp1803
a(S'tire'
p1804
I7
tp1805
a(S'tone'
p1806
I7
tp1807
a(S'twenty'
p1808
I7
tp1809
a(S'type'
p1810
I7
tp1811
a(S'wear'
p1812
I7
tp1813
a(S'wich'
p1814
I7
tp1815
a(S'wild'
p1816
I7
tp1817
a(S'windy'
p1818
I7
tp1819
a(S"wouldn't"
p1820
I7
tp1821
a(S'year'
p1822
I7
tp1823
a(S'\x93never'
p1824
I7
tp1825
a(S'\x93old'
p1826
I7
tp1827
a(S'\x93trying'
p1828
I7
tp1829
a(S'add'
p1830
I6
tp1831
a(S'added'
p1832
I6
tp1833
a(S'adjust'
p1834
I6
tp1835
a(S'angry'
p1836
I6
tp1837
a(S'aren\x92t'
p1838
I6
tp1839
a(S'asks'
p1840
I6
tp1841
a(S'author\x92s'
p1842
I6
tp1843
a(S'begining'
p1844
I6
tp1845
a(S'blazing'
p1846
I6
tp1847
a(S'boost'
p1848
I6
tp1849
a(S'breeze'
p1850
I6
tp1851
a(S'brought'
p1852
I6
tp1853
a(S'bump'
p1854
I6
tp1855
a(S'buy'
p1856
I6
tp1857
a(S'careful'
p1858
I6
tp1859
a(S'challenges'
p1860
I6
tp1861
a(S'chance'
p1862
I6
tp1863
a(S'characters'
p1864
I6
tp1865
a(S'choice'
p1866
I6
tp1867
a(S'climb'
p1868
I6
tp1869
a(S'control'
p1870
I6
tp1871
a(S'courage'
p1872
I6
tp1873
a(S'crazy'
p1874
I6
tp1875
a(S'create'
p1876
I6
tp1877
a(S'cruel\x94'
p1878
I6
tp1879
a(S"cyclist's"
p1880
I6
tp1881
a(S'dangers'
p1882
I6
tp1883
a(S'deeply'
p1884
I6
tp1885
a(S'definitely'
p1886
I6
tp1887
a(S'describe'
p1888
I6
tp1889
a(S'desserted'
p1890
I6
tp1891
a(S'desserts'
p1892
I6
tp1893
a(S'diamondback'
p1894
I6
tp1895
a(S'dieing'
p1896
I6
tp1897
a(S'directions.the'
p1898
I6
tp1899
a(S'draining'
p1900
I6
tp1901
a(S'eighteen'
p1902
I6
tp1903
a(S'elevation'
p1904
I6
tp1905
a(S'encountered'
p1906
I6
tp1907
a(S'endless'
p1908
I6
tp1909
a(S'expected'
p1910
I6
tp1911
a(S'experiences'
p1912
I6
tp1913
a(S'extra'
p1914
I6
tp1915
a(S'feelings'
p1916
I6
tp1917
a(S'full'
p1918
I6
tp1919
a(S'gaining'
p1920
I6
tp1921
a(S'grew'
p1922
I6
tp1923
a(S'hardships'
p1924
I6
tp1925
a(S'headed'
p1926
I6
tp1927
a(S'heatstroke.\x94'
p1928
I6
tp1929
a(S'highway'
p1930
I6
tp1931
a(S'hill\x94'
p1932
I6
tp1933
a(S'him.in'
p1934
I6
tp1935
a(S'home'
p1936
I6
tp1937
a(S'hour'
p1938
I6
tp1939
a(S'house'
p1940
I6
tp1941
a(S'inner'
p1942
I6
tp1943
a(S'inside'
p1944
I6
tp1945
a(S'insight'
p1946
I6
tp1947
a(S'i\x92m'
p1948
I6
tp1949
a(S'jumped'
p1950
I6
tp1951
a(S'landmarks'
p1952
I6
tp1953
a(S'lasted'
p1954
I6
tp1955
a(S'luck'
p1956
I6
tp1957
a(S'luckily'
p1958
I6
tp1959
a(S'me.\x94'
p1960
I6
tp1961
a(S'mentioned'
p1962
I6
tp1963
a(S'me\x94'
p1964
I6
tp1965
a(S'mistake'
p1966
I6
tp1967
a(S'mountains'
p1968
I6
tp1969
a(S'obviously'
p1970
I6
tp1971
a(S'open'
p1972
I6
tp1973
a(S'opinion'
p1974
I6
tp1975
a(S'organization1'
p1976
I6
tp1977
a(S'others'
p1978
I6
tp1979
a(S'parts'
p1980
I6
tp1981
a(S'possible'
p1982
I6
tp1983
a(S'provide'
p1984
I6
tp1985
a(S'pushed'
p1986
I6
tp1987
a(S'pushing'
p1988
I6
tp1989
a(S'quite'
p1990
I6
tp1991
a(S'saved'
p1992
I6
tp1993
a(S'secondly'
p1994
I6
tp1995
a(S'seek'
p1996
I6
tp1997
a(S'similar'
p1998
I6
tp1999
a(S'snake\x94'
p2000
I6
tp2001
a(S'snow'
p2002
I6
tp2003
a(S'sort'
p2004
I6
tp2005
a(S'state\x94'
p2006
I6
tp2007
a(S'steep'
p2008
I6
tp2009
a(S'stops'
p2010
I6
tp2011
a(S'talks'
p2012
I6
tp2013
a(S'temperatures'
p2014
I6
tp2015
a(S'three'
p2016
I6
tp2017
a(S'toiled'
p2018
I6
tp2019
a(S'top'
p2020
I6
tp2021
a(S'track'
p2022
I6
tp2023
a(S'tumbleweed'
p2024
I6
tp2025
a(S'unbearable'
p2026
I6
tp2027
a(S'wasnt'
p2028
I6
tp2029
a(S'water-depleting'
p2030
I6
tp2031
a(S'wide'
p2032
I6
tp2033
a(S'win'
p2034
I6
tp2035
a(S'winding'
p2036
I6
tp2037
a(S'word'
p2038
I6
tp2039
a(S'worn'
p2040
I6
tp2041
a(S'worry'
p2042
I6
tp2043
a(S'wrote'
p2044
I6
tp2045
a(S'\x93no'
p2046
I6
tp2047
a(S'\x93that'
p2048
I6
tp2049
a(S'\x93with'
p2050
I6
tp2051
a(S'(pg'
p2052
I5
tp2053
a(S'[his]'
p2054
I5
tp2055
a(S'acid\x94'
p2056
I5
tp2057
a(S'adds'
p2058
I5
tp2059
a(S'advise'
p2060
I5
tp2061
a(S'animal'
p2062
I5
tp2063
a(S'atleast'
p2064
I5
tp2065
a(S'aware'
p2066
I5
tp2067
a(S'bite'
p2068
I5
tp2069
a(S'cannot'
p2070
I5
tp2071
a(S'chuckled'
p2072
I5
tp2073
a(S'comfortable'
p2074
I5
tp2075
a(S'constant'
p2076
I5
tp2077
a(S"couldn't"
p2078
I5
tp2079
a(S'crossing'
p2080
I5
tp2081
a(S'cruel.\x94'
p2082
I5
tp2083
a(S'cyclistthe'
p2084
I5
tp2085
a(S'deadly'
p2086
I5
tp2087
a(S'decides'
p2088
I5
tp2089
a(S'deep'
p2090
I5
tp2091
a(S'degrees.\x94'
p2092
I5
tp2093
a(S'depressed'
p2094
I5
tp2095
a(S'desert-like'
p2096
I5
tp2097
a(S'details'
p2098
I5
tp2099
a(S'deteriorating'
p2100
I5
tp2101
a(S'dies'
p2102
I5
tp2103
a(S"doesn't"
p2104
I5
tp2105
a(S'doubtful'
p2106
I5
tp2107
a(S'earlier'
p2108
I5
tp2109
a(S'ease'
p2110
I5
tp2111
a(S'eat'
p2112
I5
tp2113
a(S'emotionally'
p2114
I5
tp2115
a(S'emptiness'
p2116
I5
tp2117
a(S'enjoyable'
p2118
I5
tp2119
a(S'explained'
p2120
I5
tp2121
a(S'explaining'
p2122
I5
tp2123
a(S'focus'
p2124
I5
tp2125
a(S'form'
p2126
I5
tp2127
a(S'free'
p2128
I5
tp2129
a(S'hand'
p2130
I5
tp2131
a(S"he's"
p2132
I5
tp2133
a(S'heart'
p2134
I5
tp2135
a(S'heat.the'
p2136
I5
tp2137
a(S'helping'
p2138
I5
tp2139
a(S'hill.\x94'
p2140
I5
tp2141
a(S'isolation'
p2142
I5
tp2143
a(S'it.the'
p2144
I5
tp2145
a(S'it.\x94'
p2146
I5
tp2147
a(S'kill'
p2148
I5
tp2149
a(S'kind\x94'
p2150
I5
tp2151
a(S'kiss'
p2152
I5
tp2153
a(S'leads'
p2154
I5
tp2155
a(S'learn'
p2156
I5
tp2157
a(S'lets'
p2158
I5
tp2159
a(S'limits'
p2160
I5
tp2161
a(S'line'
p2162
I5
tp2163
a(S'locals'
p2164
I5
tp2165
a(S'located'
p2166
I5
tp2167
a(S'location'
p2168
I5
tp2169
a(S'lonely'
p2170
I5
tp2171
a(S'loses'
p2172
I5
tp2173
a(S'mentions'
p2174
I5
tp2175
a(S'men\x92s'
p2176
I5
tp2177
a(S'mostly'
p2178
I5
tp2179
a(S'myself.\x94'
p2180
I5
tp2181
a(S'narration'
p2182
I5
tp2183
a(S'offered'
p2184
I5
tp2185
a(S'overwhelming'
p2186
I5
tp2187
a(S'period'
p2188
I5
tp2189
a(S'piece'
p2190
I5
tp2191
a(S'power'
p2192
I5
tp2193
a(S'rain'
p2194
I5
tp2195
a(S'represents'
p2196
I5
tp2197
a(S'response'
p2198
I5
tp2199
a(S'result'
p2200
I5
tp2201
a(S'reveals'
p2202
I5
tp2203
a(S'ride.the'
p2204
I5
tp2205
a(S'risk'
p2206
I5
tp2207
a(S'road\x94'
p2208
I5
tp2209
a(S'slower'
p2210
I5
tp2211
a(S'slowing'
p2212
I5
tp2213
a(S'solo'
p2214
I5
tp2215
a(S'statement'
p2216
I5
tp2217
a(S'stumbled'
p2218
I5
tp2219
a(S'success'
p2220
I5
tp2221
a(S'suggests'
p2222
I5
tp2223
a(S'support'
p2224
I5
tp2225
a(S'sweaty'
p2226
I5
tp2227
a(S'talk'
p2228
I5
tp2229
a(S'tastes'
p2230
I5
tp2231
a(S'terrains'
p2232
I5
tp2233
a(S'thoughts'
p2234
I5
tp2235
a(S'tiring'
p2236
I5
tp2237
a(S'trail'
p2238
I5
tp2239
a(S'upset'
p2240
I5
tp2241
a(S'watch'
p2242
I5
tp2243
a(S'would\x92ve'
p2244
I5
tp2245
a(S'yes'
p2246
I5
tp2247
a(S'you\x92re'
p2248
I5
tp2249
a(S'\x93@caps1'
p2250
I5
tp2251
a(S'\x93about'
p2252
I5
tp2253
a(S'\x93battery'
p2254
I5
tp2255
a(S'\x93i\x92d'
p2256
I5
tp2257
a(S'\x93shortcut\x94'
p2258
I5
tp2259
a(S'\x93then'
p2260
I5
tp2261
a(S'\x93when'
p2262
I5
tp2263
a(S'(@person1)'
p2264
I4
tp2265
a(S'(the'
p2266
I4
tp2267
a(S'abandon'
p2268
I4
tp2269
a(S'afraid'
p2270
I4
tp2271
a(S'ago'
p2272
I4
tp2273
a(S'anybody'
p2274
I4
tp2275
a(S'apart'
p2276
I4
tp2277
a(S'arriving'
p2278
I4
tp2279
a(S'aspect'
p2280
I4
tp2281
a(S'aspects'
p2282
I4
tp2283
a(S'avoid'
p2284
I4
tp2285
a(S'based'
p2286
I4
tp2287
a(S'believes'
p2288
I4
tp2289
a(S'brain'
p2290
I4
tp2291
a(S'breaking'
p2292
I4
tp2293
a(S'breezy'
p2294
I4
tp2295
a(S'clean\x94'
p2296
I4
tp2297
a(S'complete'
p2298
I4
tp2299
a(S'concentrate'
p2300
I4
tp2301
a(S'consciousness'
p2302
I4
tp2303
a(S'constantly'
p2304
I4
tp2305
a(S'contributed'
p2306
I4
tp2307
a(S'covered'
p2308
I4
tp2309
a(S'cycled'
p2310
I4
tp2311
a(S'days'
p2312
I4
tp2313
a(S'dead'
p2314
I4
tp2315
a(S'deeper'
p2316
I4
tp2317
a(S'destination.the'
p2318
I4
tp2319
a(S'diamondback-blocked'
p2320
I4
tp2321
a(S"didn't"
p2322
I4
tp2323
a(S'die.the'
p2324
I4
tp2325
a(S'directly'
p2326
I4
tp2327
a(S'dirty'
p2328
I4
tp2329
a(S'discouraged'
p2330
I4
tp2331
a(S'down.the'
p2332
I4
tp2333
a(S'dreadful'
p2334
I4
tp2335
a(S'dryness'
p2336
I4
tp2337
a(S'element'
p2338
I4
tp2339
a(S'emotions'
p2340
I4
tp2341
a(S'endurance'
p2342
I4
tp2343
a(S'endure'
p2344
I4
tp2345
a(S'entire'
p2346
I4
tp2347
a(S'evening'
p2348
I4
tp2349
a(S'exactly'
p2350
I4
tp2351
a(S'except'
p2352
I4
tp2353
a(S'face.\x94'
p2354
I4
tp2355
a(S'fatal'
p2356
I4
tp2357
a(S'fears'
p2358
I4
tp2359
a(S'fighting'
p2360
I4
tp2361
a(S'fluid'
p2362
I4
tp2363
a(S'force'
p2364
I4
tp2365
a(S'forced'
p2366
I4
tp2367
a(S'furthermore'
p2368
I4
tp2369
a(S'gathered'
p2370
I4
tp2371
a(S'goal'
p2372
I4
tp2373
a(S'hardest'
p2374
I4
tp2375
a(S'harm'
p2376
I4
tp2377
a(S'hasn\x92t'
p2378
I4
tp2379
a(S'healthy'
p2380
I4
tp2381
a(S'heard'
p2382
I4
tp2383
a(S'hope.\x94'
p2384
I4
tp2385
a(S'hottest'
p2386
I4
tp2387
a(S'human'
p2388
I4
tp2389
a(S'hydration'
p2390
I4
tp2391
a(S"i'd"
p2392
I4
tp2393
a(S'interesting'
p2394
I4
tp2395
a(S'ironically'
p2396
I4
tp2397
a(S'irony'
p2398
I4
tp2399
a(S'issues'
p2400
I4
tp2401
a(S'journey.in'
p2402
I4
tp2403
a(S'june,\x94'
p2404
I4
tp2405
a(S'keeping'
p2406
I4
tp2407
a(S'knowledge'
p2408
I4
tp2409
a(S'lay'
p2410
I4
tp2411
a(S'leave'
p2412
I4
tp2413
a(S'leaves'
p2414
I4
tp2415
a(S'lodge'
p2416
I4
tp2417
a(S'lower'
p2418
I4
tp2419
a(S'managed'
p2420
I4
tp2421
a(S'man\x92s'
p2422
I4
tp2423
a(S'maps'
p2424
I4
tp2425
a(S'meets'
p2426
I4
tp2427
a(S'minutes'
p2428
I4
tp2429
a(S'muscles'
p2430
I4
tp2431
a(S'nervous'
p2432
I4
tp2433
a(S'none'
p2434
I4
tp2435
a(S'notice'
p2436
I4
tp2437
a(S'num3'
p2438
I4
tp2439
a(S'obsticles'
p2440
I4
tp2441
a(S'offer'
p2442
I4
tp2443
a(S'office\x94'
p2444
I4
tp2445
a(S'overcame'
p2446
I4
tp2447
a(S'pace'
p2448
I4
tp2449
a(S'park.the'
p2450
I4
tp2451
a(S'peddling'
p2452
I4
tp2453
a(S'person2'
p2454
I4
tp2455
a(S'person\x92s'
p2456
I4
tp2457
a(S'picked'
p2458
I4
tp2459
a(S'pine'
p2460
I4
tp2461
a(S'plan'
p2462
I4
tp2463
a(S'plant'
p2464
I4
tp2465
a(S'play'
p2466
I4
tp2467
a(S'plus'
p2468
I4
tp2469
a(S'poor'
p2470
I4
tp2471
a(S'present'
p2472
I4
tp2473
a(S'presents'
p2474
I4
tp2475
a(S'proper'
p2476
I4
tp2477
a(S'pumping'
p2478
I4
tp2479
a(S'quest'
p2480
I4
tp2481
a(S'race'
p2482
I4
tp2483
a(S'reads'
p2484
I4
tp2485
a(S'received'
p2486
I4
tp2487
a(S'rediculously'
p2488
I4
tp2489
a(S'reflects'
p2490
I4
tp2491
a(S'refreshed'
p2492
I4
tp2493
a(S'related'
p2494
I4
tp2495
a(S'remember'
p2496
I4
tp2497
a(S'replenish'
p2498
I4
tp2499
a(S'ridding'
p2500
I4
tp2501
a(S'riders'
p2502
I4
tp2503
a(S'rise'
p2504
I4
tp2505
a(S'road.the'
p2506
I4
tp2507
a(S'rugged'
p2508
I4
tp2509
a(S'sandblasted'
p2510
I4
tp2511
a(S'serious'
p2512
I4
tp2513
a(S'shown'
p2514
I4
tp2515
a(S'situations'
p2516
I4
tp2517
a(S'snake.\x94'
p2518
I4
tp2519
a(S'sometime'
p2520
I4
tp2521
a(S'stores'
p2522
I4
tp2523
a(S'stories'
p2524
I4
tp2525
a(S'streams'
p2526
I4
tp2527
a(S'strenght'
p2528
I4
tp2529
a(S'stretch'
p2530
I4
tp2531
a(S'stroke.the'
p2532
I4
tp2533
a(S'stuff'
p2534
I4
tp2535
a(S'survived'
p2536
I4
tp2537
a(S'talked'
p2538
I4
tp2539
a(S'tar'
p2540
I4
tp2541
a(S'taste'
p2542
I4
tp2543
a(S'test'
p2544
I4
tp2545
a(S'tested'
p2546
I4
tp2547
a(S'there\x92s'
p2548
I4
tp2549
a(S'threatening'
p2550
I4
tp2551
a(S'thus'
p2552
I4
tp2553
a(S'time\x94'
p2554
I4
tp2555
a(S'tips'
p2556
I4
tp2557
a(S'totally'
p2558
I4
tp2559
a(S'tougher'
p2560
I4
tp2561
a(S'tries'
p2562
I4
tp2563
a(S'truly'
p2564
I4
tp2565
a(S'trust'
p2566
I4
tp2567
a(S'two-hundred'
p2568
I4
tp2569
a(S'untill'
p2570
I4
tp2571
a(S'urge'
p2572
I4
tp2573
a(S'vegetation'
p2574
I4
tp2575
a(S'ways.the'
p2576
I4
tp2577
a(S'weaker'
p2578
I4
tp2579
a(S'weary'
p2580
I4
tp2581
a(S'whether'
p2582
I4
tp2583
a(S'wilber'
p2584
I4
tp2585
a(S'witch'
p2586
I4
tp2587
a(S'worked'
p2588
I4
tp2589
a(S'worth'
p2590
I4
tp2591
a(S'wouldnt'
p2592
I4
tp2593
a(S'writer'
p2594
I4
tp2595
a(S'you.the'
p2596
I4
tp2597
a(S'\x93(kurmaskie'
p2598
I4
tp2599
a(S'\x93cool'
p2600
I4
tp2601
a(S'\x93in'
p2602
I4
tp2603
a(S'\x93old-timers'
p2604
I4
tp2605
a(S'\x93sometimes'
p2606
I4
tp2607
a(S'\x93through'
p2608
I4
tp2609
a(S"''i"
p2610
I3
tp2611
a(S'-'
I3
tp2612
a(S'abondoned'
p2613
I3
tp2614
a(S'accepts'
p2615
I3
tp2616
a(S'act'
p2617
I3
tp2618
a(S'afected'
p2619
I3
tp2620
a(S'ahead,\x94'
p2621
I3
tp2622
a(S'ahead:do'
p2623
I3
tp2624
a(S'allow'
p2625
I3
tp2626
a(S'anothe'
p2627
I3
tp2628
a(S'appealing'
p2629
I3
tp2630
a(S'appeared'
p2631
I3
tp2632
a(S"aren't"
p2633
I3
tp2634
a(S'arrive'
p2635
I3
tp2636
a(S'asking'
p2637
I3
tp2638
a(S'attempts'
p2639
I3
tp2640
a(S'authour'
p2641
I3
tp2642
a(S'available'
p2643
I3
tp2644
a(S'believing'
p2645
I3
tp2646
a(S'bicyclist'
p2647
I3
tp2648
a(S'bikers'
p2649
I3
tp2650
a(S'bikes'
p2651
I3
tp2652
a(S'bitter'
p2653
I3
tp2654
a(S'black'
p2655
I3
tp2656
a(S'blackish'
p2657
I3
tp2658
a(S'blasted'
p2659
I3
tp2660
a(S'bleak'
p2661
I3
tp2662
a(S'blocking'
p2663
I3
tp2664
a(S'boiling'
p2665
I3
tp2666
a(S'bored'
p2667
I3
tp2668
a(S'brain.\x94'
p2669
I3
tp2670
a(S'brave'
p2671
I3
tp2672
a(S'breath'
p2673
I3
tp2674
a(S'bright'
p2675
I3
tp2676
a(S'brings'
p2677
I3
tp2678
a(S'bulding'
p2679
I3
tp2680
a(S'bunch'
p2681
I3
tp2682
a(S'burning'
p2683
I3
tp2684
a(S'california\x94'
p2685
I3
tp2686
a(S'camp,\x94'
p2687
I3
tp2688
a(S'camp\x94'
p2689
I3
tp2690
a(S'chances'
p2691
I3
tp2692
a(S'choose'
p2693
I3
tp2694
a(S'collapse'
p2695
I3
tp2696
a(S'collapsed'
p2697
I3
tp2698
a(S'combs'
p2699
I3
tp2700
a(S'competive'
p2701
I3
tp2702
a(S'confused'
p2703
I3
tp2704
a(S'conserving'
p2705
I3
tp2706
a(S'creates'
p2707
I3
tp2708
a(S'creatures'
p2709
I3
tp2710
a(S'crucial'
p2711
I3
tp2712
a(S'cycles'
p2713
I3
tp2714
a(S'cyclest'
p2715
I3
tp2716
a(S'cyclist.some'
p2717
I3
tp2718
a(S'cyclists.the'
p2719
I3
tp2720
a(S'decide'
p2721
I3
tp2722
a(S'deciding'
p2723
I3
tp2724
a(S'decrease'
p2725
I3
tp2726
a(S'definetly'
p2727
I3
tp2728
a(S'degrees\x94'
p2729
I3
tp2730
a(S'dehidrated'
p2731
I3
tp2732
a(S'dehydrated.the'
p2733
I3
tp2734
a(S'dehydrates'
p2735
I3
tp2736
a(S'dehydration.the'
p2737
I3
tp2738
a(S'depressing'
p2739
I3
tp2740
a(S'desparate'
p2741
I3
tp2742
a(S'didn`t'
p2743
I3
tp2744
a(S'difficulties'
p2745
I3
tp2746
a(S'diffrent'
p2747
I3
tp2748
a(S'discouraging'
p2749
I3
tp2750
a(S'distances'
p2751
I3
tp2752
a(S'disturbed'
p2753
I3
tp2754
a(S'done'
p2755
I3
tp2756
a(S'dont'
p2757
I3
tp2758
a(S'dosent'
p2759
I3
tp2760
a(S'downhill'
p2761
I3
tp2762
a(S'downs'
p2763
I3
tp2764
a(S'drain'
p2765
I3
tp2766
a(S'drinkable'
p2767
I3
tp2768
a(S'drives'
p2769
I3
tp2770
a(S'driving'
p2771
I3
tp2772
a(S'dropped'
p2773
I3
tp2774
a(S'drunk'
p2775
I3
tp2776
a(S'drying'
p2777
I3
tp2778
a(S'dwindling'
p2779
I3
tp2780
a(S'effecting'
p2781
I3
tp2782
a(S'elements'
p2783
I3
tp2784
a(S'emotional'
p2785
I3
tp2786
a(S'entered'
p2787
I3
tp2788
a(S'entry'
p2789
I3
tp2790
a(S'escape'
p2791
I3
tp2792
a(S'essay.the'
p2793
I3
tp2794
a(S'evening\x94'
p2795
I3
tp2796
a(S'everyone'
p2797
I3
tp2798
a(S'everywhere'
p2799
I3
tp2800
a(S'evident'
p2801
I3
tp2802
a(S'exeed'
p2803
I3
tp2804
a(S'explain'
p2805
I3
tp2806
a(S'exposed'
p2807
I3
tp2808
a(S'faucet'
p2809
I3
tp2810
a(S'fist'
p2811
I3
tp2812
a(S'following'
p2813
I3
tp2814
a(S'follows'
p2815
I3
tp2816
a(S'forever'
p2817
I3
tp2818
a(S'forget'
p2819
I3
tp2820
a(S'forth'
p2821
I3
tp2822
a(S'forward'
p2823
I3
tp2824
a(S'fourty'
p2825
I3
tp2826
a(S'frightened'
p2827
I3
tp2828
a(S'gonna'
p2829
I3
tp2830
a(S'goo'
p2831
I3
tp2832
a(S'greater'
p2833
I3
tp2834
a(S'greatest'
p2835
I3
tp2836
a(S'half'
p2837
I3
tp2838
a(S'hang'
p2839
I3
tp2840
a(S'happens'
p2841
I3
tp2842
a(S'hardly'
p2843
I3
tp2844
a(S'harmful'
p2845
I3
tp2846
a(S'heated'
p2847
I3
tp2848
a(S'heatstroke\x94'
p2849
I3
tp2850
a(S'help.the'
p2851
I3
tp2852
a(S'hill,\x94'
p2853
I3
tp2854
a(S'hits'
p2855
I3
tp2856
a(S'honey'
p2857
I3
tp2858
a(S'hoping'
p2859
I3
tp2860
a(S'houses'
p2861
I3
tp2862
a(S'hydrate'
p2863
I3
tp2864
a(S'image'
p2865
I3
tp2866
a(S'imagine'
p2867
I3
tp2868
a(S'immediately'
p2869
I3
tp2870
a(S'importantly'
p2871
I3
tp2872
a(S'including'
p2873
I3
tp2874
a(S'influence'
p2875
I3
tp2876
a(S'inward'
p2877
I3
tp2878
a(S'is.\x94'
p2879
I3
tp2880
a(S'isolated'
p2881
I3
tp2882
a(S"it's"
p2883
I3
tp2884
a(S'job'
p2885
I3
tp2886
a(S'journy'
p2887
I3
tp2888
a(S'june\x94(kurmaskie)'
p2889
I3
tp2890
a(S'laugh.\x94'
p2891
I3
tp2892
a(S'laughed'
p2893
I3
tp2894
a(S'leading'
p2895
I3
tp2896
a(S'letting'
p2897
I3
tp2898
a(S'lie'
p2899
I3
tp2900
a(S'listens'
p2901
I3
tp2902
a(S'lively'
p2903
I3
tp2904
a(S'lowers'
p2905
I3
tp2906
a(S'maneuver'
p2907
I3
tp2908
a(S'maneuvered'
p2909
I3
tp2910
a(S'matters'
p2911
I3
tp2912
a(S'meet'
p2913
I3
tp2914
a(S'mently'
p2915
I3
tp2916
a(S'mile'
p2917
I3
tp2918
a(S'misled'
p2919
I3
tp2920
a(S'mode'
p2921
I3
tp2922
a(S'moods'
p2923
I3
tp2924
a(S'motivated'
p2925
I3
tp2926
a(S'movement'
p2927
I3
tp2928
a(S'mph\x94'
p2929
I3
tp2930
a(S'mule.\x94'
p2931
I3
tp2932
a(S'narrarator'
p2933
I3
tp2934
a(S'nasty'
p2935
I3
tp2936
a(S'needing'
p2937
I3
tp2938
a(S'night'
p2939
I3
tp2940
a(S'normally'
p2941
I3
tp2942
a(S'num3)'
p2943
I3
tp2944
a(S'odds'
p2945
I3
tp2946
a(S'okay'
p2947
I3
tp2948
a(S'on.the'
p2949
I3
tp2950
a(S'original'
p2951
I3
tp2952
a(S'out.\x94'
p2953
I3
tp2954
a(S'outdated'
p2955
I3
tp2956
a(S'outlook'
p2957
I3
tp2958
a(S'overheated'
p2959
I3
tp2960
a(S'packed'
p2961
I3
tp2962
a(S'panic'
p2963
I3
tp2964
a(S'path.\x94'
p2965
I3
tp2966
a(S'pebble'
p2967
I3
tp2968
a(S'perfect'
p2969
I3
tp2970
a(S'perhaps'
p2971
I3
tp2972
a(S'persevere'
p2973
I3
tp2974
a(S'personally'
p2975
I3
tp2976
a(S'pg'
p2977
I3
tp2978
a(S'pipes'
p2979
I3
tp2980
a(S'placed'
p2981
I3
tp2982
a(S'plot'
p2983
I3
tp2984
a(S'possibility'
p2985
I3
tp2986
a(S'probaly'
p2987
I3
tp2988
a(S'promised'
p2989
I3
tp2990
a(S'provides'
p2991
I3
tp2992
a(S'pysical'
p2993
I3
tp2994
a(S'quench'
p2995
I3
tp2996
a(S'question'
p2997
I3
tp2998
a(S'quick'
p2999
I3
tp3000
a(S'quicker'
p3001
I3
tp3002
a(S'quotes'
p3003
I3
tp3004
a(S'rate'
p3005
I3
tp3006
a(S'rattle'
p3007
I3
tp3008
a(S'rattled'
p3009
I3
tp3010
a(S'realizing'
p3011
I3
tp3012
a(S'realy'
p3013
I3
tp3014
a(S'regained'
p3015
I3
tp3016
a(S'regret'
p3017
I3
tp3018
a(S'relates'
p3019
I3
tp3020
a(S'relived'
p3021
I3
tp3022
a(S'rely'
p3023
I3
tp3024
a(S'remind'
p3025
I3
tp3026
a(S'remote'
p3027
I3
tp3028
a(S'required'
p3029
I3
tp3030
a(S'resources'
p3031
I3
tp3032
a(S'round'
p3033
I3
tp3034
a(S'sandy'
p3035
I3
tp3036
a(S'sarcastic'
p3037
I3
tp3038
a(S'scarce'
p3039
I3
tp3040
a(S'scary'
p3041
I3
tp3042
a(S'scorching'
p3043
I3
tp3044
a(S'search'
p3045
I3
tp3046
a(S'sentences'
p3047
I3
tp3048
a(S'seriously'
p3049
I3
tp3050
a(S'setback'
p3051
I3
tp3052
a(S'setting.in'
p3053
I3
tp3054
a(S'shirt.\x94'
p3055
I3
tp3056
a(S'shortage'
p3057
I3
tp3058
a(S'shut'
p3059
I3
tp3060
a(S'sick'
p3061
I3
tp3062
a(S'sight.\x94'
p3063
I3
tp3064
a(S'sips\x94'
p3065
I3
tp3066
a(S'site'
p3067
I3
tp3068
a(S'sites'
p3069
I3
tp3070
a(S'slows'
p3071
I3
tp3072
a(S'snake-'
p3073
I3
tp3074
a(S'snake-it'
p3075
I3
tp3076
a(S'sorts'
p3077
I3
tp3078
a(S'sound'
p3079
I3
tp3080
a(S'speeding'
p3081
I3
tp3082
a(S'spite'
p3083
I3
tp3084
a(S'steady'
p3085
I3
tp3086
a(S'strangers'
p3087
I3
tp3088
a(S'struggles'
p3089
I3
tp3090
a(S'struggling'
p3091
I3
tp3092
a(S'sucked'
p3093
I3
tp3094
a(S'supports'
p3095
I3
tp3096
a(S'supposed'
p3097
I3
tp3098
a(S'symbol'
p3099
I3
tp3100
a(S'them.the'
p3101
I3
tp3102
a(S'theres'
p3103
I3
tp3104
a(S'thirstier'
p3105
I3
tp3106
a(S'thout'
p3107
I3
tp3108
a(S'thrist'
p3109
I3
tp3110
a(S'throught'
p3111
I3
tp3112
a(S'toward'
p3113
I3
tp3114
a(S'true'
p3115
I3
tp3116
a(S'trusted'
p3117
I3
tp3118
a(S'tune'
p3119
I3
tp3120
a(S'unable'
p3121
I3
tp3122
a(S'understand'
p3123
I3
tp3124
a(S'unfortunate'
p3125
I3
tp3126
a(S'unstable'
p3127
I3
tp3128
a(S'ups'
p3129
I3
tp3130
a(S'usual'
p3131
I3
tp3132
a(S'various'
p3133
I3
tp3134
a(S'vast'
p3135
I3
tp3136
a(S'vastness'
p3137
I3
tp3138
a(S'vermont'
p3139
I3
tp3140
a(S'visual'
p3141
I3
tp3142
a(S'wanting'
p3143
I3
tp3144
a(S'wearing'
p3145
I3
tp3146
a(S'wears'
p3147
I3
tp3148
a(S'welches'
p3149
I3
tp3150
a(S'willing'
p3151
I3
tp3152
a(S'wisdom'
p3153
I3
tp3154
a(S'wise'
p3155
I3
tp3156
a(S'won\x92t'
p3157
I3
tp3158
a(S'works'
p3159
I3
tp3160
a(S'writing'
p3161
I3
tp3162
a(S'\x91'
I3
tp3163
a(S'\x93after'
p3164
I3
tp3165
a(S'\x93l'
p3166
I3
tp3167
a(S'\x93like'
p3168
I3
tp3169
a(S'\x93long'
p3170
I3
tp3171
a(S'\x93ramshackle'
p3172
I3
tp3173
a(S'\x93ridiculously'
p3174
I3
tp3175
a(S'\x93towns\x94'
p3176
I3
tp3177
a(S"''at"
p3178
I2
tp3179
a(S"''rough"
p3180
I2
tp3181
a(S'(@caps1)'
p3182
I2
tp3183
a(S'(@num2)'
p3184
I2
tp3185
a(S'/she'
p3186
I2
tp3187
a(S'[he]'
p3188
I2
tp3189
a(S'abandond'
p3190
I2
tp3191
a(S'abandonment'
p3192
I2
tp3193
a(S'abilities'
p3194
I2
tp3195
a(S'abonded'
p3196
I2
tp3197
a(S'accepting'
p3198
I2
tp3199
a(S"acid''"
p3200
I2
tp3201
a(S'activity'
p3202
I2
tp3203
a(S'ad'
p3204
I2
tp3205
a(S'affection'
p3206
I2
tp3207
a(S'aged'
p3208
I2
tp3209
a(S'ahead.\x94'
p3210
I2
tp3211
a(S'aid'
p3212
I2
tp3213
a(S'allowed'
p3214
I2
tp3215
a(S'allowing'
p3216
I2
tp3217
a(S'alter'
p3218
I2
tp3219
a(S'amazing'
p3220
I2
tp3221
a(S'amused'
p3222
I2
tp3223
a(S'amusement'
p3224
I2
tp3225
a(S'anger'
p3226
I2
tp3227
a(S'anther'
p3228
I2
tp3229
a(S'anyways'
p3230
I2
tp3231
a(S'appear'
p3232
I2
tp3233
a(S'appears'
p3234
I2
tp3235
a(S'approaches'
p3236
I2
tp3237
a(S'are.the'
p3238
I2
tp3239
a(S'areas'
p3240
I2
tp3241
a(S'arid'
p3242
I2
tp3243
a(S'article'
p3244
I2
tp3245
a(S'associated'
p3246
I2
tp3247
a(S"author's"
p3248
I2
tp3249
a(S'awful'
p3250
I2
tp3251
a(S'back-blocked'
p3252
I2
tp3253
a(S'background'
p3254
I2
tp3255
a(S'back\x94'
p3256
I2
tp3257
a(S'badly'
p3258
I2
tp3259
a(S'bait.\x94'
p3260
I2
tp3261
a(S'band'
p3262
I2
tp3263
a(S'baron'
p3264
I2
tp3265
a(S'bathrooms'
p3266
I2
tp3267
a(S'beaten'
p3268
I2
tp3269
a(S'beautiful'
p3270
I2
tp3271
a(S'beauty'
p3272
I2
tp3273
a(S'becaus'
p3274
I2
tp3275
a(S'begging'
p3276
I2
tp3277
a(S'beggining'
p3278
I2
tp3279
a(S'begun'
p3280
I2
tp3281
a(S'belive'
p3282
I2
tp3283
a(S'bigger'
p3284
I2
tp3285
a(S'bike.the'
p3286
I2
tp3287
a(S'biked'
p3288
I2
tp3289
a(S'biker.the'
p3290
I2
tp3291
a(S'billboard'
p3292
I2
tp3293
a(S'blues'
p3294
I2
tp3295
a(S'bolt'
p3296
I2
tp3297
a(S'book'
p3298
I2
tp3299
a(S'bother'
p3300
I2
tp3301
a(S'bringing'
p3302
I2
tp3303
a(S'brink'
p3304
I2
tp3305
a(S'broke'
p3306
I2
tp3307
a(S'broken'
p3308
I2
tp3309
a(S'build'
p3310
I2
tp3311
a(S'bumby'
p3312
I2
tp3313
a(S'business'
p3314
I2
tp3315
a(S'california,in'
p3316
I2
tp3317
a(S'calling'
p3318
I2
tp3319
a(S'camp.\x94'
p3320
I2
tp3321
a(S'cant'
p3322
I2
tp3323
a(S'caps4'
p3324
I2
tp3325
a(S'carefree'
p3326
I2
tp3327
a(S'careful.the'
p3328
I2
tp3329
a(S'cautious'
p3330
I2
tp3331
a(S'challange'
p3332
I2
tp3333
a(S'challenged'
p3334
I2
tp3335
a(S'characteristics'
p3336
I2
tp3337
a(S'chuckles'
p3338
I2
tp3339
a(S'circling'
p3340
I2
tp3341
a(S'climbing'
p3342
I2
tp3343
a(S'clothes'
p3344
I2
tp3345
a(S'clue'
p3346
I2
tp3347
a(S'codgers'
p3348
I2
tp3349
a(S'combination'
p3350
I2
tp3351
a(S'comfort'
p3352
I2
tp3353
a(S'common'
p3354
I2
tp3355
a(S'company'
p3356
I2
tp3357
a(S'conditions.in'
p3358
I2
tp3359
a(S'confict'
p3360
I2
tp3361
a(S'confidence.the'
p3362
I2
tp3363
a(S'connection'
p3364
I2
tp3365
a(S'conquer'
p3366
I2
tp3367
a(S'constrain'
p3368
I2
tp3369
a(S'contains'
p3370
I2
tp3371
a(S'content'
p3372
I2
tp3373
a(S'continually'
p3374
I2
tp3375
a(S'contributes'
p3376
I2
tp3377
a(S'convince'
p3378
I2
tp3379
a(S'cooled'
p3380
I2
tp3381
a(S'coral'
p3382
I2
tp3383
a(S'correct'
p3384
I2
tp3385
a(S'country'
p3386
I2
tp3387
a(S'course'
p3388
I2
tp3389
a(S'created'
p3390
I2
tp3391
a(S'creating'
p3392
I2
tp3393
a(S'cripping'
p3394
I2
tp3395
a(S'crosses'
p3396
I2
tp3397
a(S'cuts'
p3398
I2
tp3399
a(S'cut\x94'
p3400
I2
tp3401
a(S'cyclist.as'
p3402
I2
tp3403
a(S'cyclist.during'
p3404
I2
tp3405
a(S'cyclist.setting'
p3406
I2
tp3407
a(S'cyclist.this'
p3408
I2
tp3409
a(S'cyclist.when'
p3410
I2
tp3411
a(S'cyclist;'
p3412
I2
tp3413
a(S'cylist'
p3414
I2
tp3415
a(S'deal.the'
p3416
I2
tp3417
a(S'decision'
p3418
I2
tp3419
a(S'decisions'
p3420
I2
tp3421
a(S'dedication'
p3422
I2
tp3423
a(S'dehydratied'
p3424
I2
tp3425
a(S'depend'
p3426
I2
tp3427
a(S'depending'
p3428
I2
tp3429
a(S'depends'
p3430
I2
tp3431
a(S'depleating'
p3432
I2
tp3433
a(S'deplete'
p3434
I2
tp3435
a(S'descriptive'
p3436
I2
tp3437
a(S'desertin'
p3438
I2
tp3439
a(S'desolate'
p3440
I2
tp3441
a(S'desolation'
p3442
I2
tp3443
a(S'dessert)'
p3444
I2
tp3445
a(S'destination.in'
p3446
I2
tp3447
a(S'determine'
p3448
I2
tp3449
a(S'detirmination'
p3450
I2
tp3451
a(S'diamondback-'
p3452
I2
tp3453
a(S'diary'
p3454
I2
tp3455
a(S'diferent'
p3456
I2
tp3457
a(S'dilapidated'
p3458
I2
tp3459
a(S'din\x92t'
p3460
I2
tp3461
a(S'dire'
p3462
I2
tp3463
a(S'directed'
p3464
I2
tp3465
a(S'dis'
p3466
I2
tp3467
a(S'discomfort'
p3468
I2
tp3469
a(S'discovered'
p3470
I2
tp3471
a(S'discovers'
p3472
I2
tp3473
a(S'dissapointed'
p3474
I2
tp3475
a(S'disturb'
p3476
I2
tp3477
a(S'doubts'
p3478
I2
tp3479
a(S'down.\x94'
p3480
I2
tp3481
a(S'drained'
p3482
I2
tp3483
a(S'drains'
p3484
I2
tp3485
a(S'dramatically'
p3486
I2
tp3487
a(S'drieing'
p3488
I2
tp3489
a(S'drier'
p3490
I2
tp3491
a(S'dropping'
p3492
I2
tp3493
a(S'drops'
p3494
I2
tp3495
a(S'drys'
p3496
I2
tp3497
a(S'dust'
p3498
I2
tp3499
a(S'dwinding'
p3500
I2
tp3501
a(S'eager'
p3502
I2
tp3503
a(S'easly'
p3504
I2
tp3505
a(S'eaten'
p3506
I2
tp3507
a(S'eccentric'
p3508
I2
tp3509
a(S'elder'
p3510
I2
tp3511
a(S'elders'
p3512
I2
tp3513
a(S'encounter'
p3514
I2
tp3515
a(S'encouraged'
p3516
I2
tp3517
a(S'encouters'
p3518
I2
tp3519
a(S'end.the'
p3520
I2
tp3521
a(S'enduring'
p3522
I2
tp3523
a(S'energized'
p3524
I2
tp3525
a(S'energy.the'
p3526
I2
tp3527
a(S'enjoy'
p3528
I2
tp3529
a(S'enjoying'
p3530
I2
tp3531
a(S'enters'
p3532
I2
tp3533
a(S'enuff'
p3534
I2
tp3535
a(S'enviroment'
p3536
I2
tp3537
a(S'er'
p3538
I2
tp3539
a(S'establishments'
p3540
I2
tp3541
a(S'events'
p3542
I2
tp3543
a(S'everytime'
p3544
I2
tp3545
a(S'example.\x94'
p3546
I2
tp3547
a(S'excessive'
p3548
I2
tp3549
a(S'excessively'
p3550
I2
tp3551
a(S'exclaims'
p3552
I2
tp3553
a(S'exercising'
p3554
I2
tp3555
a(S'exhaust'
p3556
I2
tp3557
a(S'expect'
p3558
I2
tp3559
a(S'expensive'
p3560
I2
tp3561
a(S'facing'
p3562
I2
tp3563
a(S'factories'
p3564
I2
tp3565
a(S'faint'
p3566
I2
tp3567
a(S'falling'
p3568
I2
tp3569
a(S'false'
p3570
I2
tp3571
a(S'farther'
p3572
I2
tp3573
a(S'fatigue'
p3574
I2
tp3575
a(S'fatigued'
p3576
I2
tp3577
a(S'favor'
p3578
I2
tp3579
a(S'fearful'
p3580
I2
tp3581
a(S'figured'
p3582
I2
tp3583
a(S'fill'
p3584
I2
tp3585
a(S'fine.\x94'
p3586
I2
tp3587
a(S'finish.the'
p3588
I2
tp3589
a(S'finishing'
p3590
I2
tp3591
a(S'fluids'
p3592
I2
tp3593
a(S'fock'
p3594
I2
tp3595
a(S'focused'
p3596
I2
tp3597
a(S'follwed'
p3598
I2
tp3599
a(S'foolish'
p3600
I2
tp3601
a(S'forces'
p3602
I2
tp3603
a(S'fortunately'
p3604
I2
tp3605
a(S'foward'
p3606
I2
tp3607
a(S'friendly'
p3608
I2
tp3609
a(S'fruit'
p3610
I2
tp3611
a(S'fun'
p3612
I2
tp3613
a(S'functioning'
p3614
I2
tp3615
a(S'funny'
p3616
I2
tp3617
a(S'furthered'
p3618
I2
tp3619
a(S'futher'
p3620
I2
tp3621
a(S'gained'
p3622
I2
tp3623
a(S'gas'
p3624
I2
tp3625
a(S'gear'
p3626
I2
tp3627
a(S'gentleman'
p3628
I2
tp3629
a(S'gently'
p3630
I2
tp3631
a(S'glad'
p3632
I2
tp3633
a(S'goals'
p3634
I2
tp3635
a(S'granted'
p3636
I2
tp3637
a(S'grass'
p3638
I2
tp3639
a(S'greatlly'
p3640
I2
tp3641
a(S'greatly.the'
p3642
I2
tp3643
a(S'green'
p3644
I2
tp3645
a(S'grow'
p3646
I2
tp3647
a(S'grueling'
p3648
I2
tp3649
a(S'grveling'
p3650
I2
tp3651
a(S'guess'
p3652
I2
tp3653
a(S"hadn't"
p3654
I2
tp3655
a(S'hadnt'
p3656
I2
tp3657
a(S'halfway'
p3658
I2
tp3659
a(S'handed'
p3660
I2
tp3661
a(S'happen.in'
p3662
I2
tp3663
a(S'hapy'
p3664
I2
tp3665
a(S'hard.the'
p3666
I2
tp3667
a(S'harder.the'
p3668
I2
tp3669
a(S'hardship'
p3670
I2
tp3671
a(S"haven't"
p3672
I2
tp3673
a(S'haw'
p3674
I2
tp3675
a(S"he'd"
p3676
I2
tp3677
a(S'heading'
p3678
I2
tp3679
a(S'head\x94'
p3680
I2
tp3681
a(S'health'
p3682
I2
tp3683
a(S'heating'
p3684
I2
tp3685
a(S'heatsroke'
p3686
I2
tp3687
a(S'heatstroke,\x94'
p3688
I2
tp3689
a(S'hed'
p3690
I2
tp3691
a(S'helpful'
p3692
I2
tp3693
a(S'helpless'
p3694
I2
tp3695
a(S'higher'
p3696
I2
tp3697
a(S'hills-all'
p3698
I2
tp3699
a(S'him.there'
p3700
I2
tp3701
a(S'himself.the'
p3702
I2
tp3703
a(S'hinder'
p3704
I2
tp3705
a(S'hinting'
p3706
I2
tp3707
a(S'his/her'
p3708
I2
tp3709
a(S'honeycombs'
p3710
I2
tp3711
a(S'hoped'
p3712
I2
tp3713
a(S'hopeful'
p3714
I2
tp3715
a(S'hope\x94'
p3716
I2
tp3717
a(S'hopless'
p3718
I2
tp3719
a(S'hoppy'
p3720
I2
tp3721
a(S'hot.in'
p3722
I2
tp3723
a(S'hoter'
p3724
I2
tp3725
a(S'hott'
p3726
I2
tp3727
a(S'humanity'
p3728
I2
tp3729
a(S'humidity'
p3730
I2
tp3731
a(S'humor'
p3732
I2
tp3733
a(S'hurry'
p3734
I2
tp3735
a(S'ideas'
p3736
I2
tp3737
a(S'ignore'
p3738
I2
tp3739
a(S'immense'
p3740
I2
tp3741
a(S'implied'
p3742
I2
tp3743
a(S'implies'
p3744
I2
tp3745
a(S'importance'
p3746
I2
tp3747
a(S'incline'
p3748
I2
tp3749
a(S'include'
p3750
I2
tp3751
a(S'included'
p3752
I2
tp3753
a(S'inconvenient'
p3754
I2
tp3755
a(S'increasing'
p3756
I2
tp3757
a(S'indeed'
p3758
I2
tp3759
a(S'infer'
p3760
I2
tp3761
a(S'info'
p3762
I2
tp3763
a(S'insane'
p3764
I2
tp3765
a(S'instructions'
p3766
I2
tp3767
a(S'intensity'
p3768
I2
tp3769
a(S'inthe'
p3770
I2
tp3771
a(S'intimidating'
p3772
I2
tp3773
a(S'involved'
p3774
I2
tp3775
a(S'ironic'
p3776
I2
tp3777
a(S'isnt'
p3778
I2
tp3779
a(S'issue'
p3780
I2
tp3781
a(S'it.in'
p3782
I2
tp3783
a(S'journal'
p3784
I2
tp3785
a(S'joyful'
p3786
I2
tp3787
a(S'juice\x94'
p3788
I2
tp3789
a(S'june.the'
p3790
I2
tp3791
a(S'killing'
p3792
I2
tp3793
a(S'known'
p3794
I2
tp3795
a(S'kurmaskie)'
p3796
I2
tp3797
a(S'lacked'
p3798
I2
tp3799
a(S'lakes'
p3800
I2
tp3801
a(S'landed'
p3802
I2
tp3803
a(S'larger'
p3804
I2
tp3805
a(S'largest'
p3806
I2
tp3807
a(S'laughing'
p3808
I2
tp3809
a(S'laughs'
p3810
I2
tp3811
a(S'laying'
p3812
I2
tp3813
a(S'learns'
p3814
I2
tp3815
a(S'lent'
p3816
I2
tp3817
a(S'level'
p3818
I2
tp3819
a(S'life.the'
p3820
I2
tp3821
a(S"limit,''"
p3822
I2
tp3823
a(S'limit.the'
p3824
I2
tp3825
a(S'limit.\x94the'
p3826
I2
tp3827
a(S'limite'
p3828
I2
tp3829
a(S'ling'
p3830
I2
tp3831
a(S'literally'
p3832
I2
tp3833
a(S'lived'
p3834
I2
tp3835
a(S'lives'
p3836
I2
tp3837
a(S'load'
p3838
I2
tp3839
a(S'loose'
p3840
I2
tp3841
a(S'loosing'
p3842
I2
tp3843
a(S'lossing'
p3844
I2
tp3845
a(S'lot.the'
p3846
I2
tp3847
a(S'lucky'
p3848
I2
tp3849
a(S'lush'
p3850
I2
tp3851
a(S'mainly'
p3852
I2
tp3853
a(S'majorly'
p3854
I2
tp3855
a(S'makeing'
p3856
I2
tp3857
a(S'mans'
p3858
I2
tp3859
a(S'manuver'
p3860
I2
tp3861
a(S'map.the'
p3862
I2
tp3863
a(S'map.\x94'
p3864
I2
tp3865
a(S'me.\x94the'
p3866
I2
tp3867
a(S'men.the'
p3868
I2
tp3869
a(S'mens'
p3870
I2
tp3871
a(S'messed'
p3872
I2
tp3873
a(S'metaphorical'
p3874
I2
tp3875
a(S'mild'
p3876
I2
tp3877
a(S'miles.\x94'
p3878
I2
tp3879
a(S'mirage.the'
p3880
I2
tp3881
a(S'misleading'
p3882
I2
tp3883
a(S'months'
p3884
I2
tp3885
a(S'mood.the'
p3886
I2
tp3887
a(S'mother'
p3888
I2
tp3889
a(S'motivation'
p3890
I2
tp3891
a(S'mountians'
p3892
I2
tp3893
a(S'mouth,\x94'
p3894
I2
tp3895
a(S'mouth\x94'
p3896
I2
tp3897
a(S'mule\x94'
p3898
I2
tp3899
a(S'navigate'
p3900
I2
tp3901
a(S'nearby'
p3902
I2
tp3903
a(S'nobody\x92s'
p3904
I2
tp3905
a(S'noon'
p3906
I2
tp3907
a(S'normal'
p3908
I2
tp3909
a(S'note'
p3910
I2
tp3911
a(S'num1).the'
p3912
I2
tp3913
a(S'numerous'
p3914
I2
tp3915
a(S'objects'
p3916
I2
tp3917
a(S'obsticales'
p3918
I2
tp3919
a(S'obsticle'
p3920
I2
tp3921
a(S'obvious'
p3922
I2
tp3923
a(S'occur'
p3924
I2
tp3925
a(S'office,\x94'
p3926
I2
tp3927
a(S'oldmen'
p3928
I2
tp3929
a(S'one.the'
p3930
I2
tp3931
a(S'ones'
p3932
I2
tp3933
a(S'onto'
p3934
I2
tp3935
a(S'opened'
p3936
I2
tp3937
a(S'optical'
p3938
I2
tp3939
a(S'optimistic'
p3940
I2
tp3941
a(S'optomistic'
p3942
I2
tp3943
a(S'ordeal'
p3944
I2
tp3945
a(S'out-dated'
p3946
I2
tp3947
a(S'outcome'
p3948
I2
tp3949
a(S'outdoor'
p3950
I2
tp3951
a(S'overjoyed'
p3952
I2
tp3953
a(S'owner'
p3954
I2
tp3955
a(S'page'
p3956
I2
tp3957
a(S'palce'
p3958
I2
tp3959
a(S'particular'
p3960
I2
tp3961
a(S'paved'
p3962
I2
tp3963
a(S'peace'
p3964
I2
tp3965
a(S'pedaled'
p3966
I2
tp3967
a(S'pedals'
p3968
I2
tp3969
a(S'peddle'
p3970
I2
tp3971
a(S'pedeling'
p3972
I2
tp3973
a(S'pedling'
p3974
I2
tp3975
a(S'per'
p3976
I2
tp3977
a(S'performance'
p3978
I2
tp3979
a(S'perilous'
p3980
I2
tp3981
a(S'persevered'
p3982
I2
tp3983
a(S'phase'
p3984
I2
tp3985
a(S'photograph'
p3986
I2
tp3987
a(S'phyisicly'
p3988
I2
tp3989
a(S'physicly'
p3990
I2
tp3991
a(S'pictures'
p3992
I2
tp3993
a(S'pitty'
p3994
I2
tp3995
a(S'planned'
p3996
I2
tp3997
a(S'plant.\x94'
p3998
I2
tp3999
a(S'plant\x94'
p4000
I2
tp4001
a(S'point.the'
p4002
I2
tp4003
a(S'points'
p4004
I2
tp4005
a(S'portray'
p4006
I2
tp4007
a(S'positively'
p4008
I2
tp4009
a(S'potentially'
p4010
I2
tp4011
a(S'pours'
p4012
I2
tp4013
a(S'practically'
p4014
I2
tp4015
a(S'prepares'
p4016
I2
tp4017
a(S'pride'
p4018
I2
tp4019
a(S'problems.the'
p4020
I2
tp4021
a(S'process'
p4022
I2
tp4023
a(S'progressed'
p4024
I2
tp4025
a(S'progressively'
p4026
I2
tp4027
a(S'protagonist'
p4028
I2
tp4029
a(S'proved'
p4030
I2
tp4031
a(S'provided'
p4032
I2
tp4033
a(S'pulled'
p4034
I2
tp4035
a(S'pulls'
p4036
I2
tp4037
a(S'pumps\x94'
p4038
I2
tp4039
a(S'pushes'
p4040
I2
tp4041
a(S'putting'
p4042
I2
tp4043
a(S'ram'
p4044
I2
tp4045
a(S'ramshackleshed'
p4046
I2
tp4047
a(S'reacts'
p4048
I2
tp4049
a(S'realitic'
p4050
I2
tp4051
a(S'reality'
p4052
I2
tp4053
a(S'reflect'
p4054
I2
tp4055
a(S'regreted'
p4056
I2
tp4057
a(S'regretted'
p4058
I2
tp4059
a(S'reguarly'
p4060
I2
tp4061
a(S'rehydrate'
p4062
I2
tp4063
a(S'rehydrated'
p4064
I2
tp4065
a(S'relax'
p4066
I2
tp4067
a(S'remained'
p4068
I2
tp4069
a(S'remarks'
p4070
I2
tp4071
a(S'reminding'
p4072
I2
tp4073
a(S'renewed'
p4074
I2
tp4075
a(S'replace'
p4076
I2
tp4077
a(S'replenished'
p4078
I2
tp4079
a(S'reservoir'
p4080
I2
tp4081
a(S'resort'
p4082
I2
tp4083
a(S'reward'
p4084
I2
tp4085
a(S'rid'
p4086
I2
tp4087
a(S'rideing'
p4088
I2
tp4089
a(S'rises'
p4090
I2
tp4091
a(S'rising'
p4092
I2
tp4093
a(S'rivers\x94'
p4094
I2
tp4095
a(S'river\x94'
p4096
I2
tp4097
a(S'rodes'
p4098
I2
tp4099
a(S'roll'
p4100
I2
tp4101
a(S'roughness'
p4102
I2
tp4103
a(S'rounding'
p4104
I2
tp4105
a(S'ruined'
p4106
I2
tp4107
a(S'safely'
p4108
I2
tp4109
a(S'sas'
p4110
I2
tp4111
a(S'scare'
p4112
I2
tp4113
a(S'scares'
p4114
I2
tp4115
a(S'scene'
p4116
I2
tp4117
a(S'secure'
p4118
I2
tp4119
a(S'seen\x94'
p4120
I2
tp4121
a(S'selection'
p4122
I2
tp4123
a(S'self-pitty'
p4124
I2
tp4125
a(S'senery'
p4126
I2
tp4127
a(S'serenity'
p4128
I2
tp4129
a(S'serve'
p4130
I2
tp4131
a(S'seting'
p4132
I2
tp4133
a(S'shiny'
p4134
I2
tp4135
a(S'shop.in'
p4136
I2
tp4137
a(S'shortness'
p4138
I2
tp4139
a(S'shot'
p4140
I2
tp4141
a(S'sigh'
p4142
I2
tp4143
a(S'sink.\x94'
p4144
I2
tp4145
a(S'situation.the'
p4146
I2
tp4147
a(S'slippery'
p4148
I2
tp4149
a(S'smoky'
p4150
I2
tp4151
a(S'snack'
p4152
I2
tp4153
a(S'snowing'
p4154
I2
tp4155
a(S'somebody'
p4156
I2
tp4157
a(S'son'
p4158
I2
tp4159
a(S'sounded'
p4160
I2
tp4161
a(S'sounding'
p4162
I2
tp4163
a(S'sources'
p4164
I2
tp4165
a(S'speaker\x92s'
p4166
I2
tp4167
a(S'spend'
p4168
I2
tp4169
a(S'spoke'
p4170
I2
tp4171
a(S'sport'
p4172
I2
tp4173
a(S'stage'
p4174
I2
tp4175
a(S'starters'
p4176
I2
tp4177
a(S'stating'
p4178
I2
tp4179
a(S'station'
p4180
I2
tp4181
a(S'stock'
p4182
I2
tp4183
a(S'stone'
p4184
I2
tp4185
a(S'stoped'
p4186
I2
tp4187
a(S'stranded'
p4188
I2
tp4189
a(S'strat'
p4190
I2
tp4191
a(S'strength.\x94'
p4192
I2
tp4193
a(S'stress'
p4194
I2
tp4195
a(S'strokes'
p4196
I2
tp4197
a(S'stroke\x94'
p4198
I2
tp4199
a(S'stronger'
p4200
I2
tp4201
a(S'struck'
p4202
I2
tp4203
a(S'structures'
p4204
I2
tp4205
a(S'stumbles'
p4206
I2
tp4207
a(S'stupid'
p4208
I2
tp4209
a(S'suck'
p4210
I2
tp4211
a(S'sucks'
p4212
I2
tp4213
a(S'suddenly'
p4214
I2
tp4215
a(S'suffered'
p4216
I2
tp4217
a(S'suffers'
p4218
I2
tp4219
a(S'summary'
p4220
I2
tp4221
a(S'summertime'
p4222
I2
tp4223
a(S'sunlight'
p4224
I2
tp4225
a(S'supply.the'
p4226
I2
tp4227
a(S'supported'
p4228
I2
tp4229
a(S'surface'
p4230
I2
tp4231
a(S'surronding'
p4232
I2
tp4233
a(S'surrounded'
p4234
I2
tp4235
a(S'survive.the'
p4236
I2
tp4237
a(S'survives'
p4238
I2
tp4239
a(S'survives.the'
p4240
I2
tp4241
a(S'swallow'
p4242
I2
tp4243
a(S'sweats'
p4244
I2
tp4245
a(S'sweltering'
p4246
I2
tp4247
a(S'sworn'
p4248
I2
tp4249
a(S'symbolize'
p4250
I2
tp4251
a(S'tackle'
p4252
I2
tp4253
a(S'tale'
p4254
I2
tp4255
a(S'tar-like'
p4256
I2
tp4257
a(S'task'
p4258
I2
tp4259
a(S'taunted'
p4260
I2
tp4261
a(S'taunts'
p4262
I2
tp4263
a(S'te'
p4264
I2
tp4265
a(S'teaches'
p4266
I2
tp4267
a(S'tear'
p4268
I2
tp4269
a(S'teasing'
p4270
I2
tp4271
a(S'temp'
p4272
I2
tp4273
a(S'tempitures'
p4274
I2
tp4275
a(S'tempting'
p4276
I2
tp4277
a(S'ten'
p4278
I2
tp4279
a(S'tentalizing'
p4280
I2
tp4281
a(S'terain'
p4282
I2
tp4283
a(S'terrian'
p4284
I2
tp4285
a(S'them.in'
p4286
I2
tp4287
a(S'them.\x94'
p4288
I2
tp4289
a(S'them\x94'
p4290
I2
tp4291
a(S'there.the'
p4292
I2
tp4293
a(S"they're"
p4294
I2
tp4295
a(S'they\x92re'
p4296
I2
tp4297
a(S'thin'
p4298
I2
tp4299
a(S'thirst.\x94'
p4300
I2
tp4301
a(S'thirsty.the'
p4302
I2
tp4303
a(S'throat.\x94'
p4304
I2
tp4305
a(S'throug'
p4306
I2
tp4307
a(S'thrown'
p4308
I2
tp4309
a(S'tiered'
p4310
I2
tp4311
a(S'till'
p4312
I2
tp4313
a(S'tiredness'
p4314
I2
tp4315
a(S'tiresome'
p4316
I2
tp4317
a(S'to.the'
p4318
I2
tp4319
a(S'tools'
p4320
I2
tp4321
a(S'torture'
p4322
I2
tp4323
a(S'to\x94'
p4324
I2
tp4325
a(S'trails'
p4326
I2
tp4327
a(S'train'
p4328
I2
tp4329
a(S'tree'
p4330
I2
tp4331
a(S'trek'
p4332
I2
tp4333
a(S'tremendously'
p4334
I2
tp4335
a(S'tricks'
p4336
I2
tp4337
a(S'troubling,\x94'
p4338
I2
tp4339
a(S'troubling.\x94'
p4340
I2
tp4341
a(S'troubling\x94'
p4342
I2
tp4343
a(S'trusting'
p4344
I2
tp4345
a(S'tryed'
p4346
I2
tp4347
a(S'trys'
p4348
I2
tp4349
a(S'unberable'
p4350
I2
tp4351
a(S'uncomfortable'
p4352
I2
tp4353
a(S'unfamiliar'
p4354
I2
tp4355
a(S'unfit'
p4356
I2
tp4357
a(S'unsafe'
p4358
I2
tp4359
a(S'unsure'
p4360
I2
tp4361
a(S'unwanted'
p4362
I2
tp4363
a(S'uphill'
p4364
I2
tp4365
a(S'usally'
p4366
I2
tp4367
a(S'utterly'
p4368
I2
tp4369
a(S'vacation'
p4370
I2
tp4371
a(S'venomous'
p4372
I2
tp4373
a(S'view.\x94'
p4374
I2
tp4375
a(S'view\x94'
p4376
I2
tp4377
a(S'vision'
p4378
I2
tp4379
a(S'vivid'
p4380
I2
tp4381
a(S'vultures'
p4382
I2
tp4383
a(S'wait'
p4384
I2
tp4385
a(S'waiting'
p4386
I2
tp4387
a(S'walk'
p4388
I2
tp4389
a(S'walking'
p4390
I2
tp4391
a(S'war'
p4392
I2
tp4393
a(S'war-but'
p4394
I2
tp4395
a(S'ware'
p4396
I2
tp4397
a(S'warning'
p4398
I2
tp4399
a(S'wary'
p4400
I2
tp4401
a(S'wasen\x92t'
p4402
I2
tp4403
a(S'wasn`t'
p4404
I2
tp4405
a(S'wasted'
p4406
I2
tp4407
a(S'water-'
p4408
I2
tp4409
a(S'water.another'
p4410
I2
tp4411
a(S'waterthe'
p4412
I2
tp4413
a(S'way.the'
p4414
I2
tp4415
a(S'ways.in'
p4416
I2
tp4417
a(S"welch's"
p4418
I2
tp4419
a(S'well.the'
p4420
I2
tp4421
a(S'whatever'
p4422
I2
tp4423
a(S'what\x92s'
p4424
I2
tp4425
a(S'while.the'
p4426
I2
tp4427
a(S'who\x92s'
p4428
I2
tp4429
a(S'winter'
p4430
I2
tp4431
a(S'wishing'
p4432
I2
tp4433
a(S'wither'
p4434
I2
tp4435
a(S'within'
p4436
I2
tp4437
a(S'wont'
p4438
I2
tp4439
a(S'wore'
p4440
I2
tp4441
a(S'worrying'
p4442
I2
tp4443
a(S'wound'
p4444
I2
tp4445
a(S'wrong.in'
p4446
I2
tp4447
a(S'years.the'
p4448
I2
tp4449
a(S'yosemite.in'
p4450
I2
tp4451
a(S'yosemite.\x94'
p4452
I2
tp4453
a(S'youth'
p4454
I2
tp4455
a(S'zoo'
p4456
I2
tp4457
a(S'\x91because'
p4458
I2
tp4459
a(S'\x91do'
p4460
I2
tp4461
a(S'\x93(kurmaskie)'
p4462
I2
tp4463
a(S'\x93crippling\x94'
p4464
I2
tp4465
a(S'\x93haven\x92t'
p4466
I2
tp4467
a(S'\x93he'
p4468
I2
tp4469
a(S'\x93my'
p4470
I2
tp4471
a(S'\x93rattled'
p4472
I2
tp4473
a(S'\x93rode'
p4474
I2
tp4475
a(S'\x93rolling'
p4476
I2
tp4477
a(S'\x93summer'
p4478
I2
tp4479
a(S'\x93sun'
p4480
I2
tp4481
a(S'\x93things'
p4482
I2
tp4483
a(S'\x93to'
p4484
I2
tp4485
a(S'\x93travelling'
p4486
I2
tp4487
a(S'\x93tumbleweeds'
p4488
I2
tp4489
a(S'\x93tumbleweeds\x94'
p4490
I2
tp4491
a(S'\x93twenty'
p4492
I2
tp4493
a(S'\x93was'
p4494
I2
tp4495
a(S'\x93water'
p4496
I2
tp4497
a(S'\x93welch\x92s'
p4498
I2
tp4499
a(S'\x93young'
p4500
I2
tp4501
a(S'\x94i'
p4502
I2
tp4503
a(S'!'
I1
tp4504
a(S'$'
I1
tp4505
a(S"''...arrived"
p4506
I1
tp4507
a(S"''by"
p4508
I1
tp4509
a(S"''do"
p4510
I1
tp4511
a(S"''never"
p4512
I1
tp4513
a(S"''one"
p4514
I1
tp4515
a(S"''over"
p4516
I1
tp4517
a(S"''sometimes"
p4518
I1
tp4519
a(S"''summer"
p4520
I1
tp4521
a(S"''that"
p4522
I1
tp4523
a(S"''the"
p4524
I1
tp4525
a(S"''when"
p4526
I1
tp4527
a(S"''wide"
p4528
I1
tp4529
a(S"'since"
p4530
I1
tp4531
a(S'(@caps1'
p4532
I1
tp4533
a(S'(@caps1).\x94'
p4534
I1
tp4535
a(S'(@num1'
p4536
I1
tp4537
a(S'(@num3)'
p4538
I1
tp4539
a(S'(@num4)'
p4540
I1
tp4541
a(S'(abandoned'
p4542
I1
tp4543
a(S'(and)'
p4544
I1
tp4545
a(S'(cyclist)'
p4546
I1
tp4547
a(S'(drinking)'
p4548
I1
tp4549
a(S'(he)'
p4550
I1
tp4551
a(S'(his)'
p4552
I1
tp4553
a(S'(ister)'
p4554
I1
tp4555
a(S'(joe'
p4556
I1
tp4557
a(S'(kermaskie'
p4558
I1
tp4559
a(S'(kurmaskie).not'
p4560
I1
tp4561
a(S'(of'
p4562
I1
tp4563
a(S'(page'
p4564
I1
tp4565
a(S'(using'
p4566
I1
tp4567
a(S'(when'
p4568
I1
tp4569
a(S'(which'
p4570
I1
tp4571
a(S'*'
I1
tp4572
a(S'/'
I1
tp4573
a(S';'
I1
tp4574
a(S'?'
I1
tp4575
a(S'??.????'
p4576
I1
tp4577
a(S'???.the'
p4578
I1
tp4579
a(S'???.there'
p4580
I1
tp4581
a(S'????'
p4582
I1
tp4583
a(S'?????'
p4584
I1
tp4585
a(S'???????????'
p4586
I1
tp4587
a(S'???at'
p4588
I1
tp4589
a(S'???in'
p4590
I1
tp4591
a(S'[and]'
p4592
I1
tp4593
a(S'[began]'
p4594
I1
tp4595
a(S'[being]'
p4596
I1
tp4597
a(S'[he\x92d]'
p4598
I1
tp4599
a(S'[himself]'
p4600
I1
tp4601
a(S'[the'
p4602
I1
tp4603
a(S'a,\x93ridiculously'
p4604
I1
tp4605
a(S'abait'
p4606
I1
tp4607
a(S'abandoned,it'
p4608
I1
tp4609
a(S'abandoness'
p4610
I1
tp4611
a(S'abandured'
p4612
I1
tp4613
a(S'abanodoned'
p4614
I1
tp4615
a(S'abd'
p4616
I1
tp4617
a(S'abide'
p4618
I1
tp4619
a(S'abilitiesthe'
p4620
I1
tp4621
a(S'ability.in'
p4622
I1
tp4623
a(S'abondered'
p4624
I1
tp4625
a(S'abondored'
p4626
I1
tp4627
a(S'abounded'
p4628
I1
tp4629
a(S'about.the'
p4630
I1
tp4631
a(S'absolutely'
p4632
I1
tp4633
a(S'abundanded'
p4634
I1
tp4635
a(S'abundant'
p4636
I1
tp4637
a(S'abut'
p4638
I1
tp4639
a(S'acceded'
p4640
I1
tp4641
a(S'accomplish'
p4642
I1
tp4643
a(S'accomplishment'
p4644
I1
tp4645
a(S'accordance'
p4646
I1
tp4647
a(S'accoutered'
p4648
I1
tp4649
a(S'accrossed'
p4650
I1
tp4651
a(S'ache;'
p4652
I1
tp4653
a(S'achieve'
p4654
I1
tp4655
a(S'achievement'
p4656
I1
tp4657
a(S'achive'
p4658
I1
tp4659
a(S'acid,\x94'
p4660
I1
tp4661
a(S'acid.the'
p4662
I1
tp4663
a(S'acid.then'
p4664
I1
tp4665
a(S'acid.when'
p4666
I1
tp4667
a(S'acid.\x92\x92'
p4668
I1
tp4669
a(S'acidic'
p4670
I1
tp4671
a(S'acid\x93'
p4672
I1
tp4673
a(S'acknowledged'
p4674
I1
tp4675
a(S'acknowledges'
p4676
I1
tp4677
a(S'across.in'
p4678
I1
tp4679
a(S'acsess'
p4680
I1
tp4681
a(S'actaire.dry'
p4682
I1
tp4683
a(S'action'
p4684
I1
tp4685
a(S'actions'
p4686
I1
tp4687
a(S'active'
p4688
I1
tp4689
a(S'acts'
p4690
I1
tp4691
a(S'actual'
p4692
I1
tp4693
a(S'actualy'
p4694
I1
tp4695
a(S'acused'
p4696
I1
tp4697
a(S'adaodoned.the'
p4698
I1
tp4699
a(S'adaodoness'
p4700
I1
tp4701
a(S'adapt'
p4702
I1
tp4703
a(S'additionally'
p4704
I1
tp4705
a(S'adds,and'
p4706
I1
tp4707
a(S'adhere'
p4708
I1
tp4709
a(S'adiamond'
p4710
I1
tp4711
a(S'adised'
p4712
I1
tp4713
a(S'adjectives'
p4714
I1
tp4715
a(S'adon\x92t'
p4716
I1
tp4717
a(S'advanage'
p4718
I1
tp4719
a(S'advance'
p4720
I1
tp4721
a(S'advanced'
p4722
I1
tp4723
a(S'adventure.in'
p4724
I1
tp4725
a(S'adventures'
p4726
I1
tp4727
a(S'adventure\x94'
p4728
I1
tp4729
a(S'adversely'
p4730
I1
tp4731
a(S'adversities'
p4732
I1
tp4733
a(S'adversity.in'
p4734
I1
tp4735
a(S'advertised'
p4736
I1
tp4737
a(S'advice.the'
p4738
I1
tp4739
a(S'adviced'
p4740
I1
tp4741
a(S'aern\x92t'
p4742
I1
tp4743
a(S'afaid'
p4744
I1
tp4745
a(S'afect'
p4746
I1
tp4747
a(S'afew'
p4748
I1
tp4749
a(S'affectd'
p4750
I1
tp4751
a(S'affectes'
p4752
I1
tp4753
a(S'affective'
p4754
I1
tp4755
a(S'affective.the'
p4756
I1
tp4757
a(S'affectively'
p4758
I1
tp4759
a(S'affects.the'
p4760
I1
tp4761
a(S'affeted'
p4762
I1
tp4763
a(S'affets'
p4764
I1
tp4765
a(S'affore'
p4766
I1
tp4767
a(S'afterward'
p4768
I1
tp4769
a(S'again.being'
p4770
I1
tp4771
a(S'again.the'
p4772
I1
tp4773
a(S'againg'
p4774
I1
tp4775
a(S'agasint'
p4776
I1
tp4777
a(S'age'
p4778
I1
tp4779
a(S'ages'
p4780
I1
tp4781
a(S'agrees.the'
p4782
I1
tp4783
a(S'ahad'
p4784
I1
tp4785
a(S"ahead''"
p4786
I1
tp4787
a(S'ahead.the'
p4788
I1
tp4789
a(S'ahead.\x94the'
p4790
I1
tp4791
a(S'ahead;do'
p4792
I1
tp4793
a(S'aiding'
p4794
I1
tp4795
a(S'al'
p4796
I1
tp4797
a(S'alamond'
p4798
I1
tp4799
a(S'alaska'
p4800
I1
tp4801
a(S'alatining'
p4802
I1
tp4803
a(S'albeit'
p4804
I1
tp4805
a(S'alike'
p4806
I1
tp4807
a(S'alittle'
p4808
I1
tp4809
a(S'alone.from'
p4810
I1
tp4811
a(S'alongride'
p4812
I1
tp4813
a(S'alongside'
p4814
I1
tp4815
a(S'alos'
p4816
I1
tp4817
a(S'alright'
p4818
I1
tp4819
a(S'altered'
p4820
I1
tp4821
a(S'altermmation'
p4822
I1
tp4823
a(S'altitude'
p4824
I1
tp4825
a(S'altogether'
p4826
I1
tp4827
a(S"alway's"
p4828
I1
tp4829
a(S'amajor'
p4830
I1
tp4831
a(S'american'
p4832
I1
tp4833
a(S'amiss'
p4834
I1
tp4835
a(S'ammount'
p4836
I1
tp4837
a(S'amplifies'
p4838
I1
tp4839
a(S'amplifys'
p4840
I1
tp4841
a(S'amuses'
p4842
I1
tp4843
a(S'ananger'
p4844
I1
tp4845
a(S'andhes'
p4846
I1
tp4847
a(S'andin'
p4848
I1
tp4849
a(S'anduous'
p4850
I1
tp4851
a(S'answers'
p4852
I1
tp4853
a(S'anthor'
p4854
I1
tp4855
a(S'anty'
p4856
I1
tp4857
a(S'anxiety'
p4858
I1
tp4859
a(S'anxiousness'
p4860
I1
tp4861
a(S'anymoe'
p4862
I1
tp4863
a(S'anymore.in'
p4864
I1
tp4865
a(S'anyone\x92s'
p4866
I1
tp4867
a(S'anything!'
p4868
I1
tp4869
a(S'anything.how'
p4870
I1
tp4871
a(S'anything.the'
p4872
I1
tp4873
a(S'anytime'
p4874
I1
tp4875
a(S'anywere'
p4876
I1
tp4877
a(S'apebble'
p4878
I1
tp4879
a(S'apirean'
p4880
I1
tp4881
a(S'apointed'
p4882
I1
tp4883
a(S'apon'
p4884
I1
tp4885
a(S'apparent'
p4886
I1
tp4887
a(S'appearing'
p4888
I1
tp4889
a(S'appert'
p4890
I1
tp4891
a(S'applauds'
p4892
I1
tp4893
a(S'appointment'
p4894
I1
tp4895
a(S'appreciated'
p4896
I1
tp4897
a(S'approached'
p4898
I1
tp4899
a(S'are.that'
p4900
I1
tp4901
a(S'area.the'
p4902
I1
tp4903
a(S'aridity'
p4904
I1
tp4905
a(S'arising'
p4906
I1
tp4907
a(S'arive'
p4908
I1
tp4909
a(S'arn\x92t'
p4910
I1
tp4911
a(S'arore'
p4912
I1
tp4913
a(S'aroun'
p4914
I1
tp4915
a(S'around.in'
p4916
I1
tp4917
a(S'around.the'
p4918
I1
tp4919
a(S'arrest'
p4920
I1
tp4921
a(S'arrested'
p4922
I1
tp4923
a(S'arround'
p4924
I1
tp4925
a(S'artifacts'
p4926
I1
tp4927
a(S'arundown'
p4928
I1
tp4929
a(S'ascedent'
p4930
I1
tp4931
a(S'assault'
p4932
I1
tp4933
a(S'assertion'
p4934
I1
tp4935
a(S'assistance'
p4936
I1
tp4937
a(S'assured'
p4938
I1
tp4939
a(S'astonished'
p4940
I1
tp4941
a(S'atm.\x94'
p4942
I1
tp4943
a(S'attack'
p4944
I1
tp4945
a(S'attention'
p4946
I1
tp4947
a(S'atthat'
p4948
I1
tp4949
a(S'attitude.the'
p4950
I1
tp4951
a(S'attiude.the'
p4952
I1
tp4953
a(S'attracted'
p4954
I1
tp4955
a(S'at\x94'
p4956
I1
tp4957
a(S'augsosted'
p4958
I1
tp4959
a(S'auther'
p4960
I1
tp4961
a(S'author.the'
p4962
I1
tp4963
a(S'authours'
p4964
I1
tp4965
a(S'average'
p4966
I1
tp4967
a(S'avoided'
p4968
I1
tp4969
a(S'avoided.the'
p4970
I1
tp4971
a(S'await'
p4972
I1
tp4973
a(S'awareness'
p4974
I1
tp4975
a(S'awhile'
p4976
I1
tp4977
a(S'azyl'
p4978
I1
tp4979
a(S'ba'
p4980
I1
tp4981
a(S'bacames'
p4982
I1
tp4983
a(S'back-beaked'
p4984
I1
tp4985
a(S'back.the'
p4986
I1
tp4987
a(S'backin'
p4988
I1
tp4989
a(S'bad.the'
p4990
I1
tp4991
a(S'bad.throughout'
p4992
I1
tp4993
a(S'bag'
p4994
I1
tp4995
a(S'baidi'
p4996
I1
tp4997
a(S'bairly'
p4998
I1
tp4999
a(S'baits'
p5000
I1
tp5001
a(S'bait\x94'
p5002
I1
tp5003
a(S'bake'
p5004
I1
tp5005
a(S'balanc'
p5006
I1
tp5007
a(S'balancing'
p5008
I1
tp5009
a(S'balinc'
p5010
I1
tp5011
a(S'bandoned'
p5012
I1
tp5013
a(S'barin'
p5014
I1
tp5015
a(S'barley'
p5016
I1
tp5017
a(S'barron'
p5018
I1
tp5019
a(S'bate'
p5020
I1
tp5021
a(S'batey'
p5022
I1
tp5023
a(S'bathroom.hot'
p5024
I1
tp5025
a(S'bathroom\x94'
p5026
I1
tp5027
a(S'battery-acid'
p5028
I1
tp5029
a(S'battle'
p5030
I1
tp5031
a(S'bcouse'
p5032
I1
tp5033
a(S'be.[temperature]a'
p5034
I1
tp5035
a(S'be.on'
p5036
I1
tp5037
a(S'be.the'
p5038
I1
tp5039
a(S'beacon'
p5040
I1
tp5041
a(S'bealy'
p5042
I1
tp5043
a(S'beam'
p5044
I1
tp5045
a(S'beamed'
p5046
I1
tp5047
a(S'bearing'
p5048
I1
tp5049
a(S'beast'
p5050
I1
tp5051
a(S'beat-up'
p5052
I1
tp5053
a(S'beatdown...\x94'
p5054
I1
tp5055
a(S'beats'
p5056
I1
tp5057
a(S'beatterly'
p5058
I1
tp5059
a(S'beaty'
p5060
I1
tp5061
a(S'becase'
p5062
I1
tp5063
a(S'becasse'
p5064
I1
tp5065
a(S'becaused'
p5066
I1
tp5067
a(S'beceuse'
p5068
I1
tp5069
a(S'becuse'
p5070
I1
tp5071
a(S'beed'
p5072
I1
tp5073
a(S'begar'
p5074
I1
tp5075
a(S'beginining'
p5076
I1
tp5077
a(S'behave'
p5078
I1
tp5079
a(S'behaves'
p5080
I1
tp5081
a(S'belied'
p5082
I1
tp5083
a(S'beneath'
p5084
I1
tp5085
a(S'benefited'
p5086
I1
tp5087
a(S'benefiting'
p5088
I1
tp5089
a(S'bent'
p5090
I1
tp5091
a(S'bes'
p5092
I1
tp5093
a(S'besides'
p5094
I1
tp5095
a(S'bet'
p5096
I1
tp5097
a(S'beth'
p5098
I1
tp5099
a(S'better.the'
p5100
I1
tp5101
a(S'beyond'
p5102
I1
tp5103
a(S'bicicle'
p5104
I1
tp5105
a(S'bicycling'
p5106
I1
tp5107
a(S'bike,which'
p5108
I1
tp5109
a(S'bike-ridden'
p5110
I1
tp5111
a(S'bike-ride.the'
p5112
I1
tp5113
a(S'bike.in'
p5114
I1
tp5115
a(S'bike.snake'
p5116
I1
tp5117
a(S'bikeride'
p5118
I1
tp5119
a(S'birds.in'
p5120
I1
tp5121
a(S'biten'
p5122
I1
tp5123
a(S'biter'
p5124
I1
tp5125
a(S'bitten'
p5126
I1
tp5127
a(S'blacked'
p5128
I1
tp5129
a(S'blacks'
p5130
I1
tp5131
a(S'blame'
p5132
I1
tp5133
a(S'blaring'
p5134
I1
tp5135
a(S'blindly'
p5136
I1
tp5137
a(S'blistering'
p5138
I1
tp5139
a(S'block'
p5140
I1
tp5141
a(S'blockings'
p5142
I1
tp5143
a(S'blocks'
p5144
I1
tp5145
a(S'board'
p5146
I1
tp5147
a(S'boards'
p5148
I1
tp5149
a(S'body.the'
p5150
I1
tp5151
a(S'boldly'
p5152
I1
tp5153
a(S'bond'
p5154
I1
tp5155
a(S'bones'
p5156
I1
tp5157
a(S'books'
p5158
I1
tp5159
a(S'boosted'
p5160
I1
tp5161
a(S'bor'
p5162
I1
tp5163
a(S'borely'
p5164
I1
tp5165
a(S'boring'
p5166
I1
tp5167
a(S'born'
p5168
I1
tp5169
a(S'botha'
p5170
I1
tp5171
a(S'bothe'
p5172
I1
tp5173
a(S'bothered'
p5174
I1
tp5175
a(S'bothering'
p5176
I1
tp5177
a(S'bothers'
p5178
I1
tp5179
a(S'botlle'
p5180
I1
tp5181
a(S'botting'
p5182
I1
tp5183
a(S'bottle.at'
p5184
I1
tp5185
a(S'bottle.the'
p5186
I1
tp5187
a(S'bottlethe'
p5188
I1
tp5189
a(S'bought'
p5190
I1
tp5191
a(S'boulder'
p5192
I1
tp5193
a(S'bound'
p5194
I1
tp5195
a(S'boundarys'
p5196
I1
tp5197
a(S'brain\x94'
p5198
I1
tp5199
a(S'brake'
p5200
I1
tp5201
a(S'brakish'
p5202
I1
tp5203
a(S'brang'
p5204
I1
tp5205
a(S'bravely'
p5206
I1
tp5207
a(S'breaks'
p5208
I1
tp5209
a(S'breakway'
p5210
I1
tp5211
a(S'brely'
p5212
I1
tp5213
a(S'brief'
p5214
I1
tp5215
a(S'brilliant'
p5216
I1
tp5217
a(S'brung'
p5218
I1
tp5219
a(S'brutal'
p5220
I1
tp5221
a(S'bud'
p5222
I1
tp5223
a(S'buildings,\x94'
p5224
I1
tp5225
a(S'builiding;'
p5226
I1
tp5227
a(S'builing'
p5228
I1
tp5229
a(S'built'
p5230
I1
tp5231
a(S'buliding'
p5232
I1
tp5233
a(S'bulidings'
p5234
I1
tp5235
a(S'bumpily'
p5236
I1
tp5237
a(S'bumply'
p5238
I1
tp5239
a(S'bumpsy'
p5240
I1
tp5241
a(S'bus'
p5242
I1
tp5243
a(S'busting'
p5244
I1
tp5245
a(S'butt'
p5246
I1
tp5247
a(S'buttery'
p5248
I1
tp5249
a(S'by.almost'
p5250
I1
tp5251
a(S'bycicle'
p5252
I1
tp5253
a(S'byciclist'
p5254
I1
tp5255
a(S'c'
I1
tp5256
a(S'caations'
p5257
I1
tp5258
a(S'cald'
p5259
I1
tp5260
a(S'caldnt'
p5261
I1
tp5262
a(S'califend'
p5263
I1
tp5264
a(S'californa'
p5265
I1
tp5266
a(S'california.a'
p5267
I1
tp5268
a(S'california.the'
p5269
I1
tp5270
a(S'california\x92s'
p5271
I1
tp5272
a(S'called'
p5273
I1
tp5274
a(S'calls'
p5275
I1
tp5276
a(S'calmness'
p5277
I1
tp5278
a(S'calms'
p5279
I1
tp5280
a(S'calories'
p5281
I1
tp5282
a(S'calter'
p5283
I1
tp5284
a(S'calve'
p5285
I1
tp5286
a(S'camel'
p5287
I1
tp5288
a(S'camp-if'
p5289
I1
tp5290
a(S'camp.this'
p5291
I1
tp5292
a(S'campers'
p5293
I1
tp5294
a(S'campground'
p5295
I1
tp5296
a(S'camping'
p5297
I1
tp5298
a(S'camps'
p5299
I1
tp5300
a(S'campsite'
p5301
I1
tp5302
a(S"can't"
p5303
I1
tp5304
a(S'canstrant'
p5305
I1
tp5306
a(S'capable'
p5307
I1
tp5308
a(S"caps1's"
p5309
I1
tp5310
a(S'caps1,\x94'
p5311
I1
tp5312
a(S'caps1.the'
p5313
I1
tp5314
a(S'caps1;'
p5315
I1
tp5316
a(S'caps1\x94'
p5317
I1
tp5318
a(S'caps2).\x94'
p5319
I1
tp5320
a(S'car.with'
p5321
I1
tp5322
a(S'care'
p5323
I1
tp5324
a(S'carefully'
p5325
I1
tp5326
a(S'carrol'
p5327
I1
tp5328
a(S'cased'
p5329
I1
tp5330
a(S'cations'
p5331
I1
tp5332
a(S'catus'
p5333
I1
tp5334
a(S'caueses'
p5335
I1
tp5336
a(S'caught'
p5337
I1
tp5338
a(S'caution'
p5339
I1
tp5340
a(S'cautrous'
p5341
I1
tp5342
a(S'cecilla'
p5343
I1
tp5344
a(S'center!'
p5345
I1
tp5346
a(S'ceoos'
p5347
I1
tp5348
a(S'chair'
p5349
I1
tp5350
a(S'chalange'
p5351
I1
tp5352
a(S'challamging'
p5353
I1
tp5354
a(S'chang'
p5355
I1
tp5356
a(S'change.\x94'
p5357
I1
tp5358
a(S'changed.that'
p5359
I1
tp5360
a(S'changed.the'
p5361
I1
tp5362
a(S'changes,&'
p5363
I1
tp5364
a(S'changin'
p5365
I1
tp5366
a(S'changing.\x94'
p5367
I1
tp5368
a(S'changing\x93'
p5369
I1
tp5370
a(S'character.in'
p5371
I1
tp5372
a(S'characterice'
p5373
I1
tp5374
a(S'characteristic'
p5375
I1
tp5376
a(S'characterthe'
p5377
I1
tp5378
a(S'charater'
p5379
I1
tp5380
a(S'charcters'
p5381
I1
tp5382
a(S'charge'
p5383
I1
tp5384
a(S'chase'
p5385
I1
tp5386
a(S'check'
p5387
I1
tp5388
a(S'checking'
p5389
I1
tp5390
a(S'checks'
p5391
I1
tp5392
a(S'cheerfully'
p5393
I1
tp5394
a(S'chest'
p5395
I1
tp5396
a(S'chilled'
p5397
I1
tp5398
a(S'choices'
p5399
I1
tp5400
a(S'choke'
p5401
I1
tp5402
a(S'choking'
p5403
I1
tp5404
a(S'choosing'
p5405
I1
tp5406
a(S'chose'
p5407
I1
tp5408
a(S'chosen'
p5409
I1
tp5410
a(S'chronic'
p5411
I1
tp5412
a(S'chucked'
p5413
I1
tp5414
a(S'chuckeled'
p5415
I1
tp5416
a(S'churchill'
p5417
I1
tp5418
a(S'cimate'
p5419
I1
tp5420
a(S'cings'
p5421
I1
tp5422
a(S'circulate'
p5423
I1
tp5424
a(S'circulate.\x94'
p5425
I1
tp5426
a(S'circumstances'
p5427
I1
tp5428
a(S'civilisation'
p5429
I1
tp5430
a(S'civilization.in'
p5431
I1
tp5432
a(S'civilizations'
p5433
I1
tp5434
a(S'civillesation'
p5435
I1
tp5436
a(S'claims'
p5437
I1
tp5438
a(S'clan'
p5439
I1
tp5440
a(S'clash'
p5441
I1
tp5442
a(S'clean.\x94the'
p5443
I1
tp5444
a(S'clearlier'
p5445
I1
tp5446
a(S'climbed'
p5447
I1
tp5448
a(S'cloe'
p5449
I1
tp5450
a(S'closed'
p5451
I1
tp5452
a(S'closely'
p5453
I1
tp5454
a(S'clues'
p5455
I1
tp5456
a(S'cocnlusion'
p5457
I1
tp5458
a(S'codgers,\x94'
p5459
I1
tp5460
a(S'codgers\x94'
p5461
I1
tp5462
a(S'coggers\x94'
p5463
I1
tp5464
a(S'coincide'
p5465
I1
tp5466
a(S'colapsed'
p5467
I1
tp5468
a(S'colifornia'
p5469
I1
tp5470
a(S'collapse.in'
p5471
I1
tp5472
a(S'colletion'
p5473
I1
tp5474
a(S'collide'
p5475
I1
tp5476
a(S'colonial'
p5477
I1
tp5478
a(S'color'
p5479
I1
tp5480
a(S'colorful'
p5481
I1
tp5482
a(S'colors'
p5483
I1
tp5484
a(S'combined'
p5485
I1
tp5486
a(S'comethe'
p5487
I1
tp5488
a(S'comlains'
p5489
I1
tp5490
a(S'comments'
p5491
I1
tp5492
a(S'commission'
p5493
I1
tp5494
a(S'comp'
p5495
I1
tp5496
a(S'completing'
p5497
I1
tp5498
a(S'complex'
p5499
I1
tp5500
a(S'concern'
p5501
I1
tp5502
a(S'conclude'
p5503
I1
tp5504
a(S'conclution'
p5505
I1
tp5506
a(S'condition.the'
p5507
I1
tp5508
a(S'condition\x92s'
p5509
I1
tp5510
a(S'conditon'
p5511
I1
tp5512
a(S'cones'
p5513
I1
tp5514
a(S'confessed'
p5515
I1
tp5516
a(S'confidant'
p5517
I1
tp5518
a(S'confidecnce'
p5519
I1
tp5520
a(S'confidenc'
p5521
I1
tp5522
a(S'confidently'
p5523
I1
tp5524
a(S'confidient'
p5525
I1
tp5526
a(S'confin'
p5527
I1
tp5528
a(S'confine'
p5529
I1
tp5530
a(S'confirms'
p5531
I1
tp5532
a(S'conflicting'
p5533
I1
tp5534
a(S'conflicts.the'
p5535
I1
tp5536
a(S'confront'
p5537
I1
tp5538
a(S'confronted'
p5539
I1
tp5540
a(S'confusion'
p5541
I1
tp5542
a(S'conlusio'
p5543
I1
tp5544
a(S'consciences'
p5545
I1
tp5546
a(S'consciesness'
p5547
I1
tp5548
a(S'consider'
p5549
I1
tp5550
a(S'considers'
p5551
I1
tp5552
a(S'consisted'
p5553
I1
tp5554
a(S'consists'
p5555
I1
tp5556
a(S'constintly'
p5557
I1
tp5558
a(S'consulting'
p5559
I1
tp5560
a(S'consumable'
p5561
I1
tp5562
a(S'consume'
p5563
I1
tp5564
a(S'consumption'
p5565
I1
tp5566
a(S'contact'
p5567
I1
tp5568
a(S'containe'
p5569
I1
tp5570
a(S'container'
p5571
I1
tp5572
a(S'contest'
p5573
I1
tp5574
a(S'context'
p5575
I1
tp5576
a(S'continuing'
p5577
I1
tp5578
a(S'contour'
p5579
I1
tp5580
a(S'contribute'
p5581
I1
tp5582
a(S'control.the'
p5583
I1
tp5584
a(S'controlled'
p5585
I1
tp5586
a(S'conversation'
p5587
I1
tp5588
a(S'conversing'
p5589
I1
tp5590
a(S'coolest'
p5591
I1
tp5592
a(S'cope'
p5593
I1
tp5594
a(S'coping'
p5595
I1
tp5596
a(S'coralthe'
p5597
I1
tp5598
a(S'cord'
p5599
I1
tp5600
a(S'correalates'
p5601
I1
tp5602
a(S'correct.the'
p5603
I1
tp5604
a(S'corrol'
p5605
I1
tp5606
a(S'cosines'
p5607
I1
tp5608
a(S'costs'
p5609
I1
tp5610
a(S'cotagers'
p5611
I1
tp5612
a(S'cothe'
p5613
I1
tp5614
a(S'coudnt.the'
p5615
I1
tp5616
a(S'cough'
p5617
I1
tp5618
a(S'couldn`t'
p5619
I1
tp5620
a(S'couldnt'
p5621
I1
tp5622
a(S'could\x92nt'
p5623
I1
tp5624
a(S'could\x92t'
p5625
I1
tp5626
a(S'could\x92ve'
p5627
I1
tp5628
a(S'counter'
p5629
I1
tp5630
a(S'counts.\x94'
p5631
I1
tp5632
a(S'couragious'
p5633
I1
tp5634
a(S'course)'
p5635
I1
tp5636
a(S'couse'
p5637
I1
tp5638
a(S'cowed'
p5639
I1
tp5640
a(S'crash'
p5641
I1
tp5642
a(S'crashes'
p5643
I1
tp5644
a(S'creature'
p5645
I1
tp5646
a(S'creeping'
p5647
I1
tp5648
a(S'crested'
p5649
I1
tp5650
a(S'cripppling'
p5651
I1
tp5652
a(S'criticizes'
p5653
I1
tp5654
a(S'critters'
p5655
I1
tp5656
a(S'crooked'
p5657
I1
tp5658
a(S'cropping'
p5659
I1
tp5660
a(S'cruel,\x94'
p5661
I1
tp5662
a(S"cruel.''"
p5663
I1
tp5664
a(S'cruel.the'
p5665
I1
tp5666
a(S'cruel.\x94he'
p5667
I1
tp5668
a(S'cruel\x93'
p5669
I1
tp5670
a(S'crusal'
p5671
I1
tp5672
a(S'crush'
p5673
I1
tp5674
a(S'crushes'
p5675
I1
tp5676
a(S'cry'
p5677
I1
tp5678
a(S'cue'
p5679
I1
tp5680
a(S'cup'
p5681
I1
tp5682
a(S'curious'
p5683
I1
tp5684
a(S'current'
p5685
I1
tp5686
a(S'currently'
p5687
I1
tp5688
a(S'curved'
p5689
I1
tp5690
a(S'cycalist'
p5691
I1
tp5692
a(S'cycalrst'
p5693
I1
tp5694
a(S'cycclist'
p5695
I1
tp5696
a(S'cyclcist'
p5697
I1
tp5698
a(S'cycleist\x92s'
p5699
I1
tp5700
a(S'cycler'
p5701
I1
tp5702
a(S'cyclest.the'
p5703
I1
tp5704
a(S'cyclilst'
p5705
I1
tp5706
a(S'cycling.the'
p5707
I1
tp5708
a(S'cyclisst'
p5709
I1
tp5710
a(S'cyclist,but'
p5711
I1
tp5712
a(S'cyclist.anyone'
p5713
I1
tp5714
a(S'cyclist.first'
p5715
I1
tp5716
a(S'cyclist.from'
p5717
I1
tp5718
a(S'cyclist.how'
p5719
I1
tp5720
a(S'cyclist.i'
p5721
I1
tp5722
a(S'cyclist.many'
p5723
I1
tp5724
a(S'cyclist.that'
p5725
I1
tp5726
a(S'cyclist.well'
p5727
I1
tp5728
a(S'cyclistand'
p5729
I1
tp5730
a(S'cyclistis'
p5731
I1
tp5732
a(S'cyclists.when'
p5733
I1
tp5734
a(S'cyclistsoon'
p5735
I1
tp5736
a(S'cycliststhe'
p5737
I1
tp5738
a(S'cyclistthere'
p5739
I1
tp5740
a(S'cycolist'
p5741
I1
tp5742
a(S'cylceist'
p5743
I1
tp5744
a(S'cyxlist'
p5745
I1
tp5746
a(S'daily'
p5747
I1
tp5748
a(S'dalved'
p5749
I1
tp5750
a(S'damaged'
p5751
I1
tp5752
a(S'dampen'
p5753
I1
tp5754
a(S'danger.the'
p5755
I1
tp5756
a(S'dangerais'
p5757
I1
tp5758
a(S'dangerous.a'
p5759
I1
tp5760
a(S'dangerous.the'
p5761
I1
tp5762
a(S'dangerous;'
p5763
I1
tp5764
a(S'dangerously'
p5765
I1
tp5766
a(S'dangous'
p5767
I1
tp5768
a(S'dark'
p5769
I1
tp5770
a(S'date.i'
p5771
I1
tp5772
a(S'date2'
p5773
I1
tp5774
a(S'dated'
p5775
I1
tp5776
a(S'datted.the'
p5777
I1
tp5778
a(S'daunting'
p5779
I1
tp5780
a(S'dder'
p5781
I1
tp5782
a(S'dead,either'
p5783
I1
tp5784
a(S'deal.in'
p5785
I1
tp5786
a(S'debilitating'
p5787
I1
tp5788
a(S'debris'
p5789
I1
tp5790
a(S'decade'
p5791
I1
tp5792
a(S"decades.''"
p5793
I1
tp5794
a(S'decades.\x94'
p5795
I1
tp5796
a(S'decades\x94'
p5797
I1
tp5798
a(S'declared'
p5799
I1
tp5800
a(S'decline'
p5801
I1
tp5802
a(S'decreased.he'
p5803
I1
tp5804
a(S'decreases'
p5805
I1
tp5806
a(S'defect'
p5807
I1
tp5808
a(S'defenitly'
p5809
I1
tp5810
a(S'defentily'
p5811
I1
tp5812
a(S'deffinated'
p5813
I1
tp5814
a(S'deffinitly'
p5815
I1
tp5816
a(S'defination'
p5817
I1
tp5818
a(S'definatly'
p5819
I1
tp5820
a(S'definetely'
p5821
I1
tp5822
a(S'definuntly'
p5823
I1
tp5824
a(S'degrees!'
p5825
I1
tp5826
a(S'degrees...it'
p5827
I1
tp5828
a(S'dehadrayted'
p5829
I1
tp5830
a(S'dehedrated'
p5831
I1
tp5832
a(S'dehidade'
p5833
I1
tp5834
a(S'dehidarted'
p5835
I1
tp5836
a(S'dehiderate'
p5837
I1
tp5838
a(S'dehiderated'
p5839
I1
tp5840
a(S'dehidrashion'
p5841
I1
tp5842
a(S'dehidrate'
p5843
I1
tp5844
a(S'dehidration'
p5845
I1
tp5846
a(S'dehydraded'
p5847
I1
tp5848
a(S'dehydrated.there'
p5849
I1
tp5850
a(S'dehydration.in'
p5851
I1
tp5852
a(S'dehydrationin'
p5853
I1
tp5854
a(S'dehydrtion.this'
p5855
I1
tp5856
a(S'dehydryeon'
p5857
I1
tp5858
a(S'dehygration'
p5859
I1
tp5860
a(S'dehyjradid.the'
p5861
I1
tp5862
a(S'delicacy'
p5863
I1
tp5864
a(S'delievious'
p5865
I1
tp5866
a(S'delighted'
p5867
I1
tp5868
a(S'deloshional'
p5869
I1
tp5870
a(S'demand'
p5871
I1
tp5872
a(S'demanding.the'
p5873
I1
tp5874
a(S'demon'
p5875
I1
tp5876
a(S'demonstrated'
p5877
I1
tp5878
a(S'denyarated'
p5879
I1
tp5880
a(S'dependent'
p5881
I1
tp5882
a(S'depicts'
p5883
I1
tp5884
a(S'depleated'
p5885
I1
tp5886
a(S'depleeding'
p5887
I1
tp5888
a(S'depleted'
p5889
I1
tp5890
a(S'depletion'
p5891
I1
tp5892
a(S'depress'
p5893
I1
tp5894
a(S'depressive'
p5895
I1
tp5896
a(S'deprive'
p5897
I1
tp5898
a(S'depriving'
p5899
I1
tp5900
a(S'desciption'
p5901
I1
tp5902
a(S'descriptions'
p5903
I1
tp5904
a(S'descriptions.the'
p5905
I1
tp5906
a(S'desearted'
p5907
I1
tp5908
a(S'deserats'
p5909
I1
tp5910
a(S'desert!'
p5911
I1
tp5912
a(S'desert,hegot'
p5913
I1
tp5914
a(S'desert,\x94'
p5915
I1
tp5916
a(S'desert-'
p5917
I1
tp5918
a(S'desert.according'
p5919
I1
tp5920
a(S'desert.steep'
p5921
I1
tp5922
a(S'deserted.some'
p5923
I1
tp5924
a(S'desision'
p5925
I1
tp5926
a(S'deslated'
p5927
I1
tp5928
a(S'desolated'
p5929
I1
tp5930
a(S'desolute'
p5931
I1
tp5932
a(S'despair.the'
p5933
I1
tp5934
a(S'despaire'
p5935
I1
tp5936
a(S'despairing'
p5937
I1
tp5938
a(S'despairs'
p5939
I1
tp5940
a(S'desperately'
p5941
I1
tp5942
a(S'despite'
p5943
I1
tp5944
a(S'desribes'
p5945
I1
tp5946
a(S'desserthe'
p5947
I1
tp5948
a(S'desserts\x94'
p5949
I1
tp5950
a(S'desteart'
p5951
I1
tp5952
a(S'destined'
p5953
I1
tp5954
a(S'destroyed'
p5955
I1
tp5956
a(S'detail'
p5957
I1
tp5958
a(S'detailed'
p5959
I1
tp5960
a(S'details.the'
p5961
I1
tp5962
a(S'detected'
p5963
I1
tp5964
a(S'deteriorated'
p5965
I1
tp5966
a(S'determination,you'
p5967
I1
tp5968
a(S'determined.the'
p5969
I1
tp5970
a(S'determines'
p5971
I1
tp5972
a(S'detirmined'
p5973
I1
tp5974
a(S'detorating'
p5975
I1
tp5976
a(S'devastating'
p5977
I1
tp5978
a(S'devastatingthe'
p5979
I1
tp5980
a(S'developed'
p5981
I1
tp5982
a(S'developes'
p5983
I1
tp5984
a(S'development'
p5985
I1
tp5986
a(S'devold'
p5987
I1
tp5988
a(S'deyhdrated'
p5989
I1
tp5990
a(S'dffinately'
p5991
I1
tp5992
a(S'diamondback.the'
p5993
I1
tp5994
a(S'diamondback.\x94'
p5995
I1
tp5996
a(S'diamondbrock'
p5997
I1
tp5998
a(S'diamondbuck-blooked'
p5999
I1
tp6000
a(S'diary.\x94'
p6001
I1
tp6002
a(S'dicrided'
p6003
I1
tp6004
a(S'dictates'
p6005
I1
tp6006
a(S'did.setting'
p6007
I1
tp6008
a(S'dident'
p6009
I1
tp6010
a(S'didn'
p6011
I1
tp6012
a(S'didn\x92t/couldn\x92t'
p6013
I1
tp6014
a(S'die.this'
p6015
I1
tp6016
a(S'die.\x94'
p6017
I1
tp6018
a(S'died.because'
p6019
I1
tp6020
a(S'died.in'
p6021
I1
tp6022
a(S'died.the'
p6023
I1
tp6024
a(S'diel'
p6025
I1
tp6026
a(S'dieng'
p6027
I1
tp6028
a(S'dierections'
p6029
I1
tp6030
a(S'die\x94'
p6031
I1
tp6032
a(S'diferen'
p6033
I1
tp6034
a(S'diffently.in'
p6035
I1
tp6036
a(S'differences'
p6037
I1
tp6038
a(S'different.he'
p6039
I1
tp6040
a(S'different.the'
p6041
I1
tp6042
a(S'diffuculty'
p6043
I1
tp6044
a(S'difical'
p6045
I1
tp6046
a(S'difinition'
p6047
I1
tp6048
a(S'diformed'
p6049
I1
tp6050
a(S'dig'
p6051
I1
tp6052
a(S'dihidration.no'
p6053
I1
tp6054
a(S'dihydrated'
p6055
I1
tp6056
a(S'dihydration'
p6057
I1
tp6058
a(S'dilema.\x94'
p6059
I1
tp6060
a(S'dilerious'
p6061
I1
tp6062
a(S'dimeriling'
p6063
I1
tp6064
a(S'dipleted'
p6065
I1
tp6066
a(S'diploma'
p6067
I1
tp6068
a(S'dirachion'
p6069
I1
tp6070
a(S'direcions'
p6071
I1
tp6072
a(S'direct'
p6073
I1
tp6074
a(S'direction.the'
p6075
I1
tp6076
a(S'directions!understanding'
p6077
I1
tp6078
a(S'directions.in'
p6079
I1
tp6080
a(S'directions.setting'
p6081
I1
tp6082
a(S'directios'
p6083
I1
tp6084
a(S'diredness'
p6085
I1
tp6086
a(S'dirtyness'
p6087
I1
tp6088
a(S'disappoint'
p6089
I1
tp6090
a(S'disappoints'
p6091
I1
tp6092
a(S'disaster'
p6093
I1
tp6094
a(S'disaster.in'
p6095
I1
tp6096
a(S'discauraged'
p6097
I1
tp6098
a(S'discharge'
p6099
I1
tp6100
a(S'discourage'
p6101
I1
tp6102
a(S'discourages'
p6103
I1
tp6104
a(S'discoveraged'
p6105
I1
tp6106
a(S'discribe'
p6107
I1
tp6108
a(S'discribed'
p6109
I1
tp6110
a(S'discribes'
p6111
I1
tp6112
a(S'discribing'
p6113
I1
tp6114
a(S'discride'
p6115
I1
tp6116
a(S'discription'
p6117
I1
tp6118
a(S'discriptive'
p6119
I1
tp6120
a(S'disgusting'
p6121
I1
tp6122
a(S'dismay'
p6123
I1
tp6124
a(S'dismayed'
p6125
I1
tp6126
a(S'disowned'
p6127
I1
tp6128
a(S'dispair'
p6129
I1
tp6130
a(S'dispare'
p6131
I1
tp6132
a(S'dissapointments'
p6133
I1
tp6134
a(S'dissappoint'
p6135
I1
tp6136
a(S'dissetling'
p6137
I1
tp6138
a(S'distancesin'
p6139
I1
tp6140
a(S'distorted'
p6141
I1
tp6142
a(S'distractions'
p6143
I1
tp6144
a(S'distraught'
p6145
I1
tp6146
a(S'distress'
p6147
I1
tp6148
a(S'distressed.the'
p6149
I1
tp6150
a(S'divert'
p6151
I1
tp6152
a(S'dizzy'
p6153
I1
tp6154
a(S'dizzy.the'
p6155
I1
tp6156
a(S'do.in'
p6157
I1
tp6158
a(S'do.many'
p6159
I1
tp6160
a(S"does'nt"
p6161
I1
tp6162
a(S"doesn'twnt"
p6163
I1
tp6164
a(S'doesnt'
p6165
I1
tp6166
a(S'dog'
p6167
I1
tp6168
a(S'dogers'
p6169
I1
tp6170
a(S'domper'
p6171
I1
tp6172
a(S"don't"
p6173
I1
tp6174
a(S'dose'
p6175
I1
tp6176
a(S'dosen\x92t'
p6177
I1
tp6178
a(S'doth'
p6179
I1
tp6180
a(S'double'
p6181
I1
tp6182
a(S'doubted'
p6183
I1
tp6184
a(S'doun'
p6185
I1
tp6186
a(S'dow'
p6187
I1
tp6188
a(S'dowen'
p6189
I1
tp6190
a(S'down,\x94'
p6191
I1
tp6192
a(S'down...wide'
p6193
I1
tp6194
a(S'down.if'
p6195
I1
tp6196
a(S'down.in'
p6197
I1
tp6198
a(S'down;'
p6199
I1
tp6200
a(S'down\x94(kurmaskie'
p6201
I1
tp6202
a(S'drain\x92s'
p6203
I1
tp6204
a(S'draper'
p6205
I1
tp6206
a(S'drashed'
p6207
I1
tp6208
a(S'draw'
p6209
I1
tp6210
a(S'dray'
p6211
I1
tp6212
a(S'dreams'
p6213
I1
tp6214
a(S'dreary'
p6215
I1
tp6216
a(S'drecionsn'
p6217
I1
tp6218
a(S'driead'
p6219
I1
tp6220
a(S'dried-out'
p6221
I1
tp6222
a(S'dries'
p6223
I1
tp6224
a(S'drink.the'
p6225
I1
tp6226
a(S'drinkmany'
p6227
I1
tp6228
a(S'drip'
p6229
I1
tp6230
a(S'drivuing'
p6231
I1
tp6232
a(S'drops,".distances'
p6233
I1
tp6234
a(S'drossy'
p6235
I1
tp6236
a(S'drought'
p6237
I1
tp6238
a(S'drove'
p6239
I1
tp6240
a(S'drowsiness'
p6241
I1
tp6242
a(S'drug'
p6243
I1
tp6244
a(S'drunken'
p6245
I1
tp6246
a(S'dry.like'
p6247
I1
tp6248
a(S'dry.second'
p6249
I1
tp6250
a(S'dry.the'
p6251
I1
tp6252
a(S'dsown'
p6253
I1
tp6254
a(S'dusty'
p6255
I1
tp6256
a(S'dvun'
p6257
I1
tp6258
a(S'dwelling'
p6259
I1
tp6260
a(S'dyhdrated'
p6261
I1
tp6262
a(S'dyhigerated'
p6263
I1
tp6264
a(S'dyhrate'
p6265
I1
tp6266
a(S'dying)'
p6267
I1
tp6268
a(S'dying.the'
p6269
I1
tp6270
a(S'e'
I1
tp6271
a(S'ear'
p6272
I1
tp6273
a(S'earlier.\x94'
p6274
I1
tp6275
a(S'eary-summer'
p6276
I1
tp6277
a(S'easiest'
p6278
I1
tp6279
a(S'easily.the'
p6280
I1
tp6281
a(S'eassy'
p6282
I1
tp6283
a(S'easyer'
p6284
I1
tp6285
a(S'eating'
p6286
I1
tp6287
a(S'eats'
p6288
I1
tp6289
a(S'ebbed'
p6290
I1
tp6291
a(S'ecase'
p6292
I1
tp6293
a(S'efects'
p6294
I1
tp6295
a(S'effective'
p6296
I1
tp6297
a(S'effective.\x94'
p6298
I1
tp6299
a(S'effectmany'
p6300
I1
tp6301
a(S'egausting'
p6302
I1
tp6303
a(S'eidance'
p6304
I1
tp6305
a(S'eigther.the'
p6306
I1
tp6307
a(S'eimited'
p6308
I1
tp6309
a(S'elderly'
p6310
I1
tp6311
a(S'eldrerly'
p6312
I1
tp6313
a(S'electrolites'
p6314
I1
tp6315
a(S'elements,many'
p6316
I1
tp6317
a(S'elevations'
p6318
I1
tp6319
a(S'elgo'
p6320
I1
tp6321
a(S'elses'
p6322
I1
tp6323
a(S'elsewhere'
p6324
I1
tp6325
a(S'emotion'
p6326
I1
tp6327
a(S'emotionally.the'
p6328
I1
tp6329
a(S'emphasise'
p6330
I1
tp6331
a(S'emphasize'
p6332
I1
tp6333
a(S'emphasizing'
p6334
I1
tp6335
a(S'en'
p6336
I1
tp6337
a(S'enable'
p6338
I1
tp6339
a(S'encounterd'
p6340
I1
tp6341
a(S'encountered.the'
p6342
I1
tp6343
a(S'encountering'
p6344
I1
tp6345
a(S'encouraging'
p6346
I1
tp6347
a(S'end.hot'
p6348
I1
tp6349
a(S'end.in'
p6350
I1
tp6351
a(S'endagered'
p6352
I1
tp6353
a(S'endeavers'
p6354
I1
tp6355
a(S'ending'
p6356
I1
tp6357
a(S'endless.then'
p6358
I1
tp6359
a(S'endlessly'
p6360
I1
tp6361
a(S'endoor'
p6362
I1
tp6363
a(S'enduranc'
p6364
I1
tp6365
a(S'endurance.the'
p6366
I1
tp6367
a(S'endured'
p6368
I1
tp6369
a(S'enduse'
p6370
I1
tp6371
a(S'eneegy'
p6372
I1
tp6373
a(S'energetic'
p6374
I1
tp6375
a(S'energy-all'
p6376
I1
tp6377
a(S'enery'
p6378
I1
tp6379
a(S'enging'
p6380
I1
tp6381
a(S'enhanced'
p6382
I1
tp6383
a(S'enhancing'
p6384
I1
tp6385
a(S'enjoyed'
p6386
I1
tp6387
a(S'enjoys'
p6388
I1
tp6389
a(S'enogth'
p6390
I1
tp6391
a(S'enormous'
p6392
I1
tp6393
a(S'entering\x94'
p6394
I1
tp6395
a(S'entirely'
p6396
I1
tp6397
a(S'envicus'
p6398
I1
tp6399
a(S'enviorment'
p6400
I1
tp6401
a(S'envious'
p6402
I1
tp6403
a(S'epidemic.the'
p6404
I1
tp6405
a(S'equal'
p6406
I1
tp6407
a(S'equally'
p6408
I1
tp6409
a(S'equipment'
p6410
I1
tp6411
a(S'erased'
p6412
I1
tp6413
a(S'ergancy'
p6414
I1
tp6415
a(S'erodding'
p6416
I1
tp6417
a(S'eseance'
p6418
I1
tp6419
a(S'establishes'
p6420
I1
tp6421
a(S'estimates'
p6422
I1
tp6423
a(S'estimation'
p6424
I1
tp6425
a(S'etc'
p6426
I1
tp6427
a(S'etc.the'
p6428
I1
tp6429
a(S'ething'
p6430
I1
tp6431
a(S'evaporate'
p6432
I1
tp6433
a(S'evening,\x94'
p6434
I1
tp6435
a(S'evergreen'
p6436
I1
tp6437
a(S'evey'
p6438
I1
tp6439
a(S'evidence'
p6440
I1
tp6441
a(S'evil'
p6442
I1
tp6443
a(S'ex'
p6444
I1
tp6445
a(S'exact'
p6446
I1
tp6447
a(S'exagerating'
p6448
I1
tp6449
a(S'exaggrate'
p6450
I1
tp6451
a(S'example,\x93'
p6452
I1
tp6453
a(S'example;'
p6454
I1
tp6455
a(S'examples.in'
p6456
I1
tp6457
a(S'examplethe'
p6458
I1
tp6459
a(S'exauhtion'
p6460
I1
tp6461
a(S'exausted.in'
p6462
I1
tp6463
a(S'exaustion'
p6464
I1
tp6465
a(S'excersise'
p6466
I1
tp6467
a(S'excess'
p6468
I1
tp6469
a(S'exchanged'
p6470
I1
tp6471
a(S'excited.\x94'
p6472
I1
tp6473
a(S'excitedly'
p6474
I1
tp6475
a(S'excited\x94'
p6476
I1
tp6477
a(S'exciterent'
p6478
I1
tp6479
a(S'exciting'
p6480
I1
tp6481
a(S'exciting.one'
p6482
I1
tp6483
a(S'excureiatly'
p6484
I1
tp6485
a(S'exede'
p6486
I1
tp6487
a(S'exercise'
p6488
I1
tp6489
a(S'exert'
p6490
I1
tp6491
a(S'exerted'
p6492
I1
tp6493
a(S'exerting'
p6494
I1
tp6495
a(S'exguasted'
p6496
I1
tp6497
a(S'exhaugnted'
p6498
I1
tp6499
a(S'exhausted.the'
p6500
I1
tp6501
a(S'exhausted\x94'
p6502
I1
tp6503
a(S'exhaustion,he'
p6504
I1
tp6505
a(S'exhaustion.hot'
p6506
I1
tp6507
a(S'exhuberate'
p6508
I1
tp6509
a(S'exhusting'
p6510
I1
tp6511
a(S'exisiting'
p6512
I1
tp6513
a(S'existed'
p6514
I1
tp6515
a(S'existing'
p6516
I1
tp6517
a(S'exit'
p6518
I1
tp6519
a(S'exited'
p6520
I1
tp6521
a(S'exostied'
p6522
I1
tp6523
a(S'exoustion'
p6524
I1
tp6525
a(S'expansive'
p6526
I1
tp6527
a(S'expearenced.the'
p6528
I1
tp6529
a(S'expecially'
p6530
I1
tp6531
a(S'expects'
p6532
I1
tp6533
a(S'experianced'
p6534
I1
tp6535
a(S'experience.on'
p6536
I1
tp6537
a(S'experiencing'
p6538
I1
tp6539
a(S'expessary'
p6540
I1
tp6541
a(S'expirencing'
p6542
I1
tp6543
a(S'explaning'
p6544
I1
tp6545
a(S'exposure'
p6546
I1
tp6547
a(S'express'
p6548
I1
tp6549
a(S'expressed'
p6550
I1
tp6551
a(S'expresses'
p6552
I1
tp6553
a(S'exsaused'
p6554
I1
tp6555
a(S'exsempl'
p6556
I1
tp6557
a(S'exsisted.there'
p6558
I1
tp6559
a(S'extends'
p6560
I1
tp6561
a(S'extension'
p6562
I1
tp6563
a(S'extent'
p6564
I1
tp6565
a(S'extremes'
p6566
I1
tp6567
a(S'eye\x94'
p6568
I1
tp6569
a(S'f'
I1
tp6570
a(S'face\x94'
p6571
I1
tp6572
a(S'facility'
p6573
I1
tp6574
a(S'factor;'
p6575
I1
tp6576
a(S'factory,is'
p6577
I1
tp6578
a(S'factory.\x94'
p6579
I1
tp6580
a(S'factorys'
p6581
I1
tp6582
a(S'facts'
p6583
I1
tp6584
a(S'factt'
p6585
I1
tp6586
a(S'fading'
p6587
I1
tp6588
a(S'fading.\x94'
p6589
I1
tp6590
a(S'faetures'
p6591
I1
tp6592
a(S'failed'
p6593
I1
tp6594
a(S'failure'
p6595
I1
tp6596
a(S'faint.the'
p6597
I1
tp6598
a(S'fainted'
p6599
I1
tp6600
a(S'fainting'
p6601
I1
tp6602
a(S'fall.the'
p6603
I1
tp6604
a(S'fallen'
p6605
I1
tp6606
a(S'family'
p6607
I1
tp6608
a(S'far.in'
p6609
I1
tp6610
a(S'fared'
p6611
I1
tp6612
a(S'farlike'
p6613
I1
tp6614
a(S'farm.\x94'
p6615
I1
tp6616
a(S'faster.\x94'
p6617
I1
tp6618
a(S'fatause'
p6619
I1
tp6620
a(S'fatures'
p6621
I1
tp6622
a(S'fault'
p6623
I1
tp6624
a(S'faults'
p6625
I1
tp6626
a(S'faulty'
p6627
I1
tp6628
a(S'fauret'
p6629
I1
tp6630
a(S'feachers'
p6631
I1
tp6632
a(S'fealt'
p6633
I1
tp6634
a(S'feared'
p6635
I1
tp6636
a(S'feateres'
p6637
I1
tp6638
a(S'featers'
p6639
I1
tp6640
a(S'features.the'
p6641
I1
tp6642
a(S'featutres'
p6643
I1
tp6644
a(S'feautures'
p6645
I1
tp6646
a(S'feeling.many'
p6647
I1
tp6648
a(S'feeling.\x94'
p6649
I1
tp6650
a(S'feels.the'
p6651
I1
tp6652
a(S'feelslike'
p6653
I1
tp6654
a(S'feet'
p6655
I1
tp6656
a(S'feeting'
p6657
I1
tp6658
a(S'fella'
p6659
I1
tp6660
a(S'fellows'
p6661
I1
tp6662
a(S'fells'
p6663
I1
tp6664
a(S'fem'
p6665
I1
tp6666
a(S'feres'
p6667
I1
tp6668
a(S'fights'
p6669
I1
tp6670
a(S'figure'
p6671
I1
tp6672
a(S'figures'
p6673
I1
tp6674
a(S'filling'
p6675
I1
tp6676
a(S'filthy'
p6677
I1
tp6678
a(S'finale'
p6679
I1
tp6680
a(S'finally.features'
p6681
I1
tp6682
a(S'findswater'
p6683
I1
tp6684
a(S'fine."(kurmaskie)'
p6685
I1
tp6686
a(S'fine.it'
p6687
I1
tp6688
a(S'fine.the'
p6689
I1
tp6690
a(S'finished'
p6691
I1
tp6692
a(S'finnaly'
p6693
I1
tp6694
a(S'fire\x94'
p6695
I1
tp6696
a(S'firm'
p6697
I1
tp6698
a(S'firsts'
p6699
I1
tp6700
a(S'firts'
p6701
I1
tp6702
a(S'fishermans'
p6703
I1
tp6704
a(S'fisrt'
p6705
I1
tp6706
a(S'five'
p6707
I1
tp6708
a(S'flattens'
p6709
I1
tp6710
a(S'flaver'
p6711
I1
tp6712
a(S'flavored'
p6713
I1
tp6714
a(S'flowed'
p6715
I1
tp6716
a(S'flowery'
p6717
I1
tp6718
a(S'flowing'
p6719
I1
tp6720
a(S'flustrated'
p6721
I1
tp6722
a(S'foctary'
p6723
I1
tp6724
a(S'folluwed'
p6725
I1
tp6726
a(S'fones'
p6727
I1
tp6728
a(S'food.this'
p6729
I1
tp6730
a(S'fool'
p6731
I1
tp6732
a(S'fooled'
p6733
I1
tp6734
a(S'foot'
p6735
I1
tp6736
a(S'for.the'
p6737
I1
tp6738
a(S'for.\x94'
p6739
I1
tp6740
a(S'foreign'
p6741
I1
tp6742
a(S'foreshadow'
p6743
I1
tp6744
a(S'foreshadowing'
p6745
I1
tp6746
a(S'formed'
p6747
I1
tp6748
a(S'fort'
p6749
I1
tp6750
a(S'forts'
p6751
I1
tp6752
a(S'founded'
p6753
I1
tp6754
a(S'fountain'
p6755
I1
tp6756
a(S'fountains'
p6757
I1
tp6758
a(S'four'
p6759
I1
tp6760
a(S'fourth'
p6761
I1
tp6762
a(S'fourther'
p6763
I1
tp6764
a(S'fowks'
p6765
I1
tp6766
a(S'freaked'
p6767
I1
tp6768
a(S'freely'
p6769
I1
tp6770
a(S'freezing'
p6771
I1
tp6772
a(S'freshen'
p6773
I1
tp6774
a(S'fret'
p6775
I1
tp6776
a(S'friends'
p6777
I1
tp6778
a(S'frightening'
p6779
I1
tp6780
a(S'frist'
p6781
I1
tp6782
a(S'frol'
p6783
I1
tp6784
a(S'fromthe'
p6785
I1
tp6786
a(S'frot'
p6787
I1
tp6788
a(S'froz'
p6789
I1
tp6790
a(S'frustarated'
p6791
I1
tp6792
a(S'frustrates'
p6793
I1
tp6794
a(S'frustration'
p6795
I1
tp6796
a(S'fuier'
p6797
I1
tp6798
a(S'fully'
p6799
I1
tp6800
a(S'funcation'
p6801
I1
tp6802
a(S'function'
p6803
I1
tp6804
a(S'future.when'
p6805
I1
tp6806
a(S'futures'
p6807
I1
tp6808
a(S'g'
I1
tp6809
a(S'gains'
p6810
I1
tp6811
a(S'ganle'
p6812
I1
tp6813
a(S'gart'
p6814
I1
tp6815
a(S'gather'
p6816
I1
tp6817
a(S'gathers'
p6818
I1
tp6819
a(S'gaven'
p6820
I1
tp6821
a(S'gazing'
p6822
I1
tp6823
a(S'gbost'
p6824
I1
tp6825
a(S'gean'
p6826
I1
tp6827
a(S'general'
p6828
I1
tp6829
a(S'generally'
p6830
I1
tp6831
a(S'generily'
p6832
I1
tp6833
a(S'gentelmen'
p6834
I1
tp6835
a(S'gentle'
p6836
I1
tp6837
a(S'geogers'
p6838
I1
tp6839
a(S"get's"
p6840
I1
tp6841
a(S'gether'
p6842
I1
tp6843
a(S'geting'
p6844
I1
tp6845
a(S'gey'
p6846
I1
tp6847
a(S'gian'
p6848
I1
tp6849
a(S'giant'
p6850
I1
tp6851
a(S'ginaupupthe'
p6852
I1
tp6853
a(S'git'
p6854
I1
tp6855
a(S'given)'
p6856
I1
tp6857
a(S'givethe'
p6858
I1
tp6859
a(S'glimmer'
p6860
I1
tp6861
a(S'glowing'
p6862
I1
tp6863
a(S"go's"
p6864
I1
tp6865
a(S'go.the'
p6866
I1
tp6867
a(S'go.well'
p6868
I1
tp6869
a(S'goals.the'
p6870
I1
tp6871
a(S'goast'
p6872
I1
tp6873
a(S'goet'
p6874
I1
tp6875
a(S'goin.in'
p6876
I1
tp6877
a(S'going.in'
p6878
I1
tp6879
a(S'going.the'
p6880
I1
tp6881
a(S'goingthe'
p6882
I1
tp6883
a(S'gona'
p6884
I1
tp6885
a(S'good.the'
p6886
I1
tp6887
a(S'gorqeas'
p6888
I1
tp6889
a(S'gos'
p6890
I1
tp6891
a(S'goten'
p6892
I1
tp6893
a(S'grabbed'
p6894
I1
tp6895
a(S'gracious'
p6896
I1
tp6897
a(S'grapes'
p6898
I1
tp6899
a(S'grassy'
p6900
I1
tp6901
a(S'grate'
p6902
I1
tp6903
a(S'grateful'
p6904
I1
tp6905
a(S'gratitude'
p6906
I1
tp6907
a(S'graund'
p6908
I1
tp6909
a(S'grave'
p6910
I1
tp6911
a(S'gravel'
p6912
I1
tp6913
a(S'gravity'
p6914
I1
tp6915
a(S'greet'
p6916
I1
tp6917
a(S'grief'
p6918
I1
tp6919
a(S'grim'
p6920
I1
tp6921
a(S'grope'
p6922
I1
tp6923
a(S'gross'
p6924
I1
tp6925
a(S'grounded'
p6926
I1
tp6927
a(S'grounds'
p6928
I1
tp6929
a(S'guccher.and'
p6930
I1
tp6931
a(S'guiding'
p6932
I1
tp6933
a(S'gulps'
p6934
I1
tp6935
a(S'gunk'
p6936
I1
tp6937
a(S'gust'
p6938
I1
tp6939
a(S'gut.the'
p6940
I1
tp6941
a(S'h'
I1
tp6942
a(S'habited'
p6943
I1
tp6944
a(S'haden\x92t'
p6945
I1
tp6946
a(S'hadn`t'
p6947
I1
tp6948
a(S'haede'
p6949
I1
tp6950
a(S'hagon'
p6951
I1
tp6952
a(S'hald'
p6953
I1
tp6954
a(S'hallucination'
p6955
I1
tp6956
a(S'hamest'
p6957
I1
tp6958
a(S'hands.in'
p6959
I1
tp6960
a(S'happen.you'
p6961
I1
tp6962
a(S'happend'
p6963
I1
tp6964
a(S'happiness'
p6965
I1
tp6966
a(S'happsy!'
p6967
I1
tp6968
a(S'happsythe'
p6969
I1
tp6970
a(S'hard-working'
p6971
I1
tp6972
a(S'hard.in'
p6973
I1
tp6974
a(S'harded'
p6975
I1
tp6976
a(S'hardships.the'
p6977
I1
tp6978
a(S'harmed'
p6979
I1
tp6980
a(S'hasn`t'
p6981
I1
tp6982
a(S'hasseled'
p6983
I1
tp6984
a(S'hates'
p6985
I1
tp6986
a(S'haunting'
p6987
I1
tp6988
a(S'haurst'
p6989
I1
tp6990
a(S'have.the'
p6991
I1
tp6992
a(S'haven'
p6993
I1
tp6994
a(S'havent'
p6995
I1
tp6996
a(S'haven\x92th'
p6997
I1
tp6998
a(S'haves'
p6999
I1
tp7000
a(S'hav\x92nt'
p7001
I1
tp7002
a(S'hazardous'
p7003
I1
tp7004
a(S"he'll"
p7005
I1
tp7006
a(S'he,\x93i'
p7007
I1
tp7008
a(S'he,\x94'
p7009
I1
tp7010
a(S'he.the'
p7011
I1
tp7012
a(S'he?'
p7013
I1
tp7014
a(S"head''"
p7015
I1
tp7016
a(S'head,\x94'
p7017
I1
tp7018
a(S"head.''"
p7019
I1
tp7020
a(S'head.\x94'
p7021
I1
tp7022
a(S'hear'
p7023
I1
tp7024
a(S'heart.setting'
p7025
I1
tp7026
a(S'heartsroke'
p7027
I1
tp7028
a(S'heartstoke'
p7029
I1
tp7030
a(S'heartstroke'
p7031
I1
tp7032
a(S'heartt'
p7033
I1
tp7034
a(S'heat,and'
p7035
I1
tp7036
a(S'heat.a'
p7037
I1
tp7038
a(S'heat.though'
p7039
I1
tp7040
a(S'heatatacks'
p7041
I1
tp7042
a(S'heath'
p7043
I1
tp7044
a(S'heathy'
p7045
I1
tp7046
a(S'heatstake'
p7047
I1
tp7048
a(S'heatstroaks'
p7049
I1
tp7050
a(S'heatstroke.being'
p7051
I1
tp7052
a(S'heatstroke.the'
p7053
I1
tp7054
a(S'heatstrokes'
p7055
I1
tp7056
a(S'heavily'
p7057
I1
tp7058
a(S'hell'
p7059
I1
tp7060
a(S'hellish'
p7061
I1
tp7062
a(S'helmet'
p7063
I1
tp7064
a(S'helpers'
p7065
I1
tp7066
a(S'helplessness'
p7067
I1
tp7068
a(S'helpthe'
p7069
I1
tp7070
a(S'hence'
p7071
I1
tp7072
a(S'her.the'
p7073
I1
tp7074
a(S'her.\x93there'
p7075
I1
tp7076
a(S'herats'
p7077
I1
tp7078
a(S'herb'
p7079
I1
tp7080
a(S'here.any'
p7081
I1
tp7082
a(S'herendous'
p7083
I1
tp7084
a(S'hethe'
p7085
I1
tp7086
a(S'hi'
p7087
I1
tp7088
a(S'hidden'
p7089
I1
tp7090
a(S'highly'
p7091
I1
tp7092
a(S'highways'
p7093
I1
tp7094
a(S'hikes'
p7095
I1
tp7096
a(S'hil'
p7097
I1
tp7098
a(S"hill.''"
p7099
I1
tp7100
a(S'hill...\x94'
p7101
I1
tp7102
a(S'hill.blazing'
p7103
I1
tp7104
a(S'hillier'
p7105
I1
tp7106
a(S'hills,"@caps1'
p7107
I1
tp7108
a(S'hills...tumbleweeds'
p7109
I1
tp7110
a(S'hills.the'
p7111
I1
tp7112
a(S'hills.\x94(kurmaskie'
p7113
I1
tp7114
a(S'hills.\x94due'
p7115
I1
tp7116
a(S'hillsthe'
p7117
I1
tp7118
a(S'hilly(rough)'
p7119
I1
tp7120
a(S"hils.''"
p7121
I1
tp7122
a(S'him!'
p7123
I1
tp7124
a(S'him.every'
p7125
I1
tp7126
a(S'him.features'
p7127
I1
tp7128
a(S'him.snake'
p7129
I1
tp7130
a(S'him.some'
p7131
I1
tp7132
a(S'him.\x93do'
p7133
I1
tp7134
a(S'him.\x94'
p7135
I1
tp7136
a(S'him/her'
p7137
I1
tp7138
a(S'him/her.some'
p7139
I1
tp7140
a(S'hime'
p7141
I1
tp7142
a(S'himout'
p7143
I1
tp7144
a(S'himself.after'
p7145
I1
tp7146
a(S'himself.in'
p7147
I1
tp7148
a(S'himself\x93do'
p7149
I1
tp7150
a(S'hindering'
p7151
I1
tp7152
a(S'hint'
p7153
I1
tp7154
a(S'hip'
p7155
I1
tp7156
a(S'hiss'
p7157
I1
tp7158
a(S'histerical'
p7159
I1
tp7160
a(S'history'
p7161
I1
tp7162
a(S'hit\x94'
p7163
I1
tp7164
a(S'ho'
p7165
I1
tp7166
a(S'hole'
p7167
I1
tp7168
a(S'holes'
p7169
I1
tp7170
a(S'honorably.the'
p7171
I1
tp7172
a(S'hood'
p7173
I1
tp7174
a(S'hope-all'
p7175
I1
tp7176
a(S'hope.because'
p7177
I1
tp7178
a(S'hope.the'
p7179
I1
tp7180
a(S'hopelee'
p7181
I1
tp7182
a(S'hopelessly'
p7183
I1
tp7184
a(S'hopelessness.the'
p7185
I1
tp7186
a(S'hopeless\x94'
p7187
I1
tp7188
a(S'hoplessness'
p7189
I1
tp7190
a(S'hoplessness.in'
p7191
I1
tp7192
a(S'hopped'
p7193
I1
tp7194
a(S'horizon\x94'
p7195
I1
tp7196
a(S'hormone'
p7197
I1
tp7198
a(S'horrid'
p7199
I1
tp7200
a(S'horrific.the'
p7201
I1
tp7202
a(S'horror'
p7203
I1
tp7204
a(S'hostile'
p7205
I1
tp7206
a(S'hot!'
p7207
I1
tp7208
a(S'hot,gross'
p7209
I1
tp7210
a(S'hot.how'
p7211
I1
tp7212
a(S'hot.many'
p7213
I1
tp7214
a(S'hotel'
p7215
I1
tp7216
a(S"hotter.'do"
p7217
I1
tp7218
a(S'hottnes'
p7219
I1
tp7220
a(S'hou'
p7221
I1
tp7222
a(S'houever'
p7223
I1
tp7224
a(S'hourly'
p7225
I1
tp7226
a(S'howl'
p7227
I1
tp7228
a(S'hoy'
p7229
I1
tp7230
a(S'humans'
p7231
I1
tp7232
a(S'humorous'
p7233
I1
tp7234
a(S'humorthe'
p7235
I1
tp7236
a(S'humour'
p7237
I1
tp7238
a(S'hums'
p7239
I1
tp7240
a(S'hundre'
p7241
I1
tp7242
a(S'hundreds'
p7243
I1
tp7244
a(S'hunt'
p7245
I1
tp7246
a(S'hurried'
p7247
I1
tp7248
a(S'hurting'
p7249
I1
tp7250
a(S'hydrated.one'
p7251
I1
tp7252
a(S'hypo'
p7253
I1
tp7254
a(S'ia'
p7255
I1
tp7256
a(S'icy'
p7257
I1
tp7258
a(S'idea.this'
p7259
I1
tp7260
a(S'ife'
p7261
I1
tp7262
a(S'illusionalistic'
p7263
I1
tp7264
a(S'imagening'
p7265
I1
tp7266
a(S'images'
p7267
I1
tp7268
a(S'imaginate'
p7269
I1
tp7270
a(S'imagined.in'
p7271
I1
tp7272
a(S'imagines'
p7273
I1
tp7274
a(S'imagining'
p7275
I1
tp7276
a(S'imagton'
p7277
I1
tp7278
a(S'immensly'
p7279
I1
tp7280
a(S'impact.the'
p7281
I1
tp7282
a(S'impacted'
p7283
I1
tp7284
a(S'impared'
p7285
I1
tp7286
a(S'improvment'
p7287
I1
tp7288
a(S'in,\x94do'
p7289
I1
tp7290
a(S'in.features'
p7291
I1
tp7292
a(S'in.in'
p7293
I1
tp7294
a(S'in.the'
p7295
I1
tp7296
a(S'in???'
p7297
I1
tp7298
a(S'inadequet'
p7299
I1
tp7300
a(S'include:-'
p7301
I1
tp7302
a(S'includes'
p7303
I1
tp7304
a(S'includesouly'
p7305
I1
tp7306
a(S'inconsistancy'
p7307
I1
tp7308
a(S'inconsistant'
p7309
I1
tp7310
a(S'incountered'
p7311
I1
tp7312
a(S'increase'
p7313
I1
tp7314
a(S'increases'
p7315
I1
tp7316
a(S'increasingly'
p7317
I1
tp7318
a(S'increasinlgly'
p7319
I1
tp7320
a(S'incredibly'
p7321
I1
tp7322
a(S'indespair'
p7323
I1
tp7324
a(S'indicating'
p7325
I1
tp7326
a(S'indifferent'
p7327
I1
tp7328
a(S'individual'
p7329
I1
tp7330
a(S'individuals'
p7331
I1
tp7332
a(S'inedible'
p7333
I1
tp7334
a(S'inferal'
p7335
I1
tp7336
a(S'infereal'
p7337
I1
tp7338
a(S'inferred'
p7339
I1
tp7340
a(S'influences'
p7341
I1
tp7342
a(S'influental'
p7343
I1
tp7344
a(S'influential'
p7345
I1
tp7346
a(S'inforce'
p7347
I1
tp7348
a(S'informed'
p7349
I1
tp7350
a(S'infront'
p7351
I1
tp7352
a(S'inhabined'
p7353
I1
tp7354
a(S'inhance'
p7355
I1
tp7356
a(S'initially'
p7357
I1
tp7358
a(S'injured'
p7359
I1
tp7360
a(S'inorder'
p7361
I1
tp7362
a(S'insight;'
p7363
I1
tp7364
a(S'insisting'
p7365
I1
tp7366
a(S'inspiration'
p7367
I1
tp7368
a(S'inspire'
p7369
I1
tp7370
a(S'inspiring'
p7371
I1
tp7372
a(S'instance;'
p7373
I1
tp7374
a(S'instence'
p7375
I1
tp7376
a(S'instill'
p7377
I1
tp7378
a(S'instinct'
p7379
I1
tp7380
a(S'instinct.\x94'
p7381
I1
tp7382
a(S'instintaniously'
p7383
I1
tp7384
a(S'instructions;'
p7385
I1
tp7386
a(S'insufficient'
p7387
I1
tp7388
a(S'inteact'
p7389
I1
tp7390
a(S'integral'
p7391
I1
tp7392
a(S'intelligants.there'
p7393
I1
tp7394
a(S'intended'
p7395
I1
tp7396
a(S'intensely'
p7397
I1
tp7398
a(S'intention'
p7399
I1
tp7400
a(S'intention.in'
p7401
I1
tp7402
a(S'interenting'
p7403
I1
tp7404
a(S'interfered'
p7405
I1
tp7406
a(S'intimidates'
p7407
I1
tp7408
a(S'intrusted'
p7409
I1
tp7410
a(S'inturn'
p7411
I1
tp7412
a(S'inusuable;'
p7413
I1
tp7414
a(S'involve'
p7415
I1
tp7416
a(S'in\x94'
p7417
I1
tp7418
a(S'ironics,he'
p7419
I1
tp7420
a(S'is,\x94'
p7421
I1
tp7422
a(S'is.the'
p7423
I1
tp7424
a(S'it,and'
p7425
I1
tp7426
a(S'it...i'
p7427
I1
tp7428
a(S'it.features'
p7429
I1
tp7430
a(S'it.rough'
p7431
I1
tp7432
a(S'it?'
p7433
I1
tp7434
a(S'it?!'
p7435
I1
tp7436
a(S'it?????????'
p7437
I1
tp7438
a(S'it`s'
p7439
I1
tp7440
a(S'i\x92ve'
p7441
I1
tp7442
a(S'jack'
p7443
I1
tp7444
a(S'jagged'
p7445
I1
tp7446
a(S'jaunt'
p7447
I1
tp7448
a(S'jaunt\x94'
p7449
I1
tp7450
a(S'jobthe'
p7451
I1
tp7452
a(S'jokingly'
p7453
I1
tp7454
a(S'jouney'
p7455
I1
tp7456
a(S'journey,even'
p7457
I1
tp7458
a(S'journey.as'
p7459
I1
tp7460
a(S'journey.i'
p7461
I1
tp7462
a(S'journey?'
p7463
I1
tp7464
a(S'journeyin'
p7465
I1
tp7466
a(S'journied'
p7467
I1
tp7468
a(S'judging'
p7469
I1
tp7470
a(S'judjment'
p7471
I1
tp7472
a(S'juices'
p7473
I1
tp7474
a(S'jump'
p7475
I1
tp7476
a(S'june."setting'
p7477
I1
tp7478
a(S"june.''"
p7479
I1
tp7480
a(S'june...\x94'
p7481
I1
tp7482
a(S'june.as'
p7483
I1
tp7484
a(S'june.in'
p7485
I1
tp7486
a(S'june.their'
p7487
I1
tp7488
a(S'june\x94the'
p7489
I1
tp7490
a(S'key'
p7491
I1
tp7492
a(S'kiiled'
p7493
I1
tp7494
a(S'kills'
p7495
I1
tp7496
a(S"kind's"
p7497
I1
tp7498
a(S'kinda'
p7499
I1
tp7500
a(S'kinds'
p7501
I1
tp7502
a(S'king'
p7503
I1
tp7504
a(S'knee'
p7505
I1
tp7506
a(S'know.the'
p7507
I1
tp7508
a(S'knowns'
p7509
I1
tp7510
a(S'kurmaksie,greatly'
p7511
I1
tp7512
a(S'kurmaskie).\x94'
p7513
I1
tp7514
a(S'kurmaskie\x94'
p7515
I1
tp7516
a(S'lacking'
p7517
I1
tp7518
a(S'lacks'
p7519
I1
tp7520
a(S'lact'
p7521
I1
tp7522
a(S'laffect'
p7523
I1
tp7524
a(S'lament'
p7525
I1
tp7526
a(S'lamesh'
p7527
I1
tp7528
a(S'land-mark'
p7529
I1
tp7530
a(S'land-marks'
p7531
I1
tp7532
a(S'land.\x94'
p7533
I1
tp7534
a(S'landmark'
p7535
I1
tp7536
a(S'landscape.the'
p7537
I1
tp7538
a(S'landscapes'
p7539
I1
tp7540
a(S'lareg'
p7541
I1
tp7542
a(S'larges'
p7543
I1
tp7544
a(S'las'
p7545
I1
tp7546
a(S'lasting'
p7547
I1
tp7548
a(S'late'
p7549
I1
tp7550
a(S'laught'
p7551
I1
tp7552
a(S'laughting'
p7553
I1
tp7554
a(S'leaking'
p7555
I1
tp7556
a(S'learning'
p7557
I1
tp7558
a(S'learntedat'
p7559
I1
tp7560
a(S'leas'
p7561
I1
tp7562
a(S'leasing'
p7563
I1
tp7564
a(S'leason'
p7565
I1
tp7566
a(S'lecatracy'
p7567
I1
tp7568
a(S'leds'
p7569
I1
tp7570
a(S'leg'
p7571
I1
tp7572
a(S'length'
p7573
I1
tp7574
a(S'lerns'
p7575
I1
tp7576
a(S'lersury'
p7577
I1
tp7578
a(S'lesort'
p7579
I1
tp7580
a(S'lessen'
p7581
I1
tp7582
a(S'lesson.the'
p7583
I1
tp7584
a(S'lesson?this'
p7585
I1
tp7586
a(S'lesy'
p7587
I1
tp7588
a(S'let\x92s'
p7589
I1
tp7590
a(S'levels.the'
p7591
I1
tp7592
a(S'lf'
p7593
I1
tp7594
a(S'life-or-death'
p7595
I1
tp7596
a(S'lifeles'
p7597
I1
tp7598
a(S'lifeless'
p7599
I1
tp7600
a(S'life\x92s'
p7601
I1
tp7602
a(S'light'
p7603
I1
tp7604
a(S'lil'
p7605
I1
tp7606
a(S'limb'
p7607
I1
tp7608
a(S"limit''"
p7609
I1
tp7610
a(S'limit.\x94this'
p7611
I1
tp7612
a(S'limits,\x94'
p7613
I1
tp7614
a(S'limits\x94'
p7615
I1
tp7616
a(S'limit\x92'
p7617
I1
tp7618
a(S'limit\x94(joe'
p7619
I1
tp7620
a(S'limit\x94by'
p7621
I1
tp7622
a(S'limit\x94many'
p7623
I1
tp7624
a(S'liquid'
p7625
I1
tp7626
a(S'liquids'
p7627
I1
tp7628
a(S'lisined'
p7629
I1
tp7630
a(S'listing'
p7631
I1
tp7632
a(S'listned'
p7633
I1
tp7634
a(S'literary'
p7635
I1
tp7636
a(S'liters'
p7637
I1
tp7638
a(S'lived.in'
p7639
I1
tp7640
a(S'lizards'
p7641
I1
tp7642
a(S'llife'
p7643
I1
tp7644
a(S'lnad'
p7645
I1
tp7646
a(S'local'
p7647
I1
tp7648
a(S"location2's"
p7649
I1
tp7650
a(S'location3'
p7651
I1
tp7652
a(S'logic'
p7653
I1
tp7654
a(S'lols'
p7655
I1
tp7656
a(S'lon'
p7657
I1
tp7658
a(S'lone'
p7659
I1
tp7660
a(S'lonelier'
p7661
I1
tp7662
a(S'lonelyness'
p7663
I1
tp7664
a(S'longer.heat'
p7665
I1
tp7666
a(S'longing'
p7667
I1
tp7668
a(S'longing.the'
p7669
I1
tp7670
a(S'lonlieness'
p7671
I1
tp7672
a(S'looking.the'
p7673
I1
tp7674
a(S'losse'
p7675
I1
tp7676
a(S'lost-all'
p7677
I1
tp7678
a(S'lotof'
p7679
I1
tp7680
a(S'lousy'
p7681
I1
tp7682
a(S'loving'
p7683
I1
tp7684
a(S'lozing'
p7685
I1
tp7686
a(S'lucky.the'
p7687
I1
tp7688
a(S'luer'
p7689
I1
tp7690
a(S'lukly'
p7691
I1
tp7692
a(S'lungs'
p7693
I1
tp7694
a(S'l\x92d'
p7695
I1
tp7696
a(S'mabey'
p7697
I1
tp7698
a(S'mach'
p7699
I1
tp7700
a(S'maid'
p7701
I1
tp7702
a(S'maijor'
p7703
I1
tp7704
a(S'maintain'
p7705
I1
tp7706
a(S'maintains'
p7707
I1
tp7708
a(S'majoritly'
p7709
I1
tp7710
a(S"make's"
p7711
I1
tp7712
a(S'make.\x94'
p7713
I1
tp7714
a(S'makee'
p7715
I1
tp7716
a(S'makes.all'
p7717
I1
tp7718
a(S'malice'
p7719
I1
tp7720
a(S'malinge,\x94'
p7721
I1
tp7722
a(S"man's"
p7723
I1
tp7724
a(S'man.in'
p7725
I1
tp7726
a(S'manage'
p7727
I1
tp7728
a(S'managementthe'
p7729
I1
tp7730
a(S'manages.the'
p7731
I1
tp7732
a(S'maneuvering'
p7733
I1
tp7734
a(S'manever'
p7735
I1
tp7736
a(S'manevuered'
p7737
I1
tp7738
a(S'mankind'
p7739
I1
tp7740
a(S'manner'
p7741
I1
tp7742
a(S'manouvered'
p7743
I1
tp7744
a(S'manuever'
p7745
I1
tp7746
a(S'manymore'
p7747
I1
tp7748
a(S'manyway'
p7749
I1
tp7750
a(S'map!well'
p7751
I1
tp7752
a(S"map.''the"
p7753
I1
tp7754
a(S'map.desert'
p7755
I1
tp7756
a(S'map.to'
p7757
I1
tp7758
a(S'map.with'
p7759
I1
tp7760
a(S'mapas'
p7761
I1
tp7762
a(S'mapping'
p7763
I1
tp7764
a(S'mardid'
p7765
I1
tp7766
a(S'mark'
p7767
I1
tp7768
a(S'marked'
p7769
I1
tp7770
a(S'mat'
p7771
I1
tp7772
a(S'materialize'
p7773
I1
tp7774
a(S'math'
p7775
I1
tp7776
a(S'matt'
p7777
I1
tp7778
a(S'max'
p7779
I1
tp7780
a(S'maze'
p7781
I1
tp7782
a(S'me,\x94'
p7783
I1
tp7784
a(S'me.this'
p7785
I1
tp7786
a(S'me.\x93'
p7787
I1
tp7788
a(S'me.\x94there'
p7789
I1
tp7790
a(S'meant'
p7791
I1
tp7792
a(S'mediocre'
p7793
I1
tp7794
a(S'meloncholy'
p7795
I1
tp7796
a(S"men's"
p7797
I1
tp7798
a(S'men."trying'
p7799
I1
tp7800
a(S'men.i'
p7801
I1
tp7802
a(S'men.\x94'
p7803
I1
tp7804
a(S'menataly'
p7805
I1
tp7806
a(S'meneuver'
p7807
I1
tp7808
a(S"mens'"
p7809
I1
tp7810
a(S'mens\x92'
p7811
I1
tp7812
a(S'ment'
p7813
I1
tp7814
a(S'mentally.in'
p7815
I1
tp7816
a(S'mentaly'
p7817
I1
tp7818
a(S'men\x94'
p7819
I1
tp7820
a(S'mercilous'
p7821
I1
tp7822
a(S'mere'
p7823
I1
tp7824
a(S'mesage'
p7825
I1
tp7826
a(S'mess'
p7827
I1
tp7828
a(S'message'
p7829
I1
tp7830
a(S'messe'
p7831
I1
tp7832
a(S'messing'
p7833
I1
tp7834
a(S'metaphor'
p7835
I1
tp7836
a(S'methods'
p7837
I1
tp7838
a(S'metions'
p7839
I1
tp7840
a(S'mic'
p7841
I1
tp7842
a(S'mid'
p7843
I1
tp7844
a(S'mid-'
p7845
I1
tp7846
a(S'mid-day'
p7847
I1
tp7848
a(S'midde'
p7849
I1
tp7850
a(S'midwest'
p7851
I1
tp7852
a(S'miles.the'
p7853
I1
tp7854
a(S'miles;'
p7855
I1
tp7856
a(S'milesthe'
p7857
I1
tp7858
a(S'miles\x94'
p7859
I1
tp7860
a(S'miley'
p7861
I1
tp7862
a(S'milker'
p7863
I1
tp7864
a(S'mimic'
p7865
I1
tp7866
a(S'mind;'
p7867
I1
tp7868
a(S'minut'
p7869
I1
tp7870
a(S'minute'
p7871
I1
tp7872
a(S'miracle'
p7873
I1
tp7874
a(S'mirage.in'
p7875
I1
tp7876
a(S'mirage.\x94'
p7877
I1
tp7878
a(S'mirror'
p7879
I1
tp7880
a(S'miserable'
p7881
I1
tp7882
a(S'misery'
p7883
I1
tp7884
a(S'mislead'
p7885
I1
tp7886
a(S'mistake.after'
p7887
I1
tp7888
a(S'mistakes'
p7889
I1
tp7890
a(S'mlles'
p7891
I1
tp7892
a(S'mo'
p7893
I1
tp7894
a(S'mocks'
p7895
I1
tp7896
a(S'mode-all'
p7897
I1
tp7898
a(S'models'
p7899
I1
tp7900
a(S'modem'
p7901
I1
tp7902
a(S'modifying'
p7903
I1
tp7904
a(S'mody'
p7905
I1
tp7906
a(S'moment'
p7907
I1
tp7908
a(S'moment.features'
p7909
I1
tp7910
a(S'moments'
p7911
I1
tp7912
a(S'money'
p7913
I1
tp7914
a(S'mooble'
p7915
I1
tp7916
a(S'moods.in'
p7917
I1
tp7918
a(S'mood\x94'
p7919
I1
tp7920
a(S'moral'
p7921
I1
tp7922
a(S'moreaccurate'
p7923
I1
tp7924
a(S'most.in'
p7925
I1
tp7926
a(S'mostly.he'
p7927
I1
tp7928
a(S'motivates'
p7929
I1
tp7930
a(S'motive'
p7931
I1
tp7932
a(S'motorcycle'
p7933
I1
tp7934
a(S'motued'
p7935
I1
tp7936
a(S'mough'
p7937
I1
tp7938
a(S'mountain'
p7939
I1
tp7940
a(S'mountainous'
p7941
I1
tp7942
a(S'mountianous'
p7943
I1
tp7944
a(S'mountin'
p7945
I1
tp7946
a(S'mouth.\x94'
p7947
I1
tp7948
a(S'mouth\x94(kurmaskie).the'
p7949
I1
tp7950
a(S'move.an'
p7951
I1
tp7952
a(S'mover'
p7953
I1
tp7954
a(S'mph.\x94'
p7955
I1
tp7956
a(S'mself'
p7957
I1
tp7958
a(S'much.many'
p7959
I1
tp7960
a(S'much.the'
p7961
I1
tp7962
a(S'muck'
p7963
I1
tp7964
a(S"mule''"
p7965
I1
tp7966
a(S'multiple'
p7967
I1
tp7968
a(S'multiply'
p7969
I1
tp7970
a(S'multitude'
p7971
I1
tp7972
a(S'museum'
p7973
I1
tp7974
a(S'muster'
p7975
I1
tp7976
a(S'nagging'
p7977
I1
tp7978
a(S'nam'
p7979
I1
tp7980
a(S'name.\x94'
p7981
I1
tp7982
a(S'named'
p7983
I1
tp7984
a(S'namely'
p7985
I1
tp7986
a(S'narriation'
p7987
I1
tp7988
a(S'narritive'
p7989
I1
tp7990
a(S'narrorator'
p7991
I1
tp7992
a(S'native'
p7993
I1
tp7994
a(S'natural'
p7995
I1
tp7996
a(S'naturally'
p7997
I1
tp7998
a(S'nature.in'
p7999
I1
tp8000
a(S'nature.\x94'
p8001
I1
tp8002
a(S'nautious'
p8003
I1
tp8004
a(S'ne'
p8005
I1
tp8006
a(S'neat'
p8007
I1
tp8008
a(S'neat,lack'
p8009
I1
tp8010
a(S'neave'
p8011
I1
tp8012
a(S'necessary'
p8013
I1
tp8014
a(S'necessities'
p8015
I1
tp8016
a(S'needed.the'
p8017
I1
tp8018
a(S'negativly'
p8019
I1
tp8020
a(S'negg'
p8021
I1
tp8022
a(S'negitive'
p8023
I1
tp8024
a(S'negitve.the'
p8025
I1
tp8026
a(S'negitvly'
p8027
I1
tp8028
a(S'neighbor'
p8029
I1
tp8030
a(S'neove'
p8031
I1
tp8032
a(S'nesles'
p8033
I1
tp8034
a(S'nex'
p8035
I1
tp8036
a(S'next.the'
p8037
I1
tp8038
a(S'nextime\x94do'
p8039
I1
tp8040
a(S'nia'
p8041
I1
tp8042
a(S'nidsnes'
p8043
I1
tp8044
a(S'nile'
p8045
I1
tp8046
a(S'nite'
p8047
I1
tp8048
a(S'niuse'
p8049
I1
tp8050
a(S'no-'
p8051
I1
tp8052
a(S'no-brairer'
p8053
I1
tp8054
a(S'no-where'
p8055
I1
tp8056
a(S'no.each'
p8057
I1
tp8058
a(S'non-paved'
p8059
I1
tp8060
a(S'non-updated'
p8061
I1
tp8062
a(S'nonstop'
p8063
I1
tp8064
a(S'noone'
p8065
I1
tp8066
a(S'notes'
p8067
I1
tp8068
a(S'nothing.as'
p8069
I1
tp8070
a(S'nothingness'
p8071
I1
tp8072
a(S'noticedthe'
p8073
I1
tp8074
a(S'noting'
p8075
I1
tp8076
a(S'notthe'
p8077
I1
tp8078
a(S'noune'
p8079
I1
tp8080
a(S'nouroushment'
p8081
I1
tp8082
a(S'now.the'
p8083
I1
tp8084
a(S'nowadays.in'
p8085
I1
tp8086
a(S'nowever'
p8087
I1
tp8088
a(S'nowherethere'
p8089
I1
tp8090
a(S'nuertecy'
p8091
I1
tp8092
a(S"num1's"
p8093
I1
tp8094
a(S'num1,were'
p8095
I1
tp8096
a(S'num1,\x94'
p8097
I1
tp8098
a(S'num1.\x94'
p8099
I1
tp8100
a(S'num1/='
p8101
I1
tp8102
a(S'num1;'
p8103
I1
tp8104
a(S'num2.\x94'
p8105
I1
tp8106
a(S'num2.\x94the'
p8107
I1
tp8108
a(S'num3.\x94'
p8109
I1
tp8110
a(S'number'
p8111
I1
tp8112
a(S'n\x92t'
p8113
I1
tp8114
a(S'o'
I1
tp8115
a(S'oasis'
p8116
I1
tp8117
a(S'obey'
p8118
I1
tp8119
a(S'objections'
p8120
I1
tp8121
a(S'observe'
p8122
I1
tp8123
a(S'observes'
p8124
I1
tp8125
a(S'obstacles.the'
p8126
I1
tp8127
a(S'obsticals'
p8128
I1
tp8129
a(S'obsticalsthe'
p8130
I1
tp8131
a(S'obsticules'
p8132
I1
tp8133
a(S'occasional'
p8134
I1
tp8135
a(S'occasions'
p8136
I1
tp8137
a(S'occupied'
p8138
I1
tp8139
a(S'occurred'
p8140
I1
tp8141
a(S'ocean'
p8142
I1
tp8143
a(S'od'
p8144
I1
tp8145
a(S'of.there'
p8146
I1
tp8147
a(S'office)'
p8148
I1
tp8149
a(S'office.in'
p8150
I1
tp8151
a(S'office.the'
p8152
I1
tp8153
a(S'office\x94the'
p8154
I1
tp8155
a(S'ok'
p8156
I1
tp8157
a(S'okay.the'
p8158
I1
tp8159
a(S'olcasly'
p8160
I1
tp8161
a(S'old-'
p8162
I1
tp8163
a(S'old-timer'
p8164
I1
tp8165
a(S'olden'
p8166
I1
tp8167
a(S'oledrar'
p8168
I1
tp8169
a(S'on"(kurmaskie'
p8170
I1
tp8171
a(S'on('
p8172
I1
tp8173
a(S'on,\x94'
p8174
I1
tp8175
a(S'on.at'
p8176
I1
tp8177
a(S'on.in'
p8178
I1
tp8179
a(S'on.\x94'
p8180
I1
tp8181
a(S'one-fifth'
p8182
I1
tp8183
a(S'one\x92s'
p8184
I1
tp8185
a(S'onnly'
p8186
I1
tp8187
a(S'onthe'
p8188
I1
tp8189
a(S'ooed'
p8190
I1
tp8191
a(S'ooted'
p8192
I1
tp8193
a(S'oozes'
p8194
I1
tp8195
a(S'oozing'
p8196
I1
tp8197
a(S'op'
p8198
I1
tp8199
a(S'opponent'
p8200
I1
tp8201
a(S'opposite'
p8202
I1
tp8203
a(S'or,.\x94'
p8204
I1
tp8205
a(S'organisms'
p8206
I1
tp8207
a(S'organization1\x92l'
p8208
I1
tp8209
a(S'organization2'
p8210
I1
tp8211
a(S'organs'
p8212
I1
tp8213
a(S'otherwise'
p8214
I1
tp8215
a(S'out.during'
p8216
I1
tp8217
a(S'out.in'
p8218
I1
tp8219
a(S'out.the'
p8220
I1
tp8221
a(S'out.there'
p8222
I1
tp8223
a(S'out;'
p8224
I1
tp8225
a(S'outcast'
p8226
I1
tp8227
a(S'outdoors'
p8228
I1
tp8229
a(S'outof'
p8230
I1
tp8231
a(S'outrageous'
p8232
I1
tp8233
a(S'outsides'
p8234
I1
tp8235
a(S'out\x94'
p8236
I1
tp8237
a(S'ovely'
p8238
I1
tp8239
a(S'over.the'
p8240
I1
tp8241
a(S'over.there'
p8242
I1
tp8243
a(S'overal'
p8244
I1
tp8245
a(S'overcome.the'
p8246
I1
tp8247
a(S'overcomes'
p8248
I1
tp8249
a(S'overhead'
p8250
I1
tp8251
a(S'overtake'
p8252
I1
tp8253
a(S'overwhelm'
p8254
I1
tp8255
a(S'overwhelmed'
p8256
I1
tp8257
a(S'ovetook'
p8258
I1
tp8259
a(S'owners'
p8260
I1
tp8261
a(S'owners)'
p8262
I1
tp8263
a(S'ox'
p8264
I1
tp8265
a(S'pack'
p8266
I1
tp8267
a(S'paid'
p8268
I1
tp8269
a(S'painful'
p8270
I1
tp8271
a(S'paint'
p8272
I1
tp8273
a(S'palled'
p8274
I1
tp8275
a(S'panice'
p8276
I1
tp8277
a(S'panicked'
p8278
I1
tp8279
a(S'panicked;'
p8280
I1
tp8281
a(S'par'
p8282
I1
tp8283
a(S'paragraphs'
p8284
I1
tp8285
a(S'paranoid'
p8286
I1
tp8287
a(S'parched'
p8288
I1
tp8289
a(S'parches'
p8290
I1
tp8291
a(S'paridice'
p8292
I1
tp8293
a(S'park.in'
p8294
I1
tp8295
a(S'parkthe'
p8296
I1
tp8297
a(S'part)'
p8298
I1
tp8299
a(S'part.in'
p8300
I1
tp8301
a(S'part.the'
p8302
I1
tp8303
a(S'particulaly'
p8304
I1
tp8305
a(S'particularlly'
p8306
I1
tp8307
a(S'partner'
p8308
I1
tp8309
a(S'party'
p8310
I1
tp8311
a(S'pasage'
p8312
I1
tp8313
a(S'pased'
p8314
I1
tp8315
a(S'pasing'
p8316
I1
tp8317
a(S'pass-out'
p8318
I1
tp8319
a(S'passage,the'
p8320
I1
tp8321
a(S'passive'
p8322
I1
tp8323
a(S'past,trying'
p8324
I1
tp8325
a(S'pasted'
p8326
I1
tp8327
a(S'pasts'
p8328
I1
tp8329
a(S'path..\x94'
p8330
I1
tp8331
a(S'paths'
p8332
I1
tp8333
a(S'pathways'
p8334
I1
tp8335
a(S'path\x94'
p8336
I1
tp8337
a(S'path\x94(kurmaskie'
p8338
I1
tp8339
a(S'payed'
p8340
I1
tp8341
a(S'peacefulness'
p8342
I1
tp8343
a(S'peadling'
p8344
I1
tp8345
a(S'pebbles.\x94'
p8346
I1
tp8347
a(S'pedal.the'
p8348
I1
tp8349
a(S'pedalig'
p8350
I1
tp8351
a(S'pedalists'
p8352
I1
tp8353
a(S'peddaling'
p8354
I1
tp8355
a(S'peddels'
p8356
I1
tp8357
a(S'peddl'
p8358
I1
tp8359
a(S'peddled'
p8360
I1
tp8361
a(S'pedel'
p8362
I1
tp8363
a(S'pedeled'
p8364
I1
tp8365
a(S'peek'
p8366
I1
tp8367
a(S'peole'
p8368
I1
tp8369
a(S'peopl'
p8370
I1
tp8371
a(S'people!the'
p8372
I1
tp8373
a(S'people.even'
p8374
I1
tp8375
a(S'people.in'
p8376
I1
tp8377
a(S'peoples'
p8378
I1
tp8379
a(S'people\x92s'
p8380
I1
tp8381
a(S'perception'
p8382
I1
tp8383
a(S'perch'
p8384
I1
tp8385
a(S'perfectly'
p8386
I1
tp8387
a(S'performed'
p8388
I1
tp8389
a(S'performence'
p8390
I1
tp8391
a(S'perpetuates'
p8392
I1
tp8393
a(S'persaveering'
p8394
I1
tp8395
a(S'perserverance'
p8396
I1
tp8397
a(S'perserverd'
p8398
I1
tp8399
a(S'perservere'
p8400
I1
tp8401
a(S'perservered'
p8402
I1
tp8403
a(S'persisted'
p8404
I1
tp8405
a(S'persitance'
p8406
I1
tp8407
a(S'perso'
p8408
I1
tp8409
a(S'person1.\x94'
p8410
I1
tp8411
a(S'person1\x92s'
p8412
I1
tp8413
a(S'personalith'
p8414
I1
tp8415
a(S'persons'
p8416
I1
tp8417
a(S'perspiration'
p8418
I1
tp8419
a(S'persuaded'
p8420
I1
tp8421
a(S'persueing'
p8422
I1
tp8423
a(S'pert'
p8424
I1
tp8425
a(S'pessamistic'
p8426
I1
tp8427
a(S'pessimism.eventually'
p8428
I1
tp8429
a(S'pessimist'
p8430
I1
tp8431
a(S'pessimistic'
p8432
I1
tp8433
a(S'petal\x94'
p8434
I1
tp8435
a(S'phisical'
p8436
I1
tp8437
a(S'phisically'
p8438
I1
tp8439
a(S'photo.the'
p8440
I1
tp8441
a(S'phrases'
p8442
I1
tp8443
a(S'physicall'
p8444
I1
tp8445
a(S'physicaly'
p8446
I1
tp8447
a(S'picking'
p8448
I1
tp8449
a(S'picnic'
p8450
I1
tp8451
a(S'pin'
p8452
I1
tp8453
a(S'piney'
p8454
I1
tp8455
a(S'pipe'
p8456
I1
tp8457
a(S'piping'
p8458
I1
tp8459
a(S'pitted'
p8460
I1
tp8461
a(S'place.both'
p8462
I1
tp8463
a(S'place.in'
p8464
I1
tp8465
a(S'place.the'
p8466
I1
tp8467
a(S'places\x93at'
p8468
I1
tp8469
a(S'plains'
p8470
I1
tp8471
a(S'plane'
p8472
I1
tp8473
a(S'plannet'
p8474
I1
tp8475
a(S'planning'
p8476
I1
tp8477
a(S'plans'
p8478
I1
tp8479
a(S'plant.\x94.he'
p8480
I1
tp8481
a(S'plants'
p8482
I1
tp8483
a(S'plat'
p8484
I1
tp8485
a(S'pleased'
p8486
I1
tp8487
a(S'pleasing'
p8488
I1
tp8489
a(S'pleasurable'
p8490
I1
tp8491
a(S'pleged'
p8492
I1
tp8493
a(S'ploven'
p8494
I1
tp8495
a(S'pluk'
p8496
I1
tp8497
a(S'pluse'
p8498
I1
tp8499
a(S'poem'
p8500
I1
tp8501
a(S'poiches'
p8502
I1
tp8503
a(S'point,tumbleweeds'
p8504
I1
tp8505
a(S'point.\x94'
p8506
I1
tp8507
a(S'pointing'
p8508
I1
tp8509
a(S'pointless'
p8510
I1
tp8511
a(S'poisenous'
p8512
I1
tp8513
a(S'poisnous'
p8514
I1
tp8515
a(S'poison'
p8516
I1
tp8517
a(S'ponds'
p8518
I1
tp8519
a(S'pop'
p8520
I1
tp8521
a(S'poporsed'
p8522
I1
tp8523
a(S'populated'
p8524
I1
tp8525
a(S'population'
p8526
I1
tp8527
a(S'porched'
p8528
I1
tp8529
a(S'porches.flat'
p8530
I1
tp8531
a(S'posed'
p8532
I1
tp8533
a(S'poseh'
p8534
I1
tp8535
a(S'poses'
p8536
I1
tp8537
a(S'posibility'
p8538
I1
tp8539
a(S'posion'
p8540
I1
tp8541
a(S'posionous'
p8542
I1
tp8543
a(S'positivly'
p8544
I1
tp8545
a(S'posotive'
p8546
I1
tp8547
a(S'possesion'
p8548
I1
tp8549
a(S'possesses'
p8550
I1
tp8551
a(S'possibley'
p8552
I1
tp8553
a(S'possitive'
p8554
I1
tp8555
a(S'postal'
p8556
I1
tp8557
a(S'post\x94'
p8558
I1
tp8559
a(S'pot'
p8560
I1
tp8561
a(S'potholes'
p8562
I1
tp8563
a(S'pounding'
p8564
I1
tp8565
a(S'pour'
p8566
I1
tp8567
a(S'pourch'
p8568
I1
tp8569
a(S'pourng'
p8570
I1
tp8571
a(S'power.in'
p8572
I1
tp8573
a(S'powered'
p8574
I1
tp8575
a(S'poys'
p8576
I1
tp8577
a(S'practice'
p8578
I1
tp8579
a(S'praise'
p8580
I1
tp8581
a(S'prambeing'
p8582
I1
tp8583
a(S'pray'
p8584
I1
tp8585
a(S'precarious'
p8586
I1
tp8587
a(S'precaution'
p8588
I1
tp8589
a(S'preceeds'
p8590
I1
tp8591
a(S'precious'
p8592
I1
tp8593
a(S'prepaired'
p8594
I1
tp8595
a(S'prepare'
p8596
I1
tp8597
a(S'presented'
p8598
I1
tp8599
a(S'president'
p8600
I1
tp8601
a(S'prevelent'
p8602
I1
tp8603
a(S'prevents'
p8604
I1
tp8605
a(S'preview'
p8606
I1
tp8607
a(S'previously'
p8608
I1
tp8609
a(S'prime'
p8610
I1
tp8611
a(S'prit'
p8612
I1
tp8613
a(S'pritty'
p8614
I1
tp8615
a(S'probably.in'
p8616
I1
tp8617
a(S'problem.almost'
p8618
I1
tp8619
a(S'proceeds'
p8620
I1
tp8621
a(S'produce'
p8622
I1
tp8623
a(S'producing'
p8624
I1
tp8625
a(S'profusely'
p8626
I1
tp8627
a(S'progress'
p8628
I1
tp8629
a(S'progresses'
p8630
I1
tp8631
a(S'promise'
p8632
I1
tp8633
a(S'promising-'
p8634
I1
tp8635
a(S'prospered'
p8636
I1
tp8637
a(S'prospering'
p8638
I1
tp8639
a(S'prove'
p8640
I1
tp8641
a(S'proven'
p8642
I1
tp8643
a(S'provoking'
p8644
I1
tp8645
a(S'puformance'
p8646
I1
tp8647
a(S'pufornenance'
p8648
I1
tp8649
a(S'pull'
p8650
I1
tp8651
a(S'pump,\x94'
p8652
I1
tp8653
a(S'pump.\x94'
p8654
I1
tp8655
a(S'pumps.\x94'
p8656
I1
tp8657
a(S'pump\x92s'
p8658
I1
tp8659
a(S'punishments'
p8660
I1
tp8661
a(S'pur'
p8662
I1
tp8663
a(S'purchess,hce'
p8664
I1
tp8665
a(S'pushs'
p8666
I1
tp8667
a(S'quality.in'
p8668
I1
tp8669
a(S'quech'
p8670
I1
tp8671
a(S'queruring'
p8672
I1
tp8673
a(S'quickest'
p8674
I1
tp8675
a(S'quickley'
p8676
I1
tp8677
a(S'quickly\x94'
p8678
I1
tp8679
a(S'quote;'
p8680
I1
tp8681
a(S'quoted'
p8682
I1
tp8683
a(S'race.the'
p8684
I1
tp8685
a(S'rached'
p8686
I1
tp8687
a(S'rage'
p8688
I1
tp8689
a(S'ragh'
p8690
I1
tp8691
a(S'rahas'
p8692
I1
tp8693
a(S'rained'
p8694
I1
tp8695
a(S'raining'
p8696
I1
tp8697
a(S'raised'
p8698
I1
tp8699
a(S'raised.the'
p8700
I1
tp8701
a(S'raising'
p8702
I1
tp8703
a(S'ralling'
p8704
I1
tp8705
a(S'ramshacked'
p8706
I1
tp8707
a(S'ramshackie'
p8708
I1
tp8709
a(S'ramshackly'
p8710
I1
tp8711
a(S'ramshacle'
p8712
I1
tp8713
a(S'ramshacure'
p8714
I1
tp8715
a(S'ramshockle'
p8716
I1
tp8717
a(S'randing'
p8718
I1
tp8719
a(S'rapidly'
p8720
I1
tp8721
a(S'ration'
p8722
I1
tp8723
a(S'rationing'
p8724
I1
tp8725
a(S'rattlesnake'
p8726
I1
tp8727
a(S'raugher'
p8728
I1
tp8729
a(S'rays'
p8730
I1
tp8731
a(S're-hydrate'
p8732
I1
tp8733
a(S'reacher'
p8734
I1
tp8735
a(S'react'
p8736
I1
tp8737
a(S'read.the'
p8738
I1
tp8739
a(S'read:rough'
p8740
I1
tp8741
a(S'reader\x92s'
p8742
I1
tp8743
a(S'read\x94'
p8744
I1
tp8745
a(S'realice'
p8746
I1
tp8747
a(S'realiced'
p8748
I1
tp8749
a(S'realistic'
p8750
I1
tp8751
a(S'realivingly'
p8752
I1
tp8753
a(S'realizating'
p8754
I1
tp8755
a(S'realyed'
p8756
I1
tp8757
a(S'reason\x92s'
p8758
I1
tp8759
a(S'reassurance'
p8760
I1
tp8761
a(S'reassured'
p8762
I1
tp8763
a(S'reassuring'
p8764
I1
tp8765
a(S'reasurance'
p8766
I1
tp8767
a(S'recalled'
p8768
I1
tp8769
a(S'recalls'
p8770
I1
tp8771
a(S'receive'
p8772
I1
tp8773
a(S'receiving'
p8774
I1
tp8775
a(S'recipe'
p8776
I1
tp8777
a(S'recognizes'
p8778
I1
tp8779
a(S'recollection'
p8780
I1
tp8781
a(S'red'
p8782
I1
tp8783
a(S'redicuious'
p8784
I1
tp8785
a(S'redicuiouthe'
p8786
I1
tp8787
a(S'reduce'
p8788
I1
tp8789
a(S'reduced'
p8790
I1
tp8791
a(S'redufrom'
p8792
I1
tp8793
a(S'refering'
p8794
I1
tp8795
a(S'referrs'
p8796
I1
tp8797
a(S'reflection'
p8798
I1
tp8799
a(S'reform'
p8800
I1
tp8801
a(S'refreashed'
p8802
I1
tp8803
a(S'refreashing'
p8804
I1
tp8805
a(S'refreshes'
p8806
I1
tp8807
a(S'refudge'
p8808
I1
tp8809
a(S'refuel'
p8810
I1
tp8811
a(S'regain'
p8812
I1
tp8813
a(S'reganed'
p8814
I1
tp8815
a(S'region'
p8816
I1
tp8817
a(S'regions'
p8818
I1
tp8819
a(S'regrate'
p8820
I1
tp8821
a(S'regreating'
p8822
I1
tp8823
a(S'regrets'
p8824
I1
tp8825
a(S'regularly,and'
p8826
I1
tp8827
a(S'regularly,\x94'
p8828
I1
tp8829
a(S'regularly\x94'
p8830
I1
tp8831
a(S'rehydrate.in'
p8832
I1
tp8833
a(S'reining'
p8834
I1
tp8835
a(S'rejuvenated'
p8836
I1
tp8837
a(S'relate'
p8838
I1
tp8839
a(S'relating'
p8840
I1
tp8841
a(S'relatively'
p8842
I1
tp8843
a(S'relaxation'
p8844
I1
tp8845
a(S'relaxed'
p8846
I1
tp8847
a(S'relaxes'
p8848
I1
tp8849
a(S'relaxing'
p8850
I1
tp8851
a(S'releases'
p8852
I1
tp8853
a(S'releizes'
p8854
I1
tp8855
a(S'relentless'
p8856
I1
tp8857
a(S'releve'
p8858
I1
tp8859
a(S'reliable'
p8860
I1
tp8861
a(S'reliced'
p8862
I1
tp8863
a(S'relief.first'
p8864
I1
tp8865
a(S'relieved.heat'
p8866
I1
tp8867
a(S'relif'
p8868
I1
tp8869
a(S'relifed'
p8870
I1
tp8871
a(S'relise'
p8872
I1
tp8873
a(S'relizes'
p8874
I1
tp8875
a(S'reloaded'
p8876
I1
tp8877
a(S'relylittic'
p8878
I1
tp8879
a(S'remembers'
p8880
I1
tp8881
a(S'remotness'
p8882
I1
tp8883
a(S'renew'
p8884
I1
tp8885
a(S'repalced'
p8886
I1
tp8887
a(S'replaced.the'
p8888
I1
tp8889
a(S'replenishing'
p8890
I1
tp8891
a(S'replerilshed'
p8892
I1
tp8893
a(S'requires'
p8894
I1
tp8895
a(S'requiring'
p8896
I1
tp8897
a(S'resembled'
p8898
I1
tp8899
a(S'resene'
p8900
I1
tp8901
a(S'resentment'
p8902
I1
tp8903
a(S'reserve'
p8904
I1
tp8905
a(S'resigned'
p8906
I1
tp8907
a(S'resisted'
p8908
I1
tp8909
a(S'responds'
p8910
I1
tp8911
a(S'responese'
p8912
I1
tp8913
a(S'rest.the'
p8914
I1
tp8915
a(S'rested'
p8916
I1
tp8917
a(S'resting'
p8918
I1
tp8919
a(S'restless'
p8920
I1
tp8921
a(S'restock'
p8922
I1
tp8923
a(S'restored'
p8924
I1
tp8925
a(S'resulted'
p8926
I1
tp8927
a(S'resulting'
p8928
I1
tp8929
a(S'retain'
p8930
I1
tp8931
a(S'retention'
p8932
I1
tp8933
a(S'retire'
p8934
I1
tp8935
a(S'return'
p8936
I1
tp8937
a(S'returns'
p8938
I1
tp8939
a(S'revive'
p8940
I1
tp8941
a(S'rewarded'
p8942
I1
tp8943
a(S'rich'
p8944
I1
tp8945
a(S'ride.as'
p8946
I1
tp8947
a(S'ride.excitement'
p8948
I1
tp8949
a(S'ride.throughout'
p8950
I1
tp8951
a(S'ride.\x94'
p8952
I1
tp8953
a(S'rider.the'
p8954
I1
tp8955
a(S'rider\x92s'
p8956
I1
tp8957
a(S'rides.the'
p8958
I1
tp8959
a(S'ridethe'
p8960
I1
tp8961
a(S'rideto'
p8962
I1
tp8963
a(S'ridicuosly'
p8964
I1
tp8965
a(S'ridicuously'
p8966
I1
tp8967
a(S'ridin'
p8968
I1
tp8969
a(S'riding,\x94'
p8970
I1
tp8971
a(S'ridingall'
p8972
I1
tp8973
a(S'riduculously'
p8974
I1
tp8975
a(S'ridy'
p8976
I1
tp8977
a(S'right,but'
p8978
I1
tp8979
a(S'right,had'
p8980
I1
tp8981
a(S'rigorous'
p8982
I1
tp8983
a(S'rigurous'
p8984
I1
tp8985
a(S'riht'
p8986
I1
tp8987
a(S'riped'
p8988
I1
tp8989
a(S'rippling'
p8990
I1
tp8991
a(S'rips'
p8992
I1
tp8993
a(S'risen'
p8994
I1
tp8995
a(S'risum'
p8996
I1
tp8997
a(S'rivers,\x94'
p8998
I1
tp8999
a(S'rivers.the'
p9000
I1
tp9001
a(S'riverwhen'
p9002
I1
tp9003
a(S'road.during'
p9004
I1
tp9005
a(S'road.there'
p9006
I1
tp9007
a(S'road.\x94'
p9008
I1
tp9009
a(S'road:do'
p9010
I1
tp9011
a(S'roads.this'
p9012
I1
tp9013
a(S'roadwas'
p9014
I1
tp9015
a(S'roadways'
p9016
I1
tp9017
a(S'road\x92s'
p9018
I1
tp9019
a(S'rock'
p9020
I1
tp9021
a(S'rod'
p9022
I1
tp9023
a(S'rods'
p9024
I1
tp9025
a(S'roles'
p9026
I1
tp9027
a(S'roling'
p9028
I1
tp9029
a(S'romds'
p9030
I1
tp9031
a(S'rood'
p9032
I1
tp9033
a(S'room'
p9034
I1
tp9035
a(S'rope'
p9036
I1
tp9037
a(S'roud'
p9038
I1
tp9039
a(S'rough.in'
p9040
I1
tp9041
a(S'roughed'
p9042
I1
tp9043
a(S'rougher.there'
p9044
I1
tp9045
a(S'roughly'
p9046
I1
tp9047
a(S'rought'
p9048
I1
tp9049
a(S'rounded'
p9050
I1
tp9051
a(S'rounds'
p9052
I1
tp9053
a(S'rout'
p9054
I1
tp9055
a(S'routine'
p9056
I1
tp9057
a(S'rubbed'
p9058
I1
tp9059
a(S'ruggid'
p9060
I1
tp9061
a(S'run-down'
p9062
I1
tp9063
a(S'run.it'
p9064
I1
tp9065
a(S'rundown'
p9066
I1
tp9067
a(S'runing'
p9068
I1
tp9069
a(S'runningout'
p9070
I1
tp9071
a(S'rush'
p9072
I1
tp9073
a(S'rushed'
p9074
I1
tp9075
a(S'rusts'
p9076
I1
tp9077
a(S'rusty-bumpy'
p9078
I1
tp9079
a(S'rutsy'
p9080
I1
tp9081
a(S'ruunning'
p9082
I1
tp9083
a(S'rythm'
p9084
I1
tp9085
a(S'sabstatal'
p9086
I1
tp9087
a(S'sacrifice'
p9088
I1
tp9089
a(S'sacting'
p9090
I1
tp9091
a(S'saddened'
p9092
I1
tp9093
a(S'sadists'
p9094
I1
tp9095
a(S'sadly'
p9096
I1
tp9097
a(S'safe.the'
p9098
I1
tp9099
a(S'safty.i'
p9100
I1
tp9101
a(S"said''"
p9102
I1
tp9103
a(S'said,"i'
p9104
I1
tp9105
a(S'said.he'
p9106
I1
tp9107
a(S'said.in'
p9108
I1
tp9109
a(S'saids'
p9110
I1
tp9111
a(S'sald'
p9112
I1
tp9113
a(S'saliva'
p9114
I1
tp9115
a(S'salling'
p9116
I1
tp9117
a(S'salt'
p9118
I1
tp9119
a(S'salvation'
p9120
I1
tp9121
a(S'sammertime'
p9122
I1
tp9123
a(S'sanctures'
p9124
I1
tp9125
a(S'sandblusted'
p9126
I1
tp9127
a(S'sands'
p9128
I1
tp9129
a(S'sane'
p9130
I1
tp9131
a(S'sanily'
p9132
I1
tp9133
a(S'sank'
p9134
I1
tp9135
a(S'sap'
p9136
I1
tp9137
a(S'saposed'
p9138
I1
tp9139
a(S'sarive.the'
p9140
I1
tp9141
a(S'sarley'
p9142
I1
tp9143
a(S'sarvingthe'
p9144
I1
tp9145
a(S'sat'
p9146
I1
tp9147
a(S'satisfaction'
p9148
I1
tp9149
a(S'satisfied'
p9150
I1
tp9151
a(S'sauna'
p9152
I1
tp9153
a(S'savedthe'
p9154
I1
tp9155
a(S'saves'
p9156
I1
tp9157
a(S'saving'
p9158
I1
tp9159
a(S'savor'
p9160
I1
tp9161
a(S'sayed'
p9162
I1
tp9163
a(S'sayin'
p9164
I1
tp9165
a(S'says,"i'
p9166
I1
tp9167
a(S'says,\x93it'
p9168
I1
tp9169
a(S'says.\x94'
p9170
I1
tp9171
a(S'says\x94'
p9172
I1
tp9173
a(S'scalding'
p9174
I1
tp9175
a(S'scarceness'
p9176
I1
tp9177
a(S'scarcity'
p9178
I1
tp9179
a(S'scaterd'
p9180
I1
tp9181
a(S'scenario'
p9182
I1
tp9183
a(S'scenary'
p9184
I1
tp9185
a(S'sched'
p9186
I1
tp9187
a(S'school'
p9188
I1
tp9189
a(S'scketle'
p9190
I1
tp9191
a(S'scorcing'
p9192
I1
tp9193
a(S'screw'
p9194
I1
tp9195
a(S'seal'
p9196
I1
tp9197
a(S'searches'
p9198
I1
tp9199
a(S'season'
p9200
I1
tp9201
a(S'sec'
p9202
I1
tp9203
a(S'seccondly'
p9204
I1
tp9205
a(S'secenery'
p9206
I1
tp9207
a(S'secured'
p9208
I1
tp9209
a(S'security'
p9210
I1
tp9211
a(S'seed'
p9212
I1
tp9213
a(S'seeds'
p9214
I1
tp9215
a(S'seeks'
p9216
I1
tp9217
a(S'seen.\x94'
p9218
I1
tp9219
a(S'seenery'
p9220
I1
tp9221
a(S'seethe'
p9222
I1
tp9223
a(S'see\x92s'
p9224
I1
tp9225
a(S'self,\x94'
p9226
I1
tp9227
a(S'self-control'
p9228
I1
tp9229
a(S'self.\x94'
p9230
I1
tp9231
a(S'selling'
p9232
I1
tp9233
a(S'semi'
p9234
I1
tp9235
a(S'senary'
p9236
I1
tp9237
a(S'sence'
p9238
I1
tp9239
a(S'sensation'
p9240
I1
tp9241
a(S'senteance'
p9242
I1
tp9243
a(S'sertting'
p9244
I1
tp9245
a(S'service'
p9246
I1
tp9247
a(S'setling'
p9248
I1
tp9249
a(S'settin'
p9250
I1
tp9251
a(S"setting's"
p9252
I1
tp9253
a(S'setting,and'
p9254
I1
tp9255
a(S'setting-related'
p9256
I1
tp9257
a(S'setting.as'
p9258
I1
tp9259
a(S'setting.everything'
p9260
I1
tp9261
a(S'settingswhile'
p9262
I1
tp9263
a(S'settingthe'
p9264
I1
tp9265
a(S'setting\x92s'
p9266
I1
tp9267
a(S'settle'
p9268
I1
tp9269
a(S'settled'
p9270
I1
tp9271
a(S'settlements'
p9272
I1
tp9273
a(S'settnig'
p9274
I1
tp9275
a(S'seveal'
p9276
I1
tp9277
a(S'seven'
p9278
I1
tp9279
a(S'severall'
p9280
I1
tp9281
a(S'severe'
p9282
I1
tp9283
a(S'severely'
p9284
I1
tp9285
a(S'severly'
p9286
I1
tp9287
a(S'shack'
p9288
I1
tp9289
a(S'shackle'
p9290
I1
tp9291
a(S'shackled'
p9292
I1
tp9293
a(S'shade-all'
p9294
I1
tp9295
a(S'shady'
p9296
I1
tp9297
a(S'shake.\x94'
p9298
I1
tp9299
a(S'shape.the'
p9300
I1
tp9301
a(S'shard'
p9302
I1
tp9303
a(S'shared'
p9304
I1
tp9305
a(S'sharp'
p9306
I1
tp9307
a(S'sharply'
p9308
I1
tp9309
a(S'shaving'
p9310
I1
tp9311
a(S'she/he'
p9312
I1
tp9313
a(S'shed.\x94@caps1'
p9314
I1
tp9315
a(S'sheds'
p9316
I1
tp9317
a(S'sheds\x94'
p9318
I1
tp9319
a(S'shed\x92'
p9320
I1
tp9321
a(S'sheet'
p9322
I1
tp9323
a(S'shep'
p9324
I1
tp9325
a(S'shine'
p9326
I1
tp9327
a(S'shirt\x94'
p9328
I1
tp9329
a(S'shoot'
p9330
I1
tp9331
a(S'shop.the'
p9332
I1
tp9333
a(S'short,rolling'
p9334
I1
tp9335
a(S'shortcut\x94'
p9336
I1
tp9337
a(S'shortly'
p9338
I1
tp9339
a(S'shoud'
p9340
I1
tp9341
a(S'shoutcut'
p9342
I1
tp9343
a(S'showes'
p9344
I1
tp9345
a(S'shreds'
p9346
I1
tp9347
a(S'shuold'
p9348
I1
tp9349
a(S'sicocss'
p9350
I1
tp9351
a(S'sides'
p9352
I1
tp9353
a(S'sight,not'
p9354
I1
tp9355
a(S'sign;'
p9356
I1
tp9357
a(S'signal'
p9358
I1
tp9359
a(S'significant'
p9360
I1
tp9361
a(S'silly'
p9362
I1
tp9363
a(S'simple'
p9364
I1
tp9365
a(S'simplist'
p9366
I1
tp9367
a(S'simultaneously'
p9368
I1
tp9369
a(S'sine'
p9370
I1
tp9371
a(S'singn'
p9372
I1
tp9373
a(S'sink.the'
p9374
I1
tp9375
a(S'sink;'
p9376
I1
tp9377
a(S'sinks'
p9378
I1
tp9379
a(S'sink\x94'
p9380
I1
tp9381
a(S'sinse'
p9382
I1
tp9383
a(S'sips,\x94'
p9384
I1
tp9385
a(S'sips.(kurmaskie)'
p9386
I1
tp9387
a(S'sips..\x94'
p9388
I1
tp9389
a(S'sir'
p9390
I1
tp9391
a(S'sir!'
p9392
I1
tp9393
a(S'sit'
p9394
I1
tp9395
a(S'sits'
p9396
I1
tp9397
a(S'situation.features'
p9398
I1
tp9399
a(S'six'
p9400
I1
tp9401
a(S'size'
p9402
I1
tp9403
a(S'skills'
p9404
I1
tp9405
a(S'skilt'
p9406
I1
tp9407
a(S'skin'
p9408
I1
tp9409
a(S'skrewed'
p9410
I1
tp9411
a(S'sky'
p9412
I1
tp9413
a(S'sleep'
p9414
I1
tp9415
a(S'slep'
p9416
I1
tp9417
a(S'slight'
p9418
I1
tp9419
a(S'slightly'
p9420
I1
tp9421
a(S'slip'
p9422
I1
tp9423
a(S'slopes'
p9424
I1
tp9425
a(S'sludge'
p9426
I1
tp9427
a(S'smart'
p9428
I1
tp9429
a(S'smile.\x94'
p9430
I1
tp9431
a(S'smile\x94the'
p9432
I1
tp9433
a(S'smily'
p9434
I1
tp9435
a(S'smoot'
p9436
I1
tp9437
a(S'smothness'
p9438
I1
tp9439
a(S'snacks'
p9440
I1
tp9441
a(S'snake,\x94'
p9442
I1
tp9443
a(S"snake.''"
p9444
I1
tp9445
a(S'snake...\x94'
p9446
I1
tp9447
a(S'snakes,and'
p9448
I1
tp9449
a(S'snakes.its'
p9450
I1
tp9451
a(S'snakes\x94'
p9452
I1
tp9453
a(S'so!'
p9454
I1
tp9455
a(S'so-'
p9456
I1
tp9457
a(S'so.in'
p9458
I1
tp9459
a(S'soaking'
p9460
I1
tp9461
a(S'soid'
p9462
I1
tp9463
a(S'soil'
p9464
I1
tp9465
a(S'soluation'
p9466
I1
tp9467
a(S'somehow'
p9468
I1
tp9469
a(S'someing'
p9470
I1
tp9471
a(S'someone.in'
p9472
I1
tp9473
a(S'someplace'
p9474
I1
tp9475
a(S'somewahat'
p9476
I1
tp9477
a(S'somewhat'
p9478
I1
tp9479
a(S'song'
p9480
I1
tp9481
a(S'sooooooooooooo'
p9482
I1
tp9483
a(S'sorching'
p9484
I1
tp9485
a(S'sore'
p9486
I1
tp9487
a(S'sorrow'
p9488
I1
tp9489
a(S'sorting'
p9490
I1
tp9491
a(S'sorts\x94'
p9492
I1
tp9493
a(S'soul'
p9494
I1
tp9495
a(S'sour'
p9496
I1
tp9497
a(S'source.\x94the'
p9498
I1
tp9499
a(S'souroundings'
p9500
I1
tp9501
a(S'sow'
p9502
I1
tp9503
a(S'spaces'
p9504
I1
tp9505
a(S'sparkes'
p9506
I1
tp9507
a(S'sparred'
p9508
I1
tp9509
a(S'specially'
p9510
I1
tp9511
a(S'spectaculiar'
p9512
I1
tp9513
a(S'speed.i'
p9514
I1
tp9515
a(S'speed.the'
p9516
I1
tp9517
a(S'speeds'
p9518
I1
tp9519
a(S'speeker'
p9520
I1
tp9521
a(S'spiket'
p9522
I1
tp9523
a(S'spin'
p9524
I1
tp9525
a(S'spirit"(@num1)'
p9526
I1
tp9527
a(S'spirit.\x94'
p9528
I1
tp9529
a(S'spirited'
p9530
I1
tp9531
a(S'spirit\x94'
p9532
I1
tp9533
a(S'spit'
p9534
I1
tp9535
a(S'spoiled'
p9536
I1
tp9537
a(S'spot...a'
p9538
I1
tp9539
a(S'spots'
p9540
I1
tp9541
a(S'spotted'
p9542
I1
tp9543
a(S'spouting'
p9544
I1
tp9545
a(S'sps,wide'
p9546
I1
tp9547
a(S'squirrel'
p9548
I1
tp9549
a(S'sreach'
p9550
I1
tp9551
a(S'sructure'
p9552
I1
tp9553
a(S'ssing'
p9554
I1
tp9555
a(S'stack'
p9556
I1
tp9557
a(S'stacked'
p9558
I1
tp9559
a(S'stages'
p9560
I1
tp9561
a(S'stamena'
p9562
I1
tp9563
a(S'stamina'
p9564
I1
tp9565
a(S'stand'
p9566
I1
tp9567
a(S'standards'
p9568
I1
tp9569
a(S'standing'
p9570
I1
tp9571
a(S'stares'
p9572
I1
tp9573
a(S'staring'
p9574
I1
tp9575
a(S'state.at'
p9576
I1
tp9577
a(S'state.thes'
p9578
I1
tp9579
a(S'stated,\x94'
p9580
I1
tp9581
a(S'statement.\x94this'
p9582
I1
tp9583
a(S'statements'
p9584
I1
tp9585
a(S'states,the'
p9586
I1
tp9587
a(S'states,\x93flat'
p9588
I1
tp9589
a(S'state\x93'
p9590
I1
tp9591
a(S'state\x94(@caps1'
p9592
I1
tp9593
a(S'stations'
p9594
I1
tp9595
a(S'status'
p9596
I1
tp9597
a(S'stayed'
p9598
I1
tp9599
a(S'staying'
p9600
I1
tp9601
a(S'steal'
p9602
I1
tp9603
a(S'steaming'
p9604
I1
tp9605
a(S'steyetling'
p9606
I1
tp9607
a(S'sticking'
p9608
I1
tp9609
a(S'sticky'
p9610
I1
tp9611
a(S'stiff'
p9612
I1
tp9613
a(S'stoned'
p9614
I1
tp9615
a(S'stopping'
p9616
I1
tp9617
a(S'store.the'
p9618
I1
tp9619
a(S'stories.the'
p9620
I1
tp9621
a(S'storm'
p9622
I1
tp9623
a(S'stort'
p9624
I1
tp9625
a(S'story,\x94'
p9626
I1
tp9627
a(S'story.certin'
p9628
I1
tp9629
a(S'story.condition'
p9630
I1
tp9631
a(S'story.there'
p9632
I1
tp9633
a(S'story.throughout'
p9634
I1
tp9635
a(S'storygreatly'
p9636
I1
tp9637
a(S'storys'
p9638
I1
tp9639
a(S'storythe'
p9640
I1
tp9641
a(S'straining'
p9642
I1
tp9643
a(S'strand'
p9644
I1
tp9645
a(S'stranger'
p9646
I1
tp9647
a(S'strats'
p9648
I1
tp9649
a(S'stream'
p9650
I1
tp9651
a(S'streaming'
p9652
I1
tp9653
a(S'strech'
p9654
I1
tp9655
a(S'street'
p9656
I1
tp9657
a(S'streets'
p9658
I1
tp9659
a(S'stregth'
p9660
I1
tp9661
a(S'strengths.the'
p9662
I1
tp9663
a(S'strength\x94'
p9664
I1
tp9665
a(S'strerigth'
p9666
I1
tp9667
a(S'stressed'
p9668
I1
tp9669
a(S'stresses'
p9670
I1
tp9671
a(S'stressing'
p9672
I1
tp9673
a(S'stretches'
p9674
I1
tp9675
a(S'strictly'
p9676
I1
tp9677
a(S'strike'
p9678
I1
tp9679
a(S'striping'
p9680
I1
tp9681
a(S'striving'
p9682
I1
tp9683
a(S'stroke,\x94'
p9684
I1
tp9685
a(S'stroke.in'
p9686
I1
tp9687
a(S'stroke.\x94'
p9688
I1
tp9689
a(S'stroke.\x94the'
p9690
I1
tp9691
a(S'strok\x94'
p9692
I1
tp9693
a(S'strong.the'
p9694
I1
tp9695
a(S'strongs'
p9696
I1
tp9697
a(S'strote'
p9698
I1
tp9699
a(S'strraing'
p9700
I1
tp9701
a(S'struggle.the'
p9702
I1
tp9703
a(S'struggled'
p9704
I1
tp9705
a(S'struggleing'
p9706
I1
tp9707
a(S'stubled'
p9708
I1
tp9709
a(S'stuch'
p9710
I1
tp9711
a(S'subburbs'
p9712
I1
tp9713
a(S'substance\x94'
p9714
I1
tp9715
a(S'substantitially'
p9716
I1
tp9717
a(S'substitute'
p9718
I1
tp9719
a(S'succeed'
p9720
I1
tp9721
a(S'success.in'
p9722
I1
tp9723
a(S'successful'
p9724
I1
tp9725
a(S'successfully'
p9726
I1
tp9727
a(S'suckenc-stone'
p9728
I1
tp9729
a(S'suffering'
p9730
I1
tp9731
a(S'suffering.in'
p9732
I1
tp9733
a(S'suffs'
p9734
I1
tp9735
a(S'suggest'
p9736
I1
tp9737
a(S'suggested'
p9738
I1
tp9739
a(S'sukkers'
p9740
I1
tp9741
a(S'summer.in'
p9742
I1
tp9743
a(S'summerthe'
p9744
I1
tp9745
a(S'sun.joe'
p9746
I1
tp9747
a(S'sun]'
p9748
I1
tp9749
a(S'sunburn'
p9750
I1
tp9751
a(S'sunshine'
p9752
I1
tp9753
a(S'sun\x94'
p9754
I1
tp9755
a(S'suply'
p9756
I1
tp9757
a(S'supporter'
p9758
I1
tp9759
a(S'supposedly'
p9760
I1
tp9761
a(S'surely'
p9762
I1
tp9763
a(S'surf'
p9764
I1
tp9765
a(S'surfage'
p9766
I1
tp9767
a(S'surfer'
p9768
I1
tp9769
a(S'surfers'
p9770
I1
tp9771
a(S'surfing'
p9772
I1
tp9773
a(S'surprise'
p9774
I1
tp9775
a(S'surprised'
p9776
I1
tp9777
a(S'surrandings'
p9778
I1
tp9779
a(S'surrouding'
p9780
I1
tp9781
a(S'survival.the'
p9782
I1
tp9783
a(S'swallowed'
p9784
I1
tp9785
a(S'swampland'
p9786
I1
tp9787
a(S'swear'
p9788
I1
tp9789
a(S'sweet'
p9790
I1
tp9791
a(S'sweety'
p9792
I1
tp9793
a(S'swettering'
p9794
I1
tp9795
a(S'swimming'
p9796
I1
tp9797
a(S'swore'
p9798
I1
tp9799
a(S'swreating'
p9800
I1
tp9801
a(S'symbolizing'
p9802
I1
tp9803
a(S'symptom'
p9804
I1
tp9805
a(S'syos'
p9806
I1
tp9807
a(S'tabe'
p9808
I1
tp9809
a(S'tack'
p9810
I1
tp9811
a(S'tacks'
p9812
I1
tp9813
a(S'tailoring'
p9814
I1
tp9815
a(S'tainted'
p9816
I1
tp9817
a(S'takens'
p9818
I1
tp9819
a(S'taliks'
p9820
I1
tp9821
a(S'tambleweeds'
p9822
I1
tp9823
a(S'tamest'
p9824
I1
tp9825
a(S'tantilising'
p9826
I1
tp9827
a(S'tantilizing'
p9828
I1
tp9829
a(S'target'
p9830
I1
tp9831
a(S'tarrain'
p9832
I1
tp9833
a(S'tarren'
p9834
I1
tp9835
a(S'tarrens'
p9836
I1
tp9837
a(S'tast'
p9838
I1
tp9839
a(S'tastd'
p9840
I1
tp9841
a(S'tasts'
p9842
I1
tp9843
a(S'taunt'
p9844
I1
tp9845
a(S'tay'
p9846
I1
tp9847
a(S'teach'
p9848
I1
tp9849
a(S'tears'
p9850
I1
tp9851
a(S'technique'
p9852
I1
tp9853
a(S'technology'
p9854
I1
tp9855
a(S'tedious'
p9856
I1
tp9857
a(S'tedious-all'
p9858
I1
tp9859
a(S'teenager'
p9860
I1
tp9861
a(S'temperture'
p9862
I1
tp9863
a(S'tempeter'
p9864
I1
tp9865
a(S'tempeture'
p9866
I1
tp9867
a(S'tend'
p9868
I1
tp9869
a(S'tender'
p9870
I1
tp9871
a(S'tent'
p9872
I1
tp9873
a(S'tents'
p9874
I1
tp9875
a(S'terair'
p9876
I1
tp9877
a(S'term'
p9878
I1
tp9879
a(S'terminated'
p9880
I1
tp9881
a(S'terrail'
p9882
I1
tp9883
a(S'terrains.where'
p9884
I1
tp9885
a(S'terran'
p9886
I1
tp9887
a(S'terrible.many'
p9888
I1
tp9889
a(S'terrifying'
p9890
I1
tp9891
a(S'territory'
p9892
I1
tp9893
a(S'tests'
p9894
I1
tp9895
a(S'texted'
p9896
I1
tp9897
a(S'tgive'
p9898
I1
tp9899
a(S'th'
p9900
I1
tp9901
a(S'thanked'
p9902
I1
tp9903
a(S'thankfull'
p9904
I1
tp9905
a(S'thankfully'
p9906
I1
tp9907
a(S'thanks'
p9908
I1
tp9909
a(S'thatin'
p9910
I1
tp9911
a(S"the's"
p9912
I1
tp9913
a(S'the??'
p9914
I1
tp9915
a(S'theer'
p9916
I1
tp9917
a(S'thein'
p9918
I1
tp9919
a(S'theire'
p9920
I1
tp9921
a(S'them,\x94'
p9922
I1
tp9923
a(S'them.\x94the'
p9924
I1
tp9925
a(S'theme'
p9926
I1
tp9927
a(S"there's"
p9928
I1
tp9929
a(S'there,like'
p9930
I1
tp9931
a(S'there,then'
p9932
I1
tp9933
a(S'there?'
p9934
I1
tp9935
a(S'thereafter'
p9936
I1
tp9937
a(S'therefor'
p9938
I1
tp9939
a(S'therefour'
p9940
I1
tp9941
a(S'thermia'
p9942
I1
tp9943
a(S'thes'
p9944
I1
tp9945
a(S'thickest'
p9946
I1
tp9947
a(S'thier'
p9948
I1
tp9949
a(S'thined'
p9950
I1
tp9951
a(S'things.the'
p9952
I1
tp9953
a(S'thinkof'
p9954
I1
tp9955
a(S'thirst,\x94'
p9956
I1
tp9957
a(S'thirst.in'
p9958
I1
tp9959
a(S'thirst.the'
p9960
I1
tp9961
a(S'thirsts'
p9962
I1
tp9963
a(S'thirsty-ness'
p9964
I1
tp9965
a(S'thirsty."first'
p9966
I1
tp9967
a(S'thirst\x94'
p9968
I1
tp9969
a(S'thirteen'
p9970
I1
tp9971
a(S'thirtier'
p9972
I1
tp9973
a(S'thirty'
p9974
I1
tp9975
a(S'thisthe'
p9976
I1
tp9977
a(S'thoot'
p9978
I1
tp9979
a(S'thot'
p9980
I1
tp9981
a(S'thou'
p9982
I1
tp9983
a(S'thought.if'
p9984
I1
tp9985
a(S'thre'
p9986
I1
tp9987
a(S'threat'
p9988
I1
tp9989
a(S'threatened'
p9990
I1
tp9991
a(S'threats'
p9992
I1
tp9993
a(S'threes'
p9994
I1
tp9995
a(S'thrister'
p9996
I1
tp9997
a(S'thrist\x94'
p9998
I1
tp9999
a(S'thro'
p10000
I1
tp10001
a(S'throat'
p10002
I1
tp10003
a(S'throat\x94'
p10004
I1
tp10005
a(S'throgh'
p10006
I1
tp10007
a(S'through.fighting'
p10008
I1
tp10009
a(S'through.the'
p10010
I1
tp10011
a(S'through.well'
p10012
I1
tp10013
a(S'through;'
p10014
I1
tp10015
a(S'throuhg'
p10016
I1
tp10017
a(S'throuout'
p10018
I1
tp10019
a(S'throw'
p10020
I1
tp10021
a(S'throwing'
p10022
I1
tp10023
a(S'throws'
p10024
I1
tp10025
a(S'thrust'
p10026
I1
tp10027
a(S'thugs'
p10028
I1
tp10029
a(S'ticed'
p10030
I1
tp10031
a(S'tierd'
p10032
I1
tp10033
a(S'tiering'
p10034
I1
tp10035
a(S'ties'
p10036
I1
tp10037
a(S'til'
p10038
I1
tp10039
a(S'time-sat'
p10040
I1
tp10041
a(S'time-say'
p10042
I1
tp10043
a(S'time.the'
p10044
I1
tp10045
a(S'time.\x94'
p10046
I1
tp10047
a(S'time1'
p10048
I1
tp10049
a(S'timeas'
p10050
I1
tp10051
a(S'timer'
p10052
I1
tp10053
a(S'timers\x94'
p10054
I1
tp10055
a(S'times.the'
p10056
I1
tp10057
a(S'tine'
p10058
I1
tp10059
a(S'tined'
p10060
I1
tp10061
a(S'tipping'
p10062
I1
tp10063
a(S'tirde'
p10064
I1
tp10065
a(S'tired,the'
p10066
I1
tp10067
a(S'tired.the'
p10068
I1
tp10069
a(S'tiredd'
p10070
I1
tp10071
a(S'tirerd'
p10072
I1
tp10073
a(S'tirst'
p10074
I1
tp10075
a(S'title'
p10076
I1
tp10077
a(S'ti\x92s'
p10078
I1
tp10079
a(S'to,his'
p10080
I1
tp10081
a(S'to;to'
p10082
I1
tp10083
a(S'today'
p10084
I1
tp10085
a(S'todie'
p10086
I1
tp10087
a(S'together'
p10088
I1
tp10089
a(S'toil'
p10090
I1
tp10091
a(S'toiledon\x94'
p10092
I1
tp10093
a(S'toke'
p10094
I1
tp10095
a(S'tolerance'
p10096
I1
tp10097
a(S'tolld'
p10098
I1
tp10099
a(S'ton'
p10100
I1
tp10101
a(S'ton-like'
p10102
I1
tp10103
a(S'tontalizing'
p10104
I1
tp10105
a(S'too.although'
p10106
I1
tp10107
a(S'tool'
p10108
I1
tp10109
a(S'topof'
p10110
I1
tp10111
a(S'tormenting'
p10112
I1
tp10113
a(S'torn'
p10114
I1
tp10115
a(S'tostick'
p10116
I1
tp10117
a(S'totzy'
p10118
I1
tp10119
a(S'tough.the'
p10120
I1
tp10121
a(S'tought'
p10122
I1
tp10123
a(S'tourtement'
p10124
I1
tp10125
a(S'towands'
p10126
I1
tp10127
a(S'tower'
p10128
I1
tp10129
a(S'town"and'
p10130
I1
tp10131
a(S"town''...it"
p10132
I1
tp10133
a(S"town's"
p10134
I1
tp10135
a(S'town)'
p10136
I1
tp10137
a(S'town.on'
p10138
I1
tp10139
a(S'town.the'
p10140
I1
tp10141
a(S'town.\x94the'
p10142
I1
tp10143
a(S'townin'
p10144
I1
tp10145
a(S'townnature'
p10146
I1
tp10147
a(S'towns,\x94'
p10148
I1
tp10149
a(S'towns-ghost'
p10150
I1
tp10151
a(S'towns-none'
p10152
I1
tp10153
a(S'towns\x94'
p10154
I1
tp10155
a(S'town\x94.the'
p10156
I1
tp10157
a(S'tp'
p10158
I1
tp10159
a(S'traditionally'
p10160
I1
tp10161
a(S'traditonal'
p10162
I1
tp10163
a(S'traffic'
p10164
I1
tp10165
a(S'tragic'
p10166
I1
tp10167
a(S'train.the'
p10168
I1
tp10169
a(S'trainy'
p10170
I1
tp10171
a(S'transitin'
p10172
I1
tp10173
a(S'transportation'
p10174
I1
tp10175
a(S'trap'
p10176
I1
tp10177
a(S'traumatic.the'
p10178
I1
tp10179
a(S'trave'
p10180
I1
tp10181
a(S'travel.features'
p10182
I1
tp10183
a(S'traveling.the'
p10184
I1
tp10185
a(S'travellers'
p10186
I1
tp10187
a(S'traver'
p10188
I1
tp10189
a(S'traverse'
p10190
I1
tp10191
a(S'travilng'
p10192
I1
tp10193
a(S'travling'
p10194
I1
tp10195
a(S'treat'
p10196
I1
tp10197
a(S'treaterous'
p10198
I1
tp10199
a(S'trecharous'
p10200
I1
tp10201
a(S'trechorous'
p10202
I1
tp10203
a(S'treck'
p10204
I1
tp10205
a(S'trials'
p10206
I1
tp10207
a(S'trick'
p10208
I1
tp10209
a(S'tricky'
p10210
I1
tp10211
a(S'trie'
p10212
I1
tp10213
a(S'trip.how'
p10214
I1
tp10215
a(S'trip.the'
p10216
I1
tp10217
a(S'trip.there'
p10218
I1
tp10219
a(S'trips'
p10220
I1
tp10221
a(S'tripthe'
p10222
I1
tp10223
a(S'triumph'
p10224
I1
tp10225
a(S'triumphs'
p10226
I1
tp10227
a(S'triying'
p10228
I1
tp10229
a(S'trobled'
p10230
I1
tp10231
a(S'trouble.since'
p10232
I1
tp10233
a(S'trouble.the'
p10234
I1
tp10235
a(S'troublesome'
p10236
I1
tp10237
a(S'troubling,\x94(page'
p10238
I1
tp10239
a(S'troubling.\x94he'
p10240
I1
tp10241
a(S'trough'
p10242
I1
tp10243
a(S'trudge'
p10244
I1
tp10245
a(S'trustting'
p10246
I1
tp10247
a(S'trying,\x94'
p10248
I1
tp10249
a(S'trying.when'
p10250
I1
tp10251
a(S'tually'
p10252
I1
tp10253
a(S'tumberweeds'
p10254
I1
tp10255
a(S'tumbleweds'
p10256
I1
tp10257
a(S'tuoards'
p10258
I1
tp10259
a(S'turane'
p10260
I1
tp10261
a(S'turning'
p10262
I1
tp10263
a(S'twice'
p10264
I1
tp10265
a(S'twice.the'
p10266
I1
tp10267
a(S'twist'
p10268
I1
tp10269
a(S'twisted'
p10270
I1
tp10271
a(S'twists'
p10272
I1
tp10273
a(S'twist\x94'
p10274
I1
tp10275
a(S'two,it'
p10276
I1
tp10277
a(S'tyered'
p10278
I1
tp10279
a(S'tyes'
p10280
I1
tp10281
a(S'types'
p10282
I1
tp10283
a(S'u'
I1
tp10284
a(S'ultimately'
p10285
I1
tp10286
a(S'un'
p10287
I1
tp10288
a(S'unavailable'
p10289
I1
tp10290
a(S'unbareabalnes'
p10291
I1
tp10292
a(S'unbearable.the'
p10293
I1
tp10294
a(S'unbeleivable'
p10295
I1
tp10296
a(S'uncivilized'
p10297
I1
tp10298
a(S'uncultured'
p10299
I1
tp10300
a(S'understable'
p10301
I1
tp10302
a(S'understood'
p10303
I1
tp10304
a(S'undesirable'
p10305
I1
tp10306
a(S'undrinkable'
p10307
I1
tp10308
a(S'unease'
p10309
I1
tp10310
a(S'uneven'
p10311
I1
tp10312
a(S'unexpected'
p10313
I1
tp10314
a(S'unfavorable'
p10315
I1
tp10316
a(S'unfocus'
p10317
I1
tp10318
a(S'unforgiving'
p10319
I1
tp10320
a(S'unhealthythe'
p10321
I1
tp10322
a(S'unimportant'
p10323
I1
tp10324
a(S'unknown'
p10325
I1
tp10326
a(S'unlivible'
p10327
I1
tp10328
a(S'unnerved'
p10329
I1
tp10330
a(S'unoccupied'
p10331
I1
tp10332
a(S'unpleasant'
p10333
I1
tp10334
a(S'unpleasantly'
p10335
I1
tp10336
a(S'unsettled'
p10337
I1
tp10338
a(S'unused'
p10339
I1
tp10340
a(S'unware'
p10341
I1
tp10342
a(S'up-hill'
p10343
I1
tp10344
a(S'upand'
p10345
I1
tp10346
a(S'updated'
p10347
I1
tp10348
a(S'upheat'
p10349
I1
tp10350
a(S'uphills'
p10351
I1
tp10352
a(S'upsemite'
p10353
I1
tp10354
a(S'urbanized'
p10355
I1
tp10356
a(S'urse'
p10357
I1
tp10358
a(S'useless'
p10359
I1
tp10360
a(S'vacation.in'
p10361
I1
tp10362
a(S'val'
p10363
I1
tp10364
a(S'valuable'
p10365
I1
tp10366
a(S'variety'
p10367
I1
tp10368
a(S'verbal'
p10369
I1
tp10370
a(S'verge'
p10371
I1
tp10372
a(S'version'
p10373
I1
tp10374
a(S'versus'
p10375
I1
tp10376
a(S'vestige'
p10377
I1
tp10378
a(S'via'
p10379
I1
tp10380
a(S'victimized'
p10381
I1
tp10382
a(S'vies'
p10383
I1
tp10384
a(S'view"(kurmaskie'
p10385
I1
tp10386
a(S'viewed'
p10387
I1
tp10388
a(S'views.\x94'
p10389
I1
tp10390
a(S'vigorous.the'
p10391
I1
tp10392
a(S'visited'
p10393
I1
tp10394
a(S'volcanoes'
p10395
I1
tp10396
a(S'vukor'
p10397
I1
tp10398
a(S'vulture'
p10399
I1
tp10400
a(S'wading'
p10401
I1
tp10402
a(S'wahile'
p10403
I1
tp10404
a(S'waiter'
p10405
I1
tp10406
a(S'wald'
p10407
I1
tp10408
a(S'walrus'
p10409
I1
tp10410
a(S'wantedthe'
p10411
I1
tp10412
a(S'war.\x94'
p10413
I1
tp10414
a(S'warmer'
p10415
I1
tp10416
a(S'warms'
p10417
I1
tp10418
a(S'war\x92'
p10419
I1
tp10420
a(S"was''"
p10421
I1
tp10422
a(S'was.the'
p10423
I1
tp10424
a(S'wash'
p10425
I1
tp10426
a(S'wasthe'
p10427
I1
tp10428
a(S'wastland'
p10429
I1
tp10430
a(S'wat'
p10431
I1
tp10432
a(S'wate'
p10433
I1
tp10434
a(S'water)'
p10435
I1
tp10436
a(S'water,and'
p10437
I1
tp10438
a(S'water,but'
p10439
I1
tp10440
a(S'water-deplety'
p10441
I1
tp10442
a(S'water.as'
p10443
I1
tp10444
a(S'water.cycling'
p10445
I1
tp10446
a(S'water.he'
p10447
I1
tp10448
a(S'water.i'
p10449
I1
tp10450
a(S'water.there'
p10451
I1
tp10452
a(S'water.this'
p10453
I1
tp10454
a(S'water.varias'
p10455
I1
tp10456
a(S'water.\x94so'
p10457
I1
tp10458
a(S'waterbottle'
p10459
I1
tp10460
a(S'waterdepleting'
p10461
I1
tp10462
a(S'waterless'
p10463
I1
tp10464
a(S'wateron'
p10465
I1
tp10466
a(S'waters'
p10467
I1
tp10468
a(S'watersthe'
p10469
I1
tp10470
a(S'water\x94'
p10471
I1
tp10472
a(S'watrer'
p10473
I1
tp10474
a(S'watter'
p10475
I1
tp10476
a(S'watwer'
p10477
I1
tp10478
a(S'wave'
p10479
I1
tp10480
a(S'way,which'
p10481
I1
tp10482
a(S'way.in'
p10483
I1
tp10484
a(S'way.it'
p10485
I1
tp10486
a(S'wayin'
p10487
I1
tp10488
a(S'ways.for'
p10489
I1
tp10490
a(S'ways.it'
p10491
I1
tp10492
a(S'ways.when'
p10493
I1
tp10494
a(S'waysthe'
p10495
I1
tp10496
a(S'waythe'
p10497
I1
tp10498
a(S'way\x94'
p10499
I1
tp10500
a(S'weaken'
p10501
I1
tp10502
a(S'weakening'
p10503
I1
tp10504
a(S'weath'
p10505
I1
tp10506
a(S'weed'
p10507
I1
tp10508
a(S'week'
p10509
I1
tp10510
a(S'weeks'
p10511
I1
tp10512
a(S'weird'
p10513
I1
tp10514
a(S'welch'
p10515
I1
tp10516
a(S'welche\x92s'
p10517
I1
tp10518
a(S'welchs'
p10519
I1
tp10520
a(S'welch\x91s'
p10521
I1
tp10522
a(S'well.\x94'
p10523
I1
tp10524
a(S'welming'
p10525
I1
tp10526
a(S'were.the'
p10527
I1
tp10528
a(S'weremany'
p10529
I1
tp10530
a(S"weren't"
p10531
I1
tp10532
a(S'werent'
p10533
I1
tp10534
a(S'werry'
p10535
I1
tp10536
a(S'wesstern'
p10537
I1
tp10538
a(S'west'
p10539
I1
tp10540
a(S'wet'
p10541
I1
tp10542
a(S'weter'
p10543
I1
tp10544
a(S'we\x92re'
p10545
I1
tp10546
a(S'whats'
p10547
I1
tp10548
a(S'wheather'
p10549
I1
tp10550
a(S'whelches'
p10551
I1
tp10552
a(S'whelming'
p10553
I1
tp10554
a(S'where.several'
p10555
I1
tp10556
a(S'wherever'
p10557
I1
tp10558
a(S'whinedy'
p10559
I1
tp10560
a(S'whollmed'
p10561
I1
tp10562
a(S'whose'
p10563
I1
tp10564
a(S'wi'
p10565
I1
tp10566
a(S'wicked'
p10567
I1
tp10568
a(S'wid'
p10569
I1
tp10570
a(S'wilbells'
p10571
I1
tp10572
a(S'wilber\x94'
p10573
I1
tp10574
a(S'will.the'
p10575
I1
tp10576
a(S'willed'
p10577
I1
tp10578
a(S'willingness'
p10579
I1
tp10580
a(S'wills'
p10581
I1
tp10582
a(S'win.the'
p10583
I1
tp10584
a(S'wind'
p10585
I1
tp10586
a(S'winday'
p10587
I1
tp10588
a(S'winded'
p10589
I1
tp10590
a(S'wings'
p10591
I1
tp10592
a(S'winning'
p10593
I1
tp10594
a(S'winning!the'
p10595
I1
tp10596
a(S'winston'
p10597
I1
tp10598
a(S'wipes'
p10599
I1
tp10600
a(S'wiping'
p10601
I1
tp10602
a(S'wiredy'
p10603
I1
tp10604
a(S'wirte'
p10605
I1
tp10606
a(S'wisdom.\x94'
p10607
I1
tp10608
a(S'wise.the'
p10609
I1
tp10610
a(S'wisely'
p10611
I1
tp10612
a(S'wish'
p10613
I1
tp10614
a(S'wish.many'
p10615
I1
tp10616
a(S'with.in'
p10617
I1
tp10618
a(S'withen'
p10619
I1
tp10620
a(S'withought'
p10621
I1
tp10622
a(S'witnessed'
p10623
I1
tp10624
a(S'wn'
p10625
I1
tp10626
a(S'wobbling'
p10627
I1
tp10628
a(S'wold'
p10629
I1
tp10630
a(S"won't"
p10631
I1
tp10632
a(S'wonder'
p10633
I1
tp10634
a(S'wonderful.weather'
p10635
I1
tp10636
a(S'woods'
p10637
I1
tp10638
a(S'woohoo!'
p10639
I1
tp10640
a(S'words,\x93sometimes'
p10641
I1
tp10642
a(S'words,\x93this'
p10643
I1
tp10644
a(S'work.in'
p10645
I1
tp10646
a(S'workout'
p10647
I1
tp10648
a(S'worng'
p10649
I1
tp10650
a(S'worrie'
p10651
I1
tp10652
a(S'worried,but'
p10653
I1
tp10654
a(S'worries'
p10655
I1
tp10656
a(S'worry\x94'
p10657
I1
tp10658
a(S'worse.it'
p10659
I1
tp10660
a(S'worsed'
p10661
I1
tp10662
a(S'wose'
p10663
I1
tp10664
a(S'wouldint'
p10665
I1
tp10666
a(S'wouldve'
p10667
I1
tp10668
a(S'wount'
p10669
I1
tp10670
a(S'write'
p10671
I1
tp10672
a(S'writer\x92s'
p10673
I1
tp10674
a(S'wrong.during'
p10675
I1
tp10676
a(S'wrongly'
p10677
I1
tp10678
a(S'wt'
p10679
I1
tp10680
a(S'wuold'
p10681
I1
tp10682
a(S'ya'
p10683
I1
tp10684
a(S'yellced'
p10685
I1
tp10686
a(S'yellow'
p10687
I1
tp10688
a(S'yesterday'
p10689
I1
tp10690
a(S'yo'
p10691
I1
tp10692
a(S'yosemite,\x94'
p10693
I1
tp10694
a(S'yosemite.the'
p10695
I1
tp10696
a(S'yosemite;'
p10697
I1
tp10698
a(S'yosemite\x94'
p10699
I1
tp10700
a(S'yosemitre'
p10701
I1
tp10702
a(S'yosomite'
p10703
I1
tp10704
a(S'you...\x94(kurmaskie'
p10705
I1
tp10706
a(S'you.in'
p10707
I1
tp10708
a(S'youg'
p10709
I1
tp10710
a(S'youknow'
p10711
I1
tp10712
a(S'yourself.the'
p10713
I1
tp10714
a(S'yousome'
p10715
I1
tp10716
a(S'yuuth,\x94'
p10717
I1
tp10718
a(S'\x91high'
p10719
I1
tp10720
a(S'\x91ramshackle'
p10721
I1
tp10722
a(S'\x91rough'
p10723
I1
tp10724
a(S'\x91s'
p10725
I1
tp10726
a(S'\x91shack'
p10727
I1
tp10728
a(S'\x91the'
p10729
I1
tp10730
a(S'\x91town.\x92'
p10731
I1
tp10732
a(S'\x91town\x92'
p10733
I1
tp10734
a(S'\x93(kurmaskie).in'
p10735
I1
tp10736
a(S'\x93(pg'
p10737
I1
tp10738
a(S'\x93...,by'
p10739
I1
tp10740
a(S'\x93...i'
p10741
I1
tp10742
a(S'\x93...it'
p10743
I1
tp10744
a(S'\x93.by'
p10745
I1
tp10746
a(S'\x9312'
p10747
I1
tp10748
a(S'\x93@caps1\x92t'
p10749
I1
tp10750
a(S'\x93@caps1\x94'
p10751
I1
tp10752
a(S'\x93@caps2'
p10753
I1
tp10754
a(S'\x93@num1'
p10755
I1
tp10756
a(S'\x93@person1\x92s'
p10757
I1
tp10758
a(S'\x93[he]'
p10759
I1
tp10760
a(S'\x93[the]'
p10761
I1
tp10762
a(S'\x93abandoned'
p10763
I1
tp10764
a(S'\x93an'
p10765
I1
tp10766
a(S'\x93arrived'
p10767
I1
tp10768
a(S'\x93because'
p10769
I1
tp10770
a(S'\x93beginning'
p10771
I1
tp10772
a(S'\x93behind\x94'
p10773
I1
tp10774
a(S'\x93brackish.\x94'
p10775
I1
tp10776
a(S'\x93burning'
p10777
I1
tp10778
a(S'\x93but'
p10779
I1
tp10780
a(S'\x93by'
p10781
I1
tp10782
a(S'\x93came'
p10783
I1
tp10784
a(S'\x93chuckled'
p10785
I1
tp10786
a(S'\x93codgens\x94'
p10787
I1
tp10788
a(S'\x93codgers\x94'
p10789
I1
tp10790
a(S'\x93could'
p10791
I1
tp10792
a(S'\x93crippling'
p10793
I1
tp10794
a(S'\x93crippling\x93'
p10795
I1
tp10796
a(S'\x93death.\x94'
p10797
I1
tp10798
a(S'\x93dehydrated'
p10799
I1
tp10800
a(S'\x93dehydration\x94'
p10801
I1
tp10802
a(S'\x93devation\x94'
p10803
I1
tp10804
a(S'\x93diamondback-'
p10805
I1
tp10806
a(S'\x93drank'
p10807
I1
tp10808
a(S'\x93dropping\x94'
p10809
I1
tp10810
a(S'\x93dry'
p10811
I1
tp10812
a(S'\x93d\x94'
p10813
I1
tp10814
a(S'\x93early'
p10815
I1
tp10816
a(S'\x93ease'
p10817
I1
tp10818
a(S'\x93enjoyed'
p10819
I1
tp10820
a(S'\x93fish'
p10821
I1
tp10822
a(S'\x93followed'
p10823
I1
tp10824
a(S'\x93gathered'
p10825
I1
tp10826
a(S'\x93gorgeous'
p10827
I1
tp10828
a(S'\x93have'
p10829
I1
tp10830
a(S'\x93heatroke.\x94the'
p10831
I1
tp10832
a(S'\x93helped\x94'
p10833
I1
tp10834
a(S'\x93helping\x94'
p10835
I1
tp10836
a(S'\x93hope'
p10837
I1
tp10838
a(S'\x93inner'
p10839
I1
tp10840
a(S'\x93into'
p10841
I1
tp10842
a(S'\x93i\x94'
p10843
I1
tp10844
a(S'\x93journey\x94'
p10845
I1
tp10846
a(S'\x93know'
p10847
I1
tp10848
a(S'\x93life'
p10849
I1
tp10850
a(S'\x93lodges'
p10851
I1
tp10852
a(S'\x93long\x94'
p10853
I1
tp10854
a(S'\x93might'
p10855
I1
tp10856
a(S'\x93neihbor'
p10857
I1
tp10858
a(S'\x93nothing'
p10859
I1
tp10860
a(S'\x93of'
p10861
I1
tp10862
a(S'\x93pavement'
p10863
I1
tp10864
a(S'\x93ram-shackle'
p10865
I1
tp10866
a(S'\x93ramshackeled'
p10867
I1
tp10868
a(S'\x93rather'
p10869
I1
tp10870
a(S'\x93really'
p10871
I1
tp10872
a(S'\x93rediculously'
p10873
I1
tp10874
a(S'\x93replaced'
p10875
I1
tp10876
a(S'\x93run-down\x94'
p10877
I1
tp10878
a(S'\x93rushing'
p10879
I1
tp10880
a(S'\x93rusted'
p10881
I1
tp10882
a(S'\x93sad'
p10883
I1
tp10884
a(S'\x93sandblasted'
p10885
I1
tp10886
a(S'\x93serenity'
p10887
I1
tp10888
a(S'\x93serenity\x94'
p10889
I1
tp10890
a(S'\x93set'
p10891
I1
tp10892
a(S'\x93several'
p10893
I1
tp10894
a(S'\x93short-cut.\x94'
p10895
I1
tp10896
a(S'\x93shortcut.\x94'
p10897
I1
tp10898
a(S'\x93sight'
p10899
I1
tp10900
a(S'\x93slowly'
p10901
I1
tp10902
a(S'\x93smile'
p10903
I1
tp10904
a(S'\x93so'
p10905
I1
tp10906
a(S'\x93some'
p10907
I1
tp10908
a(S'\x93somehow'
p10909
I1
tp10910
a(S'\x93somewhere'
p10911
I1
tp10912
a(S'\x93summertime'
p10913
I1
tp10914
a(S'\x93summertime\x94'
p10915
I1
tp10916
a(S'\x93take'
p10917
I1
tp10918
a(S'\x93tantalizing'
p10919
I1
tp10920
a(S'\x93tarlike\x94'
p10921
I1
tp10922
a(S'\x93test'
p10923
I1
tp10924
a(S'\x93they\x92d'
p10925
I1
tp10926
a(S'\x93toiled\x94'
p10927
I1
tp10928
a(S'\x93toun\x94'
p10929
I1
tp10930
a(S'\x93town,\x94'
p10931
I1
tp10932
a(S'\x93town.\x94'
p10933
I1
tp10934
a(S'\x93to\x94'
p10935
I1
tp10936
a(S'\x93tumble'
p10937
I1
tp10938
a(S'\x93two'
p10939
I1
tp10940
a(S'\x93water-depleting'
p10941
I1
tp10942
a(S'\x93what'
p10943
I1
tp10944
a(S'\x93which'
p10945
I1
tp10946
a(S'\x93wise'
p10947
I1
tp10948
a(S'\x93working'
p10949
I1
tp10950
a(S'\x93yes'
p10951
I1
tp10952
a(S'\x93yes-'
p10953
I1
tp10954
a(S'\x93yosemite.\x94the'
p10955
I1
tp10956
a(S'\x94(kurmaskie'
p10957
I1
tp10958
a(S'\x94as'
p10959
I1
tp10960
a(S'\x94by'
p10961
I1
tp10962
a(S'\x94flat'
p10963
I1
tp10964
a(S'\x94in'
p10965
I1
tp10966
a(S'\x94rough'
p10967
I1
tp10968
a(S'\x94the'
p10969
I1
tp10970
a(S'\x94this'
p10971
I1
tp10972
a(S'\x94wide'
p10973
I1
tp10974
a(S'\x96all'
p10975
I1
tp10976
a(S'\x96ans'
p10977
I1
tp10978
a(S'\x96hundred'
p10979
I1
tp10980
a(S'\x96say'
p10981
I1
tp10982
a(S'\x96timers'
p10983
I1
tp10984
a(S'\x96\x93tumble'
p10985
I1
tp10986
a.